
ProofService-CubeIDE.elf:     file format elf32-littlearm

Sections:
Idx Name          Size      VMA       LMA       File off  Algn
  0 .text         0000d608  20000000  20000000  00001000  2**3
                  CONTENTS, ALLOC, LOAD, RELOC, READONLY, CODE
  1 .preinit_array 00000000  2000d608  2000d96c  0000e96c  2**0
                  CONTENTS, ALLOC, LOAD, DATA
  2 .init_array   00000008  2000d608  2000d608  0000e608  2**2
                  CONTENTS, ALLOC, LOAD, RELOC, READONLY, DATA
  3 .fini_array   00000004  2000d610  2000d610  0000e610  2**2
                  CONTENTS, ALLOC, LOAD, RELOC, READONLY, DATA
  4 .ARM.exidx.text.unlikely._ZSt17__throw_bad_allocv 00000008  2000d614  2000d614  0000e614  2**2
                  CONTENTS, ALLOC, LOAD, RELOC, READONLY, DATA
  5 .ARM.exidx.text.unlikely._ZSt28__throw_bad_array_new_lengthv 00000008  2000d61c  2000d61c  0000e61c  2**2
                  CONTENTS, ALLOC, LOAD, RELOC, READONLY, DATA
  6 .ARM.exidx.text._ZNSt19_Sp_make_shared_tag5_S_eqERKSt9type_info 00000008  2000d624  2000d624  0000e624  2**2
                  CONTENTS, ALLOC, LOAD, RELOC, READONLY, DATA
  7 .ARM.exidx.text._ZNKSt9bad_alloc4whatEv 00000000  2000d62c  2000d62c  0000e62c  2**2
                  CONTENTS, ALLOC, LOAD, RELOC, READONLY, DATA
  8 .ARM.exidx.text._ZNSt9bad_allocD2Ev 00000000  2000d62c  2000d62c  0000e62c  2**2
                  CONTENTS, ALLOC, LOAD, RELOC, READONLY, DATA
  9 .ARM.exidx.text._ZNSt9bad_allocD0Ev 00000000  2000d62c  2000d62c  0000e62c  2**2
                  CONTENTS, ALLOC, LOAD, RELOC, READONLY, DATA
 10 .ARM.exidx.text._ZNKSt20bad_array_new_length4whatEv 00000000  2000d62c  2000d62c  0000e62c  2**2
                  CONTENTS, ALLOC, LOAD, RELOC, READONLY, DATA
 11 .ARM.exidx.text._ZNSt20bad_array_new_lengthD2Ev 00000000  2000d62c  2000d62c  0000e62c  2**2
                  CONTENTS, ALLOC, LOAD, RELOC, READONLY, DATA
 12 .ARM.exidx.text._ZNSt20bad_array_new_lengthD0Ev 00000000  2000d62c  2000d62c  0000e62c  2**2
                  CONTENTS, ALLOC, LOAD, RELOC, READONLY, DATA
 13 .ARM.exidx.text._ZNK10__cxxabiv117__class_type_info11__do_upcastEPKS0_PPv 00000008  2000d62c  2000d62c  0000e62c  2**2
                  CONTENTS, ALLOC, LOAD, RELOC, READONLY, DATA
 14 .ARM.exidx.text._ZNK10__cxxabiv117__class_type_info20__do_find_public_srcEiPKvPKS0_S2_ 00000008  2000d634  2000d634  0000e634  2**2
                  CONTENTS, ALLOC, LOAD, RELOC, READONLY, DATA
 15 .ARM.exidx.text._ZN10__cxxabiv117__class_type_infoD2Ev 00000000  2000d63c  2000d63c  0000e63c  2**2
                  CONTENTS, ALLOC, LOAD, RELOC, READONLY, DATA
 16 .ARM.exidx.text._ZN10__cxxabiv117__class_type_infoD0Ev 00000000  2000d63c  2000d63c  0000e63c  2**2
                  CONTENTS, ALLOC, LOAD, RELOC, READONLY, DATA
 17 .ARM.exidx.text._ZNK10__cxxabiv117__class_type_info12__do_dyncastEiNS0_10__sub_kindEPKS0_PKvS3_S5_RNS0_16__dyncast_resultE 00000000  2000d63c  2000d63c  0000e63c  2**2
                  CONTENTS, ALLOC, LOAD, RELOC, READONLY, DATA
 18 .ARM.exidx.text._ZNK10__cxxabiv117__class_type_info11__do_upcastEPKS0_PKvRNS0_15__upcast_resultE 00000000  2000d63c  2000d63c  0000e63c  2**2
                  CONTENTS, ALLOC, LOAD, RELOC, READONLY, DATA
 19 .ARM.exidx.text._ZNK10__cxxabiv117__class_type_info10__do_catchEPKSt9type_infoPPvj 00000000  2000d63c  2000d63c  0000e63c  2**2
                  CONTENTS, ALLOC, LOAD, RELOC, READONLY, DATA
 20 .ARM.exidx.text._ZN12_GLOBAL__N_14pool4freeEPv.constprop.0 00000000  2000d63c  2000d63c  0000e63c  2**2
                  CONTENTS, ALLOC, LOAD, RELOC, READONLY, DATA
 21 .ARM.exidx.text._ZN12_GLOBAL__N_14pool8allocateEj.constprop.0 00000000  2000d63c  2000d63c  0000e63c  2**2
                  CONTENTS, ALLOC, LOAD, RELOC, READONLY, DATA
 22 .ARM.exidx.text.__cxa_allocate_exception 00000000  2000d63c  2000d63c  0000e63c  2**2
                  CONTENTS, ALLOC, LOAD, RELOC, READONLY, DATA
 23 .ARM.exidx.text.__cxa_free_exception 00000000  2000d63c  2000d63c  0000e63c  2**2
                  CONTENTS, ALLOC, LOAD, RELOC, READONLY, DATA
 24 .ARM.exidx.text.startup._GLOBAL__sub_I__ZN9__gnu_cxx9__freeresEv 00000000  2000d63c  2000d63c  0000e63c  2**2
                  CONTENTS, ALLOC, LOAD, RELOC, READONLY, DATA
 25 .ARM.exidx.text.__cxa_type_match 00000008  2000d63c  2000d63c  0000e63c  2**2
                  CONTENTS, ALLOC, LOAD, RELOC, READONLY, DATA
 26 .ARM.exidx.text.__cxa_begin_cleanup 00000008  2000d644  2000d644  0000e644  2**2
                  CONTENTS, ALLOC, LOAD, RELOC, READONLY, DATA
 27 .ARM.exidx.text.__gnu_end_cleanup 00000000  2000d64c  2000d64c  0000e64c  2**2
                  CONTENTS, ALLOC, LOAD, RELOC, READONLY, DATA
 28 .ARM.exidx.text._ZNSt9exceptionD2Ev 00000000  2000d64c  2000d64c  0000e64c  2**2
                  CONTENTS, ALLOC, LOAD, RELOC, READONLY, DATA
 29 .ARM.exidx.text._ZNSt13bad_exceptionD2Ev 00000000  2000d64c  2000d64c  0000e64c  2**2
                  CONTENTS, ALLOC, LOAD, RELOC, READONLY, DATA
 30 .ARM.exidx.text._ZNKSt13bad_exception4whatEv 00000000  2000d64c  2000d64c  0000e64c  2**2
                  CONTENTS, ALLOC, LOAD, RELOC, READONLY, DATA
 31 .ARM.exidx.text._ZNSt13bad_exceptionD0Ev 00000000  2000d64c  2000d64c  0000e64c  2**2
                  CONTENTS, ALLOC, LOAD, RELOC, READONLY, DATA
 32 .ARM.exidx.text.__cxa_get_globals_fast 00000000  2000d64c  2000d64c  0000e64c  2**2
                  CONTENTS, ALLOC, LOAD, RELOC, READONLY, DATA
 33 .ARM.exidx.text.__cxa_get_globals 00000000  2000d64c  2000d64c  0000e64c  2**2
                  CONTENTS, ALLOC, LOAD, RELOC, READONLY, DATA
 34 .ARM.exidx.text._ZL28read_encoded_value_with_basehjPKhPj 00000008  2000d64c  2000d64c  0000e64c  2**2
                  CONTENTS, ALLOC, LOAD, RELOC, READONLY, DATA
 35 .ARM.exidx.text._ZL21base_of_encoded_valuehP15_Unwind_Context 00000008  2000d654  2000d654  0000e654  2**2
                  CONTENTS, ALLOC, LOAD, RELOC, READONLY, DATA
 36 .ARM.exidx.text._ZL17parse_lsda_headerP15_Unwind_ContextPKhP16lsda_header_info 00000008  2000d65c  2000d65c  0000e65c  2**2
                  CONTENTS, ALLOC, LOAD, RELOC, READONLY, DATA
 37 .ARM.exidx.text.__gxx_personality_v0 00000008  2000d664  2000d664  0000e664  2**2
                  CONTENTS, ALLOC, LOAD, RELOC, READONLY, DATA
 38 .ARM.exidx.text._ZN10__cxxabiv111__terminateEPFvvE 00000008  2000d66c  2000d66c  0000e66c  2**2
                  CONTENTS, ALLOC, LOAD, RELOC, READONLY, DATA
 39 .ARM.exidx.text._ZSt9terminatev 00000008  2000d674  2000d674  0000e674  2**2
                  CONTENTS, ALLOC, LOAD, RELOC, READONLY, DATA
 40 .ARM.exidx.text._ZN10__cxxabiv112__unexpectedEPFvvE 00000008  2000d67c  2000d67c  0000e67c  2**2
                  CONTENTS, ALLOC, LOAD, RELOC, READONLY, DATA
 41 .ARM.exidx.text._ZSt10unexpectedv 00000008  2000d684  2000d684  0000e684  2**2
                  CONTENTS, ALLOC, LOAD, RELOC, READONLY, DATA
 42 .ARM.exidx.text._ZSt13get_terminatev 00000008  2000d68c  2000d68c  0000e68c  2**2
                  CONTENTS, ALLOC, LOAD, RELOC, READONLY, DATA
 43 .ARM.exidx.text._ZSt14get_unexpectedv 00000000  2000d694  2000d694  0000e694  2**2
                  CONTENTS, ALLOC, LOAD, RELOC, READONLY, DATA
 44 .ARM.exidx.text._ZL23__gxx_exception_cleanup19_Unwind_Reason_CodeP21_Unwind_Control_Block 00000008  2000d694  2000d694  0000e694  2**2
                  CONTENTS, ALLOC, LOAD, RELOC, READONLY, DATA
 45 .ARM.exidx.text.__cxa_init_primary_exception 00000008  2000d69c  2000d69c  0000e69c  2**2
                  CONTENTS, ALLOC, LOAD, RELOC, READONLY, DATA
 46 .ARM.exidx.text.__cxa_throw 00000008  2000d6a4  2000d6a4  0000e6a4  2**2
                  CONTENTS, ALLOC, LOAD, RELOC, READONLY, DATA
 47 .ARM.exidx.text.__cxa_rethrow 00000008  2000d6ac  2000d6ac  0000e6ac  2**2
                  CONTENTS, ALLOC, LOAD, RELOC, READONLY, DATA
 48 .ARM.exidx.text._ZN10__cxxabiv120__si_class_type_infoD2Ev 00000008  2000d6b4  2000d6b4  0000e6b4  2**2
                  CONTENTS, ALLOC, LOAD, RELOC, READONLY, DATA
 49 .ARM.exidx.text._ZN10__cxxabiv120__si_class_type_infoD0Ev 00000000  2000d6bc  2000d6bc  0000e6bc  2**2
                  CONTENTS, ALLOC, LOAD, RELOC, READONLY, DATA
 50 .ARM.exidx.text._ZNK10__cxxabiv120__si_class_type_info20__do_find_public_srcEiPKvPKNS_17__class_type_infoES2_ 00000000  2000d6bc  2000d6bc  0000e6bc  2**2
                  CONTENTS, ALLOC, LOAD, RELOC, READONLY, DATA
 51 .ARM.exidx.text._ZNK10__cxxabiv120__si_class_type_info12__do_dyncastEiNS_17__class_type_info10__sub_kindEPKS1_PKvS4_S6_RNS1_16__dyncast_resultE 00000000  2000d6bc  2000d6bc  0000e6bc  2**2
                  CONTENTS, ALLOC, LOAD, RELOC, READONLY, DATA
 52 .ARM.exidx.text._ZNK10__cxxabiv120__si_class_type_info11__do_upcastEPKNS_17__class_type_infoEPKvRNS1_15__upcast_resultE 00000008  2000d6bc  2000d6bc  0000e6bc  2**2
                  CONTENTS, ALLOC, LOAD, RELOC, READONLY, DATA
 53 .ARM.exidx.text._ZNSt9type_infoD2Ev 00000008  2000d6c4  2000d6c4  0000e6c4  2**2
                  CONTENTS, ALLOC, LOAD, RELOC, READONLY, DATA
 54 .ARM.exidx.text._ZNKSt9type_info14__is_pointer_pEv 00000000  2000d6cc  2000d6cc  0000e6cc  2**2
                  CONTENTS, ALLOC, LOAD, RELOC, READONLY, DATA
 55 .ARM.exidx.text._ZNKSt9type_infoeqERKS_ 00000000  2000d6cc  2000d6cc  0000e6cc  2**2
                  CONTENTS, ALLOC, LOAD, RELOC, READONLY, DATA
 56 .ARM.exidx.text._ZN9__gnu_cxx27__verbose_terminate_handlerEv 00000008  2000d6cc  2000d6cc  0000e6cc  2**2
                  CONTENTS, ALLOC, LOAD, RELOC, READONLY, DATA
 57 .ARM.exidx.text._ZN10__cxxabiv1L24__is_gxx_exception_classEPc 00000008  2000d6d4  2000d6d4  0000e6d4  2**2
                  CONTENTS, ALLOC, LOAD, RELOC, READONLY, DATA
 58 .ARM.exidx.text.__cxa_call_terminate 00000000  2000d6dc  2000d6dc  0000e6dc  2**2
                  CONTENTS, ALLOC, LOAD, RELOC, READONLY, DATA
 59 .ARM.exidx.text.unlikely.__cxa_call_unexpected 00000008  2000d6dc  2000d6dc  0000e6dc  2**2
                  CONTENTS, ALLOC, LOAD, RELOC, READONLY, DATA
 60 .ARM.exidx.text.__cxa_begin_catch 00000008  2000d6e4  2000d6e4  0000e6e4  2**2
                  CONTENTS, ALLOC, LOAD, RELOC, READONLY, DATA
 61 .ARM.exidx.text.__cxa_end_catch 00000008  2000d6ec  2000d6ec  0000e6ec  2**2
                  CONTENTS, ALLOC, LOAD, RELOC, READONLY, DATA
 62 .ARM.exidx.text.__cxa_current_exception_type 00000000  2000d6f4  2000d6f4  0000e6f4  2**2
                  CONTENTS, ALLOC, LOAD, RELOC, READONLY, DATA
 63 .plt          00000000  2000d6f4  2000d96c  0000e96c  2**0
                  CONTENTS, ALLOC, LOAD, CODE
 64 .data         0000020c  2000d6f8  2000d6f8  0000e6f8  2**3
                  CONTENTS, ALLOC, LOAD, RELOC, DATA
 65 .got          00000068  2000d904  2000d904  0000e904  2**2
                  CONTENTS, ALLOC, LOAD, DATA
 66 .bss          00000164  2000d970  2000d970  0000e96c  2**3
                  ALLOC
 67 .stack        00002800  2000dad4  2000dad4  0000e96c  2**0
                  ALLOC
 68 .ARM.attributes 00000038  00000000  00000000  0000e96c  2**0
                  CONTENTS, READONLY
 69 .debug_info   00012f97  00000000  00000000  0000e9a4  2**0
                  CONTENTS, RELOC, READONLY, DEBUGGING, OCTETS
 70 .debug_abbrev 0000209e  00000000  00000000  0002193b  2**0
                  CONTENTS, READONLY, DEBUGGING, OCTETS
 71 .debug_aranges 000007c8  00000000  00000000  000239d9  2**0
                  CONTENTS, RELOC, READONLY, DEBUGGING, OCTETS
 72 .debug_rnglists 000005d1  00000000  00000000  000241a1  2**0
                  CONTENTS, RELOC, READONLY, DEBUGGING, OCTETS
 73 .debug_macro  00005a58  00000000  00000000  00024772  2**0
                  CONTENTS, RELOC, READONLY, DEBUGGING, OCTETS
 74 .debug_line   00006624  00000000  00000000  0002a1ca  2**0
                  CONTENTS, RELOC, READONLY, DEBUGGING, OCTETS
 75 .debug_str    0001edbe  00000000  00000000  000307ee  2**0
                  CONTENTS, READONLY, DEBUGGING, OCTETS
 76 .comment      00000043  00000000  00000000  0004f5ac  2**0
                  CONTENTS, READONLY
 77 .debug_frame  000036bc  00000000  00000000  0004f5f0  2**2
                  CONTENTS, RELOC, READONLY, DEBUGGING, OCTETS

Disassembly of section .text:

20000000 <AppStart>:
20000000:	4681      	mov	r9, r0
20000002:	4a0a      	ldr	r2, [pc, #40]	@ (2000002c <LoopFillZerobss+0x20>)
20000004:	e002      	b.n	2000000c <LoopFillZerobss>

20000006 <FillZerobss>:
20000006:	2300      	movs	r3, #0
20000008:	f842 3b04 	str.w	r3, [r2], #4

2000000c <LoopFillZerobss>:
2000000c:	4b08      	ldr	r3, [pc, #32]	@ (20000030 <LoopFillZerobss+0x24>)
2000000e:	429a      	cmp	r2, r3
20000010:	d3f9      	bcc.n	20000006 <FillZerobss>
20000012:	f00a faf5 	bl	2000a600 <__una_init_kernel>
20000016:	f00a fb1b 	bl	2000a650 <__una_init_array>
2000001a:	f009 fe59 	bl	20009cd0 <main>
2000001e:	f00a fb5b 	bl	2000a6d8 <__una_fini_array>
20000022:	f05f 30ff 	movs.w	r0, #4294967295
20000026:	f00a fc97 	bl	2000a958 <exit>
2000002a:	4770      	bx	lr
2000002c:	2000d970 	.word	0x2000d970
20000030:	2000dad4 	.word	0x2000dad4

20000034 <d_make_comp>:
20000034:	2931      	cmp	r1, #49	@ 0x31
20000036:	4684      	mov	ip, r0
20000038:	b570      	push	{r4, r5, r6, lr}
2000003a:	d83c      	bhi.n	200000b6 <d_make_comp+0x82>
2000003c:	2928      	cmp	r1, #40	@ 0x28
2000003e:	d90a      	bls.n	20000056 <d_make_comp+0x22>
20000040:	f1a1 0029 	sub.w	r0, r1, #41	@ 0x29
20000044:	2808      	cmp	r0, #8
20000046:	d834      	bhi.n	200000b2 <d_make_comp+0x7e>
20000048:	e8df f000 	tbb	[pc, r0]
2000004c:	3318191a 	.word	0x3318191a
20000050:	411a1a18 	.word	0x411a1a18
20000054:	19          	.byte	0x19
20000055:	00          	.byte	0x00
20000056:	290a      	cmp	r1, #10
20000058:	d90e      	bls.n	20000078 <d_make_comp+0x44>
2000005a:	f1a1 000b 	sub.w	r0, r1, #11
2000005e:	2401      	movs	r4, #1
20000060:	b2c0      	uxtb	r0, r0
20000062:	4084      	lsls	r4, r0
20000064:	482d      	ldr	r0, [pc, #180]	@ (2000011c <d_make_comp+0xe8>)
20000066:	4020      	ands	r0, r4
20000068:	bb88      	cbnz	r0, 200000ce <d_make_comp+0x9a>
2000006a:	f414 1f7f 	tst.w	r4, #4177920	@ 0x3fc000
2000006e:	d107      	bne.n	20000080 <d_make_comp+0x4c>
20000070:	482b      	ldr	r0, [pc, #172]	@ (20000120 <d_make_comp+0xec>)
20000072:	4020      	ands	r0, r4
20000074:	b910      	cbnz	r0, 2000007c <d_make_comp+0x48>
20000076:	bd70      	pop	{r4, r5, r6, pc}
20000078:	2904      	cmp	r1, #4
2000007a:	d816      	bhi.n	200000aa <d_make_comp+0x76>
2000007c:	b1ca      	cbz	r2, 200000b2 <d_make_comp+0x7e>
2000007e:	b1c3      	cbz	r3, 200000b2 <d_make_comp+0x7e>
20000080:	e9dc 4005 	ldrd	r4, r0, [ip, #20]
20000084:	4284      	cmp	r4, r0
20000086:	da14      	bge.n	200000b2 <d_make_comp+0x7e>
20000088:	f8dc 5010 	ldr.w	r5, [ip, #16]
2000008c:	eb04 0e84 	add.w	lr, r4, r4, lsl #2
20000090:	2600      	movs	r6, #0
20000092:	3401      	adds	r4, #1
20000094:	eb05 008e 	add.w	r0, r5, lr, lsl #2
20000098:	e9c0 6601 	strd	r6, r6, [r0, #4]
2000009c:	f8cc 4014 	str.w	r4, [ip, #20]
200000a0:	f805 102e 	strb.w	r1, [r5, lr, lsl #2]
200000a4:	e9c0 2303 	strd	r2, r3, [r0, #12]
200000a8:	bd70      	pop	{r4, r5, r6, pc}
200000aa:	f1a1 0009 	sub.w	r0, r1, #9
200000ae:	2801      	cmp	r0, #1
200000b0:	d90d      	bls.n	200000ce <d_make_comp+0x9a>
200000b2:	2000      	movs	r0, #0
200000b4:	bd70      	pop	{r4, r5, r6, pc}
200000b6:	294f      	cmp	r1, #79	@ 0x4f
200000b8:	d80c      	bhi.n	200000d4 <d_make_comp+0xa0>
200000ba:	2933      	cmp	r1, #51	@ 0x33
200000bc:	d9f9      	bls.n	200000b2 <d_make_comp+0x7e>
200000be:	f1a1 0034 	sub.w	r0, r1, #52	@ 0x34
200000c2:	2401      	movs	r4, #1
200000c4:	b2c0      	uxtb	r0, r0
200000c6:	4084      	lsls	r4, r0
200000c8:	4816      	ldr	r0, [pc, #88]	@ (20000124 <d_make_comp+0xf0>)
200000ca:	4020      	ands	r0, r4
200000cc:	b1f0      	cbz	r0, 2000010c <d_make_comp+0xd8>
200000ce:	2a00      	cmp	r2, #0
200000d0:	d1d6      	bne.n	20000080 <d_make_comp+0x4c>
200000d2:	e7ee      	b.n	200000b2 <d_make_comp+0x7e>
200000d4:	f1a1 0052 	sub.w	r0, r1, #82	@ 0x52
200000d8:	2809      	cmp	r0, #9
200000da:	d8d1      	bhi.n	20000080 <d_make_comp+0x4c>
200000dc:	a401      	add	r4, pc, #4	@ (adr r4, 200000e4 <d_make_comp+0xb0>)
200000de:	f854 f020 	ldr.w	pc, [r4, r0, lsl #2]
200000e2:	bf00      	nop
200000e4:	200000cf 	.word	0x200000cf
200000e8:	2000007f 	.word	0x2000007f
200000ec:	2000007f 	.word	0x2000007f
200000f0:	2000007d 	.word	0x2000007d
200000f4:	200000cf 	.word	0x200000cf
200000f8:	200000cf 	.word	0x200000cf
200000fc:	20000081 	.word	0x20000081
20000100:	200000cf 	.word	0x200000cf
20000104:	200000cf 	.word	0x200000cf
20000108:	200000cf 	.word	0x200000cf
2000010c:	4806      	ldr	r0, [pc, #24]	@ (20000128 <d_make_comp+0xf4>)
2000010e:	4020      	ands	r0, r4
20000110:	2800      	cmp	r0, #0
20000112:	d1b3      	bne.n	2000007c <d_make_comp+0x48>
20000114:	294e      	cmp	r1, #78	@ 0x4e
20000116:	d0b3      	beq.n	20000080 <d_make_comp+0x4c>
20000118:	bd70      	pop	{r4, r5, r6, pc}
2000011a:	bf00      	nop
2000011c:	2f801ffe 	.word	0x2f801ffe
20000120:	00400001 	.word	0x00400001
20000124:	01c71107 	.word	0x01c71107
20000128:	0a002ef8 	.word	0x0a002ef8

2000012c <d_make_name>:
2000012c:	b570      	push	{r4, r5, r6, lr}
2000012e:	e9d0 4305 	ldrd	r4, r3, [r0, #20]
20000132:	429c      	cmp	r4, r3
20000134:	da1a      	bge.n	2000016c <d_make_name+0x40>
20000136:	eb04 0384 	add.w	r3, r4, r4, lsl #2
2000013a:	6906      	ldr	r6, [r0, #16]
2000013c:	4684      	mov	ip, r0
2000013e:	3401      	adds	r4, #1
20000140:	2500      	movs	r5, #0
20000142:	eb06 0083 	add.w	r0, r6, r3, lsl #2
20000146:	ea4f 0e83 	mov.w	lr, r3, lsl #2
2000014a:	e9c0 5501 	strd	r5, r5, [r0, #4]
2000014e:	f8cc 4014 	str.w	r4, [ip, #20]
20000152:	b159      	cbz	r1, 2000016c <d_make_name+0x40>
20000154:	42aa      	cmp	r2, r5
20000156:	bfcc      	ite	gt
20000158:	2300      	movgt	r3, #0
2000015a:	2301      	movle	r3, #1
2000015c:	b933      	cbnz	r3, 2000016c <d_make_name+0x40>
2000015e:	e9c0 3301 	strd	r3, r3, [r0, #4]
20000162:	f806 300e 	strb.w	r3, [r6, lr]
20000166:	e9c0 1203 	strd	r1, r2, [r0, #12]
2000016a:	bd70      	pop	{r4, r5, r6, pc}
2000016c:	2000      	movs	r0, #0
2000016e:	bd70      	pop	{r4, r5, r6, pc}

20000170 <d_number>:
20000170:	68c2      	ldr	r2, [r0, #12]
20000172:	b570      	push	{r4, r5, r6, lr}
20000174:	f892 c000 	ldrb.w	ip, [r2]
20000178:	4686      	mov	lr, r0
2000017a:	f1bc 0f6e 	cmp.w	ip, #110	@ 0x6e
2000017e:	d025      	beq.n	200001cc <d_number+0x5c>
20000180:	f1ac 0c30 	sub.w	ip, ip, #48	@ 0x30
20000184:	fa5f f38c 	uxtb.w	r3, ip
20000188:	2b09      	cmp	r3, #9
2000018a:	d82c      	bhi.n	200001e6 <d_number+0x76>
2000018c:	2600      	movs	r6, #0
2000018e:	2000      	movs	r0, #0
20000190:	f06f 4500 	mvn.w	r5, #2147483648	@ 0x80000000
20000194:	4c15      	ldr	r4, [pc, #84]	@ (200001ec <d_number+0x7c>)
20000196:	e002      	b.n	2000019e <d_number+0x2e>
20000198:	ebb0 0fd1 	cmp.w	r0, r1, lsr #3
2000019c:	dc13      	bgt.n	200001c6 <d_number+0x56>
2000019e:	3201      	adds	r2, #1
200001a0:	eb00 0080 	add.w	r0, r0, r0, lsl #2
200001a4:	f8ce 200c 	str.w	r2, [lr, #12]
200001a8:	eb0c 0040 	add.w	r0, ip, r0, lsl #1
200001ac:	7813      	ldrb	r3, [r2, #0]
200001ae:	3b30      	subs	r3, #48	@ 0x30
200001b0:	469c      	mov	ip, r3
200001b2:	b2db      	uxtb	r3, r3
200001b4:	eba5 010c 	sub.w	r1, r5, ip
200001b8:	2b09      	cmp	r3, #9
200001ba:	fba4 3101 	umull	r3, r1, r4, r1
200001be:	d9eb      	bls.n	20000198 <d_number+0x28>
200001c0:	b106      	cbz	r6, 200001c4 <d_number+0x54>
200001c2:	4240      	negs	r0, r0
200001c4:	bd70      	pop	{r4, r5, r6, pc}
200001c6:	f04f 30ff 	mov.w	r0, #4294967295
200001ca:	bd70      	pop	{r4, r5, r6, pc}
200001cc:	1c53      	adds	r3, r2, #1
200001ce:	60c3      	str	r3, [r0, #12]
200001d0:	f892 c001 	ldrb.w	ip, [r2, #1]
200001d4:	f1ac 0c30 	sub.w	ip, ip, #48	@ 0x30
200001d8:	fa5f f28c 	uxtb.w	r2, ip
200001dc:	2a09      	cmp	r2, #9
200001de:	d802      	bhi.n	200001e6 <d_number+0x76>
200001e0:	461a      	mov	r2, r3
200001e2:	2601      	movs	r6, #1
200001e4:	e7d3      	b.n	2000018e <d_number+0x1e>
200001e6:	2000      	movs	r0, #0
200001e8:	bd70      	pop	{r4, r5, r6, pc}
200001ea:	bf00      	nop
200001ec:	cccccccd 	.word	0xcccccccd

200001f0 <d_call_offset>:
200001f0:	b510      	push	{r4, lr}
200001f2:	4604      	mov	r4, r0
200001f4:	b929      	cbnz	r1, 20000202 <d_call_offset+0x12>
200001f6:	68c3      	ldr	r3, [r0, #12]
200001f8:	781a      	ldrb	r2, [r3, #0]
200001fa:	b16a      	cbz	r2, 20000218 <d_call_offset+0x28>
200001fc:	1c5a      	adds	r2, r3, #1
200001fe:	60c2      	str	r2, [r0, #12]
20000200:	7819      	ldrb	r1, [r3, #0]
20000202:	2968      	cmp	r1, #104	@ 0x68
20000204:	d017      	beq.n	20000236 <d_call_offset+0x46>
20000206:	2976      	cmp	r1, #118	@ 0x76
20000208:	d106      	bne.n	20000218 <d_call_offset+0x28>
2000020a:	4620      	mov	r0, r4
2000020c:	f7ff ffb0 	bl	20000170 <d_number>
20000210:	68e3      	ldr	r3, [r4, #12]
20000212:	781a      	ldrb	r2, [r3, #0]
20000214:	2a5f      	cmp	r2, #95	@ 0x5f
20000216:	d001      	beq.n	2000021c <d_call_offset+0x2c>
20000218:	2000      	movs	r0, #0
2000021a:	bd10      	pop	{r4, pc}
2000021c:	3301      	adds	r3, #1
2000021e:	4620      	mov	r0, r4
20000220:	60e3      	str	r3, [r4, #12]
20000222:	f7ff ffa5 	bl	20000170 <d_number>
20000226:	68e3      	ldr	r3, [r4, #12]
20000228:	781a      	ldrb	r2, [r3, #0]
2000022a:	2a5f      	cmp	r2, #95	@ 0x5f
2000022c:	d1f4      	bne.n	20000218 <d_call_offset+0x28>
2000022e:	3301      	adds	r3, #1
20000230:	2001      	movs	r0, #1
20000232:	60e3      	str	r3, [r4, #12]
20000234:	bd10      	pop	{r4, pc}
20000236:	4620      	mov	r0, r4
20000238:	f7ff ff9a 	bl	20000170 <d_number>
2000023c:	e7f3      	b.n	20000226 <d_call_offset+0x36>
2000023e:	bf00      	nop

20000240 <d_ref_qualifier>:
20000240:	b430      	push	{r4, r5}
20000242:	68c4      	ldr	r4, [r0, #12]
20000244:	460a      	mov	r2, r1
20000246:	7821      	ldrb	r1, [r4, #0]
20000248:	2952      	cmp	r1, #82	@ 0x52
2000024a:	d004      	beq.n	20000256 <d_ref_qualifier+0x16>
2000024c:	294f      	cmp	r1, #79	@ 0x4f
2000024e:	d002      	beq.n	20000256 <d_ref_qualifier+0x16>
20000250:	4610      	mov	r0, r2
20000252:	bc30      	pop	{r4, r5}
20000254:	4770      	bx	lr
20000256:	2952      	cmp	r1, #82	@ 0x52
20000258:	6ac5      	ldr	r5, [r0, #44]	@ 0x2c
2000025a:	d007      	beq.n	2000026c <d_ref_qualifier+0x2c>
2000025c:	3503      	adds	r5, #3
2000025e:	2120      	movs	r1, #32
20000260:	3401      	adds	r4, #1
20000262:	62c5      	str	r5, [r0, #44]	@ 0x2c
20000264:	2300      	movs	r3, #0
20000266:	60c4      	str	r4, [r0, #12]
20000268:	bc30      	pop	{r4, r5}
2000026a:	e6e3      	b.n	20000034 <d_make_comp>
2000026c:	3502      	adds	r5, #2
2000026e:	211f      	movs	r1, #31
20000270:	e7f6      	b.n	20000260 <d_ref_qualifier+0x20>
20000272:	bf00      	nop

20000274 <d_discriminator>:
20000274:	68c3      	ldr	r3, [r0, #12]
20000276:	781a      	ldrb	r2, [r3, #0]
20000278:	2a5f      	cmp	r2, #95	@ 0x5f
2000027a:	d001      	beq.n	20000280 <d_discriminator+0xc>
2000027c:	2001      	movs	r0, #1
2000027e:	4770      	bx	lr
20000280:	1c5a      	adds	r2, r3, #1
20000282:	b510      	push	{r4, lr}
20000284:	60c2      	str	r2, [r0, #12]
20000286:	4604      	mov	r4, r0
20000288:	785a      	ldrb	r2, [r3, #1]
2000028a:	2a5f      	cmp	r2, #95	@ 0x5f
2000028c:	d004      	beq.n	20000298 <d_discriminator+0x24>
2000028e:	f7ff ff6f 	bl	20000170 <d_number>
20000292:	2800      	cmp	r0, #0
20000294:	da10      	bge.n	200002b8 <d_discriminator+0x44>
20000296:	e00b      	b.n	200002b0 <d_discriminator+0x3c>
20000298:	3302      	adds	r3, #2
2000029a:	60c3      	str	r3, [r0, #12]
2000029c:	f7ff ff68 	bl	20000170 <d_number>
200002a0:	2800      	cmp	r0, #0
200002a2:	db05      	blt.n	200002b0 <d_discriminator+0x3c>
200002a4:	2809      	cmp	r0, #9
200002a6:	dd07      	ble.n	200002b8 <d_discriminator+0x44>
200002a8:	68e3      	ldr	r3, [r4, #12]
200002aa:	781a      	ldrb	r2, [r3, #0]
200002ac:	2a5f      	cmp	r2, #95	@ 0x5f
200002ae:	d001      	beq.n	200002b4 <d_discriminator+0x40>
200002b0:	2000      	movs	r0, #0
200002b2:	bd10      	pop	{r4, pc}
200002b4:	3301      	adds	r3, #1
200002b6:	60e3      	str	r3, [r4, #12]
200002b8:	2001      	movs	r0, #1
200002ba:	bd10      	pop	{r4, pc}

200002bc <d_count_templates_scopes>:
200002bc:	2900      	cmp	r1, #0
200002be:	f000 808f 	beq.w	200003e0 <d_count_templates_scopes+0x124>
200002c2:	b538      	push	{r3, r4, r5, lr}
200002c4:	4605      	mov	r5, r0
200002c6:	460c      	mov	r4, r1
200002c8:	68a2      	ldr	r2, [r4, #8]
200002ca:	2a01      	cmp	r2, #1
200002cc:	dc33      	bgt.n	20000336 <d_count_templates_scopes+0x7a>
200002ce:	f8d5 011c 	ldr.w	r0, [r5, #284]	@ 0x11c
200002d2:	f5b0 6f80 	cmp.w	r0, #1024	@ 0x400
200002d6:	dc2e      	bgt.n	20000336 <d_count_templates_scopes+0x7a>
200002d8:	7823      	ldrb	r3, [r4, #0]
200002da:	3201      	adds	r2, #1
200002dc:	2b41      	cmp	r3, #65	@ 0x41
200002de:	60a2      	str	r2, [r4, #8]
200002e0:	d82a      	bhi.n	20000338 <d_count_templates_scopes+0x7c>
200002e2:	2b22      	cmp	r3, #34	@ 0x22
200002e4:	d818      	bhi.n	20000318 <d_count_templates_scopes+0x5c>
200002e6:	3b01      	subs	r3, #1
200002e8:	b2da      	uxtb	r2, r3
200002ea:	2a21      	cmp	r2, #33	@ 0x21
200002ec:	d823      	bhi.n	20000336 <d_count_templates_scopes+0x7a>
200002ee:	2b21      	cmp	r3, #33	@ 0x21
200002f0:	d821      	bhi.n	20000336 <d_count_templates_scopes+0x7a>
200002f2:	e8df f003 	tbb	[pc, r3]
200002f6:	4f4f      	.short	0x4f4f
200002f8:	20206e4f 	.word	0x20206e4f
200002fc:	4f4f1d1d 	.word	0x4f4f1d1d
20000300:	4f4f4f4f 	.word	0x4f4f4f4f
20000304:	4f4f4f4f 	.word	0x4f4f4f4f
20000308:	4f4f4f4f 	.word	0x4f4f4f4f
2000030c:	4f4f204f 	.word	0x4f4f204f
20000310:	4f4f4f4f 	.word	0x4f4f4f4f
20000314:	4f4f4f4f 	.word	0x4f4f4f4f
20000318:	f1a3 0123 	sub.w	r1, r3, #35	@ 0x23
2000031c:	2201      	movs	r2, #1
2000031e:	b2c9      	uxtb	r1, r1
20000320:	408a      	lsls	r2, r1
20000322:	4930      	ldr	r1, [pc, #192]	@ (200003e4 <d_count_templates_scopes+0x128>)
20000324:	4011      	ands	r1, r2
20000326:	bba9      	cbnz	r1, 20000394 <d_count_templates_scopes+0xd8>
20000328:	0792      	lsls	r2, r2, #30
2000032a:	d148      	bne.n	200003be <d_count_templates_scopes+0x102>
2000032c:	2b33      	cmp	r3, #51	@ 0x33
2000032e:	d102      	bne.n	20000336 <d_count_templates_scopes+0x7a>
20000330:	6924      	ldr	r4, [r4, #16]
20000332:	2c00      	cmp	r4, #0
20000334:	d1c8      	bne.n	200002c8 <d_count_templates_scopes+0xc>
20000336:	bd38      	pop	{r3, r4, r5, pc}
20000338:	3b44      	subs	r3, #68	@ 0x44
2000033a:	b2da      	uxtb	r2, r3
2000033c:	2a11      	cmp	r2, #17
2000033e:	d8fa      	bhi.n	20000336 <d_count_templates_scopes+0x7a>
20000340:	2b11      	cmp	r3, #17
20000342:	d8f8      	bhi.n	20000336 <d_count_templates_scopes+0x7a>
20000344:	a201      	add	r2, pc, #4	@ (adr r2, 2000034c <d_count_templates_scopes+0x90>)
20000346:	f852 f023 	ldr.w	pc, [r2, r3, lsl #2]
2000034a:	bf00      	nop
2000034c:	20000395 	.word	0x20000395
20000350:	200003b7 	.word	0x200003b7
20000354:	200003b7 	.word	0x200003b7
20000358:	200003b7 	.word	0x200003b7
2000035c:	200003b7 	.word	0x200003b7
20000360:	20000337 	.word	0x20000337
20000364:	20000395 	.word	0x20000395
20000368:	20000395 	.word	0x20000395
2000036c:	20000395 	.word	0x20000395
20000370:	20000395 	.word	0x20000395
20000374:	20000395 	.word	0x20000395
20000378:	20000395 	.word	0x20000395
2000037c:	20000395 	.word	0x20000395
20000380:	20000395 	.word	0x20000395
20000384:	20000337 	.word	0x20000337
20000388:	20000337 	.word	0x20000337
2000038c:	20000337 	.word	0x20000337
20000390:	200003b7 	.word	0x200003b7
20000394:	68e1      	ldr	r1, [r4, #12]
20000396:	1c43      	adds	r3, r0, #1
20000398:	4628      	mov	r0, r5
2000039a:	f8c5 311c 	str.w	r3, [r5, #284]	@ 0x11c
2000039e:	f7ff ff8d 	bl	200002bc <d_count_templates_scopes>
200003a2:	6921      	ldr	r1, [r4, #16]
200003a4:	4628      	mov	r0, r5
200003a6:	f7ff ff89 	bl	200002bc <d_count_templates_scopes>
200003aa:	f8d5 311c 	ldr.w	r3, [r5, #284]	@ 0x11c
200003ae:	3b01      	subs	r3, #1
200003b0:	f8c5 311c 	str.w	r3, [r5, #284]	@ 0x11c
200003b4:	bd38      	pop	{r3, r4, r5, pc}
200003b6:	68e4      	ldr	r4, [r4, #12]
200003b8:	2c00      	cmp	r4, #0
200003ba:	d185      	bne.n	200002c8 <d_count_templates_scopes+0xc>
200003bc:	e7bb      	b.n	20000336 <d_count_templates_scopes+0x7a>
200003be:	68e1      	ldr	r1, [r4, #12]
200003c0:	780b      	ldrb	r3, [r1, #0]
200003c2:	2b05      	cmp	r3, #5
200003c4:	d1e7      	bne.n	20000396 <d_count_templates_scopes+0xda>
200003c6:	f8d5 3138 	ldr.w	r3, [r5, #312]	@ 0x138
200003ca:	3301      	adds	r3, #1
200003cc:	f8c5 3138 	str.w	r3, [r5, #312]	@ 0x138
200003d0:	e7e1      	b.n	20000396 <d_count_templates_scopes+0xda>
200003d2:	f8d5 3144 	ldr.w	r3, [r5, #324]	@ 0x144
200003d6:	68e1      	ldr	r1, [r4, #12]
200003d8:	3301      	adds	r3, #1
200003da:	f8c5 3144 	str.w	r3, [r5, #324]	@ 0x144
200003de:	e7da      	b.n	20000396 <d_count_templates_scopes+0xda>
200003e0:	4770      	bx	lr
200003e2:	bf00      	nop
200003e4:	7ffe7dec 	.word	0x7ffe7dec

200003e8 <d_index_template_argument.part.0>:
200003e8:	b920      	cbnz	r0, 200003f4 <d_index_template_argument.part.0+0xc>
200003ea:	e007      	b.n	200003fc <d_index_template_argument.part.0+0x14>
200003ec:	b139      	cbz	r1, 200003fe <d_index_template_argument.part.0+0x16>
200003ee:	6900      	ldr	r0, [r0, #16]
200003f0:	3901      	subs	r1, #1
200003f2:	b130      	cbz	r0, 20000402 <d_index_template_argument.part.0+0x1a>
200003f4:	7803      	ldrb	r3, [r0, #0]
200003f6:	2b2f      	cmp	r3, #47	@ 0x2f
200003f8:	d0f8      	beq.n	200003ec <d_index_template_argument.part.0+0x4>
200003fa:	2000      	movs	r0, #0
200003fc:	4770      	bx	lr
200003fe:	68c0      	ldr	r0, [r0, #12]
20000400:	4770      	bx	lr
20000402:	4770      	bx	lr

20000404 <d_growable_string_callback_adapter>:
20000404:	e92d 41f0 	stmdb	sp!, {r4, r5, r6, r7, r8, lr}
20000408:	1c4b      	adds	r3, r1, #1
2000040a:	4614      	mov	r4, r2
2000040c:	6852      	ldr	r2, [r2, #4]
2000040e:	b082      	sub	sp, #8
20000410:	460e      	mov	r6, r1
20000412:	4607      	mov	r7, r0
20000414:	4413      	add	r3, r2
20000416:	e9d4 5802 	ldrd	r5, r8, [r4, #8]
2000041a:	42ab      	cmp	r3, r5
2000041c:	d814      	bhi.n	20000448 <d_growable_string_callback_adapter+0x44>
2000041e:	f1b8 0f00 	cmp.w	r8, #0
20000422:	d10e      	bne.n	20000442 <d_growable_string_callback_adapter+0x3e>
20000424:	6863      	ldr	r3, [r4, #4]
20000426:	4632      	mov	r2, r6
20000428:	6820      	ldr	r0, [r4, #0]
2000042a:	4639      	mov	r1, r7
2000042c:	4418      	add	r0, r3
2000042e:	f00b fc07 	bl	2000bc40 <__memcpy_veneer>
20000432:	e9d4 3200 	ldrd	r3, r2, [r4]
20000436:	4433      	add	r3, r6
20000438:	f803 8002 	strb.w	r8, [r3, r2]
2000043c:	6863      	ldr	r3, [r4, #4]
2000043e:	4433      	add	r3, r6
20000440:	6063      	str	r3, [r4, #4]
20000442:	b002      	add	sp, #8
20000444:	e8bd 81f0 	ldmia.w	sp!, {r4, r5, r6, r7, r8, pc}
20000448:	f1b8 0f00 	cmp.w	r8, #0
2000044c:	d1f9      	bne.n	20000442 <d_growable_string_callback_adapter+0x3e>
2000044e:	b17d      	cbz	r5, 20000470 <d_growable_string_callback_adapter+0x6c>
20000450:	006d      	lsls	r5, r5, #1
20000452:	42ab      	cmp	r3, r5
20000454:	d8fc      	bhi.n	20000450 <d_growable_string_callback_adapter+0x4c>
20000456:	4629      	mov	r1, r5
20000458:	6820      	ldr	r0, [r4, #0]
2000045a:	f00a f9ad 	bl	2000a7b8 <realloc>
2000045e:	b160      	cbz	r0, 2000047a <d_growable_string_callback_adapter+0x76>
20000460:	f8d4 800c 	ldr.w	r8, [r4, #12]
20000464:	6020      	str	r0, [r4, #0]
20000466:	60a5      	str	r5, [r4, #8]
20000468:	f1b8 0f00 	cmp.w	r8, #0
2000046c:	d0da      	beq.n	20000424 <d_growable_string_callback_adapter+0x20>
2000046e:	e7e8      	b.n	20000442 <d_growable_string_callback_adapter+0x3e>
20000470:	2b02      	cmp	r3, #2
20000472:	f04f 0502 	mov.w	r5, #2
20000476:	d8eb      	bhi.n	20000450 <d_growable_string_callback_adapter+0x4c>
20000478:	e7ed      	b.n	20000456 <d_growable_string_callback_adapter+0x52>
2000047a:	9001      	str	r0, [sp, #4]
2000047c:	6820      	ldr	r0, [r4, #0]
2000047e:	f00a f969 	bl	2000a754 <free>
20000482:	9b01      	ldr	r3, [sp, #4]
20000484:	2201      	movs	r2, #1
20000486:	e9c4 3300 	strd	r3, r3, [r4]
2000048a:	e9c4 3202 	strd	r3, r2, [r4, #8]
2000048e:	e7d8      	b.n	20000442 <d_growable_string_callback_adapter+0x3e>

20000490 <next_is_type_qual.isra.0>:
20000490:	7803      	ldrb	r3, [r0, #0]
20000492:	2b4b      	cmp	r3, #75	@ 0x4b
20000494:	d016      	beq.n	200004c4 <next_is_type_qual.isra.0+0x34>
20000496:	d80d      	bhi.n	200004b4 <next_is_type_qual.isra.0+0x24>
20000498:	2b44      	cmp	r3, #68	@ 0x44
2000049a:	d115      	bne.n	200004c8 <next_is_type_qual.isra.0+0x38>
2000049c:	7843      	ldrb	r3, [r0, #1]
2000049e:	f1a3 0077 	sub.w	r0, r3, #119	@ 0x77
200004a2:	f003 03df 	and.w	r3, r3, #223	@ 0xdf
200004a6:	2b4f      	cmp	r3, #79	@ 0x4f
200004a8:	bf18      	it	ne
200004aa:	2801      	cmpne	r0, #1
200004ac:	bf94      	ite	ls
200004ae:	2001      	movls	r0, #1
200004b0:	2000      	movhi	r0, #0
200004b2:	4770      	bx	lr
200004b4:	2b56      	cmp	r3, #86	@ 0x56
200004b6:	d005      	beq.n	200004c4 <next_is_type_qual.isra.0+0x34>
200004b8:	f1a3 0072 	sub.w	r0, r3, #114	@ 0x72
200004bc:	fab0 f080 	clz	r0, r0
200004c0:	0940      	lsrs	r0, r0, #5
200004c2:	4770      	bx	lr
200004c4:	2001      	movs	r0, #1
200004c6:	4770      	bx	lr
200004c8:	2000      	movs	r0, #0
200004ca:	4770      	bx	lr

200004cc <d_append_char>:
200004cc:	b570      	push	{r4, r5, r6, lr}
200004ce:	460d      	mov	r5, r1
200004d0:	f8d0 1100 	ldr.w	r1, [r0, #256]	@ 0x100
200004d4:	4604      	mov	r4, r0
200004d6:	29ff      	cmp	r1, #255	@ 0xff
200004d8:	d006      	beq.n	200004e8 <d_append_char+0x1c>
200004da:	1c4b      	adds	r3, r1, #1
200004dc:	f8c4 3100 	str.w	r3, [r4, #256]	@ 0x100
200004e0:	5465      	strb	r5, [r4, r1]
200004e2:	f884 5104 	strb.w	r5, [r4, #260]	@ 0x104
200004e6:	bd70      	pop	{r4, r5, r6, pc}
200004e8:	2600      	movs	r6, #0
200004ea:	e9d0 3242 	ldrd	r3, r2, [r0, #264]	@ 0x108
200004ee:	f880 60ff 	strb.w	r6, [r0, #255]	@ 0xff
200004f2:	4798      	blx	r3
200004f4:	f8d4 2128 	ldr.w	r2, [r4, #296]	@ 0x128
200004f8:	2301      	movs	r3, #1
200004fa:	4631      	mov	r1, r6
200004fc:	441a      	add	r2, r3
200004fe:	f8c4 3100 	str.w	r3, [r4, #256]	@ 0x100
20000502:	f8c4 2128 	str.w	r2, [r4, #296]	@ 0x128
20000506:	5465      	strb	r5, [r4, r1]
20000508:	f884 5104 	strb.w	r5, [r4, #260]	@ 0x104
2000050c:	bd70      	pop	{r4, r5, r6, pc}
2000050e:	bf00      	nop

20000510 <d_lookup_template_argument>:
20000510:	f8d0 3110 	ldr.w	r3, [r0, #272]	@ 0x110
20000514:	b18b      	cbz	r3, 2000053a <d_lookup_template_argument+0x2a>
20000516:	685a      	ldr	r2, [r3, #4]
20000518:	68cb      	ldr	r3, [r1, #12]
2000051a:	6910      	ldr	r0, [r2, #16]
2000051c:	2b00      	cmp	r3, #0
2000051e:	db0b      	blt.n	20000538 <d_lookup_template_argument+0x28>
20000520:	b920      	cbnz	r0, 2000052c <d_lookup_template_argument+0x1c>
20000522:	e006      	b.n	20000532 <d_lookup_template_argument+0x22>
20000524:	b13b      	cbz	r3, 20000536 <d_lookup_template_argument+0x26>
20000526:	6900      	ldr	r0, [r0, #16]
20000528:	3b01      	subs	r3, #1
2000052a:	b110      	cbz	r0, 20000532 <d_lookup_template_argument+0x22>
2000052c:	7802      	ldrb	r2, [r0, #0]
2000052e:	2a2f      	cmp	r2, #47	@ 0x2f
20000530:	d0f8      	beq.n	20000524 <d_lookup_template_argument+0x14>
20000532:	2000      	movs	r0, #0
20000534:	4770      	bx	lr
20000536:	68c0      	ldr	r0, [r0, #12]
20000538:	4770      	bx	lr
2000053a:	2301      	movs	r3, #1
2000053c:	f8c0 3118 	str.w	r3, [r0, #280]	@ 0x118
20000540:	e7f7      	b.n	20000532 <d_lookup_template_argument+0x22>
20000542:	bf00      	nop

20000544 <d_append_string>:
20000544:	e92d 47f0 	stmdb	sp!, {r4, r5, r6, r7, r8, r9, sl, lr}
20000548:	4604      	mov	r4, r0
2000054a:	4608      	mov	r0, r1
2000054c:	460d      	mov	r5, r1
2000054e:	f00b fb8f 	bl	2000bc70 <__strlen_veneer>
20000552:	b378      	cbz	r0, 200005b4 <d_append_string+0x70>
20000554:	3d01      	subs	r5, #1
20000556:	f8d4 1100 	ldr.w	r1, [r4, #256]	@ 0x100
2000055a:	f04f 0900 	mov.w	r9, #0
2000055e:	f04f 0801 	mov.w	r8, #1
20000562:	182f      	adds	r7, r5, r0
20000564:	e008      	b.n	20000578 <d_append_string+0x34>
20000566:	4655      	mov	r5, sl
20000568:	1c59      	adds	r1, r3, #1
2000056a:	42af      	cmp	r7, r5
2000056c:	f8c4 1100 	str.w	r1, [r4, #256]	@ 0x100
20000570:	54e6      	strb	r6, [r4, r3]
20000572:	f884 6104 	strb.w	r6, [r4, #260]	@ 0x104
20000576:	d01d      	beq.n	200005b4 <d_append_string+0x70>
20000578:	29ff      	cmp	r1, #255	@ 0xff
2000057a:	786e      	ldrb	r6, [r5, #1]
2000057c:	f105 0a01 	add.w	sl, r5, #1
20000580:	460b      	mov	r3, r1
20000582:	d1f0      	bne.n	20000566 <d_append_string+0x22>
20000584:	4620      	mov	r0, r4
20000586:	f884 90ff 	strb.w	r9, [r4, #255]	@ 0xff
2000058a:	e9d4 3242 	ldrd	r3, r2, [r4, #264]	@ 0x108
2000058e:	4798      	blx	r3
20000590:	f8d4 3128 	ldr.w	r3, [r4, #296]	@ 0x128
20000594:	45ba      	cmp	sl, r7
20000596:	f8c4 8100 	str.w	r8, [r4, #256]	@ 0x100
2000059a:	f103 0201 	add.w	r2, r3, #1
2000059e:	7026      	strb	r6, [r4, #0]
200005a0:	f04f 0301 	mov.w	r3, #1
200005a4:	f884 6104 	strb.w	r6, [r4, #260]	@ 0x104
200005a8:	f8c4 2128 	str.w	r2, [r4, #296]	@ 0x128
200005ac:	d002      	beq.n	200005b4 <d_append_string+0x70>
200005ae:	f815 6f02 	ldrb.w	r6, [r5, #2]!
200005b2:	e7d9      	b.n	20000568 <d_append_string+0x24>
200005b4:	e8bd 87f0 	ldmia.w	sp!, {r4, r5, r6, r7, r8, r9, sl, pc}

200005b8 <d_find_pack>:
200005b8:	2900      	cmp	r1, #0
200005ba:	d055      	beq.n	20000668 <d_find_pack+0xb0>
200005bc:	b538      	push	{r3, r4, r5, lr}
200005be:	4605      	mov	r5, r0
200005c0:	460c      	mov	r4, r1
200005c2:	7823      	ldrb	r3, [r4, #0]
200005c4:	2b33      	cmp	r3, #51	@ 0x33
200005c6:	d81d      	bhi.n	20000604 <d_find_pack+0x4c>
200005c8:	2b33      	cmp	r3, #51	@ 0x33
200005ca:	d824      	bhi.n	20000616 <d_find_pack+0x5e>
200005cc:	e8df f003 	tbb	[pc, r3]
200005d0:	2323232b 	.word	0x2323232b
200005d4:	282b2d23 	.word	0x282b2d23
200005d8:	23232328 	.word	0x23232328
200005dc:	23232323 	.word	0x23232323
200005e0:	23232323 	.word	0x23232323
200005e4:	23232323 	.word	0x23232323
200005e8:	2323232b 	.word	0x2323232b
200005ec:	23232323 	.word	0x23232323
200005f0:	23232323 	.word	0x23232323
200005f4:	2b232323 	.word	0x2b232323
200005f8:	23232323 	.word	0x23232323
200005fc:	23232323 	.word	0x23232323
20000600:	282b2323 	.word	0x282b2323
20000604:	3b42      	subs	r3, #66	@ 0x42
20000606:	b2db      	uxtb	r3, r3
20000608:	2b1a      	cmp	r3, #26
2000060a:	d804      	bhi.n	20000616 <d_find_pack+0x5e>
2000060c:	4a17      	ldr	r2, [pc, #92]	@ (2000066c <d_find_pack+0xb4>)
2000060e:	fa22 f303 	lsr.w	r3, r2, r3
20000612:	07db      	lsls	r3, r3, #31
20000614:	d407      	bmi.n	20000626 <d_find_pack+0x6e>
20000616:	68e1      	ldr	r1, [r4, #12]
20000618:	4628      	mov	r0, r5
2000061a:	f7ff ffcd 	bl	200005b8 <d_find_pack>
2000061e:	b918      	cbnz	r0, 20000628 <d_find_pack+0x70>
20000620:	6924      	ldr	r4, [r4, #16]
20000622:	2c00      	cmp	r4, #0
20000624:	d1cd      	bne.n	200005c2 <d_find_pack+0xa>
20000626:	2000      	movs	r0, #0
20000628:	bd38      	pop	{r3, r4, r5, pc}
2000062a:	f8d5 3110 	ldr.w	r3, [r5, #272]	@ 0x110
2000062e:	b1bb      	cbz	r3, 20000660 <d_find_pack+0xa8>
20000630:	685a      	ldr	r2, [r3, #4]
20000632:	68e3      	ldr	r3, [r4, #12]
20000634:	6910      	ldr	r0, [r2, #16]
20000636:	2b00      	cmp	r3, #0
20000638:	db0b      	blt.n	20000652 <d_find_pack+0x9a>
2000063a:	b928      	cbnz	r0, 20000648 <d_find_pack+0x90>
2000063c:	e7f3      	b.n	20000626 <d_find_pack+0x6e>
2000063e:	b13b      	cbz	r3, 20000650 <d_find_pack+0x98>
20000640:	6900      	ldr	r0, [r0, #16]
20000642:	3b01      	subs	r3, #1
20000644:	2800      	cmp	r0, #0
20000646:	d0ee      	beq.n	20000626 <d_find_pack+0x6e>
20000648:	7802      	ldrb	r2, [r0, #0]
2000064a:	2a2f      	cmp	r2, #47	@ 0x2f
2000064c:	d0f7      	beq.n	2000063e <d_find_pack+0x86>
2000064e:	e7ea      	b.n	20000626 <d_find_pack+0x6e>
20000650:	68c0      	ldr	r0, [r0, #12]
20000652:	2800      	cmp	r0, #0
20000654:	d0e7      	beq.n	20000626 <d_find_pack+0x6e>
20000656:	7803      	ldrb	r3, [r0, #0]
20000658:	2b2f      	cmp	r3, #47	@ 0x2f
2000065a:	d0e5      	beq.n	20000628 <d_find_pack+0x70>
2000065c:	2000      	movs	r0, #0
2000065e:	e7e3      	b.n	20000628 <d_find_pack+0x70>
20000660:	2301      	movs	r3, #1
20000662:	f8c5 3118 	str.w	r3, [r5, #280]	@ 0x118
20000666:	e7de      	b.n	20000626 <d_find_pack+0x6e>
20000668:	2000      	movs	r0, #0
2000066a:	4770      	bx	lr
2000066c:	04000ce3 	.word	0x04000ce3

20000670 <d_template_param>:
20000670:	68c2      	ldr	r2, [r0, #12]
20000672:	b538      	push	{r3, r4, r5, lr}
20000674:	7813      	ldrb	r3, [r2, #0]
20000676:	2b54      	cmp	r3, #84	@ 0x54
20000678:	d124      	bne.n	200006c4 <d_template_param+0x54>
2000067a:	1c53      	adds	r3, r2, #1
2000067c:	4604      	mov	r4, r0
2000067e:	60c3      	str	r3, [r0, #12]
20000680:	7852      	ldrb	r2, [r2, #1]
20000682:	2a5f      	cmp	r2, #95	@ 0x5f
20000684:	d020      	beq.n	200006c8 <d_template_param+0x58>
20000686:	2a6e      	cmp	r2, #110	@ 0x6e
20000688:	d01c      	beq.n	200006c4 <d_template_param+0x54>
2000068a:	f7ff fd71 	bl	20000170 <d_number>
2000068e:	1c41      	adds	r1, r0, #1
20000690:	d418      	bmi.n	200006c4 <d_template_param+0x54>
20000692:	68e3      	ldr	r3, [r4, #12]
20000694:	781a      	ldrb	r2, [r3, #0]
20000696:	2a5f      	cmp	r2, #95	@ 0x5f
20000698:	d114      	bne.n	200006c4 <d_template_param+0x54>
2000069a:	3301      	adds	r3, #1
2000069c:	e9d4 2005 	ldrd	r2, r0, [r4, #20]
200006a0:	60e3      	str	r3, [r4, #12]
200006a2:	4282      	cmp	r2, r0
200006a4:	da0e      	bge.n	200006c4 <d_template_param+0x54>
200006a6:	6923      	ldr	r3, [r4, #16]
200006a8:	eb02 0c82 	add.w	ip, r2, r2, lsl #2
200006ac:	2500      	movs	r5, #0
200006ae:	3201      	adds	r2, #1
200006b0:	eb03 008c 	add.w	r0, r3, ip, lsl #2
200006b4:	e9c0 5501 	strd	r5, r5, [r0, #4]
200006b8:	6162      	str	r2, [r4, #20]
200006ba:	2205      	movs	r2, #5
200006bc:	f803 202c 	strb.w	r2, [r3, ip, lsl #2]
200006c0:	60c1      	str	r1, [r0, #12]
200006c2:	bd38      	pop	{r3, r4, r5, pc}
200006c4:	2000      	movs	r0, #0
200006c6:	bd38      	pop	{r3, r4, r5, pc}
200006c8:	2100      	movs	r1, #0
200006ca:	e7e6      	b.n	2000069a <d_template_param+0x2a>

200006cc <d_append_num>:
200006cc:	e92d 47f0 	stmdb	sp!, {r4, r5, r6, r7, r8, r9, sl, lr}
200006d0:	b088      	sub	sp, #32
200006d2:	460a      	mov	r2, r1
200006d4:	4604      	mov	r4, r0
200006d6:	491e      	ldr	r1, [pc, #120]	@ (20000750 <d_append_num+0x84>)
200006d8:	a801      	add	r0, sp, #4
200006da:	f00b fae9 	bl	2000bcb0 <__sprintf_veneer>
200006de:	a801      	add	r0, sp, #4
200006e0:	f00b fac6 	bl	2000bc70 <__strlen_veneer>
200006e4:	b380      	cbz	r0, 20000748 <d_append_num+0x7c>
200006e6:	ae01      	add	r6, sp, #4
200006e8:	f8d4 1100 	ldr.w	r1, [r4, #256]	@ 0x100
200006ec:	f04f 0900 	mov.w	r9, #0
200006f0:	f04f 0801 	mov.w	r8, #1
200006f4:	eb06 0a00 	add.w	sl, r6, r0
200006f8:	e008      	b.n	2000070c <d_append_num+0x40>
200006fa:	462e      	mov	r6, r5
200006fc:	1c59      	adds	r1, r3, #1
200006fe:	45b2      	cmp	sl, r6
20000700:	f8c4 1100 	str.w	r1, [r4, #256]	@ 0x100
20000704:	54e7      	strb	r7, [r4, r3]
20000706:	f884 7104 	strb.w	r7, [r4, #260]	@ 0x104
2000070a:	d01d      	beq.n	20000748 <d_append_num+0x7c>
2000070c:	4635      	mov	r5, r6
2000070e:	29ff      	cmp	r1, #255	@ 0xff
20000710:	460b      	mov	r3, r1
20000712:	f815 7b01 	ldrb.w	r7, [r5], #1
20000716:	d1f0      	bne.n	200006fa <d_append_num+0x2e>
20000718:	4620      	mov	r0, r4
2000071a:	f884 90ff 	strb.w	r9, [r4, #255]	@ 0xff
2000071e:	3602      	adds	r6, #2
20000720:	e9d4 3242 	ldrd	r3, r2, [r4, #264]	@ 0x108
20000724:	4798      	blx	r3
20000726:	f8d4 3128 	ldr.w	r3, [r4, #296]	@ 0x128
2000072a:	4555      	cmp	r5, sl
2000072c:	7027      	strb	r7, [r4, #0]
2000072e:	f103 0201 	add.w	r2, r3, #1
20000732:	f884 7104 	strb.w	r7, [r4, #260]	@ 0x104
20000736:	f04f 0301 	mov.w	r3, #1
2000073a:	f8c4 8100 	str.w	r8, [r4, #256]	@ 0x100
2000073e:	f8c4 2128 	str.w	r2, [r4, #296]	@ 0x128
20000742:	d001      	beq.n	20000748 <d_append_num+0x7c>
20000744:	782f      	ldrb	r7, [r5, #0]
20000746:	e7d9      	b.n	200006fc <d_append_num+0x30>
20000748:	b008      	add	sp, #32
2000074a:	e8bd 87f0 	ldmia.w	sp!, {r4, r5, r6, r7, r8, r9, sl, pc}
2000074e:	bf00      	nop
20000750:	2000cb1c 	.word	0x2000cb1c

20000754 <d_source_name>:
20000754:	b570      	push	{r4, r5, r6, lr}
20000756:	4604      	mov	r4, r0
20000758:	f7ff fd0a 	bl	20000170 <d_number>
2000075c:	1e05      	subs	r5, r0, #0
2000075e:	dd25      	ble.n	200007ac <d_source_name+0x58>
20000760:	68e6      	ldr	r6, [r4, #12]
20000762:	6863      	ldr	r3, [r4, #4]
20000764:	1b9b      	subs	r3, r3, r6
20000766:	429d      	cmp	r5, r3
20000768:	dc27      	bgt.n	200007ba <d_source_name+0x66>
2000076a:	68a2      	ldr	r2, [r4, #8]
2000076c:	1973      	adds	r3, r6, r5
2000076e:	0752      	lsls	r2, r2, #29
20000770:	60e3      	str	r3, [r4, #12]
20000772:	d502      	bpl.n	2000077a <d_source_name+0x26>
20000774:	5d72      	ldrb	r2, [r6, r5]
20000776:	2a24      	cmp	r2, #36	@ 0x24
20000778:	d01a      	beq.n	200007b0 <d_source_name+0x5c>
2000077a:	2d09      	cmp	r5, #9
2000077c:	dd0f      	ble.n	2000079e <d_source_name+0x4a>
2000077e:	2208      	movs	r2, #8
20000780:	491c      	ldr	r1, [pc, #112]	@ (200007f4 <d_source_name+0xa0>)
20000782:	4630      	mov	r0, r6
20000784:	f00b fa36 	bl	2000bbf4 <memcmp>
20000788:	b948      	cbnz	r0, 2000079e <d_source_name+0x4a>
2000078a:	7a33      	ldrb	r3, [r6, #8]
2000078c:	2b5f      	cmp	r3, #95	@ 0x5f
2000078e:	bf18      	it	ne
20000790:	2b2e      	cmpne	r3, #46	@ 0x2e
20000792:	d001      	beq.n	20000798 <d_source_name+0x44>
20000794:	2b24      	cmp	r3, #36	@ 0x24
20000796:	d102      	bne.n	2000079e <d_source_name+0x4a>
20000798:	7a73      	ldrb	r3, [r6, #9]
2000079a:	2b4e      	cmp	r3, #78	@ 0x4e
2000079c:	d00f      	beq.n	200007be <d_source_name+0x6a>
2000079e:	462a      	mov	r2, r5
200007a0:	4631      	mov	r1, r6
200007a2:	4620      	mov	r0, r4
200007a4:	f7ff fcc2 	bl	2000012c <d_make_name>
200007a8:	62a0      	str	r0, [r4, #40]	@ 0x28
200007aa:	bd70      	pop	{r4, r5, r6, pc}
200007ac:	2000      	movs	r0, #0
200007ae:	bd70      	pop	{r4, r5, r6, pc}
200007b0:	3301      	adds	r3, #1
200007b2:	2d09      	cmp	r5, #9
200007b4:	60e3      	str	r3, [r4, #12]
200007b6:	dce2      	bgt.n	2000077e <d_source_name+0x2a>
200007b8:	e7f1      	b.n	2000079e <d_source_name+0x4a>
200007ba:	2000      	movs	r0, #0
200007bc:	e7f4      	b.n	200007a8 <d_source_name+0x54>
200007be:	6ae2      	ldr	r2, [r4, #44]	@ 0x2c
200007c0:	e9d4 3105 	ldrd	r3, r1, [r4, #20]
200007c4:	3216      	adds	r2, #22
200007c6:	428b      	cmp	r3, r1
200007c8:	eba2 0205 	sub.w	r2, r2, r5
200007cc:	62e2      	str	r2, [r4, #44]	@ 0x2c
200007ce:	daf4      	bge.n	200007ba <d_source_name+0x66>
200007d0:	6922      	ldr	r2, [r4, #16]
200007d2:	eb03 0083 	add.w	r0, r3, r3, lsl #2
200007d6:	3301      	adds	r3, #1
200007d8:	4907      	ldr	r1, [pc, #28]	@ (200007f8 <d_source_name+0xa4>)
200007da:	0085      	lsls	r5, r0, #2
200007dc:	6163      	str	r3, [r4, #20]
200007de:	eb02 0080 	add.w	r0, r2, r0, lsl #2
200007e2:	2300      	movs	r3, #0
200007e4:	e9c0 3301 	strd	r3, r3, [r0, #4]
200007e8:	5553      	strb	r3, [r2, r5]
200007ea:	2315      	movs	r3, #21
200007ec:	e9c0 1303 	strd	r1, r3, [r0, #12]
200007f0:	e7da      	b.n	200007a8 <d_source_name+0x54>
200007f2:	bf00      	nop
200007f4:	2000cb20 	.word	0x2000cb20
200007f8:	2000cb2c 	.word	0x2000cb2c

200007fc <d_substitution>:
200007fc:	68c3      	ldr	r3, [r0, #12]
200007fe:	e92d 41f0 	stmdb	sp!, {r4, r5, r6, r7, r8, lr}
20000802:	781a      	ldrb	r2, [r3, #0]
20000804:	2a53      	cmp	r2, #83	@ 0x53
20000806:	d11a      	bne.n	2000083e <d_substitution+0x42>
20000808:	1c5a      	adds	r2, r3, #1
2000080a:	4604      	mov	r4, r0
2000080c:	60c2      	str	r2, [r0, #12]
2000080e:	7858      	ldrb	r0, [r3, #1]
20000810:	b9c8      	cbnz	r0, 20000846 <d_substitution+0x4a>
20000812:	68a3      	ldr	r3, [r4, #8]
20000814:	f013 0308 	ands.w	r3, r3, #8
20000818:	d159      	bne.n	200008ce <d_substitution+0xd2>
2000081a:	07ca      	lsls	r2, r1, #31
2000081c:	d557      	bpl.n	200008ce <d_substitution+0xd2>
2000081e:	68e3      	ldr	r3, [r4, #12]
20000820:	781b      	ldrb	r3, [r3, #0]
20000822:	3b43      	subs	r3, #67	@ 0x43
20000824:	2b01      	cmp	r3, #1
20000826:	bf8c      	ite	hi
20000828:	2500      	movhi	r5, #0
2000082a:	2501      	movls	r5, #1
2000082c:	4b5c      	ldr	r3, [pc, #368]	@ (200009a0 <d_substitution+0x1a4>)
2000082e:	f103 01c4 	add.w	r1, r3, #196	@ 0xc4
20000832:	781a      	ldrb	r2, [r3, #0]
20000834:	4282      	cmp	r2, r0
20000836:	d053      	beq.n	200008e0 <d_substitution+0xe4>
20000838:	331c      	adds	r3, #28
2000083a:	428b      	cmp	r3, r1
2000083c:	d1f9      	bne.n	20000832 <d_substitution+0x36>
2000083e:	2500      	movs	r5, #0
20000840:	4628      	mov	r0, r5
20000842:	e8bd 81f0 	ldmia.w	sp!, {r4, r5, r6, r7, r8, pc}
20000846:	1c9a      	adds	r2, r3, #2
20000848:	60e2      	str	r2, [r4, #12]
2000084a:	7858      	ldrb	r0, [r3, #1]
2000084c:	f1a0 0c30 	sub.w	ip, r0, #48	@ 0x30
20000850:	fa5f f38c 	uxtb.w	r3, ip
20000854:	2b09      	cmp	r3, #9
20000856:	d906      	bls.n	20000866 <d_substitution+0x6a>
20000858:	f1a0 025f 	sub.w	r2, r0, #95	@ 0x5f
2000085c:	fab2 f282 	clz	r2, r2
20000860:	0952      	lsrs	r2, r2, #5
20000862:	2a00      	cmp	r2, #0
20000864:	d037      	beq.n	200008d6 <d_substitution+0xda>
20000866:	285f      	cmp	r0, #95	@ 0x5f
20000868:	d109      	bne.n	2000087e <d_substitution+0x82>
2000086a:	2300      	movs	r3, #0
2000086c:	6a22      	ldr	r2, [r4, #32]
2000086e:	429a      	cmp	r2, r3
20000870:	d9e5      	bls.n	2000083e <d_substitution+0x42>
20000872:	69e2      	ldr	r2, [r4, #28]
20000874:	f852 5023 	ldr.w	r5, [r2, r3, lsl #2]
20000878:	4628      	mov	r0, r5
2000087a:	e8bd 81f0 	ldmia.w	sp!, {r4, r5, r6, r7, r8, pc}
2000087e:	2200      	movs	r2, #0
20000880:	e005      	b.n	2000088e <d_substitution+0x92>
20000882:	60e5      	str	r5, [r4, #12]
20000884:	7808      	ldrb	r0, [r1, #0]
20000886:	285f      	cmp	r0, #95	@ 0x5f
20000888:	f1a0 0c30 	sub.w	ip, r0, #48	@ 0x30
2000088c:	d01d      	beq.n	200008ca <d_substitution+0xce>
2000088e:	fa5f fc8c 	uxtb.w	ip, ip
20000892:	eb02 03c2 	add.w	r3, r2, r2, lsl #3
20000896:	f1bc 0f09 	cmp.w	ip, #9
2000089a:	eb00 0383 	add.w	r3, r0, r3, lsl #2
2000089e:	d809      	bhi.n	200008b4 <d_substitution+0xb8>
200008a0:	3b30      	subs	r3, #48	@ 0x30
200008a2:	429a      	cmp	r2, r3
200008a4:	461a      	mov	r2, r3
200008a6:	d8ca      	bhi.n	2000083e <d_substitution+0x42>
200008a8:	68e1      	ldr	r1, [r4, #12]
200008aa:	7808      	ldrb	r0, [r1, #0]
200008ac:	1c4d      	adds	r5, r1, #1
200008ae:	2800      	cmp	r0, #0
200008b0:	d0c5      	beq.n	2000083e <d_substitution+0x42>
200008b2:	e7e6      	b.n	20000882 <d_substitution+0x86>
200008b4:	eb02 03c2 	add.w	r3, r2, r2, lsl #3
200008b8:	f1a0 0141 	sub.w	r1, r0, #65	@ 0x41
200008bc:	eb00 0383 	add.w	r3, r0, r3, lsl #2
200008c0:	2919      	cmp	r1, #25
200008c2:	f1a3 0337 	sub.w	r3, r3, #55	@ 0x37
200008c6:	d9ec      	bls.n	200008a2 <d_substitution+0xa6>
200008c8:	e7b9      	b.n	2000083e <d_substitution+0x42>
200008ca:	3301      	adds	r3, #1
200008cc:	e7ce      	b.n	2000086c <d_substitution+0x70>
200008ce:	1e1d      	subs	r5, r3, #0
200008d0:	bf18      	it	ne
200008d2:	2501      	movne	r5, #1
200008d4:	e7aa      	b.n	2000082c <d_substitution+0x30>
200008d6:	f1a0 0341 	sub.w	r3, r0, #65	@ 0x41
200008da:	2b19      	cmp	r3, #25
200008dc:	d9d7      	bls.n	2000088e <d_substitution+0x92>
200008de:	e798      	b.n	20000812 <d_substitution+0x16>
200008e0:	695e      	ldr	r6, [r3, #20]
200008e2:	e9d4 2005 	ldrd	r2, r0, [r4, #20]
200008e6:	b1ae      	cbz	r6, 20000914 <d_substitution+0x118>
200008e8:	4290      	cmp	r0, r2
200008ea:	f8d3 8018 	ldr.w	r8, [r3, #24]
200008ee:	dd54      	ble.n	2000099a <d_substitution+0x19e>
200008f0:	6927      	ldr	r7, [r4, #16]
200008f2:	eb02 0c82 	add.w	ip, r2, r2, lsl #2
200008f6:	f04f 0e00 	mov.w	lr, #0
200008fa:	3201      	adds	r2, #1
200008fc:	eb07 018c 	add.w	r1, r7, ip, lsl #2
20000900:	e9c1 ee01 	strd	lr, lr, [r1, #4]
20000904:	f04f 0e18 	mov.w	lr, #24
20000908:	6162      	str	r2, [r4, #20]
2000090a:	f807 e02c 	strb.w	lr, [r7, ip, lsl #2]
2000090e:	e9c1 6803 	strd	r6, r8, [r1, #12]
20000912:	62a1      	str	r1, [r4, #40]	@ 0x28
20000914:	2d00      	cmp	r5, #0
20000916:	d03b      	beq.n	20000990 <d_substitution+0x194>
20000918:	e9d3 7103 	ldrd	r7, r1, [r3, #12]
2000091c:	6ae3      	ldr	r3, [r4, #44]	@ 0x2c
2000091e:	4290      	cmp	r0, r2
20000920:	440b      	add	r3, r1
20000922:	62e3      	str	r3, [r4, #44]	@ 0x2c
20000924:	dd37      	ble.n	20000996 <d_substitution+0x19a>
20000926:	eb02 0082 	add.w	r0, r2, r2, lsl #2
2000092a:	1c53      	adds	r3, r2, #1
2000092c:	6922      	ldr	r2, [r4, #16]
2000092e:	2600      	movs	r6, #0
20000930:	f04f 0c18 	mov.w	ip, #24
20000934:	eb02 0580 	add.w	r5, r2, r0, lsl #2
20000938:	e9c5 6601 	strd	r6, r6, [r5, #4]
2000093c:	6163      	str	r3, [r4, #20]
2000093e:	f802 c020 	strb.w	ip, [r2, r0, lsl #2]
20000942:	e9c5 7103 	strd	r7, r1, [r5, #12]
20000946:	68e3      	ldr	r3, [r4, #12]
20000948:	781a      	ldrb	r2, [r3, #0]
2000094a:	2a42      	cmp	r2, #66	@ 0x42
2000094c:	f47f af78 	bne.w	20000840 <d_substitution+0x44>
20000950:	6aa6      	ldr	r6, [r4, #40]	@ 0x28
20000952:	3301      	adds	r3, #1
20000954:	4620      	mov	r0, r4
20000956:	60e3      	str	r3, [r4, #12]
20000958:	f7ff fefc 	bl	20000754 <d_source_name>
2000095c:	462a      	mov	r2, r5
2000095e:	4603      	mov	r3, r0
20000960:	214d      	movs	r1, #77	@ 0x4d
20000962:	4620      	mov	r0, r4
20000964:	f7ff fb66 	bl	20000034 <d_make_comp>
20000968:	68e3      	ldr	r3, [r4, #12]
2000096a:	4605      	mov	r5, r0
2000096c:	781a      	ldrb	r2, [r3, #0]
2000096e:	2a42      	cmp	r2, #66	@ 0x42
20000970:	d0ef      	beq.n	20000952 <d_substitution+0x156>
20000972:	62a6      	str	r6, [r4, #40]	@ 0x28
20000974:	2800      	cmp	r0, #0
20000976:	f43f af62 	beq.w	2000083e <d_substitution+0x42>
2000097a:	e9d4 3208 	ldrd	r3, r2, [r4, #32]
2000097e:	4293      	cmp	r3, r2
20000980:	f6bf af5d 	bge.w	2000083e <d_substitution+0x42>
20000984:	69e1      	ldr	r1, [r4, #28]
20000986:	1c5a      	adds	r2, r3, #1
20000988:	f841 0023 	str.w	r0, [r1, r3, lsl #2]
2000098c:	6222      	str	r2, [r4, #32]
2000098e:	e757      	b.n	20000840 <d_substitution+0x44>
20000990:	e9d3 7101 	ldrd	r7, r1, [r3, #4]
20000994:	e7c2      	b.n	2000091c <d_substitution+0x120>
20000996:	2500      	movs	r5, #0
20000998:	e7d5      	b.n	20000946 <d_substitution+0x14a>
2000099a:	2100      	movs	r1, #0
2000099c:	e7b9      	b.n	20000912 <d_substitution+0x116>
2000099e:	bf00      	nop
200009a0:	2000c1b4 	.word	0x2000c1b4

200009a4 <d_maybe_module_name>:
200009a4:	b5f8      	push	{r3, r4, r5, r6, r7, lr}
200009a6:	68c3      	ldr	r3, [r0, #12]
200009a8:	781a      	ldrb	r2, [r3, #0]
200009aa:	2a57      	cmp	r2, #87	@ 0x57
200009ac:	d127      	bne.n	200009fe <d_maybe_module_name+0x5a>
200009ae:	4604      	mov	r4, r0
200009b0:	460e      	mov	r6, r1
200009b2:	e007      	b.n	200009c4 <d_maybe_module_name+0x20>
200009b4:	68e3      	ldr	r3, [r4, #12]
200009b6:	69e5      	ldr	r5, [r4, #28]
200009b8:	f845 0022 	str.w	r0, [r5, r2, lsl #2]
200009bc:	6221      	str	r1, [r4, #32]
200009be:	781a      	ldrb	r2, [r3, #0]
200009c0:	2a57      	cmp	r2, #87	@ 0x57
200009c2:	d11c      	bne.n	200009fe <d_maybe_module_name+0x5a>
200009c4:	1c5a      	adds	r2, r3, #1
200009c6:	2553      	movs	r5, #83	@ 0x53
200009c8:	60e2      	str	r2, [r4, #12]
200009ca:	785a      	ldrb	r2, [r3, #1]
200009cc:	2a50      	cmp	r2, #80	@ 0x50
200009ce:	d102      	bne.n	200009d6 <d_maybe_module_name+0x32>
200009d0:	3302      	adds	r3, #2
200009d2:	2554      	movs	r5, #84	@ 0x54
200009d4:	60e3      	str	r3, [r4, #12]
200009d6:	6837      	ldr	r7, [r6, #0]
200009d8:	4620      	mov	r0, r4
200009da:	f7ff febb 	bl	20000754 <d_source_name>
200009de:	4629      	mov	r1, r5
200009e0:	4603      	mov	r3, r0
200009e2:	463a      	mov	r2, r7
200009e4:	4620      	mov	r0, r4
200009e6:	f7ff fb25 	bl	20000034 <d_make_comp>
200009ea:	6030      	str	r0, [r6, #0]
200009ec:	b130      	cbz	r0, 200009fc <d_maybe_module_name+0x58>
200009ee:	e9d4 2308 	ldrd	r2, r3, [r4, #32]
200009f2:	429a      	cmp	r2, r3
200009f4:	f102 0101 	add.w	r1, r2, #1
200009f8:	dbdc      	blt.n	200009b4 <d_maybe_module_name+0x10>
200009fa:	2000      	movs	r0, #0
200009fc:	bdf8      	pop	{r3, r4, r5, r6, r7, pc}
200009fe:	2001      	movs	r0, #1
20000a00:	bdf8      	pop	{r3, r4, r5, r6, r7, pc}
20000a02:	bf00      	nop

20000a04 <d_type>:
20000a04:	68c2      	ldr	r2, [r0, #12]
20000a06:	e92d 43f0 	stmdb	sp!, {r4, r5, r6, r7, r8, r9, lr}
20000a0a:	4604      	mov	r4, r0
20000a0c:	b085      	sub	sp, #20
20000a0e:	4610      	mov	r0, r2
20000a10:	f7ff fd3e 	bl	20000490 <next_is_type_qual.isra.0>
20000a14:	b9f0      	cbnz	r0, 20000a54 <d_type+0x50>
20000a16:	7813      	ldrb	r3, [r2, #0]
20000a18:	2b55      	cmp	r3, #85	@ 0x55
20000a1a:	d84d      	bhi.n	20000ab8 <d_type+0xb4>
20000a1c:	2b40      	cmp	r3, #64	@ 0x40
20000a1e:	d978      	bls.n	20000b12 <d_type+0x10e>
20000a20:	3b41      	subs	r3, #65	@ 0x41
20000a22:	2b14      	cmp	r3, #20
20000a24:	d875      	bhi.n	20000b12 <d_type+0x10e>
20000a26:	e8df f013 	tbh	[pc, r3, lsl #1]
20000a2a:	014b      	.short	0x014b
20000a2c:	01370074 	.word	0x01370074
20000a30:	007400f7 	.word	0x007400f7
20000a34:	00a50145 	.word	0x00a50145
20000a38:	00740074 	.word	0x00740074
20000a3c:	00740074 	.word	0x00740074
20000a40:	01760074 	.word	0x01760074
20000a44:	00970074 	.word	0x00970074
20000a48:	00740089 	.word	0x00740089
20000a4c:	0074007b 	.word	0x0074007b
20000a50:	00b300cb 	.word	0x00b300cb
20000a54:	2200      	movs	r2, #0
20000a56:	4669      	mov	r1, sp
20000a58:	4620      	mov	r0, r4
20000a5a:	f001 f9b9 	bl	20001dd0 <d_cv_qualifiers>
20000a5e:	4605      	mov	r5, r0
20000a60:	2800      	cmp	r0, #0
20000a62:	f000 8185 	beq.w	20000d70 <d_type+0x36c>
20000a66:	68e3      	ldr	r3, [r4, #12]
20000a68:	4620      	mov	r0, r4
20000a6a:	781b      	ldrb	r3, [r3, #0]
20000a6c:	2b46      	cmp	r3, #70	@ 0x46
20000a6e:	d020      	beq.n	20000ab2 <d_type+0xae>
20000a70:	f7ff ffc8 	bl	20000a04 <d_type>
20000a74:	6028      	str	r0, [r5, #0]
20000a76:	2800      	cmp	r0, #0
20000a78:	f000 817a 	beq.w	20000d70 <d_type+0x36c>
20000a7c:	7803      	ldrb	r3, [r0, #0]
20000a7e:	3b1f      	subs	r3, #31
20000a80:	2b01      	cmp	r3, #1
20000a82:	d805      	bhi.n	20000a90 <d_type+0x8c>
20000a84:	9a00      	ldr	r2, [sp, #0]
20000a86:	68c3      	ldr	r3, [r0, #12]
20000a88:	60c2      	str	r2, [r0, #12]
20000a8a:	682a      	ldr	r2, [r5, #0]
20000a8c:	9200      	str	r2, [sp, #0]
20000a8e:	602b      	str	r3, [r5, #0]
20000a90:	9800      	ldr	r0, [sp, #0]
20000a92:	2800      	cmp	r0, #0
20000a94:	f000 816c 	beq.w	20000d70 <d_type+0x36c>
20000a98:	e9d4 3208 	ldrd	r3, r2, [r4, #32]
20000a9c:	4293      	cmp	r3, r2
20000a9e:	f280 8167 	bge.w	20000d70 <d_type+0x36c>
20000aa2:	69e1      	ldr	r1, [r4, #28]
20000aa4:	1c5a      	adds	r2, r3, #1
20000aa6:	f841 0023 	str.w	r0, [r1, r3, lsl #2]
20000aaa:	6222      	str	r2, [r4, #32]
20000aac:	b005      	add	sp, #20
20000aae:	e8bd 83f0 	ldmia.w	sp!, {r4, r5, r6, r7, r8, r9, pc}
20000ab2:	f000 fbdf 	bl	20001274 <d_function_type>
20000ab6:	e7dd      	b.n	20000a74 <d_type+0x70>
20000ab8:	f1a3 0161 	sub.w	r1, r3, #97	@ 0x61
20000abc:	4605      	mov	r5, r0
20000abe:	b2c8      	uxtb	r0, r1
20000ac0:	2819      	cmp	r0, #25
20000ac2:	d826      	bhi.n	20000b12 <d_type+0x10e>
20000ac4:	2301      	movs	r3, #1
20000ac6:	4eab      	ldr	r6, [pc, #684]	@ (20000d74 <d_type+0x370>)
20000ac8:	4083      	lsls	r3, r0
20000aca:	401e      	ands	r6, r3
20000acc:	2e00      	cmp	r6, #0
20000ace:	f040 82b6 	bne.w	2000103e <d_type+0x63a>
20000ad2:	2814      	cmp	r0, #20
20000ad4:	d11d      	bne.n	20000b12 <d_type+0x10e>
20000ad6:	3201      	adds	r2, #1
20000ad8:	4620      	mov	r0, r4
20000ada:	60e2      	str	r2, [r4, #12]
20000adc:	f7ff fe3a 	bl	20000754 <d_source_name>
20000ae0:	4633      	mov	r3, r6
20000ae2:	4602      	mov	r2, r0
20000ae4:	2128      	movs	r1, #40	@ 0x28
20000ae6:	4620      	mov	r0, r4
20000ae8:	f7ff faa4 	bl	20000034 <d_make_comp>
20000aec:	4605      	mov	r5, r0
20000aee:	9000      	str	r0, [sp, #0]
20000af0:	2d00      	cmp	r5, #0
20000af2:	f000 813d 	beq.w	20000d70 <d_type+0x36c>
20000af6:	e9d4 3208 	ldrd	r3, r2, [r4, #32]
20000afa:	4293      	cmp	r3, r2
20000afc:	f280 8138 	bge.w	20000d70 <d_type+0x36c>
20000b00:	69e1      	ldr	r1, [r4, #28]
20000b02:	1c5a      	adds	r2, r3, #1
20000b04:	9800      	ldr	r0, [sp, #0]
20000b06:	f841 5023 	str.w	r5, [r1, r3, lsl #2]
20000b0a:	6222      	str	r2, [r4, #32]
20000b0c:	b005      	add	sp, #20
20000b0e:	e8bd 83f0 	ldmia.w	sp!, {r4, r5, r6, r7, r8, r9, pc}
20000b12:	2101      	movs	r1, #1
20000b14:	4620      	mov	r0, r4
20000b16:	b005      	add	sp, #20
20000b18:	e8bd 43f0 	ldmia.w	sp!, {r4, r5, r6, r7, r8, r9, lr}
20000b1c:	f001 b9fe 	b.w	20001f1c <d_name>
20000b20:	3201      	adds	r2, #1
20000b22:	4620      	mov	r0, r4
20000b24:	60e2      	str	r2, [r4, #12]
20000b26:	f7ff ff6d 	bl	20000a04 <d_type>
20000b2a:	2300      	movs	r3, #0
20000b2c:	4602      	mov	r2, r0
20000b2e:	2123      	movs	r1, #35	@ 0x23
20000b30:	4620      	mov	r0, r4
20000b32:	f7ff fa7f 	bl	20000034 <d_make_comp>
20000b36:	4605      	mov	r5, r0
20000b38:	9000      	str	r0, [sp, #0]
20000b3a:	e7d9      	b.n	20000af0 <d_type+0xec>
20000b3c:	3201      	adds	r2, #1
20000b3e:	4620      	mov	r0, r4
20000b40:	60e2      	str	r2, [r4, #12]
20000b42:	f7ff ff5f 	bl	20000a04 <d_type>
20000b46:	2300      	movs	r3, #0
20000b48:	4602      	mov	r2, r0
20000b4a:	2122      	movs	r1, #34	@ 0x22
20000b4c:	4620      	mov	r0, r4
20000b4e:	f7ff fa71 	bl	20000034 <d_make_comp>
20000b52:	4605      	mov	r5, r0
20000b54:	9000      	str	r0, [sp, #0]
20000b56:	e7cb      	b.n	20000af0 <d_type+0xec>
20000b58:	3201      	adds	r2, #1
20000b5a:	4620      	mov	r0, r4
20000b5c:	60e2      	str	r2, [r4, #12]
20000b5e:	f7ff ff51 	bl	20000a04 <d_type>
20000b62:	2300      	movs	r3, #0
20000b64:	4602      	mov	r2, r0
20000b66:	2124      	movs	r1, #36	@ 0x24
20000b68:	4620      	mov	r0, r4
20000b6a:	f7ff fa63 	bl	20000034 <d_make_comp>
20000b6e:	4605      	mov	r5, r0
20000b70:	9000      	str	r0, [sp, #0]
20000b72:	e7bd      	b.n	20000af0 <d_type+0xec>
20000b74:	3201      	adds	r2, #1
20000b76:	4620      	mov	r0, r4
20000b78:	60e2      	str	r2, [r4, #12]
20000b7a:	f7ff ff43 	bl	20000a04 <d_type>
20000b7e:	2300      	movs	r3, #0
20000b80:	4602      	mov	r2, r0
20000b82:	2126      	movs	r1, #38	@ 0x26
20000b84:	4620      	mov	r0, r4
20000b86:	f7ff fa55 	bl	20000034 <d_make_comp>
20000b8a:	4605      	mov	r5, r0
20000b8c:	9000      	str	r0, [sp, #0]
20000b8e:	e7af      	b.n	20000af0 <d_type+0xec>
20000b90:	3201      	adds	r2, #1
20000b92:	4620      	mov	r0, r4
20000b94:	60e2      	str	r2, [r4, #12]
20000b96:	f7ff fddd 	bl	20000754 <d_source_name>
20000b9a:	68e3      	ldr	r3, [r4, #12]
20000b9c:	4605      	mov	r5, r0
20000b9e:	9000      	str	r0, [sp, #0]
20000ba0:	781a      	ldrb	r2, [r3, #0]
20000ba2:	2a49      	cmp	r2, #73	@ 0x49
20000ba4:	f000 826c 	beq.w	20001080 <d_type+0x67c>
20000ba8:	4620      	mov	r0, r4
20000baa:	f7ff ff2b 	bl	20000a04 <d_type>
20000bae:	462b      	mov	r3, r5
20000bb0:	4602      	mov	r2, r0
20000bb2:	2121      	movs	r1, #33	@ 0x21
20000bb4:	4620      	mov	r0, r4
20000bb6:	f7ff fa3d 	bl	20000034 <d_make_comp>
20000bba:	4605      	mov	r5, r0
20000bbc:	9000      	str	r0, [sp, #0]
20000bbe:	e797      	b.n	20000af0 <d_type+0xec>
20000bc0:	4620      	mov	r0, r4
20000bc2:	f7ff fd55 	bl	20000670 <d_template_param>
20000bc6:	68e6      	ldr	r6, [r4, #12]
20000bc8:	4605      	mov	r5, r0
20000bca:	9000      	str	r0, [sp, #0]
20000bcc:	7833      	ldrb	r3, [r6, #0]
20000bce:	2b49      	cmp	r3, #73	@ 0x49
20000bd0:	d18e      	bne.n	20000af0 <d_type+0xec>
20000bd2:	6b63      	ldr	r3, [r4, #52]	@ 0x34
20000bd4:	2b00      	cmp	r3, #0
20000bd6:	f040 826e 	bne.w	200010b6 <d_type+0x6b2>
20000bda:	2800      	cmp	r0, #0
20000bdc:	f000 80c8 	beq.w	20000d70 <d_type+0x36c>
20000be0:	e9d4 2108 	ldrd	r2, r1, [r4, #32]
20000be4:	428a      	cmp	r2, r1
20000be6:	f280 80c3 	bge.w	20000d70 <d_type+0x36c>
20000bea:	69e1      	ldr	r1, [r4, #28]
20000bec:	f841 0022 	str.w	r0, [r1, r2, lsl #2]
20000bf0:	3201      	adds	r2, #1
20000bf2:	6222      	str	r2, [r4, #32]
20000bf4:	7832      	ldrb	r2, [r6, #0]
20000bf6:	3a49      	subs	r2, #73	@ 0x49
20000bf8:	2a01      	cmp	r2, #1
20000bfa:	d805      	bhi.n	20000c08 <d_type+0x204>
20000bfc:	3601      	adds	r6, #1
20000bfe:	4620      	mov	r0, r4
20000c00:	60e6      	str	r6, [r4, #12]
20000c02:	f001 fe5f 	bl	200028c4 <d_template_args_1>
20000c06:	4603      	mov	r3, r0
20000c08:	462a      	mov	r2, r5
20000c0a:	2104      	movs	r1, #4
20000c0c:	4620      	mov	r0, r4
20000c0e:	f7ff fa11 	bl	20000034 <d_make_comp>
20000c12:	4605      	mov	r5, r0
20000c14:	9000      	str	r0, [sp, #0]
20000c16:	e76b      	b.n	20000af0 <d_type+0xec>
20000c18:	1c53      	adds	r3, r2, #1
20000c1a:	60e3      	str	r3, [r4, #12]
20000c1c:	7853      	ldrb	r3, [r2, #1]
20000c1e:	2b00      	cmp	r3, #0
20000c20:	f000 80a6 	beq.w	20000d70 <d_type+0x36c>
20000c24:	1c93      	adds	r3, r2, #2
20000c26:	60e3      	str	r3, [r4, #12]
20000c28:	7853      	ldrb	r3, [r2, #1]
20000c2a:	3b46      	subs	r3, #70	@ 0x46
20000c2c:	2b30      	cmp	r3, #48	@ 0x30
20000c2e:	f200 809f 	bhi.w	20000d70 <d_type+0x36c>
20000c32:	e8df f013 	tbh	[pc, r3, lsl #1]
20000c36:	00e4      	.short	0x00e4
20000c38:	009d009d 	.word	0x009d009d
20000c3c:	009d009d 	.word	0x009d009d
20000c40:	009d009d 	.word	0x009d009d
20000c44:	009d009d 	.word	0x009d009d
20000c48:	009d009d 	.word	0x009d009d
20000c4c:	009d009d 	.word	0x009d009d
20000c50:	0084009d 	.word	0x0084009d
20000c54:	009d009d 	.word	0x009d009d
20000c58:	009d009d 	.word	0x009d009d
20000c5c:	009d009d 	.word	0x009d009d
20000c60:	009d009d 	.word	0x009d009d
20000c64:	009d009d 	.word	0x009d009d
20000c68:	009d009d 	.word	0x009d009d
20000c6c:	009d01b2 	.word	0x009d01b2
20000c70:	0184019c 	.word	0x0184019c
20000c74:	0154016c 	.word	0x0154016c
20000c78:	013c009d 	.word	0x013c009d
20000c7c:	009d01e0 	.word	0x009d01e0
20000c80:	009d009d 	.word	0x009d009d
20000c84:	01c8009d 	.word	0x01c8009d
20000c88:	01f8009d 	.word	0x01f8009d
20000c8c:	009d009d 	.word	0x009d009d
20000c90:	00840124 	.word	0x00840124
20000c94:	00a100cc 	.word	0x00a100cc
20000c98:	3201      	adds	r2, #1
20000c9a:	4620      	mov	r0, r4
20000c9c:	60e2      	str	r2, [r4, #12]
20000c9e:	f7ff feb1 	bl	20000a04 <d_type>
20000ca2:	2300      	movs	r3, #0
20000ca4:	4602      	mov	r2, r0
20000ca6:	2125      	movs	r1, #37	@ 0x25
20000ca8:	4620      	mov	r0, r4
20000caa:	f7ff f9c3 	bl	20000034 <d_make_comp>
20000cae:	4605      	mov	r5, r0
20000cb0:	9000      	str	r0, [sp, #0]
20000cb2:	e71d      	b.n	20000af0 <d_type+0xec>
20000cb4:	4620      	mov	r0, r4
20000cb6:	f000 fadd 	bl	20001274 <d_function_type>
20000cba:	4605      	mov	r5, r0
20000cbc:	9000      	str	r0, [sp, #0]
20000cbe:	e717      	b.n	20000af0 <d_type+0xec>
20000cc0:	1c51      	adds	r1, r2, #1
20000cc2:	60e1      	str	r1, [r4, #12]
20000cc4:	7853      	ldrb	r3, [r2, #1]
20000cc6:	2b5f      	cmp	r3, #95	@ 0x5f
20000cc8:	f000 81d8 	beq.w	2000107c <d_type+0x678>
20000ccc:	3b30      	subs	r3, #48	@ 0x30
20000cce:	2b09      	cmp	r3, #9
20000cd0:	f200 81e3 	bhi.w	2000109a <d_type+0x696>
20000cd4:	460d      	mov	r5, r1
20000cd6:	462e      	mov	r6, r5
20000cd8:	3501      	adds	r5, #1
20000cda:	60e5      	str	r5, [r4, #12]
20000cdc:	782b      	ldrb	r3, [r5, #0]
20000cde:	3b30      	subs	r3, #48	@ 0x30
20000ce0:	2b09      	cmp	r3, #9
20000ce2:	d9f8      	bls.n	20000cd6 <d_type+0x2d2>
20000ce4:	1ab2      	subs	r2, r6, r2
20000ce6:	4620      	mov	r0, r4
20000ce8:	f7ff fa20 	bl	2000012c <d_make_name>
20000cec:	4607      	mov	r7, r0
20000cee:	2800      	cmp	r0, #0
20000cf0:	d03e      	beq.n	20000d70 <d_type+0x36c>
20000cf2:	7873      	ldrb	r3, [r6, #1]
20000cf4:	2b5f      	cmp	r3, #95	@ 0x5f
20000cf6:	d13b      	bne.n	20000d70 <d_type+0x36c>
20000cf8:	4629      	mov	r1, r5
20000cfa:	3101      	adds	r1, #1
20000cfc:	4620      	mov	r0, r4
20000cfe:	60e1      	str	r1, [r4, #12]
20000d00:	f7ff fe80 	bl	20000a04 <d_type>
20000d04:	463a      	mov	r2, r7
20000d06:	4603      	mov	r3, r0
20000d08:	212a      	movs	r1, #42	@ 0x2a
20000d0a:	4620      	mov	r0, r4
20000d0c:	f7ff f992 	bl	20000034 <d_make_comp>
20000d10:	4605      	mov	r5, r0
20000d12:	9000      	str	r0, [sp, #0]
20000d14:	e6ec      	b.n	20000af0 <d_type+0xec>
20000d16:	3201      	adds	r2, #1
20000d18:	4620      	mov	r0, r4
20000d1a:	60e2      	str	r2, [r4, #12]
20000d1c:	f7ff fe72 	bl	20000a04 <d_type>
20000d20:	4605      	mov	r5, r0
20000d22:	b328      	cbz	r0, 20000d70 <d_type+0x36c>
20000d24:	4620      	mov	r0, r4
20000d26:	f7ff fe6d 	bl	20000a04 <d_type>
20000d2a:	4603      	mov	r3, r0
20000d2c:	b300      	cbz	r0, 20000d70 <d_type+0x36c>
20000d2e:	462a      	mov	r2, r5
20000d30:	212b      	movs	r1, #43	@ 0x2b
20000d32:	4620      	mov	r0, r4
20000d34:	f7ff f97e 	bl	20000034 <d_make_comp>
20000d38:	4605      	mov	r5, r0
20000d3a:	9000      	str	r0, [sp, #0]
20000d3c:	e6d8      	b.n	20000af0 <d_type+0xec>
20000d3e:	2301      	movs	r3, #1
20000d40:	6b25      	ldr	r5, [r4, #48]	@ 0x30
20000d42:	4620      	mov	r0, r4
20000d44:	6323      	str	r3, [r4, #48]	@ 0x30
20000d46:	f000 fd8d 	bl	20001864 <d_expression_1>
20000d4a:	6325      	str	r5, [r4, #48]	@ 0x30
20000d4c:	4602      	mov	r2, r0
20000d4e:	2300      	movs	r3, #0
20000d50:	2144      	movs	r1, #68	@ 0x44
20000d52:	4620      	mov	r0, r4
20000d54:	f7ff f96e 	bl	20000034 <d_make_comp>
20000d58:	4605      	mov	r5, r0
20000d5a:	9000      	str	r0, [sp, #0]
20000d5c:	b140      	cbz	r0, 20000d70 <d_type+0x36c>
20000d5e:	68e3      	ldr	r3, [r4, #12]
20000d60:	781a      	ldrb	r2, [r3, #0]
20000d62:	b12a      	cbz	r2, 20000d70 <d_type+0x36c>
20000d64:	1c5a      	adds	r2, r3, #1
20000d66:	60e2      	str	r2, [r4, #12]
20000d68:	781b      	ldrb	r3, [r3, #0]
20000d6a:	2b45      	cmp	r3, #69	@ 0x45
20000d6c:	f43f aec3 	beq.w	20000af6 <d_type+0xf2>
20000d70:	2000      	movs	r0, #0
20000d72:	e69b      	b.n	20000aac <d_type+0xa8>
20000d74:	03ec7bff 	.word	0x03ec7bff
20000d78:	7893      	ldrb	r3, [r2, #2]
20000d7a:	2b5f      	cmp	r3, #95	@ 0x5f
20000d7c:	f000 81f5 	beq.w	2000116a <d_type+0x766>
20000d80:	e9d4 3205 	ldrd	r3, r2, [r4, #20]
20000d84:	4293      	cmp	r3, r2
20000d86:	daf3      	bge.n	20000d70 <d_type+0x36c>
20000d88:	6922      	ldr	r2, [r4, #16]
20000d8a:	eb03 0183 	add.w	r1, r3, r3, lsl #2
20000d8e:	2000      	movs	r0, #0
20000d90:	3301      	adds	r3, #1
20000d92:	eb02 0581 	add.w	r5, r2, r1, lsl #2
20000d96:	e9c5 0001 	strd	r0, r0, [r5, #4]
20000d9a:	6163      	str	r3, [r4, #20]
20000d9c:	2343      	movs	r3, #67	@ 0x43
20000d9e:	4620      	mov	r0, r4
20000da0:	f802 3021 	strb.w	r3, [r2, r1, lsl #2]
20000da4:	f7ff f9e4 	bl	20000170 <d_number>
20000da8:	60e8      	str	r0, [r5, #12]
20000daa:	68e3      	ldr	r3, [r4, #12]
20000dac:	781a      	ldrb	r2, [r3, #0]
20000dae:	2a5f      	cmp	r2, #95	@ 0x5f
20000db0:	d1de      	bne.n	20000d70 <d_type+0x36c>
20000db2:	3301      	adds	r3, #1
20000db4:	4620      	mov	r0, r4
20000db6:	60e3      	str	r3, [r4, #12]
20000db8:	f7ff fe24 	bl	20000a04 <d_type>
20000dbc:	462a      	mov	r2, r5
20000dbe:	4603      	mov	r3, r0
20000dc0:	212d      	movs	r1, #45	@ 0x2d
20000dc2:	4620      	mov	r0, r4
20000dc4:	f7ff f936 	bl	20000034 <d_make_comp>
20000dc8:	4605      	mov	r5, r0
20000dca:	9000      	str	r0, [sp, #0]
20000dcc:	e690      	b.n	20000af0 <d_type+0xec>
20000dce:	e9d4 3205 	ldrd	r3, r2, [r4, #20]
20000dd2:	4293      	cmp	r3, r2
20000dd4:	f280 81dc 	bge.w	20001190 <d_type+0x78c>
20000dd8:	6922      	ldr	r2, [r4, #16]
20000dda:	eb03 0183 	add.w	r1, r3, r3, lsl #2
20000dde:	2500      	movs	r5, #0
20000de0:	3301      	adds	r3, #1
20000de2:	eb02 0081 	add.w	r0, r2, r1, lsl #2
20000de6:	e9c0 5501 	strd	r5, r5, [r0, #4]
20000dea:	6163      	str	r3, [r4, #20]
20000dec:	2327      	movs	r3, #39	@ 0x27
20000dee:	f802 3021 	strb.w	r3, [r2, r1, lsl #2]
20000df2:	6ae3      	ldr	r3, [r4, #44]	@ 0x2c
20000df4:	4aba      	ldr	r2, [pc, #744]	@ (200010e0 <d_type+0x6dc>)
20000df6:	3307      	adds	r3, #7
20000df8:	60c2      	str	r2, [r0, #12]
20000dfa:	62e3      	str	r3, [r4, #44]	@ 0x2c
20000dfc:	e656      	b.n	20000aac <d_type+0xa8>
20000dfe:	4620      	mov	r0, r4
20000e00:	f7ff f9b6 	bl	20000170 <d_number>
20000e04:	68e3      	ldr	r3, [r4, #12]
20000e06:	4602      	mov	r2, r0
20000e08:	781d      	ldrb	r5, [r3, #0]
20000e0a:	2d62      	cmp	r5, #98	@ 0x62
20000e0c:	f000 8192 	beq.w	20001134 <d_type+0x730>
20000e10:	2d78      	cmp	r5, #120	@ 0x78
20000e12:	d002      	beq.n	20000e1a <d_type+0x416>
20000e14:	2d5f      	cmp	r5, #95	@ 0x5f
20000e16:	d1ab      	bne.n	20000d70 <d_type+0x36c>
20000e18:	2500      	movs	r5, #0
20000e1a:	fa0f fe82 	sxth.w	lr, r2
20000e1e:	3301      	adds	r3, #1
20000e20:	e9d4 1005 	ldrd	r1, r0, [r4, #20]
20000e24:	4281      	cmp	r1, r0
20000e26:	f280 81ae 	bge.w	20001186 <d_type+0x782>
20000e2a:	2014      	movs	r0, #20
20000e2c:	6927      	ldr	r7, [r4, #16]
20000e2e:	f04f 0c00 	mov.w	ip, #0
20000e32:	f04f 095c 	mov.w	r9, #92	@ 0x5c
20000e36:	fb01 f000 	mul.w	r0, r1, r0
20000e3a:	f8df 82d4 	ldr.w	r8, [pc, #724]	@ 20001110 <d_type+0x70c>
20000e3e:	3101      	adds	r1, #1
20000e40:	183e      	adds	r6, r7, r0
20000e42:	e9c6 cc01 	strd	ip, ip, [r6, #4]
20000e46:	6161      	str	r1, [r4, #20]
20000e48:	f807 9000 	strb.w	r9, [r7, r0]
20000e4c:	a801      	add	r0, sp, #4
20000e4e:	f8a6 e010 	strh.w	lr, [r6, #16]
20000e52:	49a4      	ldr	r1, [pc, #656]	@ (200010e4 <d_type+0x6e0>)
20000e54:	f8c6 800c 	str.w	r8, [r6, #12]
20000e58:	74b5      	strb	r5, [r6, #18]
20000e5a:	60e3      	str	r3, [r4, #12]
20000e5c:	9600      	str	r6, [sp, #0]
20000e5e:	f00a ff27 	bl	2000bcb0 <__sprintf_veneer>
20000e62:	a801      	add	r0, sp, #4
20000e64:	f00a ff04 	bl	2000bc70 <__strlen_veneer>
20000e68:	68f3      	ldr	r3, [r6, #12]
20000e6a:	6ae2      	ldr	r2, [r4, #44]	@ 0x2c
20000e6c:	685b      	ldr	r3, [r3, #4]
20000e6e:	4413      	add	r3, r2
20000e70:	2d00      	cmp	r5, #0
20000e72:	bf18      	it	ne
20000e74:	3301      	addne	r3, #1
20000e76:	4403      	add	r3, r0
20000e78:	9800      	ldr	r0, [sp, #0]
20000e7a:	62e3      	str	r3, [r4, #44]	@ 0x2c
20000e7c:	e616      	b.n	20000aac <d_type+0xa8>
20000e7e:	e9d4 3205 	ldrd	r3, r2, [r4, #20]
20000e82:	4293      	cmp	r3, r2
20000e84:	f280 8184 	bge.w	20001190 <d_type+0x78c>
20000e88:	6922      	ldr	r2, [r4, #16]
20000e8a:	eb03 0183 	add.w	r1, r3, r3, lsl #2
20000e8e:	2500      	movs	r5, #0
20000e90:	3301      	adds	r3, #1
20000e92:	eb02 0081 	add.w	r0, r2, r1, lsl #2
20000e96:	e9c0 5501 	strd	r5, r5, [r0, #4]
20000e9a:	6163      	str	r3, [r4, #20]
20000e9c:	2327      	movs	r3, #39	@ 0x27
20000e9e:	f802 3021 	strb.w	r3, [r2, r1, lsl #2]
20000ea2:	6ae3      	ldr	r3, [r4, #44]	@ 0x2c
20000ea4:	4a90      	ldr	r2, [pc, #576]	@ (200010e8 <d_type+0x6e4>)
20000ea6:	3308      	adds	r3, #8
20000ea8:	60c2      	str	r2, [r0, #12]
20000eaa:	62e3      	str	r3, [r4, #44]	@ 0x2c
20000eac:	e5fe      	b.n	20000aac <d_type+0xa8>
20000eae:	e9d4 3205 	ldrd	r3, r2, [r4, #20]
20000eb2:	4293      	cmp	r3, r2
20000eb4:	f280 816c 	bge.w	20001190 <d_type+0x78c>
20000eb8:	6922      	ldr	r2, [r4, #16]
20000eba:	eb03 0183 	add.w	r1, r3, r3, lsl #2
20000ebe:	2500      	movs	r5, #0
20000ec0:	3301      	adds	r3, #1
20000ec2:	eb02 0081 	add.w	r0, r2, r1, lsl #2
20000ec6:	e9c0 5501 	strd	r5, r5, [r0, #4]
20000eca:	6163      	str	r3, [r4, #20]
20000ecc:	2327      	movs	r3, #39	@ 0x27
20000ece:	f802 3021 	strb.w	r3, [r2, r1, lsl #2]
20000ed2:	6ae3      	ldr	r3, [r4, #44]	@ 0x2c
20000ed4:	4a85      	ldr	r2, [pc, #532]	@ (200010ec <d_type+0x6e8>)
20000ed6:	3304      	adds	r3, #4
20000ed8:	60c2      	str	r2, [r0, #12]
20000eda:	62e3      	str	r3, [r4, #44]	@ 0x2c
20000edc:	e5e6      	b.n	20000aac <d_type+0xa8>
20000ede:	e9d4 3205 	ldrd	r3, r2, [r4, #20]
20000ee2:	4293      	cmp	r3, r2
20000ee4:	f280 8154 	bge.w	20001190 <d_type+0x78c>
20000ee8:	6922      	ldr	r2, [r4, #16]
20000eea:	eb03 0183 	add.w	r1, r3, r3, lsl #2
20000eee:	2500      	movs	r5, #0
20000ef0:	3301      	adds	r3, #1
20000ef2:	eb02 0081 	add.w	r0, r2, r1, lsl #2
20000ef6:	e9c0 5501 	strd	r5, r5, [r0, #4]
20000efa:	6163      	str	r3, [r4, #20]
20000efc:	2327      	movs	r3, #39	@ 0x27
20000efe:	f802 3021 	strb.w	r3, [r2, r1, lsl #2]
20000f02:	6ae3      	ldr	r3, [r4, #44]	@ 0x2c
20000f04:	4a7a      	ldr	r2, [pc, #488]	@ (200010f0 <d_type+0x6ec>)
20000f06:	3309      	adds	r3, #9
20000f08:	60c2      	str	r2, [r0, #12]
20000f0a:	62e3      	str	r3, [r4, #44]	@ 0x2c
20000f0c:	e5ce      	b.n	20000aac <d_type+0xa8>
20000f0e:	e9d4 3205 	ldrd	r3, r2, [r4, #20]
20000f12:	4293      	cmp	r3, r2
20000f14:	f280 813c 	bge.w	20001190 <d_type+0x78c>
20000f18:	6922      	ldr	r2, [r4, #16]
20000f1a:	eb03 0183 	add.w	r1, r3, r3, lsl #2
20000f1e:	2500      	movs	r5, #0
20000f20:	3301      	adds	r3, #1
20000f22:	eb02 0081 	add.w	r0, r2, r1, lsl #2
20000f26:	e9c0 5501 	strd	r5, r5, [r0, #4]
20000f2a:	6163      	str	r3, [r4, #20]
20000f2c:	2327      	movs	r3, #39	@ 0x27
20000f2e:	f802 3021 	strb.w	r3, [r2, r1, lsl #2]
20000f32:	6ae3      	ldr	r3, [r4, #44]	@ 0x2c
20000f34:	4a6f      	ldr	r2, [pc, #444]	@ (200010f4 <d_type+0x6f0>)
20000f36:	330a      	adds	r3, #10
20000f38:	60c2      	str	r2, [r0, #12]
20000f3a:	62e3      	str	r3, [r4, #44]	@ 0x2c
20000f3c:	e5b6      	b.n	20000aac <d_type+0xa8>
20000f3e:	e9d4 3205 	ldrd	r3, r2, [r4, #20]
20000f42:	4293      	cmp	r3, r2
20000f44:	f280 8124 	bge.w	20001190 <d_type+0x78c>
20000f48:	6922      	ldr	r2, [r4, #16]
20000f4a:	eb03 0183 	add.w	r1, r3, r3, lsl #2
20000f4e:	2500      	movs	r5, #0
20000f50:	3301      	adds	r3, #1
20000f52:	eb02 0081 	add.w	r0, r2, r1, lsl #2
20000f56:	e9c0 5501 	strd	r5, r5, [r0, #4]
20000f5a:	6163      	str	r3, [r4, #20]
20000f5c:	2327      	movs	r3, #39	@ 0x27
20000f5e:	f802 3021 	strb.w	r3, [r2, r1, lsl #2]
20000f62:	6ae3      	ldr	r3, [r4, #44]	@ 0x2c
20000f64:	4a64      	ldr	r2, [pc, #400]	@ (200010f8 <d_type+0x6f4>)
20000f66:	3309      	adds	r3, #9
20000f68:	60c2      	str	r2, [r0, #12]
20000f6a:	62e3      	str	r3, [r4, #44]	@ 0x2c
20000f6c:	e59e      	b.n	20000aac <d_type+0xa8>
20000f6e:	e9d4 3205 	ldrd	r3, r2, [r4, #20]
20000f72:	4293      	cmp	r3, r2
20000f74:	f6bf aefc 	bge.w	20000d70 <d_type+0x36c>
20000f78:	6922      	ldr	r2, [r4, #16]
20000f7a:	eb03 0083 	add.w	r0, r3, r3, lsl #2
20000f7e:	3301      	adds	r3, #1
20000f80:	0081      	lsls	r1, r0, #2
20000f82:	6163      	str	r3, [r4, #20]
20000f84:	eb02 0080 	add.w	r0, r2, r0, lsl #2
20000f88:	2300      	movs	r3, #0
20000f8a:	e9c0 3301 	strd	r3, r3, [r0, #4]
20000f8e:	5453      	strb	r3, [r2, r1]
20000f90:	230e      	movs	r3, #14
20000f92:	4a5a      	ldr	r2, [pc, #360]	@ (200010fc <d_type+0x6f8>)
20000f94:	e9c0 2303 	strd	r2, r3, [r0, #12]
20000f98:	e588      	b.n	20000aac <d_type+0xa8>
20000f9a:	e9d4 3205 	ldrd	r3, r2, [r4, #20]
20000f9e:	4293      	cmp	r3, r2
20000fa0:	f6bf aee6 	bge.w	20000d70 <d_type+0x36c>
20000fa4:	6922      	ldr	r2, [r4, #16]
20000fa6:	eb03 0083 	add.w	r0, r3, r3, lsl #2
20000faa:	3301      	adds	r3, #1
20000fac:	0081      	lsls	r1, r0, #2
20000fae:	6163      	str	r3, [r4, #20]
20000fb0:	eb02 0080 	add.w	r0, r2, r0, lsl #2
20000fb4:	2300      	movs	r3, #0
20000fb6:	e9c0 3301 	strd	r3, r3, [r0, #4]
20000fba:	5453      	strb	r3, [r2, r1]
20000fbc:	2304      	movs	r3, #4
20000fbe:	4a50      	ldr	r2, [pc, #320]	@ (20001100 <d_type+0x6fc>)
20000fc0:	e9c0 2303 	strd	r2, r3, [r0, #12]
20000fc4:	e572      	b.n	20000aac <d_type+0xa8>
20000fc6:	e9d4 3205 	ldrd	r3, r2, [r4, #20]
20000fca:	4293      	cmp	r3, r2
20000fcc:	f280 80e0 	bge.w	20001190 <d_type+0x78c>
20000fd0:	6922      	ldr	r2, [r4, #16]
20000fd2:	eb03 0183 	add.w	r1, r3, r3, lsl #2
20000fd6:	2500      	movs	r5, #0
20000fd8:	3301      	adds	r3, #1
20000fda:	eb02 0081 	add.w	r0, r2, r1, lsl #2
20000fde:	e9c0 5501 	strd	r5, r5, [r0, #4]
20000fe2:	6163      	str	r3, [r4, #20]
20000fe4:	2327      	movs	r3, #39	@ 0x27
20000fe6:	f802 3021 	strb.w	r3, [r2, r1, lsl #2]
20000fea:	6ae3      	ldr	r3, [r4, #44]	@ 0x2c
20000fec:	4a45      	ldr	r2, [pc, #276]	@ (20001104 <d_type+0x700>)
20000fee:	3311      	adds	r3, #17
20000ff0:	60c2      	str	r2, [r0, #12]
20000ff2:	62e3      	str	r3, [r4, #44]	@ 0x2c
20000ff4:	e55a      	b.n	20000aac <d_type+0xa8>
20000ff6:	e9d4 3205 	ldrd	r3, r2, [r4, #20]
20000ffa:	4293      	cmp	r3, r2
20000ffc:	f280 80c8 	bge.w	20001190 <d_type+0x78c>
20001000:	6922      	ldr	r2, [r4, #16]
20001002:	eb03 0183 	add.w	r1, r3, r3, lsl #2
20001006:	2500      	movs	r5, #0
20001008:	3301      	adds	r3, #1
2000100a:	eb02 0081 	add.w	r0, r2, r1, lsl #2
2000100e:	e9c0 5501 	strd	r5, r5, [r0, #4]
20001012:	6163      	str	r3, [r4, #20]
20001014:	2327      	movs	r3, #39	@ 0x27
20001016:	f802 3021 	strb.w	r3, [r2, r1, lsl #2]
2000101a:	6ae3      	ldr	r3, [r4, #44]	@ 0x2c
2000101c:	4a3a      	ldr	r2, [pc, #232]	@ (20001108 <d_type+0x704>)
2000101e:	3308      	adds	r3, #8
20001020:	60c2      	str	r2, [r0, #12]
20001022:	62e3      	str	r3, [r4, #44]	@ 0x2c
20001024:	e542      	b.n	20000aac <d_type+0xa8>
20001026:	4620      	mov	r0, r4
20001028:	f7ff fcec 	bl	20000a04 <d_type>
2000102c:	2300      	movs	r3, #0
2000102e:	4602      	mov	r2, r0
20001030:	214c      	movs	r1, #76	@ 0x4c
20001032:	4620      	mov	r0, r4
20001034:	f7fe fffe 	bl	20000034 <d_make_comp>
20001038:	4605      	mov	r5, r0
2000103a:	9000      	str	r0, [sp, #0]
2000103c:	e558      	b.n	20000af0 <d_type+0xec>
2000103e:	4833      	ldr	r0, [pc, #204]	@ (2000110c <d_type+0x708>)
20001040:	eb01 0381 	add.w	r3, r1, r1, lsl #2
20001044:	eb00 0183 	add.w	r1, r0, r3, lsl #2
20001048:	e9d4 3005 	ldrd	r3, r0, [r4, #20]
2000104c:	4283      	cmp	r3, r0
2000104e:	f280 80a2 	bge.w	20001196 <d_type+0x792>
20001052:	6926      	ldr	r6, [r4, #16]
20001054:	eb03 0783 	add.w	r7, r3, r3, lsl #2
20001058:	f04f 0c27 	mov.w	ip, #39	@ 0x27
2000105c:	3301      	adds	r3, #1
2000105e:	eb06 0087 	add.w	r0, r6, r7, lsl #2
20001062:	3201      	adds	r2, #1
20001064:	e9c0 5501 	strd	r5, r5, [r0, #4]
20001068:	6163      	str	r3, [r4, #20]
2000106a:	f806 c027 	strb.w	ip, [r6, r7, lsl #2]
2000106e:	6ae3      	ldr	r3, [r4, #44]	@ 0x2c
20001070:	60c1      	str	r1, [r0, #12]
20001072:	6849      	ldr	r1, [r1, #4]
20001074:	60e2      	str	r2, [r4, #12]
20001076:	440b      	add	r3, r1
20001078:	62e3      	str	r3, [r4, #44]	@ 0x2c
2000107a:	e517      	b.n	20000aac <d_type+0xa8>
2000107c:	2700      	movs	r7, #0
2000107e:	e63c      	b.n	20000cfa <d_type+0x2f6>
20001080:	3301      	adds	r3, #1
20001082:	4620      	mov	r0, r4
20001084:	60e3      	str	r3, [r4, #12]
20001086:	f001 fc1d 	bl	200028c4 <d_template_args_1>
2000108a:	462a      	mov	r2, r5
2000108c:	4603      	mov	r3, r0
2000108e:	2104      	movs	r1, #4
20001090:	4620      	mov	r0, r4
20001092:	f7fe ffcf 	bl	20000034 <d_make_comp>
20001096:	4605      	mov	r5, r0
20001098:	e586      	b.n	20000ba8 <d_type+0x1a4>
2000109a:	2301      	movs	r3, #1
2000109c:	6b25      	ldr	r5, [r4, #48]	@ 0x30
2000109e:	4620      	mov	r0, r4
200010a0:	6323      	str	r3, [r4, #48]	@ 0x30
200010a2:	f000 fbdf 	bl	20001864 <d_expression_1>
200010a6:	6325      	str	r5, [r4, #48]	@ 0x30
200010a8:	4607      	mov	r7, r0
200010aa:	2800      	cmp	r0, #0
200010ac:	f43f ae60 	beq.w	20000d70 <d_type+0x36c>
200010b0:	68e5      	ldr	r5, [r4, #12]
200010b2:	782b      	ldrb	r3, [r5, #0]
200010b4:	e61e      	b.n	20000cf4 <d_type+0x2f0>
200010b6:	1c73      	adds	r3, r6, #1
200010b8:	4620      	mov	r0, r4
200010ba:	f8d4 9014 	ldr.w	r9, [r4, #20]
200010be:	60e3      	str	r3, [r4, #12]
200010c0:	f8d4 8020 	ldr.w	r8, [r4, #32]
200010c4:	6ae7      	ldr	r7, [r4, #44]	@ 0x2c
200010c6:	f001 fbfd 	bl	200028c4 <d_template_args_1>
200010ca:	68e3      	ldr	r3, [r4, #12]
200010cc:	781b      	ldrb	r3, [r3, #0]
200010ce:	2b49      	cmp	r3, #73	@ 0x49
200010d0:	d020      	beq.n	20001114 <d_type+0x710>
200010d2:	60e6      	str	r6, [r4, #12]
200010d4:	f8c4 9014 	str.w	r9, [r4, #20]
200010d8:	f8c4 8020 	str.w	r8, [r4, #32]
200010dc:	62e7      	str	r7, [r4, #44]	@ 0x2c
200010de:	e507      	b.n	20000af0 <d_type+0xec>
200010e0:	2000c4d0 	.word	0x2000c4d0
200010e4:	2000cb1c 	.word	0x2000cb1c
200010e8:	2000c4e4 	.word	0x2000c4e4
200010ec:	2000c4bc 	.word	0x2000c4bc
200010f0:	2000c480 	.word	0x2000c480
200010f4:	2000c4a8 	.word	0x2000c4a8
200010f8:	2000c494 	.word	0x2000c494
200010fc:	2000cb4c 	.word	0x2000cb4c
20001100:	2000cb44 	.word	0x2000cb44
20001104:	2000c50c 	.word	0x2000c50c
20001108:	2000c4f8 	.word	0x2000c4f8
2000110c:	2000c278 	.word	0x2000c278
20001110:	2000c520 	.word	0x2000c520
20001114:	2d00      	cmp	r5, #0
20001116:	f43f ae2b 	beq.w	20000d70 <d_type+0x36c>
2000111a:	e9d4 1308 	ldrd	r1, r3, [r4, #32]
2000111e:	4299      	cmp	r1, r3
20001120:	f6bf ae26 	bge.w	20000d70 <d_type+0x36c>
20001124:	69e2      	ldr	r2, [r4, #28]
20001126:	4603      	mov	r3, r0
20001128:	f842 5021 	str.w	r5, [r2, r1, lsl #2]
2000112c:	3101      	adds	r1, #1
2000112e:	462a      	mov	r2, r5
20001130:	6221      	str	r1, [r4, #32]
20001132:	e56a      	b.n	20000c0a <d_type+0x206>
20001134:	2810      	cmp	r0, #16
20001136:	f47f ae1b 	bne.w	20000d70 <d_type+0x36c>
2000113a:	3301      	adds	r3, #1
2000113c:	e9d4 2105 	ldrd	r2, r1, [r4, #20]
20001140:	60e3      	str	r3, [r4, #12]
20001142:	428a      	cmp	r2, r1
20001144:	da24      	bge.n	20001190 <d_type+0x78c>
20001146:	2314      	movs	r3, #20
20001148:	6920      	ldr	r0, [r4, #16]
2000114a:	2500      	movs	r5, #0
2000114c:	fb02 f303 	mul.w	r3, r2, r3
20001150:	3201      	adds	r2, #1
20001152:	18c1      	adds	r1, r0, r3
20001154:	e9c1 5501 	strd	r5, r5, [r1, #4]
20001158:	6162      	str	r2, [r4, #20]
2000115a:	2227      	movs	r2, #39	@ 0x27
2000115c:	9100      	str	r1, [sp, #0]
2000115e:	54c2      	strb	r2, [r0, r3]
20001160:	4a0e      	ldr	r2, [pc, #56]	@ (2000119c <d_type+0x798>)
20001162:	6ae3      	ldr	r3, [r4, #44]	@ 0x2c
20001164:	60ca      	str	r2, [r1, #12]
20001166:	330f      	adds	r3, #15
20001168:	e686      	b.n	20000e78 <d_type+0x474>
2000116a:	3203      	adds	r2, #3
2000116c:	2301      	movs	r3, #1
2000116e:	6b25      	ldr	r5, [r4, #48]	@ 0x30
20001170:	4620      	mov	r0, r4
20001172:	60e2      	str	r2, [r4, #12]
20001174:	6323      	str	r3, [r4, #48]	@ 0x30
20001176:	f000 fb75 	bl	20001864 <d_expression_1>
2000117a:	6325      	str	r5, [r4, #48]	@ 0x30
2000117c:	4605      	mov	r5, r0
2000117e:	2800      	cmp	r0, #0
20001180:	f47f ae13 	bne.w	20000daa <d_type+0x3a6>
20001184:	e5f4      	b.n	20000d70 <d_type+0x36c>
20001186:	4906      	ldr	r1, [pc, #24]	@ (200011a0 <d_type+0x79c>)
20001188:	a801      	add	r0, sp, #4
2000118a:	60e3      	str	r3, [r4, #12]
2000118c:	f00a fd90 	bl	2000bcb0 <__sprintf_veneer>
20001190:	2300      	movs	r3, #0
20001192:	68db      	ldr	r3, [r3, #12]
20001194:	deff      	udf	#255	@ 0xff
20001196:	68eb      	ldr	r3, [r5, #12]
20001198:	deff      	udf	#255	@ 0xff
2000119a:	bf00      	nop
2000119c:	2000c534 	.word	0x2000c534
200011a0:	2000cb1c 	.word	0x2000cb1c

200011a4 <d_parmlist>:
200011a4:	b530      	push	{r4, r5, lr}
200011a6:	4604      	mov	r4, r0
200011a8:	b083      	sub	sp, #12
200011aa:	2300      	movs	r3, #0
200011ac:	68e2      	ldr	r2, [r4, #12]
200011ae:	ad01      	add	r5, sp, #4
200011b0:	9301      	str	r3, [sp, #4]
200011b2:	4620      	mov	r0, r4
200011b4:	7813      	ldrb	r3, [r2, #0]
200011b6:	2b4f      	cmp	r3, #79	@ 0x4f
200011b8:	d017      	beq.n	200011ea <d_parmlist+0x46>
200011ba:	d81f      	bhi.n	200011fc <d_parmlist+0x58>
200011bc:	2b2e      	cmp	r3, #46	@ 0x2e
200011be:	d017      	beq.n	200011f0 <d_parmlist+0x4c>
200011c0:	2b45      	cmp	r3, #69	@ 0x45
200011c2:	d015      	beq.n	200011f0 <d_parmlist+0x4c>
200011c4:	b1a3      	cbz	r3, 200011f0 <d_parmlist+0x4c>
200011c6:	f7ff fc1d 	bl	20000a04 <d_type>
200011ca:	4602      	mov	r2, r0
200011cc:	2300      	movs	r3, #0
200011ce:	212e      	movs	r1, #46	@ 0x2e
200011d0:	4620      	mov	r0, r4
200011d2:	b33a      	cbz	r2, 20001224 <d_parmlist+0x80>
200011d4:	f7fe ff2e 	bl	20000034 <d_make_comp>
200011d8:	6028      	str	r0, [r5, #0]
200011da:	b318      	cbz	r0, 20001224 <d_parmlist+0x80>
200011dc:	68e2      	ldr	r2, [r4, #12]
200011de:	f100 0510 	add.w	r5, r0, #16
200011e2:	4620      	mov	r0, r4
200011e4:	7813      	ldrb	r3, [r2, #0]
200011e6:	2b4f      	cmp	r3, #79	@ 0x4f
200011e8:	d1e7      	bne.n	200011ba <d_parmlist+0x16>
200011ea:	7853      	ldrb	r3, [r2, #1]
200011ec:	2b45      	cmp	r3, #69	@ 0x45
200011ee:	d1ea      	bne.n	200011c6 <d_parmlist+0x22>
200011f0:	9801      	ldr	r0, [sp, #4]
200011f2:	b1b8      	cbz	r0, 20001224 <d_parmlist+0x80>
200011f4:	6903      	ldr	r3, [r0, #16]
200011f6:	b13b      	cbz	r3, 20001208 <d_parmlist+0x64>
200011f8:	b003      	add	sp, #12
200011fa:	bd30      	pop	{r4, r5, pc}
200011fc:	2b52      	cmp	r3, #82	@ 0x52
200011fe:	d1e2      	bne.n	200011c6 <d_parmlist+0x22>
20001200:	7853      	ldrb	r3, [r2, #1]
20001202:	2b45      	cmp	r3, #69	@ 0x45
20001204:	d1df      	bne.n	200011c6 <d_parmlist+0x22>
20001206:	e7f3      	b.n	200011f0 <d_parmlist+0x4c>
20001208:	68c2      	ldr	r2, [r0, #12]
2000120a:	7811      	ldrb	r1, [r2, #0]
2000120c:	2927      	cmp	r1, #39	@ 0x27
2000120e:	d1f3      	bne.n	200011f8 <d_parmlist+0x54>
20001210:	68d2      	ldr	r2, [r2, #12]
20001212:	7c11      	ldrb	r1, [r2, #16]
20001214:	2909      	cmp	r1, #9
20001216:	d1ef      	bne.n	200011f8 <d_parmlist+0x54>
20001218:	6ae1      	ldr	r1, [r4, #44]	@ 0x2c
2000121a:	6852      	ldr	r2, [r2, #4]
2000121c:	1a89      	subs	r1, r1, r2
2000121e:	62e1      	str	r1, [r4, #44]	@ 0x2c
20001220:	60c3      	str	r3, [r0, #12]
20001222:	e7e9      	b.n	200011f8 <d_parmlist+0x54>
20001224:	2000      	movs	r0, #0
20001226:	b003      	add	sp, #12
20001228:	bd30      	pop	{r4, r5, pc}
2000122a:	bf00      	nop

2000122c <d_bare_function_type>:
2000122c:	68c3      	ldr	r3, [r0, #12]
2000122e:	b570      	push	{r4, r5, r6, lr}
20001230:	781a      	ldrb	r2, [r3, #0]
20001232:	4605      	mov	r5, r0
20001234:	2a4a      	cmp	r2, #74	@ 0x4a
20001236:	d01a      	beq.n	2000126e <d_bare_function_type+0x42>
20001238:	b181      	cbz	r1, 2000125c <d_bare_function_type+0x30>
2000123a:	4628      	mov	r0, r5
2000123c:	f7ff fbe2 	bl	20000a04 <d_type>
20001240:	4604      	mov	r4, r0
20001242:	b190      	cbz	r0, 2000126a <d_bare_function_type+0x3e>
20001244:	4628      	mov	r0, r5
20001246:	f7ff ffad 	bl	200011a4 <d_parmlist>
2000124a:	4603      	mov	r3, r0
2000124c:	b168      	cbz	r0, 2000126a <d_bare_function_type+0x3e>
2000124e:	4622      	mov	r2, r4
20001250:	4628      	mov	r0, r5
20001252:	2129      	movs	r1, #41	@ 0x29
20001254:	e8bd 4070 	ldmia.w	sp!, {r4, r5, r6, lr}
20001258:	f7fe beec 	b.w	20000034 <d_make_comp>
2000125c:	4628      	mov	r0, r5
2000125e:	460c      	mov	r4, r1
20001260:	f7ff ffa0 	bl	200011a4 <d_parmlist>
20001264:	4603      	mov	r3, r0
20001266:	2800      	cmp	r0, #0
20001268:	d1f1      	bne.n	2000124e <d_bare_function_type+0x22>
2000126a:	2000      	movs	r0, #0
2000126c:	bd70      	pop	{r4, r5, r6, pc}
2000126e:	3301      	adds	r3, #1
20001270:	60c3      	str	r3, [r0, #12]
20001272:	e7e2      	b.n	2000123a <d_bare_function_type+0xe>

20001274 <d_function_type>:
20001274:	b510      	push	{r4, lr}
20001276:	4604      	mov	r4, r0
20001278:	6880      	ldr	r0, [r0, #8]
2000127a:	f410 2080 	ands.w	r0, r0, #262144	@ 0x40000
2000127e:	d10b      	bne.n	20001298 <d_function_type+0x24>
20001280:	6be2      	ldr	r2, [r4, #60]	@ 0x3c
20001282:	f5b2 6f00 	cmp.w	r2, #2048	@ 0x800
20001286:	d806      	bhi.n	20001296 <d_function_type+0x22>
20001288:	1c51      	adds	r1, r2, #1
2000128a:	68e3      	ldr	r3, [r4, #12]
2000128c:	63e1      	str	r1, [r4, #60]	@ 0x3c
2000128e:	7819      	ldrb	r1, [r3, #0]
20001290:	2946      	cmp	r1, #70	@ 0x46
20001292:	d007      	beq.n	200012a4 <d_function_type+0x30>
20001294:	63e2      	str	r2, [r4, #60]	@ 0x3c
20001296:	bd10      	pop	{r4, pc}
20001298:	68e3      	ldr	r3, [r4, #12]
2000129a:	781a      	ldrb	r2, [r3, #0]
2000129c:	2a46      	cmp	r2, #70	@ 0x46
2000129e:	d001      	beq.n	200012a4 <d_function_type+0x30>
200012a0:	2000      	movs	r0, #0
200012a2:	bd10      	pop	{r4, pc}
200012a4:	1c5a      	adds	r2, r3, #1
200012a6:	60e2      	str	r2, [r4, #12]
200012a8:	785a      	ldrb	r2, [r3, #1]
200012aa:	2a59      	cmp	r2, #89	@ 0x59
200012ac:	d101      	bne.n	200012b2 <d_function_type+0x3e>
200012ae:	3302      	adds	r3, #2
200012b0:	60e3      	str	r3, [r4, #12]
200012b2:	2101      	movs	r1, #1
200012b4:	4620      	mov	r0, r4
200012b6:	f7ff ffb9 	bl	2000122c <d_bare_function_type>
200012ba:	4601      	mov	r1, r0
200012bc:	4620      	mov	r0, r4
200012be:	f7fe ffbf 	bl	20000240 <d_ref_qualifier>
200012c2:	68e3      	ldr	r3, [r4, #12]
200012c4:	781a      	ldrb	r2, [r3, #0]
200012c6:	2a45      	cmp	r2, #69	@ 0x45
200012c8:	d006      	beq.n	200012d8 <d_function_type+0x64>
200012ca:	2000      	movs	r0, #0
200012cc:	68a3      	ldr	r3, [r4, #8]
200012ce:	035b      	lsls	r3, r3, #13
200012d0:	d4e1      	bmi.n	20001296 <d_function_type+0x22>
200012d2:	6be2      	ldr	r2, [r4, #60]	@ 0x3c
200012d4:	3a01      	subs	r2, #1
200012d6:	e7dd      	b.n	20001294 <d_function_type+0x20>
200012d8:	3301      	adds	r3, #1
200012da:	60e3      	str	r3, [r4, #12]
200012dc:	e7f6      	b.n	200012cc <d_function_type+0x58>
200012de:	bf00      	nop

200012e0 <d_template_parm>:
200012e0:	68c3      	ldr	r3, [r0, #12]
200012e2:	781a      	ldrb	r2, [r3, #0]
200012e4:	2a54      	cmp	r2, #84	@ 0x54
200012e6:	d149      	bne.n	2000137c <d_template_parm+0x9c>
200012e8:	b570      	push	{r4, r5, r6, lr}
200012ea:	785a      	ldrb	r2, [r3, #1]
200012ec:	4604      	mov	r4, r0
200012ee:	460d      	mov	r5, r1
200012f0:	3a6e      	subs	r2, #110	@ 0x6e
200012f2:	2a0b      	cmp	r2, #11
200012f4:	d809      	bhi.n	2000130a <d_template_parm+0x2a>
200012f6:	e8df f002 	tbb	[pc, r2]
200012fa:	0814      	.short	0x0814
200012fc:	08080822 	.word	0x08080822
20001300:	08080831 	.word	0x08080831
20001304:	0a08      	.short	0x0a08
20001306:	2301      	movs	r3, #1
20001308:	602b      	str	r3, [r5, #0]
2000130a:	2000      	movs	r0, #0
2000130c:	bd70      	pop	{r4, r5, r6, pc}
2000130e:	3302      	adds	r3, #2
20001310:	2158      	movs	r1, #88	@ 0x58
20001312:	2200      	movs	r2, #0
20001314:	60c3      	str	r3, [r0, #12]
20001316:	4620      	mov	r0, r4
20001318:	2300      	movs	r3, #0
2000131a:	e8bd 4070 	ldmia.w	sp!, {r4, r5, r6, lr}
2000131e:	f7fe be89 	b.w	20000034 <d_make_comp>
20001322:	3302      	adds	r3, #2
20001324:	60c3      	str	r3, [r0, #12]
20001326:	f7ff fb6d 	bl	20000a04 <d_type>
2000132a:	4602      	mov	r2, r0
2000132c:	2800      	cmp	r0, #0
2000132e:	d0ea      	beq.n	20001306 <d_template_parm+0x26>
20001330:	4620      	mov	r0, r4
20001332:	2159      	movs	r1, #89	@ 0x59
20001334:	2300      	movs	r3, #0
20001336:	e8bd 4070 	ldmia.w	sp!, {r4, r5, r6, lr}
2000133a:	f7fe be7b 	b.w	20000034 <d_make_comp>
2000133e:	3302      	adds	r3, #2
20001340:	4629      	mov	r1, r5
20001342:	60c3      	str	r3, [r0, #12]
20001344:	f7ff ffcc 	bl	200012e0 <d_template_parm>
20001348:	4602      	mov	r2, r0
2000134a:	2800      	cmp	r0, #0
2000134c:	d0db      	beq.n	20001306 <d_template_parm+0x26>
2000134e:	4620      	mov	r0, r4
20001350:	215b      	movs	r1, #91	@ 0x5b
20001352:	2300      	movs	r3, #0
20001354:	e8bd 4070 	ldmia.w	sp!, {r4, r5, r6, lr}
20001358:	f7fe be6c 	b.w	20000034 <d_make_comp>
2000135c:	3302      	adds	r3, #2
2000135e:	4629      	mov	r1, r5
20001360:	60c3      	str	r3, [r0, #12]
20001362:	f000 f80d 	bl	20001380 <d_template_head>
20001366:	4602      	mov	r2, r0
20001368:	2800      	cmp	r0, #0
2000136a:	d0cc      	beq.n	20001306 <d_template_parm+0x26>
2000136c:	68e3      	ldr	r3, [r4, #12]
2000136e:	7819      	ldrb	r1, [r3, #0]
20001370:	2945      	cmp	r1, #69	@ 0x45
20001372:	d1c8      	bne.n	20001306 <d_template_parm+0x26>
20001374:	3301      	adds	r3, #1
20001376:	215a      	movs	r1, #90	@ 0x5a
20001378:	60e3      	str	r3, [r4, #12]
2000137a:	e7cc      	b.n	20001316 <d_template_parm+0x36>
2000137c:	2000      	movs	r0, #0
2000137e:	4770      	bx	lr

20001380 <d_template_head>:
20001380:	b570      	push	{r4, r5, r6, lr}
20001382:	2300      	movs	r3, #0
20001384:	b082      	sub	sp, #8
20001386:	4605      	mov	r5, r0
20001388:	460e      	mov	r6, r1
2000138a:	ac01      	add	r4, sp, #4
2000138c:	9301      	str	r3, [sp, #4]
2000138e:	e002      	b.n	20001396 <d_template_head+0x16>
20001390:	6023      	str	r3, [r4, #0]
20001392:	f103 0410 	add.w	r4, r3, #16
20001396:	4631      	mov	r1, r6
20001398:	4628      	mov	r0, r5
2000139a:	f7ff ffa1 	bl	200012e0 <d_template_parm>
2000139e:	4603      	mov	r3, r0
200013a0:	2800      	cmp	r0, #0
200013a2:	d1f5      	bne.n	20001390 <d_template_head+0x10>
200013a4:	9a01      	ldr	r2, [sp, #4]
200013a6:	b132      	cbz	r2, 200013b6 <d_template_head+0x36>
200013a8:	2157      	movs	r1, #87	@ 0x57
200013aa:	4628      	mov	r0, r5
200013ac:	b002      	add	sp, #8
200013ae:	e8bd 4070 	ldmia.w	sp!, {r4, r5, r6, lr}
200013b2:	f7fe be3f 	b.w	20000034 <d_make_comp>
200013b6:	b002      	add	sp, #8
200013b8:	bd70      	pop	{r4, r5, r6, pc}
200013ba:	bf00      	nop

200013bc <d_operator_name>:
200013bc:	68c3      	ldr	r3, [r0, #12]
200013be:	e92d 41f0 	stmdb	sp!, {r4, r5, r6, r7, r8, lr}
200013c2:	781f      	ldrb	r7, [r3, #0]
200013c4:	4606      	mov	r6, r0
200013c6:	2f00      	cmp	r7, #0
200013c8:	d037      	beq.n	2000143a <d_operator_name+0x7e>
200013ca:	1c5a      	adds	r2, r3, #1
200013cc:	60c2      	str	r2, [r0, #12]
200013ce:	f893 8001 	ldrb.w	r8, [r3, #1]
200013d2:	781f      	ldrb	r7, [r3, #0]
200013d4:	f1b8 0f00 	cmp.w	r8, #0
200013d8:	d131      	bne.n	2000143e <d_operator_name+0x82>
200013da:	2148      	movs	r1, #72	@ 0x48
200013dc:	2200      	movs	r2, #0
200013de:	4d39      	ldr	r5, [pc, #228]	@ (200014c4 <d_operator_name+0x108>)
200013e0:	1a8b      	subs	r3, r1, r2
200013e2:	bf48      	it	mi
200013e4:	3301      	addmi	r3, #1
200013e6:	eb02 0363 	add.w	r3, r2, r3, asr #1
200013ea:	0118      	lsls	r0, r3, #4
200013ec:	eb05 1e03 	add.w	lr, r5, r3, lsl #4
200013f0:	582c      	ldr	r4, [r5, r0]
200013f2:	f894 c000 	ldrb.w	ip, [r4]
200013f6:	45bc      	cmp	ip, r7
200013f8:	d007      	beq.n	2000140a <d_operator_name+0x4e>
200013fa:	bf94      	ite	ls
200013fc:	1c5a      	addls	r2, r3, #1
200013fe:	4619      	movhi	r1, r3
20001400:	428a      	cmp	r2, r1
20001402:	d1ed      	bne.n	200013e0 <d_operator_name+0x24>
20001404:	2000      	movs	r0, #0
20001406:	e8bd 81f0 	ldmia.w	sp!, {r4, r5, r6, r7, r8, pc}
2000140a:	7860      	ldrb	r0, [r4, #1]
2000140c:	4540      	cmp	r0, r8
2000140e:	d1f4      	bne.n	200013fa <d_operator_name+0x3e>
20001410:	e9d6 3205 	ldrd	r3, r2, [r6, #20]
20001414:	4293      	cmp	r3, r2
20001416:	daf5      	bge.n	20001404 <d_operator_name+0x48>
20001418:	6932      	ldr	r2, [r6, #16]
2000141a:	eb03 0183 	add.w	r1, r3, r3, lsl #2
2000141e:	2400      	movs	r4, #0
20001420:	3301      	adds	r3, #1
20001422:	eb02 0081 	add.w	r0, r2, r1, lsl #2
20001426:	e9c0 4401 	strd	r4, r4, [r0, #4]
2000142a:	6173      	str	r3, [r6, #20]
2000142c:	2332      	movs	r3, #50	@ 0x32
2000142e:	f802 3021 	strb.w	r3, [r2, r1, lsl #2]
20001432:	f8c0 e00c 	str.w	lr, [r0, #12]
20001436:	e8bd 81f0 	ldmia.w	sp!, {r4, r5, r6, r7, r8, pc}
2000143a:	46b8      	mov	r8, r7
2000143c:	e7cd      	b.n	200013da <d_operator_name+0x1e>
2000143e:	1c9a      	adds	r2, r3, #2
20001440:	2f76      	cmp	r7, #118	@ 0x76
20001442:	60c2      	str	r2, [r0, #12]
20001444:	f893 8001 	ldrb.w	r8, [r3, #1]
20001448:	d11f      	bne.n	2000148a <d_operator_name+0xce>
2000144a:	f1a8 0430 	sub.w	r4, r8, #48	@ 0x30
2000144e:	b2e3      	uxtb	r3, r4
20001450:	2b09      	cmp	r3, #9
20001452:	d8c2      	bhi.n	200013da <d_operator_name+0x1e>
20001454:	f7ff f97e 	bl	20000754 <d_source_name>
20001458:	4602      	mov	r2, r0
2000145a:	e9d6 3105 	ldrd	r3, r1, [r6, #20]
2000145e:	428b      	cmp	r3, r1
20001460:	dad0      	bge.n	20001404 <d_operator_name+0x48>
20001462:	eb03 0083 	add.w	r0, r3, r3, lsl #2
20001466:	6935      	ldr	r5, [r6, #16]
20001468:	3301      	adds	r3, #1
2000146a:	2100      	movs	r1, #0
2000146c:	0087      	lsls	r7, r0, #2
2000146e:	eb05 0080 	add.w	r0, r5, r0, lsl #2
20001472:	e9c0 1101 	strd	r1, r1, [r0, #4]
20001476:	6173      	str	r3, [r6, #20]
20001478:	2a00      	cmp	r2, #0
2000147a:	d0c3      	beq.n	20001404 <d_operator_name+0x48>
2000147c:	2333      	movs	r3, #51	@ 0x33
2000147e:	e9c0 1101 	strd	r1, r1, [r0, #4]
20001482:	55eb      	strb	r3, [r5, r7]
20001484:	e9c0 4203 	strd	r4, r2, [r0, #12]
20001488:	e7bd      	b.n	20001406 <d_operator_name+0x4a>
2000148a:	2f63      	cmp	r7, #99	@ 0x63
2000148c:	d1a5      	bne.n	200013da <d_operator_name+0x1e>
2000148e:	f1b8 0f76 	cmp.w	r8, #118	@ 0x76
20001492:	d1a2      	bne.n	200013da <d_operator_name+0x1e>
20001494:	e9d0 340c 	ldrd	r3, r4, [r0, #48]	@ 0x30
20001498:	fab3 f383 	clz	r3, r3
2000149c:	095b      	lsrs	r3, r3, #5
2000149e:	6343      	str	r3, [r0, #52]	@ 0x34
200014a0:	f7ff fab0 	bl	20000a04 <d_type>
200014a4:	6b73      	ldr	r3, [r6, #52]	@ 0x34
200014a6:	4602      	mov	r2, r0
200014a8:	b13b      	cbz	r3, 200014ba <d_operator_name+0xfe>
200014aa:	2300      	movs	r3, #0
200014ac:	2135      	movs	r1, #53	@ 0x35
200014ae:	4630      	mov	r0, r6
200014b0:	f7fe fdc0 	bl	20000034 <d_make_comp>
200014b4:	6374      	str	r4, [r6, #52]	@ 0x34
200014b6:	e8bd 81f0 	ldmia.w	sp!, {r4, r5, r6, r7, r8, pc}
200014ba:	2134      	movs	r1, #52	@ 0x34
200014bc:	4630      	mov	r0, r6
200014be:	f7fe fdb9 	bl	20000034 <d_make_comp>
200014c2:	e7f7      	b.n	200014b4 <d_operator_name+0xf8>
200014c4:	2000c548 	.word	0x2000c548

200014c8 <d_unqualified_name>:
200014c8:	e92d 41f0 	stmdb	sp!, {r4, r5, r6, r7, r8, lr}
200014cc:	b084      	sub	sp, #16
200014ce:	460e      	mov	r6, r1
200014d0:	4604      	mov	r4, r0
200014d2:	a901      	add	r1, sp, #4
200014d4:	9201      	str	r2, [sp, #4]
200014d6:	f7ff fa65 	bl	200009a4 <d_maybe_module_name>
200014da:	2800      	cmp	r0, #0
200014dc:	f000 80d8 	beq.w	20001690 <d_unqualified_name+0x1c8>
200014e0:	68e2      	ldr	r2, [r4, #12]
200014e2:	7813      	ldrb	r3, [r2, #0]
200014e4:	f1a3 0130 	sub.w	r1, r3, #48	@ 0x30
200014e8:	2909      	cmp	r1, #9
200014ea:	d979      	bls.n	200015e0 <d_unqualified_name+0x118>
200014ec:	f1a3 0161 	sub.w	r1, r3, #97	@ 0x61
200014f0:	2919      	cmp	r1, #25
200014f2:	d829      	bhi.n	20001548 <d_unqualified_name+0x80>
200014f4:	2b6f      	cmp	r3, #111	@ 0x6f
200014f6:	6b25      	ldr	r5, [r4, #48]	@ 0x30
200014f8:	f000 80a1 	beq.w	2000163e <d_unqualified_name+0x176>
200014fc:	4620      	mov	r0, r4
200014fe:	f7ff ff5d 	bl	200013bc <d_operator_name>
20001502:	6325      	str	r5, [r4, #48]	@ 0x30
20001504:	4605      	mov	r5, r0
20001506:	2800      	cmp	r0, #0
20001508:	f000 80b4 	beq.w	20001674 <d_unqualified_name+0x1ac>
2000150c:	7803      	ldrb	r3, [r0, #0]
2000150e:	2b32      	cmp	r3, #50	@ 0x32
20001510:	d16a      	bne.n	200015e8 <d_unqualified_name+0x120>
20001512:	68c2      	ldr	r2, [r0, #12]
20001514:	6ae3      	ldr	r3, [r4, #44]	@ 0x2c
20001516:	6891      	ldr	r1, [r2, #8]
20001518:	3307      	adds	r3, #7
2000151a:	6812      	ldr	r2, [r2, #0]
2000151c:	440b      	add	r3, r1
2000151e:	62e3      	str	r3, [r4, #44]	@ 0x2c
20001520:	7813      	ldrb	r3, [r2, #0]
20001522:	2b6c      	cmp	r3, #108	@ 0x6c
20001524:	d160      	bne.n	200015e8 <d_unqualified_name+0x120>
20001526:	7853      	ldrb	r3, [r2, #1]
20001528:	2b69      	cmp	r3, #105	@ 0x69
2000152a:	d15d      	bne.n	200015e8 <d_unqualified_name+0x120>
2000152c:	7893      	ldrb	r3, [r2, #2]
2000152e:	2b00      	cmp	r3, #0
20001530:	d15a      	bne.n	200015e8 <d_unqualified_name+0x120>
20001532:	4620      	mov	r0, r4
20001534:	f7ff f90e 	bl	20000754 <d_source_name>
20001538:	462a      	mov	r2, r5
2000153a:	4603      	mov	r3, r0
2000153c:	2137      	movs	r1, #55	@ 0x37
2000153e:	4620      	mov	r0, r4
20001540:	f7fe fd78 	bl	20000034 <d_make_comp>
20001544:	4605      	mov	r5, r0
20001546:	e04f      	b.n	200015e8 <d_unqualified_name+0x120>
20001548:	2b44      	cmp	r3, #68	@ 0x44
2000154a:	f000 8081 	beq.w	20001650 <d_unqualified_name+0x188>
2000154e:	f1a3 0143 	sub.w	r1, r3, #67	@ 0x43
20001552:	2901      	cmp	r1, #1
20001554:	f240 80e5 	bls.w	20001722 <d_unqualified_name+0x25a>
20001558:	2b4c      	cmp	r3, #76	@ 0x4c
2000155a:	f000 808d 	beq.w	20001678 <d_unqualified_name+0x1b0>
2000155e:	2b55      	cmp	r3, #85	@ 0x55
20001560:	f040 8096 	bne.w	20001690 <d_unqualified_name+0x1c8>
20001564:	7853      	ldrb	r3, [r2, #1]
20001566:	2b6c      	cmp	r3, #108	@ 0x6c
20001568:	f000 80ed 	beq.w	20001746 <d_unqualified_name+0x27e>
2000156c:	2b74      	cmp	r3, #116	@ 0x74
2000156e:	f040 808f 	bne.w	20001690 <d_unqualified_name+0x1c8>
20001572:	1c53      	adds	r3, r2, #1
20001574:	9d01      	ldr	r5, [sp, #4]
20001576:	60e3      	str	r3, [r4, #12]
20001578:	7853      	ldrb	r3, [r2, #1]
2000157a:	2b74      	cmp	r3, #116	@ 0x74
2000157c:	d17a      	bne.n	20001674 <d_unqualified_name+0x1ac>
2000157e:	1c93      	adds	r3, r2, #2
20001580:	60e3      	str	r3, [r4, #12]
20001582:	7892      	ldrb	r2, [r2, #2]
20001584:	2a5f      	cmp	r2, #95	@ 0x5f
20001586:	f000 8163 	beq.w	20001850 <d_unqualified_name+0x388>
2000158a:	2a6e      	cmp	r2, #110	@ 0x6e
2000158c:	f000 8164 	beq.w	20001858 <d_unqualified_name+0x390>
20001590:	4620      	mov	r0, r4
20001592:	f7fe fded 	bl	20000170 <d_number>
20001596:	1c47      	adds	r7, r0, #1
20001598:	d46c      	bmi.n	20001674 <d_unqualified_name+0x1ac>
2000159a:	68e3      	ldr	r3, [r4, #12]
2000159c:	781a      	ldrb	r2, [r3, #0]
2000159e:	2a5f      	cmp	r2, #95	@ 0x5f
200015a0:	d168      	bne.n	20001674 <d_unqualified_name+0x1ac>
200015a2:	3301      	adds	r3, #1
200015a4:	6962      	ldr	r2, [r4, #20]
200015a6:	60e3      	str	r3, [r4, #12]
200015a8:	69a3      	ldr	r3, [r4, #24]
200015aa:	429a      	cmp	r2, r3
200015ac:	da62      	bge.n	20001674 <d_unqualified_name+0x1ac>
200015ae:	6923      	ldr	r3, [r4, #16]
200015b0:	eb02 0182 	add.w	r1, r2, r2, lsl #2
200015b4:	2000      	movs	r0, #0
200015b6:	3201      	adds	r2, #1
200015b8:	eb03 0581 	add.w	r5, r3, r1, lsl #2
200015bc:	f04f 0c49 	mov.w	ip, #73	@ 0x49
200015c0:	e9c5 0001 	strd	r0, r0, [r5, #4]
200015c4:	6162      	str	r2, [r4, #20]
200015c6:	f803 c021 	strb.w	ip, [r3, r1, lsl #2]
200015ca:	6a23      	ldr	r3, [r4, #32]
200015cc:	6a62      	ldr	r2, [r4, #36]	@ 0x24
200015ce:	60ef      	str	r7, [r5, #12]
200015d0:	4293      	cmp	r3, r2
200015d2:	da4f      	bge.n	20001674 <d_unqualified_name+0x1ac>
200015d4:	69e2      	ldr	r2, [r4, #28]
200015d6:	f842 5023 	str.w	r5, [r2, r3, lsl #2]
200015da:	3301      	adds	r3, #1
200015dc:	6223      	str	r3, [r4, #32]
200015de:	e003      	b.n	200015e8 <d_unqualified_name+0x120>
200015e0:	4620      	mov	r0, r4
200015e2:	f7ff f8b7 	bl	20000754 <d_source_name>
200015e6:	4605      	mov	r5, r0
200015e8:	9b01      	ldr	r3, [sp, #4]
200015ea:	b12b      	cbz	r3, 200015f8 <d_unqualified_name+0x130>
200015ec:	462a      	mov	r2, r5
200015ee:	2155      	movs	r1, #85	@ 0x55
200015f0:	4620      	mov	r0, r4
200015f2:	f7fe fd1f 	bl	20000034 <d_make_comp>
200015f6:	4605      	mov	r5, r0
200015f8:	68e3      	ldr	r3, [r4, #12]
200015fa:	781a      	ldrb	r2, [r3, #0]
200015fc:	2a42      	cmp	r2, #66	@ 0x42
200015fe:	d00b      	beq.n	20001618 <d_unqualified_name+0x150>
20001600:	b136      	cbz	r6, 20001610 <d_unqualified_name+0x148>
20001602:	462b      	mov	r3, r5
20001604:	4632      	mov	r2, r6
20001606:	2101      	movs	r1, #1
20001608:	4620      	mov	r0, r4
2000160a:	f7fe fd13 	bl	20000034 <d_make_comp>
2000160e:	4605      	mov	r5, r0
20001610:	4628      	mov	r0, r5
20001612:	b004      	add	sp, #16
20001614:	e8bd 81f0 	ldmia.w	sp!, {r4, r5, r6, r7, r8, pc}
20001618:	6aa7      	ldr	r7, [r4, #40]	@ 0x28
2000161a:	3301      	adds	r3, #1
2000161c:	4620      	mov	r0, r4
2000161e:	60e3      	str	r3, [r4, #12]
20001620:	f7ff f898 	bl	20000754 <d_source_name>
20001624:	462a      	mov	r2, r5
20001626:	4603      	mov	r3, r0
20001628:	214d      	movs	r1, #77	@ 0x4d
2000162a:	4620      	mov	r0, r4
2000162c:	f7fe fd02 	bl	20000034 <d_make_comp>
20001630:	68e3      	ldr	r3, [r4, #12]
20001632:	4605      	mov	r5, r0
20001634:	781a      	ldrb	r2, [r3, #0]
20001636:	2a42      	cmp	r2, #66	@ 0x42
20001638:	d0ef      	beq.n	2000161a <d_unqualified_name+0x152>
2000163a:	62a7      	str	r7, [r4, #40]	@ 0x28
2000163c:	e7e0      	b.n	20001600 <d_unqualified_name+0x138>
2000163e:	7853      	ldrb	r3, [r2, #1]
20001640:	2b6e      	cmp	r3, #110	@ 0x6e
20001642:	f47f af5b 	bne.w	200014fc <d_unqualified_name+0x34>
20001646:	3202      	adds	r2, #2
20001648:	2300      	movs	r3, #0
2000164a:	60e2      	str	r2, [r4, #12]
2000164c:	6323      	str	r3, [r4, #48]	@ 0x30
2000164e:	e755      	b.n	200014fc <d_unqualified_name+0x34>
20001650:	7853      	ldrb	r3, [r2, #1]
20001652:	2b43      	cmp	r3, #67	@ 0x43
20001654:	d047      	beq.n	200016e6 <d_unqualified_name+0x21e>
20001656:	6aa1      	ldr	r1, [r4, #40]	@ 0x28
20001658:	b121      	cbz	r1, 20001664 <d_unqualified_name+0x19c>
2000165a:	7808      	ldrb	r0, [r1, #0]
2000165c:	2800      	cmp	r0, #0
2000165e:	d067      	beq.n	20001730 <d_unqualified_name+0x268>
20001660:	2818      	cmp	r0, #24
20001662:	d065      	beq.n	20001730 <d_unqualified_name+0x268>
20001664:	3b30      	subs	r3, #48	@ 0x30
20001666:	2b05      	cmp	r3, #5
20001668:	d804      	bhi.n	20001674 <d_unqualified_name+0x1ac>
2000166a:	e8df f003 	tbb	[pc, r3]
2000166e:	1330      	.short	0x1330
20001670:	39330336 	.word	0x39330336
20001674:	2500      	movs	r5, #0
20001676:	e7b7      	b.n	200015e8 <d_unqualified_name+0x120>
20001678:	3201      	adds	r2, #1
2000167a:	4620      	mov	r0, r4
2000167c:	60e2      	str	r2, [r4, #12]
2000167e:	f7ff f869 	bl	20000754 <d_source_name>
20001682:	4605      	mov	r5, r0
20001684:	b120      	cbz	r0, 20001690 <d_unqualified_name+0x1c8>
20001686:	4620      	mov	r0, r4
20001688:	f7fe fdf4 	bl	20000274 <d_discriminator>
2000168c:	2800      	cmp	r0, #0
2000168e:	d1ab      	bne.n	200015e8 <d_unqualified_name+0x120>
20001690:	2500      	movs	r5, #0
20001692:	e7bd      	b.n	20001610 <d_unqualified_name+0x148>
20001694:	f04f 0c02 	mov.w	ip, #2
20001698:	3202      	adds	r2, #2
2000169a:	60e2      	str	r2, [r4, #12]
2000169c:	e9d4 3205 	ldrd	r3, r2, [r4, #20]
200016a0:	4293      	cmp	r3, r2
200016a2:	dae7      	bge.n	20001674 <d_unqualified_name+0x1ac>
200016a4:	eb03 0283 	add.w	r2, r3, r3, lsl #2
200016a8:	6927      	ldr	r7, [r4, #16]
200016aa:	3301      	adds	r3, #1
200016ac:	2000      	movs	r0, #0
200016ae:	eb07 0582 	add.w	r5, r7, r2, lsl #2
200016b2:	0092      	lsls	r2, r2, #2
200016b4:	e9c5 0001 	strd	r0, r0, [r5, #4]
200016b8:	6163      	str	r3, [r4, #20]
200016ba:	2900      	cmp	r1, #0
200016bc:	d0da      	beq.n	20001674 <d_unqualified_name+0x1ac>
200016be:	2308      	movs	r3, #8
200016c0:	e9c5 0001 	strd	r0, r0, [r5, #4]
200016c4:	54bb      	strb	r3, [r7, r2]
200016c6:	f885 c00c 	strb.w	ip, [r5, #12]
200016ca:	6129      	str	r1, [r5, #16]
200016cc:	e78c      	b.n	200015e8 <d_unqualified_name+0x120>
200016ce:	f04f 0c01 	mov.w	ip, #1
200016d2:	e7e1      	b.n	20001698 <d_unqualified_name+0x1d0>
200016d4:	f04f 0c04 	mov.w	ip, #4
200016d8:	e7de      	b.n	20001698 <d_unqualified_name+0x1d0>
200016da:	f04f 0c03 	mov.w	ip, #3
200016de:	e7db      	b.n	20001698 <d_unqualified_name+0x1d0>
200016e0:	f04f 0c05 	mov.w	ip, #5
200016e4:	e7d8      	b.n	20001698 <d_unqualified_name+0x1d0>
200016e6:	3202      	adds	r2, #2
200016e8:	2700      	movs	r7, #0
200016ea:	60e2      	str	r2, [r4, #12]
200016ec:	4620      	mov	r0, r4
200016ee:	46b8      	mov	r8, r7
200016f0:	f7ff f830 	bl	20000754 <d_source_name>
200016f4:	2300      	movs	r3, #0
200016f6:	4602      	mov	r2, r0
200016f8:	2152      	movs	r1, #82	@ 0x52
200016fa:	4620      	mov	r0, r4
200016fc:	f7fe fc9a 	bl	20000034 <d_make_comp>
20001700:	4607      	mov	r7, r0
20001702:	f1b8 0f00 	cmp.w	r8, #0
20001706:	d00a      	beq.n	2000171e <d_unqualified_name+0x256>
20001708:	f8c8 0010 	str.w	r0, [r8, #16]
2000170c:	2f00      	cmp	r7, #0
2000170e:	d0b1      	beq.n	20001674 <d_unqualified_name+0x1ac>
20001710:	68e3      	ldr	r3, [r4, #12]
20001712:	781a      	ldrb	r2, [r3, #0]
20001714:	2a45      	cmp	r2, #69	@ 0x45
20001716:	d1e9      	bne.n	200016ec <d_unqualified_name+0x224>
20001718:	3301      	adds	r3, #1
2000171a:	60e3      	str	r3, [r4, #12]
2000171c:	e764      	b.n	200015e8 <d_unqualified_name+0x120>
2000171e:	4605      	mov	r5, r0
20001720:	e7f4      	b.n	2000170c <d_unqualified_name+0x244>
20001722:	6aa1      	ldr	r1, [r4, #40]	@ 0x28
20001724:	2900      	cmp	r1, #0
20001726:	d05a      	beq.n	200017de <d_unqualified_name+0x316>
20001728:	780b      	ldrb	r3, [r1, #0]
2000172a:	b10b      	cbz	r3, 20001730 <d_unqualified_name+0x268>
2000172c:	2b18      	cmp	r3, #24
2000172e:	d156      	bne.n	200017de <d_unqualified_name+0x316>
20001730:	6ae3      	ldr	r3, [r4, #44]	@ 0x2c
20001732:	6908      	ldr	r0, [r1, #16]
20001734:	4403      	add	r3, r0
20001736:	62e3      	str	r3, [r4, #44]	@ 0x2c
20001738:	7813      	ldrb	r3, [r2, #0]
2000173a:	2b43      	cmp	r3, #67	@ 0x43
2000173c:	d04f      	beq.n	200017de <d_unqualified_name+0x316>
2000173e:	2b44      	cmp	r3, #68	@ 0x44
20001740:	d198      	bne.n	20001674 <d_unqualified_name+0x1ac>
20001742:	7853      	ldrb	r3, [r2, #1]
20001744:	e78e      	b.n	20001664 <d_unqualified_name+0x19c>
20001746:	1c53      	adds	r3, r2, #1
20001748:	60e3      	str	r3, [r4, #12]
2000174a:	7853      	ldrb	r3, [r2, #1]
2000174c:	2b6c      	cmp	r3, #108	@ 0x6c
2000174e:	d191      	bne.n	20001674 <d_unqualified_name+0x1ac>
20001750:	3202      	adds	r2, #2
20001752:	2300      	movs	r3, #0
20001754:	a903      	add	r1, sp, #12
20001756:	4620      	mov	r0, r4
20001758:	60e2      	str	r2, [r4, #12]
2000175a:	9303      	str	r3, [sp, #12]
2000175c:	f7ff fe10 	bl	20001380 <d_template_head>
20001760:	f8dd 800c 	ldr.w	r8, [sp, #12]
20001764:	4607      	mov	r7, r0
20001766:	f1b8 0f00 	cmp.w	r8, #0
2000176a:	d183      	bne.n	20001674 <d_unqualified_name+0x1ac>
2000176c:	4620      	mov	r0, r4
2000176e:	f7ff fd19 	bl	200011a4 <d_parmlist>
20001772:	2800      	cmp	r0, #0
20001774:	f43f af7e 	beq.w	20001674 <d_unqualified_name+0x1ac>
20001778:	2f00      	cmp	r7, #0
2000177a:	d06b      	beq.n	20001854 <d_unqualified_name+0x38c>
2000177c:	6138      	str	r0, [r7, #16]
2000177e:	68e2      	ldr	r2, [r4, #12]
20001780:	7813      	ldrb	r3, [r2, #0]
20001782:	2b45      	cmp	r3, #69	@ 0x45
20001784:	f47f af76 	bne.w	20001674 <d_unqualified_name+0x1ac>
20001788:	1c53      	adds	r3, r2, #1
2000178a:	60e3      	str	r3, [r4, #12]
2000178c:	7852      	ldrb	r2, [r2, #1]
2000178e:	2a5f      	cmp	r2, #95	@ 0x5f
20001790:	d00e      	beq.n	200017b0 <d_unqualified_name+0x2e8>
20001792:	2a6e      	cmp	r2, #110	@ 0x6e
20001794:	f43f af6e 	beq.w	20001674 <d_unqualified_name+0x1ac>
20001798:	4620      	mov	r0, r4
2000179a:	f7fe fce9 	bl	20000170 <d_number>
2000179e:	f110 0801 	adds.w	r8, r0, #1
200017a2:	f53f af67 	bmi.w	20001674 <d_unqualified_name+0x1ac>
200017a6:	68e3      	ldr	r3, [r4, #12]
200017a8:	781a      	ldrb	r2, [r3, #0]
200017aa:	2a5f      	cmp	r2, #95	@ 0x5f
200017ac:	f47f af62 	bne.w	20001674 <d_unqualified_name+0x1ac>
200017b0:	3301      	adds	r3, #1
200017b2:	60e3      	str	r3, [r4, #12]
200017b4:	e9d4 3205 	ldrd	r3, r2, [r4, #20]
200017b8:	4293      	cmp	r3, r2
200017ba:	f6bf af5b 	bge.w	20001674 <d_unqualified_name+0x1ac>
200017be:	6922      	ldr	r2, [r4, #16]
200017c0:	eb03 0183 	add.w	r1, r3, r3, lsl #2
200017c4:	2000      	movs	r0, #0
200017c6:	3301      	adds	r3, #1
200017c8:	eb02 0581 	add.w	r5, r2, r1, lsl #2
200017cc:	e9c5 0001 	strd	r0, r0, [r5, #4]
200017d0:	6163      	str	r3, [r4, #20]
200017d2:	2347      	movs	r3, #71	@ 0x47
200017d4:	f802 3021 	strb.w	r3, [r2, r1, lsl #2]
200017d8:	e9c5 7803 	strd	r7, r8, [r5, #12]
200017dc:	e704      	b.n	200015e8 <d_unqualified_name+0x120>
200017de:	7853      	ldrb	r3, [r2, #1]
200017e0:	2b49      	cmp	r3, #73	@ 0x49
200017e2:	d024      	beq.n	2000182e <d_unqualified_name+0x366>
200017e4:	f1a3 0031 	sub.w	r0, r3, #49	@ 0x31
200017e8:	2804      	cmp	r0, #4
200017ea:	f63f af43 	bhi.w	20001674 <d_unqualified_name+0x1ac>
200017ee:	3b30      	subs	r3, #48	@ 0x30
200017f0:	3202      	adds	r2, #2
200017f2:	b2df      	uxtb	r7, r3
200017f4:	60e2      	str	r2, [r4, #12]
200017f6:	e9d4 3205 	ldrd	r3, r2, [r4, #20]
200017fa:	4293      	cmp	r3, r2
200017fc:	f6bf af3a 	bge.w	20001674 <d_unqualified_name+0x1ac>
20001800:	eb03 0283 	add.w	r2, r3, r3, lsl #2
20001804:	f8d4 c010 	ldr.w	ip, [r4, #16]
20001808:	3301      	adds	r3, #1
2000180a:	2000      	movs	r0, #0
2000180c:	eb0c 0582 	add.w	r5, ip, r2, lsl #2
20001810:	0092      	lsls	r2, r2, #2
20001812:	e9c5 0001 	strd	r0, r0, [r5, #4]
20001816:	6163      	str	r3, [r4, #20]
20001818:	2900      	cmp	r1, #0
2000181a:	f43f af2b 	beq.w	20001674 <d_unqualified_name+0x1ac>
2000181e:	2307      	movs	r3, #7
20001820:	e9c5 0001 	strd	r0, r0, [r5, #4]
20001824:	f80c 3002 	strb.w	r3, [ip, r2]
20001828:	732f      	strb	r7, [r5, #12]
2000182a:	6129      	str	r1, [r5, #16]
2000182c:	e6dc      	b.n	200015e8 <d_unqualified_name+0x120>
2000182e:	1c53      	adds	r3, r2, #1
20001830:	60e3      	str	r3, [r4, #12]
20001832:	7893      	ldrb	r3, [r2, #2]
20001834:	f1a3 0131 	sub.w	r1, r3, #49	@ 0x31
20001838:	2904      	cmp	r1, #4
2000183a:	f63f af1b 	bhi.w	20001674 <d_unqualified_name+0x1ac>
2000183e:	3203      	adds	r2, #3
20001840:	3b30      	subs	r3, #48	@ 0x30
20001842:	4620      	mov	r0, r4
20001844:	60e2      	str	r2, [r4, #12]
20001846:	b2df      	uxtb	r7, r3
20001848:	f7ff f8dc 	bl	20000a04 <d_type>
2000184c:	6aa1      	ldr	r1, [r4, #40]	@ 0x28
2000184e:	e7d2      	b.n	200017f6 <d_unqualified_name+0x32e>
20001850:	2700      	movs	r7, #0
20001852:	e6a6      	b.n	200015a2 <d_unqualified_name+0xda>
20001854:	4607      	mov	r7, r0
20001856:	e792      	b.n	2000177e <d_unqualified_name+0x2b6>
20001858:	2d00      	cmp	r5, #0
2000185a:	f43f aed1 	beq.w	20001600 <d_unqualified_name+0x138>
2000185e:	462b      	mov	r3, r5
20001860:	2500      	movs	r5, #0
20001862:	e6c3      	b.n	200015ec <d_unqualified_name+0x124>

20001864 <d_expression_1>:
20001864:	68c2      	ldr	r2, [r0, #12]
20001866:	7813      	ldrb	r3, [r2, #0]
20001868:	2b4c      	cmp	r3, #76	@ 0x4c
2000186a:	f000 80f9 	beq.w	20001a60 <d_expression_1+0x1fc>
2000186e:	2b54      	cmp	r3, #84	@ 0x54
20001870:	f000 80f8 	beq.w	20001a64 <d_expression_1+0x200>
20001874:	2b73      	cmp	r3, #115	@ 0x73
20001876:	e92d 41f0 	stmdb	sp!, {r4, r5, r6, r7, r8, lr}
2000187a:	4604      	mov	r4, r0
2000187c:	d01e      	beq.n	200018bc <d_expression_1+0x58>
2000187e:	2b66      	cmp	r3, #102	@ 0x66
20001880:	d042      	beq.n	20001908 <d_expression_1+0xa4>
20001882:	f1a3 0130 	sub.w	r1, r3, #48	@ 0x30
20001886:	2909      	cmp	r1, #9
20001888:	d907      	bls.n	2000189a <d_expression_1+0x36>
2000188a:	2b6f      	cmp	r3, #111	@ 0x6f
2000188c:	f040 80b3 	bne.w	200019f6 <d_expression_1+0x192>
20001890:	7853      	ldrb	r3, [r2, #1]
20001892:	2b6e      	cmp	r3, #110	@ 0x6e
20001894:	d118      	bne.n	200018c8 <d_expression_1+0x64>
20001896:	3202      	adds	r2, #2
20001898:	60c2      	str	r2, [r0, #12]
2000189a:	2200      	movs	r2, #0
2000189c:	4620      	mov	r0, r4
2000189e:	4611      	mov	r1, r2
200018a0:	f7ff fe12 	bl	200014c8 <d_unqualified_name>
200018a4:	4605      	mov	r5, r0
200018a6:	2800      	cmp	r0, #0
200018a8:	f000 80c3 	beq.w	20001a32 <d_expression_1+0x1ce>
200018ac:	68e3      	ldr	r3, [r4, #12]
200018ae:	781a      	ldrb	r2, [r3, #0]
200018b0:	2a49      	cmp	r2, #73	@ 0x49
200018b2:	f000 808c 	beq.w	200019ce <d_expression_1+0x16a>
200018b6:	4628      	mov	r0, r5
200018b8:	e8bd 81f0 	ldmia.w	sp!, {r4, r5, r6, r7, r8, pc}
200018bc:	7853      	ldrb	r3, [r2, #1]
200018be:	2b72      	cmp	r3, #114	@ 0x72
200018c0:	d068      	beq.n	20001994 <d_expression_1+0x130>
200018c2:	2b70      	cmp	r3, #112	@ 0x70
200018c4:	f000 8173 	beq.w	20001bae <d_expression_1+0x34a>
200018c8:	4620      	mov	r0, r4
200018ca:	f7ff fd77 	bl	200013bc <d_operator_name>
200018ce:	4605      	mov	r5, r0
200018d0:	2800      	cmp	r0, #0
200018d2:	f000 80ae 	beq.w	20001a32 <d_expression_1+0x1ce>
200018d6:	7803      	ldrb	r3, [r0, #0]
200018d8:	2b32      	cmp	r3, #50	@ 0x32
200018da:	d047      	beq.n	2000196c <d_expression_1+0x108>
200018dc:	2b33      	cmp	r3, #51	@ 0x33
200018de:	f000 80c3 	beq.w	20001a68 <d_expression_1+0x204>
200018e2:	2b34      	cmp	r3, #52	@ 0x34
200018e4:	f040 80a5 	bne.w	20001a32 <d_expression_1+0x1ce>
200018e8:	68e3      	ldr	r3, [r4, #12]
200018ea:	781a      	ldrb	r2, [r3, #0]
200018ec:	2a5f      	cmp	r2, #95	@ 0x5f
200018ee:	f000 814d 	beq.w	20001b8c <d_expression_1+0x328>
200018f2:	4620      	mov	r0, r4
200018f4:	f7ff ffb6 	bl	20001864 <d_expression_1>
200018f8:	4603      	mov	r3, r0
200018fa:	462a      	mov	r2, r5
200018fc:	4620      	mov	r0, r4
200018fe:	2137      	movs	r1, #55	@ 0x37
20001900:	e8bd 41f0 	ldmia.w	sp!, {r4, r5, r6, r7, r8, lr}
20001904:	f7fe bb96 	b.w	20000034 <d_make_comp>
20001908:	7853      	ldrb	r3, [r2, #1]
2000190a:	2b70      	cmp	r3, #112	@ 0x70
2000190c:	d1dc      	bne.n	200018c8 <d_expression_1+0x64>
2000190e:	1c93      	adds	r3, r2, #2
20001910:	60c3      	str	r3, [r0, #12]
20001912:	7893      	ldrb	r3, [r2, #2]
20001914:	2b54      	cmp	r3, #84	@ 0x54
20001916:	f000 8146 	beq.w	20001ba6 <d_expression_1+0x342>
2000191a:	2b5f      	cmp	r3, #95	@ 0x5f
2000191c:	f000 80b4 	beq.w	20001a88 <d_expression_1+0x224>
20001920:	2b6e      	cmp	r3, #110	@ 0x6e
20001922:	f000 8086 	beq.w	20001a32 <d_expression_1+0x1ce>
20001926:	f7fe fc23 	bl	20000170 <d_number>
2000192a:	1c41      	adds	r1, r0, #1
2000192c:	f100 8081 	bmi.w	20001a32 <d_expression_1+0x1ce>
20001930:	68e3      	ldr	r3, [r4, #12]
20001932:	781a      	ldrb	r2, [r3, #0]
20001934:	2a5f      	cmp	r2, #95	@ 0x5f
20001936:	d17c      	bne.n	20001a32 <d_expression_1+0x1ce>
20001938:	f06f 4200 	mvn.w	r2, #2147483648	@ 0x80000000
2000193c:	3301      	adds	r3, #1
2000193e:	4291      	cmp	r1, r2
20001940:	60e3      	str	r3, [r4, #12]
20001942:	d076      	beq.n	20001a32 <d_expression_1+0x1ce>
20001944:	3002      	adds	r0, #2
20001946:	e9d4 3205 	ldrd	r3, r2, [r4, #20]
2000194a:	4293      	cmp	r3, r2
2000194c:	da71      	bge.n	20001a32 <d_expression_1+0x1ce>
2000194e:	6922      	ldr	r2, [r4, #16]
20001950:	eb03 0183 	add.w	r1, r3, r3, lsl #2
20001954:	2600      	movs	r6, #0
20001956:	3301      	adds	r3, #1
20001958:	eb02 0581 	add.w	r5, r2, r1, lsl #2
2000195c:	e9c5 6601 	strd	r6, r6, [r5, #4]
20001960:	6163      	str	r3, [r4, #20]
20001962:	2306      	movs	r3, #6
20001964:	f802 3021 	strb.w	r3, [r2, r1, lsl #2]
20001968:	60e8      	str	r0, [r5, #12]
2000196a:	e7a4      	b.n	200018b6 <d_expression_1+0x52>
2000196c:	68c1      	ldr	r1, [r0, #12]
2000196e:	6ae3      	ldr	r3, [r4, #44]	@ 0x2c
20001970:	688a      	ldr	r2, [r1, #8]
20001972:	680e      	ldr	r6, [r1, #0]
20001974:	3a02      	subs	r2, #2
20001976:	4413      	add	r3, r2
20001978:	62e3      	str	r3, [r4, #44]	@ 0x2c
2000197a:	7833      	ldrb	r3, [r6, #0]
2000197c:	2b73      	cmp	r3, #115	@ 0x73
2000197e:	d133      	bne.n	200019e8 <d_expression_1+0x184>
20001980:	7872      	ldrb	r2, [r6, #1]
20001982:	2a74      	cmp	r2, #116	@ 0x74
20001984:	d130      	bne.n	200019e8 <d_expression_1+0x184>
20001986:	78b2      	ldrb	r2, [r6, #2]
20001988:	bb72      	cbnz	r2, 200019e8 <d_expression_1+0x184>
2000198a:	4620      	mov	r0, r4
2000198c:	f7ff f83a 	bl	20000a04 <d_type>
20001990:	4603      	mov	r3, r0
20001992:	e7b2      	b.n	200018fa <d_expression_1+0x96>
20001994:	1c93      	adds	r3, r2, #2
20001996:	6b81      	ldr	r1, [r0, #56]	@ 0x38
20001998:	60c3      	str	r3, [r0, #12]
2000199a:	7893      	ldrb	r3, [r2, #2]
2000199c:	b149      	cbz	r1, 200019b2 <d_expression_1+0x14e>
2000199e:	2b55      	cmp	r3, #85	@ 0x55
200019a0:	f200 81b2 	bhi.w	20001d08 <d_expression_1+0x4a4>
200019a4:	2b42      	cmp	r3, #66	@ 0x42
200019a6:	f200 817c 	bhi.w	20001ca2 <d_expression_1+0x43e>
200019aa:	3b30      	subs	r3, #48	@ 0x30
200019ac:	2b09      	cmp	r3, #9
200019ae:	f240 8180 	bls.w	20001cb2 <d_expression_1+0x44e>
200019b2:	4620      	mov	r0, r4
200019b4:	f7ff f826 	bl	20000a04 <d_type>
200019b8:	4601      	mov	r1, r0
200019ba:	2200      	movs	r2, #0
200019bc:	4620      	mov	r0, r4
200019be:	f7ff fd83 	bl	200014c8 <d_unqualified_name>
200019c2:	68e3      	ldr	r3, [r4, #12]
200019c4:	4605      	mov	r5, r0
200019c6:	781a      	ldrb	r2, [r3, #0]
200019c8:	2a49      	cmp	r2, #73	@ 0x49
200019ca:	f47f af74 	bne.w	200018b6 <d_expression_1+0x52>
200019ce:	3301      	adds	r3, #1
200019d0:	4620      	mov	r0, r4
200019d2:	60e3      	str	r3, [r4, #12]
200019d4:	f000 ff76 	bl	200028c4 <d_template_args_1>
200019d8:	462a      	mov	r2, r5
200019da:	4603      	mov	r3, r0
200019dc:	2104      	movs	r1, #4
200019de:	4620      	mov	r0, r4
200019e0:	e8bd 41f0 	ldmia.w	sp!, {r4, r5, r6, r7, r8, lr}
200019e4:	f7fe bb26 	b.w	20000034 <d_make_comp>
200019e8:	68cf      	ldr	r7, [r1, #12]
200019ea:	2f03      	cmp	r7, #3
200019ec:	d821      	bhi.n	20001a32 <d_expression_1+0x1ce>
200019ee:	e8df f007 	tbb	[pc, r7]
200019f2:	4f43      	.short	0x4f43
200019f4:	6d99      	.short	0x6d99
200019f6:	2b69      	cmp	r3, #105	@ 0x69
200019f8:	d001      	beq.n	200019fe <d_expression_1+0x19a>
200019fa:	2b74      	cmp	r3, #116	@ 0x74
200019fc:	d11d      	bne.n	20001a3a <d_expression_1+0x1d6>
200019fe:	7851      	ldrb	r1, [r2, #1]
20001a00:	296c      	cmp	r1, #108	@ 0x6c
20001a02:	f47f af61 	bne.w	200018c8 <d_expression_1+0x64>
20001a06:	3202      	adds	r2, #2
20001a08:	2b74      	cmp	r3, #116	@ 0x74
20001a0a:	60e2      	str	r2, [r4, #12]
20001a0c:	f000 80e8 	beq.w	20001be0 <d_expression_1+0x37c>
20001a10:	2500      	movs	r5, #0
20001a12:	7813      	ldrb	r3, [r2, #0]
20001a14:	b16b      	cbz	r3, 20001a32 <d_expression_1+0x1ce>
20001a16:	7853      	ldrb	r3, [r2, #1]
20001a18:	b15b      	cbz	r3, 20001a32 <d_expression_1+0x1ce>
20001a1a:	2145      	movs	r1, #69	@ 0x45
20001a1c:	4620      	mov	r0, r4
20001a1e:	f000 f99d 	bl	20001d5c <d_exprlist>
20001a22:	462a      	mov	r2, r5
20001a24:	4603      	mov	r3, r0
20001a26:	2131      	movs	r1, #49	@ 0x31
20001a28:	4620      	mov	r0, r4
20001a2a:	e8bd 41f0 	ldmia.w	sp!, {r4, r5, r6, r7, r8, lr}
20001a2e:	f7fe bb01 	b.w	20000034 <d_make_comp>
20001a32:	2500      	movs	r5, #0
20001a34:	4628      	mov	r0, r5
20001a36:	e8bd 81f0 	ldmia.w	sp!, {r4, r5, r6, r7, r8, pc}
20001a3a:	2b75      	cmp	r3, #117	@ 0x75
20001a3c:	f47f af44 	bne.w	200018c8 <d_expression_1+0x64>
20001a40:	3201      	adds	r2, #1
20001a42:	60c2      	str	r2, [r0, #12]
20001a44:	f7fe fe86 	bl	20000754 <d_source_name>
20001a48:	4605      	mov	r5, r0
20001a4a:	4620      	mov	r0, r4
20001a4c:	f000 ff3a 	bl	200028c4 <d_template_args_1>
20001a50:	462a      	mov	r2, r5
20001a52:	4603      	mov	r3, r0
20001a54:	213f      	movs	r1, #63	@ 0x3f
20001a56:	4620      	mov	r0, r4
20001a58:	e8bd 41f0 	ldmia.w	sp!, {r4, r5, r6, r7, r8, lr}
20001a5c:	f7fe baea 	b.w	20000034 <d_make_comp>
20001a60:	f000 be88 	b.w	20002774 <d_expr_primary>
20001a64:	f7fe be04 	b.w	20000670 <d_template_param>
20001a68:	68c3      	ldr	r3, [r0, #12]
20001a6a:	2b01      	cmp	r3, #1
20001a6c:	f43f af41 	beq.w	200018f2 <d_expression_1+0x8e>
20001a70:	2b03      	cmp	r3, #3
20001a72:	d0de      	beq.n	20001a32 <d_expression_1+0x1ce>
20001a74:	2b00      	cmp	r3, #0
20001a76:	d1dc      	bne.n	20001a32 <d_expression_1+0x1ce>
20001a78:	462a      	mov	r2, r5
20001a7a:	4620      	mov	r0, r4
20001a7c:	2300      	movs	r3, #0
20001a7e:	2136      	movs	r1, #54	@ 0x36
20001a80:	e8bd 41f0 	ldmia.w	sp!, {r4, r5, r6, r7, r8, lr}
20001a84:	f7fe bad6 	b.w	20000034 <d_make_comp>
20001a88:	3203      	adds	r2, #3
20001a8a:	2001      	movs	r0, #1
20001a8c:	60e2      	str	r2, [r4, #12]
20001a8e:	e75a      	b.n	20001946 <d_expression_1+0xe2>
20001a90:	7832      	ldrb	r2, [r6, #0]
20001a92:	2a70      	cmp	r2, #112	@ 0x70
20001a94:	f000 8097 	beq.w	20001bc6 <d_expression_1+0x362>
20001a98:	2a6d      	cmp	r2, #109	@ 0x6d
20001a9a:	f000 8094 	beq.w	20001bc6 <d_expression_1+0x362>
20001a9e:	2700      	movs	r7, #0
20001aa0:	2b73      	cmp	r3, #115	@ 0x73
20001aa2:	d17b      	bne.n	20001b9c <d_expression_1+0x338>
20001aa4:	7873      	ldrb	r3, [r6, #1]
20001aa6:	2b50      	cmp	r3, #80	@ 0x50
20001aa8:	d178      	bne.n	20001b9c <d_expression_1+0x338>
20001aaa:	78b3      	ldrb	r3, [r6, #2]
20001aac:	2b00      	cmp	r3, #0
20001aae:	d175      	bne.n	20001b9c <d_expression_1+0x338>
20001ab0:	4620      	mov	r0, r4
20001ab2:	f000 ff07 	bl	200028c4 <d_template_args_1>
20001ab6:	4603      	mov	r3, r0
20001ab8:	2f00      	cmp	r7, #0
20001aba:	f43f af1e 	beq.w	200018fa <d_expression_1+0x96>
20001abe:	461a      	mov	r2, r3
20001ac0:	2139      	movs	r1, #57	@ 0x39
20001ac2:	4620      	mov	r0, r4
20001ac4:	f7fe fab6 	bl	20000034 <d_make_comp>
20001ac8:	4603      	mov	r3, r0
20001aca:	e716      	b.n	200018fa <d_expression_1+0x96>
20001acc:	2b71      	cmp	r3, #113	@ 0x71
20001ace:	f040 808d 	bne.w	20001bec <d_expression_1+0x388>
20001ad2:	7872      	ldrb	r2, [r6, #1]
20001ad4:	2a75      	cmp	r2, #117	@ 0x75
20001ad6:	f040 8089 	bne.w	20001bec <d_expression_1+0x388>
20001ada:	78b2      	ldrb	r2, [r6, #2]
20001adc:	2a00      	cmp	r2, #0
20001ade:	f040 8085 	bne.w	20001bec <d_expression_1+0x388>
20001ae2:	4620      	mov	r0, r4
20001ae4:	f7ff febe 	bl	20001864 <d_expression_1>
20001ae8:	4606      	mov	r6, r0
20001aea:	4620      	mov	r0, r4
20001aec:	f7ff feba 	bl	20001864 <d_expression_1>
20001af0:	4607      	mov	r7, r0
20001af2:	4620      	mov	r0, r4
20001af4:	f7ff feb6 	bl	20001864 <d_expression_1>
20001af8:	4603      	mov	r3, r0
20001afa:	2800      	cmp	r0, #0
20001afc:	d099      	beq.n	20001a32 <d_expression_1+0x1ce>
20001afe:	463a      	mov	r2, r7
20001b00:	213c      	movs	r1, #60	@ 0x3c
20001b02:	4620      	mov	r0, r4
20001b04:	f7fe fa96 	bl	20000034 <d_make_comp>
20001b08:	4632      	mov	r2, r6
20001b0a:	4603      	mov	r3, r0
20001b0c:	213b      	movs	r1, #59	@ 0x3b
20001b0e:	4620      	mov	r0, r4
20001b10:	f7fe fa90 	bl	20000034 <d_make_comp>
20001b14:	462a      	mov	r2, r5
20001b16:	4603      	mov	r3, r0
20001b18:	213a      	movs	r1, #58	@ 0x3a
20001b1a:	4620      	mov	r0, r4
20001b1c:	e8bd 41f0 	ldmia.w	sp!, {r4, r5, r6, r7, r8, lr}
20001b20:	f7fe ba88 	b.w	20000034 <d_make_comp>
20001b24:	7871      	ldrb	r1, [r6, #1]
20001b26:	7832      	ldrb	r2, [r6, #0]
20001b28:	2963      	cmp	r1, #99	@ 0x63
20001b2a:	f000 80d2 	beq.w	20001cd2 <d_expression_1+0x46e>
20001b2e:	2a66      	cmp	r2, #102	@ 0x66
20001b30:	f000 80f8 	beq.w	20001d24 <d_expression_1+0x4c0>
20001b34:	2b64      	cmp	r3, #100	@ 0x64
20001b36:	f040 80ec 	bne.w	20001d12 <d_expression_1+0x4ae>
20001b3a:	7873      	ldrb	r3, [r6, #1]
20001b3c:	2b69      	cmp	r3, #105	@ 0x69
20001b3e:	f040 80e8 	bne.w	20001d12 <d_expression_1+0x4ae>
20001b42:	78b2      	ldrb	r2, [r6, #2]
20001b44:	2a00      	cmp	r2, #0
20001b46:	f040 80e4 	bne.w	20001d12 <d_expression_1+0x4ae>
20001b4a:	4611      	mov	r1, r2
20001b4c:	4620      	mov	r0, r4
20001b4e:	f7ff fcbb 	bl	200014c8 <d_unqualified_name>
20001b52:	4607      	mov	r7, r0
20001b54:	7833      	ldrb	r3, [r6, #0]
20001b56:	2b63      	cmp	r3, #99	@ 0x63
20001b58:	d17a      	bne.n	20001c50 <d_expression_1+0x3ec>
20001b5a:	7872      	ldrb	r2, [r6, #1]
20001b5c:	2a6c      	cmp	r2, #108	@ 0x6c
20001b5e:	d177      	bne.n	20001c50 <d_expression_1+0x3ec>
20001b60:	78b2      	ldrb	r2, [r6, #2]
20001b62:	2a00      	cmp	r2, #0
20001b64:	d174      	bne.n	20001c50 <d_expression_1+0x3ec>
20001b66:	2145      	movs	r1, #69	@ 0x45
20001b68:	4620      	mov	r0, r4
20001b6a:	f000 f8f7 	bl	20001d5c <d_exprlist>
20001b6e:	4606      	mov	r6, r0
20001b70:	4633      	mov	r3, r6
20001b72:	463a      	mov	r2, r7
20001b74:	2139      	movs	r1, #57	@ 0x39
20001b76:	4620      	mov	r0, r4
20001b78:	f7fe fa5c 	bl	20000034 <d_make_comp>
20001b7c:	462a      	mov	r2, r5
20001b7e:	4603      	mov	r3, r0
20001b80:	2138      	movs	r1, #56	@ 0x38
20001b82:	4620      	mov	r0, r4
20001b84:	e8bd 41f0 	ldmia.w	sp!, {r4, r5, r6, r7, r8, lr}
20001b88:	f7fe ba54 	b.w	20000034 <d_make_comp>
20001b8c:	3301      	adds	r3, #1
20001b8e:	2145      	movs	r1, #69	@ 0x45
20001b90:	4620      	mov	r0, r4
20001b92:	60e3      	str	r3, [r4, #12]
20001b94:	f000 f8e2 	bl	20001d5c <d_exprlist>
20001b98:	4603      	mov	r3, r0
20001b9a:	e6ae      	b.n	200018fa <d_expression_1+0x96>
20001b9c:	4620      	mov	r0, r4
20001b9e:	f7ff fe61 	bl	20001864 <d_expression_1>
20001ba2:	4603      	mov	r3, r0
20001ba4:	e788      	b.n	20001ab8 <d_expression_1+0x254>
20001ba6:	3203      	adds	r2, #3
20001ba8:	2000      	movs	r0, #0
20001baa:	60e2      	str	r2, [r4, #12]
20001bac:	e6cb      	b.n	20001946 <d_expression_1+0xe2>
20001bae:	3202      	adds	r2, #2
20001bb0:	60c2      	str	r2, [r0, #12]
20001bb2:	f7ff fe57 	bl	20001864 <d_expression_1>
20001bb6:	2300      	movs	r3, #0
20001bb8:	4602      	mov	r2, r0
20001bba:	214c      	movs	r1, #76	@ 0x4c
20001bbc:	4620      	mov	r0, r4
20001bbe:	e8bd 41f0 	ldmia.w	sp!, {r4, r5, r6, r7, r8, lr}
20001bc2:	f7fe ba37 	b.w	20000034 <d_make_comp>
20001bc6:	7871      	ldrb	r1, [r6, #1]
20001bc8:	4291      	cmp	r1, r2
20001bca:	f47f af68 	bne.w	20001a9e <d_expression_1+0x23a>
20001bce:	68e2      	ldr	r2, [r4, #12]
20001bd0:	7811      	ldrb	r1, [r2, #0]
20001bd2:	295f      	cmp	r1, #95	@ 0x5f
20001bd4:	f47f af64 	bne.w	20001aa0 <d_expression_1+0x23c>
20001bd8:	3201      	adds	r2, #1
20001bda:	60e2      	str	r2, [r4, #12]
20001bdc:	7833      	ldrb	r3, [r6, #0]
20001bde:	e75e      	b.n	20001a9e <d_expression_1+0x23a>
20001be0:	4620      	mov	r0, r4
20001be2:	f7fe ff0f 	bl	20000a04 <d_type>
20001be6:	68e2      	ldr	r2, [r4, #12]
20001be8:	4605      	mov	r5, r0
20001bea:	e712      	b.n	20001a12 <d_expression_1+0x1ae>
20001bec:	2b64      	cmp	r3, #100	@ 0x64
20001bee:	d106      	bne.n	20001bfe <d_expression_1+0x39a>
20001bf0:	7873      	ldrb	r3, [r6, #1]
20001bf2:	2b58      	cmp	r3, #88	@ 0x58
20001bf4:	d103      	bne.n	20001bfe <d_expression_1+0x39a>
20001bf6:	78b3      	ldrb	r3, [r6, #2]
20001bf8:	2b00      	cmp	r3, #0
20001bfa:	f43f af72 	beq.w	20001ae2 <d_expression_1+0x27e>
20001bfe:	7833      	ldrb	r3, [r6, #0]
20001c00:	2b66      	cmp	r3, #102	@ 0x66
20001c02:	f000 8094 	beq.w	20001d2e <d_expression_1+0x4ca>
20001c06:	2b6e      	cmp	r3, #110	@ 0x6e
20001c08:	f47f af13 	bne.w	20001a32 <d_expression_1+0x1ce>
20001c0c:	7873      	ldrb	r3, [r6, #1]
20001c0e:	2b77      	cmp	r3, #119	@ 0x77
20001c10:	d002      	beq.n	20001c18 <d_expression_1+0x3b4>
20001c12:	2b61      	cmp	r3, #97	@ 0x61
20001c14:	f47f af0d 	bne.w	20001a32 <d_expression_1+0x1ce>
20001c18:	215f      	movs	r1, #95	@ 0x5f
20001c1a:	4620      	mov	r0, r4
20001c1c:	f000 f89e 	bl	20001d5c <d_exprlist>
20001c20:	4606      	mov	r6, r0
20001c22:	4620      	mov	r0, r4
20001c24:	f7fe feee 	bl	20000a04 <d_type>
20001c28:	68e3      	ldr	r3, [r4, #12]
20001c2a:	4607      	mov	r7, r0
20001c2c:	781a      	ldrb	r2, [r3, #0]
20001c2e:	2a45      	cmp	r2, #69	@ 0x45
20001c30:	f000 808d 	beq.w	20001d4e <d_expression_1+0x4ea>
20001c34:	2a70      	cmp	r2, #112	@ 0x70
20001c36:	d07e      	beq.n	20001d36 <d_expression_1+0x4d2>
20001c38:	2a69      	cmp	r2, #105	@ 0x69
20001c3a:	f47f aefa 	bne.w	20001a32 <d_expression_1+0x1ce>
20001c3e:	785b      	ldrb	r3, [r3, #1]
20001c40:	2b6c      	cmp	r3, #108	@ 0x6c
20001c42:	f47f aef6 	bne.w	20001a32 <d_expression_1+0x1ce>
20001c46:	4620      	mov	r0, r4
20001c48:	f7ff fe0c 	bl	20001864 <d_expression_1>
20001c4c:	4603      	mov	r3, r0
20001c4e:	e756      	b.n	20001afe <d_expression_1+0x29a>
20001c50:	2b64      	cmp	r3, #100	@ 0x64
20001c52:	d14c      	bne.n	20001cee <d_expression_1+0x48a>
20001c54:	7872      	ldrb	r2, [r6, #1]
20001c56:	2a74      	cmp	r2, #116	@ 0x74
20001c58:	d149      	bne.n	20001cee <d_expression_1+0x48a>
20001c5a:	78b2      	ldrb	r2, [r6, #2]
20001c5c:	2a00      	cmp	r2, #0
20001c5e:	d146      	bne.n	20001cee <d_expression_1+0x48a>
20001c60:	68e3      	ldr	r3, [r4, #12]
20001c62:	781a      	ldrb	r2, [r3, #0]
20001c64:	2a67      	cmp	r2, #103	@ 0x67
20001c66:	d059      	beq.n	20001d1c <d_expression_1+0x4b8>
20001c68:	2a73      	cmp	r2, #115	@ 0x73
20001c6a:	d102      	bne.n	20001c72 <d_expression_1+0x40e>
20001c6c:	785b      	ldrb	r3, [r3, #1]
20001c6e:	2b72      	cmp	r3, #114	@ 0x72
20001c70:	d045      	beq.n	20001cfe <d_expression_1+0x49a>
20001c72:	2200      	movs	r2, #0
20001c74:	4620      	mov	r0, r4
20001c76:	4611      	mov	r1, r2
20001c78:	f7ff fc26 	bl	200014c8 <d_unqualified_name>
20001c7c:	68e3      	ldr	r3, [r4, #12]
20001c7e:	4606      	mov	r6, r0
20001c80:	781a      	ldrb	r2, [r3, #0]
20001c82:	2a49      	cmp	r2, #73	@ 0x49
20001c84:	f47f af74 	bne.w	20001b70 <d_expression_1+0x30c>
20001c88:	3301      	adds	r3, #1
20001c8a:	4620      	mov	r0, r4
20001c8c:	60e3      	str	r3, [r4, #12]
20001c8e:	f000 fe19 	bl	200028c4 <d_template_args_1>
20001c92:	4632      	mov	r2, r6
20001c94:	4603      	mov	r3, r0
20001c96:	2104      	movs	r1, #4
20001c98:	4620      	mov	r0, r4
20001c9a:	f7fe f9cb 	bl	20000034 <d_make_comp>
20001c9e:	4606      	mov	r6, r0
20001ca0:	e766      	b.n	20001b70 <d_expression_1+0x30c>
20001ca2:	3b43      	subs	r3, #67	@ 0x43
20001ca4:	4a2c      	ldr	r2, [pc, #176]	@ (20001d58 <d_expression_1+0x4f4>)
20001ca6:	b2db      	uxtb	r3, r3
20001ca8:	fa22 f303 	lsr.w	r3, r2, r3
20001cac:	07db      	lsls	r3, r3, #31
20001cae:	f57f ae80 	bpl.w	200019b2 <d_expression_1+0x14e>
20001cb2:	f04f 33ff 	mov.w	r3, #4294967295
20001cb6:	2100      	movs	r1, #0
20001cb8:	4620      	mov	r0, r4
20001cba:	63a3      	str	r3, [r4, #56]	@ 0x38
20001cbc:	f000 fe34 	bl	20002928 <d_prefix>
20001cc0:	68e3      	ldr	r3, [r4, #12]
20001cc2:	4601      	mov	r1, r0
20001cc4:	781a      	ldrb	r2, [r3, #0]
20001cc6:	2a45      	cmp	r2, #69	@ 0x45
20001cc8:	f47f ae77 	bne.w	200019ba <d_expression_1+0x156>
20001ccc:	3301      	adds	r3, #1
20001cce:	60e3      	str	r3, [r4, #12]
20001cd0:	e673      	b.n	200019ba <d_expression_1+0x156>
20001cd2:	f1a2 0172 	sub.w	r1, r2, #114	@ 0x72
20001cd6:	2901      	cmp	r1, #1
20001cd8:	d904      	bls.n	20001ce4 <d_expression_1+0x480>
20001cda:	f1a2 0163 	sub.w	r1, r2, #99	@ 0x63
20001cde:	2901      	cmp	r1, #1
20001ce0:	f63f af25 	bhi.w	20001b2e <d_expression_1+0x2ca>
20001ce4:	4620      	mov	r0, r4
20001ce6:	f7fe fe8d 	bl	20000a04 <d_type>
20001cea:	4607      	mov	r7, r0
20001cec:	e732      	b.n	20001b54 <d_expression_1+0x2f0>
20001cee:	2b70      	cmp	r3, #112	@ 0x70
20001cf0:	d105      	bne.n	20001cfe <d_expression_1+0x49a>
20001cf2:	7873      	ldrb	r3, [r6, #1]
20001cf4:	2b74      	cmp	r3, #116	@ 0x74
20001cf6:	d102      	bne.n	20001cfe <d_expression_1+0x49a>
20001cf8:	78b3      	ldrb	r3, [r6, #2]
20001cfa:	2b00      	cmp	r3, #0
20001cfc:	d0b0      	beq.n	20001c60 <d_expression_1+0x3fc>
20001cfe:	4620      	mov	r0, r4
20001d00:	f7ff fdb0 	bl	20001864 <d_expression_1>
20001d04:	4606      	mov	r6, r0
20001d06:	e733      	b.n	20001b70 <d_expression_1+0x30c>
20001d08:	3b61      	subs	r3, #97	@ 0x61
20001d0a:	2b19      	cmp	r3, #25
20001d0c:	f63f ae51 	bhi.w	200019b2 <d_expression_1+0x14e>
20001d10:	e7cf      	b.n	20001cb2 <d_expression_1+0x44e>
20001d12:	4620      	mov	r0, r4
20001d14:	f7ff fda6 	bl	20001864 <d_expression_1>
20001d18:	4607      	mov	r7, r0
20001d1a:	e71b      	b.n	20001b54 <d_expression_1+0x2f0>
20001d1c:	785b      	ldrb	r3, [r3, #1]
20001d1e:	2b73      	cmp	r3, #115	@ 0x73
20001d20:	d1a7      	bne.n	20001c72 <d_expression_1+0x40e>
20001d22:	e7ec      	b.n	20001cfe <d_expression_1+0x49a>
20001d24:	4620      	mov	r0, r4
20001d26:	f7ff fb49 	bl	200013bc <d_operator_name>
20001d2a:	4607      	mov	r7, r0
20001d2c:	e712      	b.n	20001b54 <d_expression_1+0x2f0>
20001d2e:	4620      	mov	r0, r4
20001d30:	f7ff fb44 	bl	200013bc <d_operator_name>
20001d34:	e6d8      	b.n	20001ae8 <d_expression_1+0x284>
20001d36:	785a      	ldrb	r2, [r3, #1]
20001d38:	2a69      	cmp	r2, #105	@ 0x69
20001d3a:	f47f ae7a 	bne.w	20001a32 <d_expression_1+0x1ce>
20001d3e:	3302      	adds	r3, #2
20001d40:	2145      	movs	r1, #69	@ 0x45
20001d42:	4620      	mov	r0, r4
20001d44:	60e3      	str	r3, [r4, #12]
20001d46:	f000 f809 	bl	20001d5c <d_exprlist>
20001d4a:	4603      	mov	r3, r0
20001d4c:	e6d7      	b.n	20001afe <d_expression_1+0x29a>
20001d4e:	3301      	adds	r3, #1
20001d50:	60e3      	str	r3, [r4, #12]
20001d52:	2300      	movs	r3, #0
20001d54:	e6d3      	b.n	20001afe <d_expression_1+0x29a>
20001d56:	bf00      	nop
20001d58:	00040201 	.word	0x00040201

20001d5c <d_exprlist>:
20001d5c:	68c2      	ldr	r2, [r0, #12]
20001d5e:	2300      	movs	r3, #0
20001d60:	e92d 41f0 	stmdb	sp!, {r4, r5, r6, r7, r8, lr}
20001d64:	460e      	mov	r6, r1
20001d66:	7811      	ldrb	r1, [r2, #0]
20001d68:	b082      	sub	sp, #8
20001d6a:	4604      	mov	r4, r0
20001d6c:	42b1      	cmp	r1, r6
20001d6e:	9301      	str	r3, [sp, #4]
20001d70:	d024      	beq.n	20001dbc <d_exprlist+0x60>
20001d72:	ad01      	add	r5, sp, #4
20001d74:	2701      	movs	r7, #1
20001d76:	e009      	b.n	20001d8c <d_exprlist+0x30>
20001d78:	f7fe f95c 	bl	20000034 <d_make_comp>
20001d7c:	6028      	str	r0, [r5, #0]
20001d7e:	f100 0510 	add.w	r5, r0, #16
20001d82:	b188      	cbz	r0, 20001da8 <d_exprlist+0x4c>
20001d84:	68e3      	ldr	r3, [r4, #12]
20001d86:	781a      	ldrb	r2, [r3, #0]
20001d88:	42b2      	cmp	r2, r6
20001d8a:	d011      	beq.n	20001db0 <d_exprlist+0x54>
20001d8c:	f8d4 8030 	ldr.w	r8, [r4, #48]	@ 0x30
20001d90:	4620      	mov	r0, r4
20001d92:	6327      	str	r7, [r4, #48]	@ 0x30
20001d94:	f7ff fd66 	bl	20001864 <d_expression_1>
20001d98:	4602      	mov	r2, r0
20001d9a:	2300      	movs	r3, #0
20001d9c:	212e      	movs	r1, #46	@ 0x2e
20001d9e:	4620      	mov	r0, r4
20001da0:	f8c4 8030 	str.w	r8, [r4, #48]	@ 0x30
20001da4:	2a00      	cmp	r2, #0
20001da6:	d1e7      	bne.n	20001d78 <d_exprlist+0x1c>
20001da8:	2000      	movs	r0, #0
20001daa:	b002      	add	sp, #8
20001dac:	e8bd 81f0 	ldmia.w	sp!, {r4, r5, r6, r7, r8, pc}
20001db0:	3301      	adds	r3, #1
20001db2:	9801      	ldr	r0, [sp, #4]
20001db4:	60e3      	str	r3, [r4, #12]
20001db6:	b002      	add	sp, #8
20001db8:	e8bd 81f0 	ldmia.w	sp!, {r4, r5, r6, r7, r8, pc}
20001dbc:	1c51      	adds	r1, r2, #1
20001dbe:	461a      	mov	r2, r3
20001dc0:	60c1      	str	r1, [r0, #12]
20001dc2:	212e      	movs	r1, #46	@ 0x2e
20001dc4:	b002      	add	sp, #8
20001dc6:	e8bd 41f0 	ldmia.w	sp!, {r4, r5, r6, r7, r8, lr}
20001dca:	f7fe b933 	b.w	20000034 <d_make_comp>
20001dce:	bf00      	nop

20001dd0 <d_cv_qualifiers>:
20001dd0:	e92d 4ff8 	stmdb	sp!, {r3, r4, r5, r6, r7, r8, r9, sl, fp, lr}
20001dd4:	4691      	mov	r9, r2
20001dd6:	460e      	mov	r6, r1
20001dd8:	68c2      	ldr	r2, [r0, #12]
20001dda:	4604      	mov	r4, r0
20001ddc:	f009 0301 	and.w	r3, r9, #1
20001de0:	4635      	mov	r5, r6
20001de2:	7811      	ldrb	r1, [r2, #0]
20001de4:	2b00      	cmp	r3, #0
20001de6:	bf15      	itete	ne
20001de8:	f04f 0a1e 	movne.w	sl, #30
20001dec:	f04f 0a1b 	moveq.w	sl, #27
20001df0:	f04f 081d 	movne.w	r8, #29
20001df4:	f04f 081a 	moveq.w	r8, #26
20001df8:	bf14      	ite	ne
20001dfa:	271c      	movne	r7, #28
20001dfc:	2719      	moveq	r7, #25
20001dfe:	e020      	b.n	20001e42 <d_cv_qualifiers+0x72>
20001e00:	2956      	cmp	r1, #86	@ 0x56
20001e02:	d037      	beq.n	20001e74 <d_cv_qualifiers+0xa4>
20001e04:	294b      	cmp	r1, #75	@ 0x4b
20001e06:	d03b      	beq.n	20001e80 <d_cv_qualifiers+0xb0>
20001e08:	7853      	ldrb	r3, [r2, #1]
20001e0a:	b37b      	cbz	r3, 20001e6c <d_cv_qualifiers+0x9c>
20001e0c:	1c93      	adds	r3, r2, #2
20001e0e:	60e3      	str	r3, [r4, #12]
20001e10:	7853      	ldrb	r3, [r2, #1]
20001e12:	2b78      	cmp	r3, #120	@ 0x78
20001e14:	d03a      	beq.n	20001e8c <d_cv_qualifiers+0xbc>
20001e16:	f003 02df 	and.w	r2, r3, #223	@ 0xdf
20001e1a:	2a4f      	cmp	r2, #79	@ 0x4f
20001e1c:	d16b      	bne.n	20001ef6 <d_cv_qualifiers+0x126>
20001e1e:	6ae2      	ldr	r2, [r4, #44]	@ 0x2c
20001e20:	2b4f      	cmp	r3, #79	@ 0x4f
20001e22:	f102 0209 	add.w	r2, r2, #9
20001e26:	62e2      	str	r2, [r4, #44]	@ 0x2c
20001e28:	d036      	beq.n	20001e98 <d_cv_qualifiers+0xc8>
20001e2a:	2300      	movs	r3, #0
20001e2c:	2150      	movs	r1, #80	@ 0x50
20001e2e:	2200      	movs	r2, #0
20001e30:	4620      	mov	r0, r4
20001e32:	f7fe f8ff 	bl	20000034 <d_make_comp>
20001e36:	6028      	str	r0, [r5, #0]
20001e38:	b1c0      	cbz	r0, 20001e6c <d_cv_qualifiers+0x9c>
20001e3a:	68e2      	ldr	r2, [r4, #12]
20001e3c:	f100 050c 	add.w	r5, r0, #12
20001e40:	7811      	ldrb	r1, [r2, #0]
20001e42:	4610      	mov	r0, r2
20001e44:	f7fe fb24 	bl	20000490 <next_is_type_qual.isra.0>
20001e48:	2800      	cmp	r0, #0
20001e4a:	d039      	beq.n	20001ec0 <d_cv_qualifiers+0xf0>
20001e4c:	1c53      	adds	r3, r2, #1
20001e4e:	2972      	cmp	r1, #114	@ 0x72
20001e50:	60e3      	str	r3, [r4, #12]
20001e52:	d1d5      	bne.n	20001e00 <d_cv_qualifiers+0x30>
20001e54:	6ae2      	ldr	r2, [r4, #44]	@ 0x2c
20001e56:	4639      	mov	r1, r7
20001e58:	2300      	movs	r3, #0
20001e5a:	4620      	mov	r0, r4
20001e5c:	3209      	adds	r2, #9
20001e5e:	62e2      	str	r2, [r4, #44]	@ 0x2c
20001e60:	2200      	movs	r2, #0
20001e62:	f7fe f8e7 	bl	20000034 <d_make_comp>
20001e66:	6028      	str	r0, [r5, #0]
20001e68:	2800      	cmp	r0, #0
20001e6a:	d1e6      	bne.n	20001e3a <d_cv_qualifiers+0x6a>
20001e6c:	2500      	movs	r5, #0
20001e6e:	4628      	mov	r0, r5
20001e70:	e8bd 8ff8 	ldmia.w	sp!, {r3, r4, r5, r6, r7, r8, r9, sl, fp, pc}
20001e74:	6ae2      	ldr	r2, [r4, #44]	@ 0x2c
20001e76:	4641      	mov	r1, r8
20001e78:	2300      	movs	r3, #0
20001e7a:	3209      	adds	r2, #9
20001e7c:	62e2      	str	r2, [r4, #44]	@ 0x2c
20001e7e:	e7d6      	b.n	20001e2e <d_cv_qualifiers+0x5e>
20001e80:	6ae2      	ldr	r2, [r4, #44]	@ 0x2c
20001e82:	4651      	mov	r1, sl
20001e84:	2300      	movs	r3, #0
20001e86:	3206      	adds	r2, #6
20001e88:	62e2      	str	r2, [r4, #44]	@ 0x2c
20001e8a:	e7d0      	b.n	20001e2e <d_cv_qualifiers+0x5e>
20001e8c:	6ae3      	ldr	r3, [r4, #44]	@ 0x2c
20001e8e:	214e      	movs	r1, #78	@ 0x4e
20001e90:	3311      	adds	r3, #17
20001e92:	62e3      	str	r3, [r4, #44]	@ 0x2c
20001e94:	2300      	movs	r3, #0
20001e96:	e7ca      	b.n	20001e2e <d_cv_qualifiers+0x5e>
20001e98:	2301      	movs	r3, #1
20001e9a:	f8d4 b030 	ldr.w	fp, [r4, #48]	@ 0x30
20001e9e:	4620      	mov	r0, r4
20001ea0:	6323      	str	r3, [r4, #48]	@ 0x30
20001ea2:	f7ff fcdf 	bl	20001864 <d_expression_1>
20001ea6:	f8c4 b030 	str.w	fp, [r4, #48]	@ 0x30
20001eaa:	4603      	mov	r3, r0
20001eac:	2800      	cmp	r0, #0
20001eae:	d0dd      	beq.n	20001e6c <d_cv_qualifiers+0x9c>
20001eb0:	68e2      	ldr	r2, [r4, #12]
20001eb2:	7811      	ldrb	r1, [r2, #0]
20001eb4:	2945      	cmp	r1, #69	@ 0x45
20001eb6:	d1d9      	bne.n	20001e6c <d_cv_qualifiers+0x9c>
20001eb8:	3201      	adds	r2, #1
20001eba:	2150      	movs	r1, #80	@ 0x50
20001ebc:	60e2      	str	r2, [r4, #12]
20001ebe:	e7b6      	b.n	20001e2e <d_cv_qualifiers+0x5e>
20001ec0:	f019 0f01 	tst.w	r9, #1
20001ec4:	d1d3      	bne.n	20001e6e <d_cv_qualifiers+0x9e>
20001ec6:	2946      	cmp	r1, #70	@ 0x46
20001ec8:	d1d1      	bne.n	20001e6e <d_cv_qualifiers+0x9e>
20001eca:	42b5      	cmp	r5, r6
20001ecc:	d0cf      	beq.n	20001e6e <d_cv_qualifiers+0x9e>
20001ece:	201d      	movs	r0, #29
20001ed0:	211e      	movs	r1, #30
20001ed2:	221c      	movs	r2, #28
20001ed4:	e007      	b.n	20001ee6 <d_cv_qualifiers+0x116>
20001ed6:	2b1b      	cmp	r3, #27
20001ed8:	d00b      	beq.n	20001ef2 <d_cv_qualifiers+0x122>
20001eda:	2b19      	cmp	r3, #25
20001edc:	d100      	bne.n	20001ee0 <d_cv_qualifiers+0x110>
20001ede:	7032      	strb	r2, [r6, #0]
20001ee0:	360c      	adds	r6, #12
20001ee2:	42b5      	cmp	r5, r6
20001ee4:	d0c3      	beq.n	20001e6e <d_cv_qualifiers+0x9e>
20001ee6:	6836      	ldr	r6, [r6, #0]
20001ee8:	7833      	ldrb	r3, [r6, #0]
20001eea:	2b1a      	cmp	r3, #26
20001eec:	d1f3      	bne.n	20001ed6 <d_cv_qualifiers+0x106>
20001eee:	7030      	strb	r0, [r6, #0]
20001ef0:	e7f6      	b.n	20001ee0 <d_cv_qualifiers+0x110>
20001ef2:	7031      	strb	r1, [r6, #0]
20001ef4:	e7f4      	b.n	20001ee0 <d_cv_qualifiers+0x110>
20001ef6:	2b77      	cmp	r3, #119	@ 0x77
20001ef8:	d1b8      	bne.n	20001e6c <d_cv_qualifiers+0x9c>
20001efa:	6ae3      	ldr	r3, [r4, #44]	@ 0x2c
20001efc:	4620      	mov	r0, r4
20001efe:	3306      	adds	r3, #6
20001f00:	62e3      	str	r3, [r4, #44]	@ 0x2c
20001f02:	f7ff f94f 	bl	200011a4 <d_parmlist>
20001f06:	4603      	mov	r3, r0
20001f08:	2800      	cmp	r0, #0
20001f0a:	d0af      	beq.n	20001e6c <d_cv_qualifiers+0x9c>
20001f0c:	68e2      	ldr	r2, [r4, #12]
20001f0e:	7811      	ldrb	r1, [r2, #0]
20001f10:	2945      	cmp	r1, #69	@ 0x45
20001f12:	d1ab      	bne.n	20001e6c <d_cv_qualifiers+0x9c>
20001f14:	3201      	adds	r2, #1
20001f16:	2151      	movs	r1, #81	@ 0x51
20001f18:	60e2      	str	r2, [r4, #12]
20001f1a:	e788      	b.n	20001e2e <d_cv_qualifiers+0x5e>

20001f1c <d_name>:
20001f1c:	68c2      	ldr	r2, [r0, #12]
20001f1e:	b5f0      	push	{r4, r5, r6, r7, lr}
20001f20:	7813      	ldrb	r3, [r2, #0]
20001f22:	b085      	sub	sp, #20
20001f24:	4604      	mov	r4, r0
20001f26:	460d      	mov	r5, r1
20001f28:	3b4e      	subs	r3, #78	@ 0x4e
20001f2a:	2b0c      	cmp	r3, #12
20001f2c:	d808      	bhi.n	20001f40 <d_name+0x24>
20001f2e:	e8df f003 	tbb	[pc, r3]
20001f32:	0785      	.short	0x0785
20001f34:	28070707 	.word	0x28070707
20001f38:	07072007 	.word	0x07072007
20001f3c:	0707      	.short	0x0707
20001f3e:	46          	.byte	0x46
20001f3f:	00          	.byte	0x00
20001f40:	2200      	movs	r2, #0
20001f42:	4616      	mov	r6, r2
20001f44:	4631      	mov	r1, r6
20001f46:	4620      	mov	r0, r4
20001f48:	f7ff fabe 	bl	200014c8 <d_unqualified_name>
20001f4c:	68e3      	ldr	r3, [r4, #12]
20001f4e:	4602      	mov	r2, r0
20001f50:	7819      	ldrb	r1, [r3, #0]
20001f52:	2949      	cmp	r1, #73	@ 0x49
20001f54:	d02a      	beq.n	20001fac <d_name+0x90>
20001f56:	b14d      	cbz	r5, 20001f6c <d_name+0x50>
20001f58:	b36a      	cbz	r2, 20001fb6 <d_name+0x9a>
20001f5a:	e9d4 3108 	ldrd	r3, r1, [r4, #32]
20001f5e:	428b      	cmp	r3, r1
20001f60:	da29      	bge.n	20001fb6 <d_name+0x9a>
20001f62:	69e0      	ldr	r0, [r4, #28]
20001f64:	1c59      	adds	r1, r3, #1
20001f66:	f840 2023 	str.w	r2, [r0, r3, lsl #2]
20001f6a:	6221      	str	r1, [r4, #32]
20001f6c:	4610      	mov	r0, r2
20001f6e:	b005      	add	sp, #20
20001f70:	bdf0      	pop	{r4, r5, r6, r7, pc}
20001f72:	2200      	movs	r2, #0
20001f74:	4611      	mov	r1, r2
20001f76:	f7ff faa7 	bl	200014c8 <d_unqualified_name>
20001f7a:	4602      	mov	r2, r0
20001f7c:	2d00      	cmp	r5, #0
20001f7e:	d1eb      	bne.n	20001f58 <d_name+0x3c>
20001f80:	e7f4      	b.n	20001f6c <d_name+0x50>
20001f82:	7853      	ldrb	r3, [r2, #1]
20001f84:	2b74      	cmp	r3, #116	@ 0x74
20001f86:	f000 809b 	beq.w	200020c0 <d_name+0x1a4>
20001f8a:	2600      	movs	r6, #0
20001f8c:	2100      	movs	r1, #0
20001f8e:	4620      	mov	r0, r4
20001f90:	f7fe fc34 	bl	200007fc <d_substitution>
20001f94:	4602      	mov	r2, r0
20001f96:	b170      	cbz	r0, 20001fb6 <d_name+0x9a>
20001f98:	7803      	ldrb	r3, [r0, #0]
20001f9a:	3b53      	subs	r3, #83	@ 0x53
20001f9c:	2b01      	cmp	r3, #1
20001f9e:	d9d1      	bls.n	20001f44 <d_name+0x28>
20001fa0:	b94e      	cbnz	r6, 20001fb6 <d_name+0x9a>
20001fa2:	68e3      	ldr	r3, [r4, #12]
20001fa4:	7819      	ldrb	r1, [r3, #0]
20001fa6:	2949      	cmp	r1, #73	@ 0x49
20001fa8:	d1e0      	bne.n	20001f6c <d_name+0x50>
20001faa:	e074      	b.n	20002096 <d_name+0x17a>
20001fac:	b118      	cbz	r0, 20001fb6 <d_name+0x9a>
20001fae:	e9d4 1008 	ldrd	r1, r0, [r4, #32]
20001fb2:	4281      	cmp	r1, r0
20001fb4:	db66      	blt.n	20002084 <d_name+0x168>
20001fb6:	2200      	movs	r2, #0
20001fb8:	4610      	mov	r0, r2
20001fba:	b005      	add	sp, #20
20001fbc:	bdf0      	pop	{r4, r5, r6, r7, pc}
20001fbe:	1c53      	adds	r3, r2, #1
20001fc0:	60c3      	str	r3, [r0, #12]
20001fc2:	7851      	ldrb	r1, [r2, #1]
20001fc4:	2947      	cmp	r1, #71	@ 0x47
20001fc6:	d077      	beq.n	200020b8 <d_name+0x19c>
20001fc8:	f1a1 0154 	sub.w	r1, r1, #84	@ 0x54
20001fcc:	fab1 f181 	clz	r1, r1
20001fd0:	0949      	lsrs	r1, r1, #5
20001fd2:	2900      	cmp	r1, #0
20001fd4:	d170      	bne.n	200020b8 <d_name+0x19c>
20001fd6:	f000 f901 	bl	200021dc <d_encoding.part.0>
20001fda:	4606      	mov	r6, r0
20001fdc:	2e00      	cmp	r6, #0
20001fde:	d0ea      	beq.n	20001fb6 <d_name+0x9a>
20001fe0:	68e3      	ldr	r3, [r4, #12]
20001fe2:	781a      	ldrb	r2, [r3, #0]
20001fe4:	2a45      	cmp	r2, #69	@ 0x45
20001fe6:	d1e6      	bne.n	20001fb6 <d_name+0x9a>
20001fe8:	1c5a      	adds	r2, r3, #1
20001fea:	60e2      	str	r2, [r4, #12]
20001fec:	785a      	ldrb	r2, [r3, #1]
20001fee:	2a73      	cmp	r2, #115	@ 0x73
20001ff0:	f000 80ce 	beq.w	20002190 <d_name+0x274>
20001ff4:	2a64      	cmp	r2, #100	@ 0x64
20001ff6:	f000 8082 	beq.w	200020fe <d_name+0x1e2>
20001ffa:	2100      	movs	r1, #0
20001ffc:	4620      	mov	r0, r4
20001ffe:	f7ff ff8d 	bl	20001f1c <d_name>
20002002:	4603      	mov	r3, r0
20002004:	2800      	cmp	r0, #0
20002006:	f000 80c1 	beq.w	2000218c <d_name+0x270>
2000200a:	7802      	ldrb	r2, [r0, #0]
2000200c:	2a47      	cmp	r2, #71	@ 0x47
2000200e:	d008      	beq.n	20002022 <d_name+0x106>
20002010:	2a49      	cmp	r2, #73	@ 0x49
20002012:	d006      	beq.n	20002022 <d_name+0x106>
20002014:	9001      	str	r0, [sp, #4]
20002016:	4620      	mov	r0, r4
20002018:	f7fe f92c 	bl	20000274 <d_discriminator>
2000201c:	9b01      	ldr	r3, [sp, #4]
2000201e:	2800      	cmp	r0, #0
20002020:	d0c9      	beq.n	20001fb6 <d_name+0x9a>
20002022:	7832      	ldrb	r2, [r6, #0]
20002024:	2a03      	cmp	r2, #3
20002026:	f000 80a9 	beq.w	2000217c <d_name+0x260>
2000202a:	4632      	mov	r2, r6
2000202c:	2102      	movs	r1, #2
2000202e:	4620      	mov	r0, r4
20002030:	f7fe f800 	bl	20000034 <d_make_comp>
20002034:	4602      	mov	r2, r0
20002036:	2d00      	cmp	r5, #0
20002038:	d18e      	bne.n	20001f58 <d_name+0x3c>
2000203a:	e797      	b.n	20001f6c <d_name+0x50>
2000203c:	1c53      	adds	r3, r2, #1
2000203e:	a903      	add	r1, sp, #12
20002040:	2201      	movs	r2, #1
20002042:	60c3      	str	r3, [r0, #12]
20002044:	f7ff fec4 	bl	20001dd0 <d_cv_qualifiers>
20002048:	4606      	mov	r6, r0
2000204a:	2800      	cmp	r0, #0
2000204c:	d0b3      	beq.n	20001fb6 <d_name+0x9a>
2000204e:	2100      	movs	r1, #0
20002050:	4620      	mov	r0, r4
20002052:	f7fe f8f5 	bl	20000240 <d_ref_qualifier>
20002056:	2101      	movs	r1, #1
20002058:	4607      	mov	r7, r0
2000205a:	4620      	mov	r0, r4
2000205c:	f000 fc64 	bl	20002928 <d_prefix>
20002060:	6030      	str	r0, [r6, #0]
20002062:	2800      	cmp	r0, #0
20002064:	d0a7      	beq.n	20001fb6 <d_name+0x9a>
20002066:	b117      	cbz	r7, 2000206e <d_name+0x152>
20002068:	9b03      	ldr	r3, [sp, #12]
2000206a:	9703      	str	r7, [sp, #12]
2000206c:	60fb      	str	r3, [r7, #12]
2000206e:	68e3      	ldr	r3, [r4, #12]
20002070:	781a      	ldrb	r2, [r3, #0]
20002072:	2a45      	cmp	r2, #69	@ 0x45
20002074:	d19f      	bne.n	20001fb6 <d_name+0x9a>
20002076:	3301      	adds	r3, #1
20002078:	9a03      	ldr	r2, [sp, #12]
2000207a:	60e3      	str	r3, [r4, #12]
2000207c:	2d00      	cmp	r5, #0
2000207e:	f47f af6b 	bne.w	20001f58 <d_name+0x3c>
20002082:	e773      	b.n	20001f6c <d_name+0x50>
20002084:	69e0      	ldr	r0, [r4, #28]
20002086:	f840 2021 	str.w	r2, [r0, r1, lsl #2]
2000208a:	3101      	adds	r1, #1
2000208c:	6221      	str	r1, [r4, #32]
2000208e:	7819      	ldrb	r1, [r3, #0]
20002090:	3949      	subs	r1, #73	@ 0x49
20002092:	2901      	cmp	r1, #1
20002094:	d870      	bhi.n	20002178 <d_name+0x25c>
20002096:	3301      	adds	r3, #1
20002098:	4620      	mov	r0, r4
2000209a:	9201      	str	r2, [sp, #4]
2000209c:	60e3      	str	r3, [r4, #12]
2000209e:	f000 fc11 	bl	200028c4 <d_template_args_1>
200020a2:	9a01      	ldr	r2, [sp, #4]
200020a4:	4603      	mov	r3, r0
200020a6:	2104      	movs	r1, #4
200020a8:	4620      	mov	r0, r4
200020aa:	f7fd ffc3 	bl	20000034 <d_make_comp>
200020ae:	4602      	mov	r2, r0
200020b0:	2d00      	cmp	r5, #0
200020b2:	f47f af51 	bne.w	20001f58 <d_name+0x3c>
200020b6:	e759      	b.n	20001f6c <d_name+0x50>
200020b8:	f000 f910 	bl	200022dc <d_special_name>
200020bc:	4606      	mov	r6, r0
200020be:	e78d      	b.n	20001fdc <d_name+0xc0>
200020c0:	1c91      	adds	r1, r2, #2
200020c2:	6943      	ldr	r3, [r0, #20]
200020c4:	60c1      	str	r1, [r0, #12]
200020c6:	6981      	ldr	r1, [r0, #24]
200020c8:	428b      	cmp	r3, r1
200020ca:	da7e      	bge.n	200021ca <d_name+0x2ae>
200020cc:	6901      	ldr	r1, [r0, #16]
200020ce:	eb03 0683 	add.w	r6, r3, r3, lsl #2
200020d2:	3301      	adds	r3, #1
200020d4:	6143      	str	r3, [r0, #20]
200020d6:	2300      	movs	r3, #0
200020d8:	00b0      	lsls	r0, r6, #2
200020da:	eb01 0686 	add.w	r6, r1, r6, lsl #2
200020de:	e9c6 3301 	strd	r3, r3, [r6, #4]
200020e2:	540b      	strb	r3, [r1, r0]
200020e4:	4b3b      	ldr	r3, [pc, #236]	@ (200021d4 <d_name+0x2b8>)
200020e6:	60f3      	str	r3, [r6, #12]
200020e8:	2303      	movs	r3, #3
200020ea:	6133      	str	r3, [r6, #16]
200020ec:	6ae3      	ldr	r3, [r4, #44]	@ 0x2c
200020ee:	3303      	adds	r3, #3
200020f0:	62e3      	str	r3, [r4, #44]	@ 0x2c
200020f2:	7893      	ldrb	r3, [r2, #2]
200020f4:	2b53      	cmp	r3, #83	@ 0x53
200020f6:	f43f af49 	beq.w	20001f8c <d_name+0x70>
200020fa:	2200      	movs	r2, #0
200020fc:	e722      	b.n	20001f44 <d_name+0x28>
200020fe:	1c9a      	adds	r2, r3, #2
20002100:	60e2      	str	r2, [r4, #12]
20002102:	789b      	ldrb	r3, [r3, #2]
20002104:	2b5f      	cmp	r3, #95	@ 0x5f
20002106:	d062      	beq.n	200021ce <d_name+0x2b2>
20002108:	2b6e      	cmp	r3, #110	@ 0x6e
2000210a:	f43f af54 	beq.w	20001fb6 <d_name+0x9a>
2000210e:	4620      	mov	r0, r4
20002110:	f7fe f82e 	bl	20000170 <d_number>
20002114:	1c47      	adds	r7, r0, #1
20002116:	f53f af4e 	bmi.w	20001fb6 <d_name+0x9a>
2000211a:	68e2      	ldr	r2, [r4, #12]
2000211c:	7813      	ldrb	r3, [r2, #0]
2000211e:	2b5f      	cmp	r3, #95	@ 0x5f
20002120:	f47f af49 	bne.w	20001fb6 <d_name+0x9a>
20002124:	3201      	adds	r2, #1
20002126:	2100      	movs	r1, #0
20002128:	4620      	mov	r0, r4
2000212a:	60e2      	str	r2, [r4, #12]
2000212c:	f7ff fef6 	bl	20001f1c <d_name>
20002130:	4601      	mov	r1, r0
20002132:	b160      	cbz	r0, 2000214e <d_name+0x232>
20002134:	7803      	ldrb	r3, [r0, #0]
20002136:	2b49      	cmp	r3, #73	@ 0x49
20002138:	d009      	beq.n	2000214e <d_name+0x232>
2000213a:	2b47      	cmp	r3, #71	@ 0x47
2000213c:	d007      	beq.n	2000214e <d_name+0x232>
2000213e:	9001      	str	r0, [sp, #4]
20002140:	4620      	mov	r0, r4
20002142:	f7fe f897 	bl	20000274 <d_discriminator>
20002146:	9901      	ldr	r1, [sp, #4]
20002148:	2800      	cmp	r0, #0
2000214a:	f43f af34 	beq.w	20001fb6 <d_name+0x9a>
2000214e:	e9d4 2305 	ldrd	r2, r3, [r4, #20]
20002152:	429a      	cmp	r2, r3
20002154:	da1a      	bge.n	2000218c <d_name+0x270>
20002156:	6920      	ldr	r0, [r4, #16]
20002158:	eb02 0c82 	add.w	ip, r2, r2, lsl #2
2000215c:	f04f 0e00 	mov.w	lr, #0
20002160:	3201      	adds	r2, #1
20002162:	eb00 038c 	add.w	r3, r0, ip, lsl #2
20002166:	e9c3 ee01 	strd	lr, lr, [r3, #4]
2000216a:	6162      	str	r2, [r4, #20]
2000216c:	2248      	movs	r2, #72	@ 0x48
2000216e:	f800 202c 	strb.w	r2, [r0, ip, lsl #2]
20002172:	e9c3 1703 	strd	r1, r7, [r3, #12]
20002176:	e754      	b.n	20002022 <d_name+0x106>
20002178:	2300      	movs	r3, #0
2000217a:	e794      	b.n	200020a6 <d_name+0x18a>
2000217c:	6932      	ldr	r2, [r6, #16]
2000217e:	7811      	ldrb	r1, [r2, #0]
20002180:	2929      	cmp	r1, #41	@ 0x29
20002182:	f47f af52 	bne.w	2000202a <d_name+0x10e>
20002186:	2100      	movs	r1, #0
20002188:	60d1      	str	r1, [r2, #12]
2000218a:	e74e      	b.n	2000202a <d_name+0x10e>
2000218c:	2300      	movs	r3, #0
2000218e:	e748      	b.n	20002022 <d_name+0x106>
20002190:	3302      	adds	r3, #2
20002192:	4620      	mov	r0, r4
20002194:	60e3      	str	r3, [r4, #12]
20002196:	f7fe f86d 	bl	20000274 <d_discriminator>
2000219a:	2800      	cmp	r0, #0
2000219c:	f43f af0b 	beq.w	20001fb6 <d_name+0x9a>
200021a0:	e9d4 2305 	ldrd	r2, r3, [r4, #20]
200021a4:	429a      	cmp	r2, r3
200021a6:	daf1      	bge.n	2000218c <d_name+0x270>
200021a8:	6921      	ldr	r1, [r4, #16]
200021aa:	eb02 0382 	add.w	r3, r2, r2, lsl #2
200021ae:	3201      	adds	r2, #1
200021b0:	0098      	lsls	r0, r3, #2
200021b2:	6162      	str	r2, [r4, #20]
200021b4:	eb01 0383 	add.w	r3, r1, r3, lsl #2
200021b8:	2200      	movs	r2, #0
200021ba:	e9c3 2201 	strd	r2, r2, [r3, #4]
200021be:	540a      	strb	r2, [r1, r0]
200021c0:	4a05      	ldr	r2, [pc, #20]	@ (200021d8 <d_name+0x2bc>)
200021c2:	60da      	str	r2, [r3, #12]
200021c4:	220e      	movs	r2, #14
200021c6:	611a      	str	r2, [r3, #16]
200021c8:	e72b      	b.n	20002022 <d_name+0x106>
200021ca:	2600      	movs	r6, #0
200021cc:	e78e      	b.n	200020ec <d_name+0x1d0>
200021ce:	2700      	movs	r7, #0
200021d0:	e7a8      	b.n	20002124 <d_name+0x208>
200021d2:	bf00      	nop
200021d4:	2000cb6c 	.word	0x2000cb6c
200021d8:	2000cb5c 	.word	0x2000cb5c

200021dc <d_encoding.part.0>:
200021dc:	b570      	push	{r4, r5, r6, lr}
200021de:	460e      	mov	r6, r1
200021e0:	2100      	movs	r1, #0
200021e2:	4605      	mov	r5, r0
200021e4:	f7ff fe9a 	bl	20001f1c <d_name>
200021e8:	2800      	cmp	r0, #0
200021ea:	d05b      	beq.n	200022a4 <d_encoding.part.0+0xc8>
200021ec:	4604      	mov	r4, r0
200021ee:	b1ee      	cbz	r6, 2000222c <d_encoding.part.0+0x50>
200021f0:	68ab      	ldr	r3, [r5, #8]
200021f2:	07db      	lsls	r3, r3, #31
200021f4:	d41a      	bmi.n	2000222c <d_encoding.part.0+0x50>
200021f6:	7823      	ldrb	r3, [r4, #0]
200021f8:	2b4e      	cmp	r3, #78	@ 0x4e
200021fa:	f1a3 011c 	sub.w	r1, r3, #28
200021fe:	f1a3 0250 	sub.w	r2, r3, #80	@ 0x50
20002202:	d041      	beq.n	20002288 <d_encoding.part.0+0xac>
20002204:	d83e      	bhi.n	20002284 <d_encoding.part.0+0xa8>
20002206:	2904      	cmp	r1, #4
20002208:	d93e      	bls.n	20002288 <d_encoding.part.0+0xac>
2000220a:	2b02      	cmp	r3, #2
2000220c:	d10c      	bne.n	20002228 <d_encoding.part.0+0x4c>
2000220e:	6923      	ldr	r3, [r4, #16]
20002210:	2b00      	cmp	r3, #0
20002212:	d047      	beq.n	200022a4 <d_encoding.part.0+0xc8>
20002214:	781a      	ldrb	r2, [r3, #0]
20002216:	2a4e      	cmp	r2, #78	@ 0x4e
20002218:	f1a2 001c 	sub.w	r0, r2, #28
2000221c:	f1a2 0150 	sub.w	r1, r2, #80	@ 0x50
20002220:	d03c      	beq.n	2000229c <d_encoding.part.0+0xc0>
20002222:	d839      	bhi.n	20002298 <d_encoding.part.0+0xbc>
20002224:	2804      	cmp	r0, #4
20002226:	d939      	bls.n	2000229c <d_encoding.part.0+0xc0>
20002228:	4620      	mov	r0, r4
2000222a:	bd70      	pop	{r4, r5, r6, pc}
2000222c:	68eb      	ldr	r3, [r5, #12]
2000222e:	781b      	ldrb	r3, [r3, #0]
20002230:	2b00      	cmp	r3, #0
20002232:	d0f9      	beq.n	20002228 <d_encoding.part.0+0x4c>
20002234:	2b45      	cmp	r3, #69	@ 0x45
20002236:	d0f7      	beq.n	20002228 <d_encoding.part.0+0x4c>
20002238:	4623      	mov	r3, r4
2000223a:	781a      	ldrb	r2, [r3, #0]
2000223c:	2a04      	cmp	r2, #4
2000223e:	d034      	beq.n	200022aa <d_encoding.part.0+0xce>
20002240:	d924      	bls.n	2000228c <d_encoding.part.0+0xb0>
20002242:	2a4e      	cmp	r2, #78	@ 0x4e
20002244:	d006      	beq.n	20002254 <d_encoding.part.0+0x78>
20002246:	f1a2 011c 	sub.w	r1, r2, #28
2000224a:	f1a2 0250 	sub.w	r2, r2, #80	@ 0x50
2000224e:	d83c      	bhi.n	200022ca <d_encoding.part.0+0xee>
20002250:	2904      	cmp	r1, #4
20002252:	d802      	bhi.n	2000225a <d_encoding.part.0+0x7e>
20002254:	68db      	ldr	r3, [r3, #12]
20002256:	2b00      	cmp	r3, #0
20002258:	d1ef      	bne.n	2000223a <d_encoding.part.0+0x5e>
2000225a:	2100      	movs	r1, #0
2000225c:	4628      	mov	r0, r5
2000225e:	f7fe ffe5 	bl	2000122c <d_bare_function_type>
20002262:	4603      	mov	r3, r0
20002264:	b1f0      	cbz	r0, 200022a4 <d_encoding.part.0+0xc8>
20002266:	b936      	cbnz	r6, 20002276 <d_encoding.part.0+0x9a>
20002268:	7822      	ldrb	r2, [r4, #0]
2000226a:	2a02      	cmp	r2, #2
2000226c:	d103      	bne.n	20002276 <d_encoding.part.0+0x9a>
2000226e:	7802      	ldrb	r2, [r0, #0]
20002270:	2a29      	cmp	r2, #41	@ 0x29
20002272:	bf08      	it	eq
20002274:	60c6      	streq	r6, [r0, #12]
20002276:	4622      	mov	r2, r4
20002278:	4628      	mov	r0, r5
2000227a:	2103      	movs	r1, #3
2000227c:	e8bd 4070 	ldmia.w	sp!, {r4, r5, r6, lr}
20002280:	f7fd bed8 	b.w	20000034 <d_make_comp>
20002284:	2a01      	cmp	r2, #1
20002286:	d8cf      	bhi.n	20002228 <d_encoding.part.0+0x4c>
20002288:	68e4      	ldr	r4, [r4, #12]
2000228a:	e7b4      	b.n	200021f6 <d_encoding.part.0+0x1a>
2000228c:	2a02      	cmp	r2, #2
2000228e:	d1e4      	bne.n	2000225a <d_encoding.part.0+0x7e>
20002290:	691b      	ldr	r3, [r3, #16]
20002292:	2b00      	cmp	r3, #0
20002294:	d1d1      	bne.n	2000223a <d_encoding.part.0+0x5e>
20002296:	e7e0      	b.n	2000225a <d_encoding.part.0+0x7e>
20002298:	2901      	cmp	r1, #1
2000229a:	d8c5      	bhi.n	20002228 <d_encoding.part.0+0x4c>
2000229c:	68db      	ldr	r3, [r3, #12]
2000229e:	6123      	str	r3, [r4, #16]
200022a0:	2b00      	cmp	r3, #0
200022a2:	d1b7      	bne.n	20002214 <d_encoding.part.0+0x38>
200022a4:	2400      	movs	r4, #0
200022a6:	4620      	mov	r0, r4
200022a8:	bd70      	pop	{r4, r5, r6, pc}
200022aa:	68da      	ldr	r2, [r3, #12]
200022ac:	b15a      	cbz	r2, 200022c6 <d_encoding.part.0+0xea>
200022ae:	7813      	ldrb	r3, [r2, #0]
200022b0:	2b08      	cmp	r3, #8
200022b2:	f103 31ff 	add.w	r1, r3, #4294967295
200022b6:	d80b      	bhi.n	200022d0 <d_encoding.part.0+0xf4>
200022b8:	2b06      	cmp	r3, #6
200022ba:	d8ce      	bhi.n	2000225a <d_encoding.part.0+0x7e>
200022bc:	2901      	cmp	r1, #1
200022be:	d802      	bhi.n	200022c6 <d_encoding.part.0+0xea>
200022c0:	6912      	ldr	r2, [r2, #16]
200022c2:	2a00      	cmp	r2, #0
200022c4:	d1f3      	bne.n	200022ae <d_encoding.part.0+0xd2>
200022c6:	2101      	movs	r1, #1
200022c8:	e7c8      	b.n	2000225c <d_encoding.part.0+0x80>
200022ca:	2a01      	cmp	r2, #1
200022cc:	d9c2      	bls.n	20002254 <d_encoding.part.0+0x78>
200022ce:	e7c4      	b.n	2000225a <d_encoding.part.0+0x7e>
200022d0:	f1b3 0135 	subs.w	r1, r3, #53	@ 0x35
200022d4:	bf18      	it	ne
200022d6:	2101      	movne	r1, #1
200022d8:	e7c0      	b.n	2000225c <d_encoding.part.0+0x80>
200022da:	bf00      	nop

200022dc <d_special_name>:
200022dc:	6ac1      	ldr	r1, [r0, #44]	@ 0x2c
200022de:	68c3      	ldr	r3, [r0, #12]
200022e0:	f101 0214 	add.w	r2, r1, #20
200022e4:	e92d 43f0 	stmdb	sp!, {r4, r5, r6, r7, r8, r9, lr}
200022e8:	b083      	sub	sp, #12
200022ea:	62c2      	str	r2, [r0, #44]	@ 0x2c
200022ec:	781a      	ldrb	r2, [r3, #0]
200022ee:	4604      	mov	r4, r0
200022f0:	2a54      	cmp	r2, #84	@ 0x54
200022f2:	d029      	beq.n	20002348 <d_special_name+0x6c>
200022f4:	2a47      	cmp	r2, #71	@ 0x47
200022f6:	d123      	bne.n	20002340 <d_special_name+0x64>
200022f8:	1c5a      	adds	r2, r3, #1
200022fa:	60c2      	str	r2, [r0, #12]
200022fc:	785a      	ldrb	r2, [r3, #1]
200022fe:	b1fa      	cbz	r2, 20002340 <d_special_name+0x64>
20002300:	1c9a      	adds	r2, r3, #2
20002302:	60c2      	str	r2, [r0, #12]
20002304:	785a      	ldrb	r2, [r3, #1]
20002306:	2a56      	cmp	r2, #86	@ 0x56
20002308:	f200 80e9 	bhi.w	200024de <d_special_name+0x202>
2000230c:	2a40      	cmp	r2, #64	@ 0x40
2000230e:	d917      	bls.n	20002340 <d_special_name+0x64>
20002310:	3a41      	subs	r2, #65	@ 0x41
20002312:	2a15      	cmp	r2, #21
20002314:	d814      	bhi.n	20002340 <d_special_name+0x64>
20002316:	e8df f002 	tbb	[pc, r2]
2000231a:	13d2      	.short	0x13d2
2000231c:	13131313 	.word	0x13131313
20002320:	130b1313 	.word	0x130b1313
20002324:	13131313 	.word	0x13131313
20002328:	b4131313 	.word	0xb4131313
2000232c:	91139d13 	.word	0x91139d13
20002330:	2500      	movs	r5, #0
20002332:	a901      	add	r1, sp, #4
20002334:	9501      	str	r5, [sp, #4]
20002336:	f7fe fb35 	bl	200009a4 <d_maybe_module_name>
2000233a:	2800      	cmp	r0, #0
2000233c:	f040 8120 	bne.w	20002580 <d_special_name+0x2a4>
20002340:	2000      	movs	r0, #0
20002342:	b003      	add	sp, #12
20002344:	e8bd 83f0 	ldmia.w	sp!, {r4, r5, r6, r7, r8, r9, pc}
20002348:	1c5a      	adds	r2, r3, #1
2000234a:	60c2      	str	r2, [r0, #12]
2000234c:	785a      	ldrb	r2, [r3, #1]
2000234e:	2a00      	cmp	r2, #0
20002350:	d0f6      	beq.n	20002340 <d_special_name+0x64>
20002352:	1c9a      	adds	r2, r3, #2
20002354:	60c2      	str	r2, [r0, #12]
20002356:	785b      	ldrb	r3, [r3, #1]
20002358:	3b41      	subs	r3, #65	@ 0x41
2000235a:	2b35      	cmp	r3, #53	@ 0x35
2000235c:	d8f0      	bhi.n	20002340 <d_special_name+0x64>
2000235e:	a201      	add	r2, pc, #4	@ (adr r2, 20002364 <d_special_name+0x88>)
20002360:	f852 f023 	ldr.w	pc, [r2, r3, lsl #2]
20002364:	200025db 	.word	0x200025db
20002368:	20002341 	.word	0x20002341
2000236c:	200026b5 	.word	0x200026b5
20002370:	20002341 	.word	0x20002341
20002374:	20002341 	.word	0x20002341
20002378:	200026a9 	.word	0x200026a9
2000237c:	20002341 	.word	0x20002341
20002380:	200026e9 	.word	0x200026e9
20002384:	200025e7 	.word	0x200025e7
20002388:	200025f3 	.word	0x200025f3
2000238c:	20002341 	.word	0x20002341
20002390:	20002341 	.word	0x20002341
20002394:	20002341 	.word	0x20002341
20002398:	20002341 	.word	0x20002341
2000239c:	20002341 	.word	0x20002341
200023a0:	20002341 	.word	0x20002341
200023a4:	20002341 	.word	0x20002341
200023a8:	20002341 	.word	0x20002341
200023ac:	200025ff 	.word	0x200025ff
200023b0:	2000260b 	.word	0x2000260b
200023b4:	20002341 	.word	0x20002341
200023b8:	2000261b 	.word	0x2000261b
200023bc:	2000262b 	.word	0x2000262b
200023c0:	20002341 	.word	0x20002341
200023c4:	20002341 	.word	0x20002341
200023c8:	20002341 	.word	0x20002341
200023cc:	20002341 	.word	0x20002341
200023d0:	20002341 	.word	0x20002341
200023d4:	20002341 	.word	0x20002341
200023d8:	20002341 	.word	0x20002341
200023dc:	20002341 	.word	0x20002341
200023e0:	20002341 	.word	0x20002341
200023e4:	20002341 	.word	0x20002341
200023e8:	20002341 	.word	0x20002341
200023ec:	20002639 	.word	0x20002639
200023f0:	20002341 	.word	0x20002341
200023f4:	20002341 	.word	0x20002341
200023f8:	20002341 	.word	0x20002341
200023fc:	20002341 	.word	0x20002341
20002400:	20002679 	.word	0x20002679
20002404:	20002341 	.word	0x20002341
20002408:	20002341 	.word	0x20002341
2000240c:	20002341 	.word	0x20002341
20002410:	20002341 	.word	0x20002341
20002414:	20002341 	.word	0x20002341
20002418:	20002341 	.word	0x20002341
2000241c:	20002341 	.word	0x20002341
20002420:	20002341 	.word	0x20002341
20002424:	20002341 	.word	0x20002341
20002428:	20002341 	.word	0x20002341
2000242c:	20002341 	.word	0x20002341
20002430:	20002341 	.word	0x20002341
20002434:	20002341 	.word	0x20002341
20002438:	200025a7 	.word	0x200025a7
2000243c:	2100      	movs	r1, #0
2000243e:	f7ff fd6d 	bl	20001f1c <d_name>
20002442:	2300      	movs	r3, #0
20002444:	4602      	mov	r2, r0
20002446:	2113      	movs	r1, #19
20002448:	4620      	mov	r0, r4
2000244a:	b003      	add	sp, #12
2000244c:	e8bd 43f0 	ldmia.w	sp!, {r4, r5, r6, r7, r8, r9, lr}
20002450:	f7fd bdf0 	b.w	20000034 <d_make_comp>
20002454:	789a      	ldrb	r2, [r3, #2]
20002456:	2a00      	cmp	r2, #0
20002458:	f000 809d 	beq.w	20002596 <d_special_name+0x2ba>
2000245c:	1cda      	adds	r2, r3, #3
2000245e:	60c2      	str	r2, [r0, #12]
20002460:	789a      	ldrb	r2, [r3, #2]
20002462:	78db      	ldrb	r3, [r3, #3]
20002464:	2a6e      	cmp	r2, #110	@ 0x6e
20002466:	f000 8167 	beq.w	20002738 <d_special_name+0x45c>
2000246a:	2b47      	cmp	r3, #71	@ 0x47
2000246c:	d002      	beq.n	20002474 <d_special_name+0x198>
2000246e:	2b54      	cmp	r3, #84	@ 0x54
20002470:	f040 8091 	bne.w	20002596 <d_special_name+0x2ba>
20002474:	4620      	mov	r0, r4
20002476:	f7ff ff31 	bl	200022dc <d_special_name>
2000247a:	4602      	mov	r2, r0
2000247c:	2300      	movs	r3, #0
2000247e:	214a      	movs	r1, #74	@ 0x4a
20002480:	e7e2      	b.n	20002448 <d_special_name+0x16c>
20002482:	2100      	movs	r1, #0
20002484:	f7ff fd4a 	bl	20001f1c <d_name>
20002488:	4606      	mov	r6, r0
2000248a:	e9d4 1205 	ldrd	r1, r2, [r4, #20]
2000248e:	4291      	cmp	r1, r2
20002490:	f280 8087 	bge.w	200025a2 <d_special_name+0x2c6>
20002494:	6922      	ldr	r2, [r4, #16]
20002496:	eb01 0081 	add.w	r0, r1, r1, lsl #2
2000249a:	2300      	movs	r3, #0
2000249c:	3101      	adds	r1, #1
2000249e:	eb02 0580 	add.w	r5, r2, r0, lsl #2
200024a2:	e9c5 3301 	strd	r3, r3, [r5, #4]
200024a6:	2343      	movs	r3, #67	@ 0x43
200024a8:	6161      	str	r1, [r4, #20]
200024aa:	f802 3020 	strb.w	r3, [r2, r0, lsl #2]
200024ae:	4620      	mov	r0, r4
200024b0:	f7fd fe5e 	bl	20000170 <d_number>
200024b4:	60e8      	str	r0, [r5, #12]
200024b6:	462b      	mov	r3, r5
200024b8:	4632      	mov	r2, r6
200024ba:	2116      	movs	r1, #22
200024bc:	e7c4      	b.n	20002448 <d_special_name+0x16c>
200024be:	7899      	ldrb	r1, [r3, #2]
200024c0:	2947      	cmp	r1, #71	@ 0x47
200024c2:	d064      	beq.n	2000258e <d_special_name+0x2b2>
200024c4:	f1a1 0154 	sub.w	r1, r1, #84	@ 0x54
200024c8:	fab1 f181 	clz	r1, r1
200024cc:	0949      	lsrs	r1, r1, #5
200024ce:	2900      	cmp	r1, #0
200024d0:	d15d      	bne.n	2000258e <d_special_name+0x2b2>
200024d2:	f7ff fe83 	bl	200021dc <d_encoding.part.0>
200024d6:	4602      	mov	r2, r0
200024d8:	2300      	movs	r3, #0
200024da:	2117      	movs	r1, #23
200024dc:	e7b4      	b.n	20002448 <d_special_name+0x16c>
200024de:	2a72      	cmp	r2, #114	@ 0x72
200024e0:	f47f af2e 	bne.w	20002340 <d_special_name+0x64>
200024e4:	f7fd fe44 	bl	20000170 <d_number>
200024e8:	2801      	cmp	r0, #1
200024ea:	f77f af29 	ble.w	20002340 <d_special_name+0x64>
200024ee:	68e3      	ldr	r3, [r4, #12]
200024f0:	781a      	ldrb	r2, [r3, #0]
200024f2:	2a00      	cmp	r2, #0
200024f4:	f43f af24 	beq.w	20002340 <d_special_name+0x64>
200024f8:	1c5e      	adds	r6, r3, #1
200024fa:	60e6      	str	r6, [r4, #12]
200024fc:	781b      	ldrb	r3, [r3, #0]
200024fe:	2b5f      	cmp	r3, #95	@ 0x5f
20002500:	f47f af1e 	bne.w	20002340 <d_special_name+0x64>
20002504:	2700      	movs	r7, #0
20002506:	1e45      	subs	r5, r0, #1
20002508:	f04f 0942 	mov.w	r9, #66	@ 0x42
2000250c:	46b8      	mov	r8, r7
2000250e:	7833      	ldrb	r3, [r6, #0]
20002510:	2b00      	cmp	r3, #0
20002512:	f43f af15 	beq.w	20002340 <d_special_name+0x64>
20002516:	2b24      	cmp	r3, #36	@ 0x24
20002518:	f040 80ed 	bne.w	200026f6 <d_special_name+0x41a>
2000251c:	7873      	ldrb	r3, [r6, #1]
2000251e:	2b53      	cmp	r3, #83	@ 0x53
20002520:	f000 8104 	beq.w	2000272c <d_special_name+0x450>
20002524:	2b5f      	cmp	r3, #95	@ 0x5f
20002526:	f000 8103 	beq.w	20002730 <d_special_name+0x454>
2000252a:	2b24      	cmp	r3, #36	@ 0x24
2000252c:	f47f af08 	bne.w	20002340 <d_special_name+0x64>
20002530:	461a      	mov	r2, r3
20002532:	68e6      	ldr	r6, [r4, #12]
20002534:	e9d4 1305 	ldrd	r1, r3, [r4, #20]
20002538:	3602      	adds	r6, #2
2000253a:	4299      	cmp	r1, r3
2000253c:	f280 80fa 	bge.w	20002734 <d_special_name+0x458>
20002540:	6920      	ldr	r0, [r4, #16]
20002542:	eb01 0c81 	add.w	ip, r1, r1, lsl #2
20002546:	3d02      	subs	r5, #2
20002548:	3101      	adds	r1, #1
2000254a:	eb00 038c 	add.w	r3, r0, ip, lsl #2
2000254e:	e9c3 8801 	strd	r8, r8, [r3, #4]
20002552:	6161      	str	r1, [r4, #20]
20002554:	f800 902c 	strb.w	r9, [r0, ip, lsl #2]
20002558:	60da      	str	r2, [r3, #12]
2000255a:	60e6      	str	r6, [r4, #12]
2000255c:	2f00      	cmp	r7, #0
2000255e:	f000 80e3 	beq.w	20002728 <d_special_name+0x44c>
20002562:	463a      	mov	r2, r7
20002564:	2141      	movs	r1, #65	@ 0x41
20002566:	4620      	mov	r0, r4
20002568:	f7fd fd64 	bl	20000034 <d_make_comp>
2000256c:	4607      	mov	r7, r0
2000256e:	2800      	cmp	r0, #0
20002570:	f43f aee6 	beq.w	20002340 <d_special_name+0x64>
20002574:	2d00      	cmp	r5, #0
20002576:	dcca      	bgt.n	2000250e <d_special_name+0x232>
20002578:	2300      	movs	r3, #0
2000257a:	463a      	mov	r2, r7
2000257c:	2140      	movs	r1, #64	@ 0x40
2000257e:	e763      	b.n	20002448 <d_special_name+0x16c>
20002580:	9a01      	ldr	r2, [sp, #4]
20002582:	2a00      	cmp	r2, #0
20002584:	f43f aedc 	beq.w	20002340 <d_special_name+0x64>
20002588:	462b      	mov	r3, r5
2000258a:	2156      	movs	r1, #86	@ 0x56
2000258c:	e75c      	b.n	20002448 <d_special_name+0x16c>
2000258e:	f7ff fea5 	bl	200022dc <d_special_name>
20002592:	4602      	mov	r2, r0
20002594:	e7a0      	b.n	200024d8 <d_special_name+0x1fc>
20002596:	2100      	movs	r1, #0
20002598:	4620      	mov	r0, r4
2000259a:	f7ff fe1f 	bl	200021dc <d_encoding.part.0>
2000259e:	4602      	mov	r2, r0
200025a0:	e76c      	b.n	2000247c <d_special_name+0x1a0>
200025a2:	2500      	movs	r5, #0
200025a4:	e787      	b.n	200024b6 <d_special_name+0x1da>
200025a6:	2176      	movs	r1, #118	@ 0x76
200025a8:	f7fd fe22 	bl	200001f0 <d_call_offset>
200025ac:	2800      	cmp	r0, #0
200025ae:	f43f aec7 	beq.w	20002340 <d_special_name+0x64>
200025b2:	68e3      	ldr	r3, [r4, #12]
200025b4:	4620      	mov	r0, r4
200025b6:	781b      	ldrb	r3, [r3, #0]
200025b8:	2b47      	cmp	r3, #71	@ 0x47
200025ba:	f000 80cf 	beq.w	2000275c <d_special_name+0x480>
200025be:	f1a3 0154 	sub.w	r1, r3, #84	@ 0x54
200025c2:	fab1 f181 	clz	r1, r1
200025c6:	0949      	lsrs	r1, r1, #5
200025c8:	2900      	cmp	r1, #0
200025ca:	f040 80c7 	bne.w	2000275c <d_special_name+0x480>
200025ce:	f7ff fe05 	bl	200021dc <d_encoding.part.0>
200025d2:	4602      	mov	r2, r0
200025d4:	2300      	movs	r3, #0
200025d6:	2110      	movs	r1, #16
200025d8:	e736      	b.n	20002448 <d_special_name+0x16c>
200025da:	f000 f949 	bl	20002870 <d_template_arg>
200025de:	2300      	movs	r3, #0
200025e0:	4602      	mov	r2, r0
200025e2:	2130      	movs	r1, #48	@ 0x30
200025e4:	e730      	b.n	20002448 <d_special_name+0x16c>
200025e6:	f7fe fa0d 	bl	20000a04 <d_type>
200025ea:	2300      	movs	r3, #0
200025ec:	4602      	mov	r2, r0
200025ee:	210c      	movs	r1, #12
200025f0:	e72a      	b.n	20002448 <d_special_name+0x16c>
200025f2:	f7fe fa07 	bl	20000a04 <d_type>
200025f6:	2300      	movs	r3, #0
200025f8:	4602      	mov	r2, r0
200025fa:	2112      	movs	r1, #18
200025fc:	e724      	b.n	20002448 <d_special_name+0x16c>
200025fe:	f7fe fa01 	bl	20000a04 <d_type>
20002602:	2300      	movs	r3, #0
20002604:	4602      	mov	r2, r0
20002606:	210d      	movs	r1, #13
20002608:	e71e      	b.n	20002448 <d_special_name+0x16c>
2000260a:	310a      	adds	r1, #10
2000260c:	62c1      	str	r1, [r0, #44]	@ 0x2c
2000260e:	f7fe f9f9 	bl	20000a04 <d_type>
20002612:	2300      	movs	r3, #0
20002614:	4602      	mov	r2, r0
20002616:	210a      	movs	r1, #10
20002618:	e716      	b.n	20002448 <d_special_name+0x16c>
2000261a:	310f      	adds	r1, #15
2000261c:	62c1      	str	r1, [r0, #44]	@ 0x2c
2000261e:	f7fe f9f1 	bl	20000a04 <d_type>
20002622:	2300      	movs	r3, #0
20002624:	4602      	mov	r2, r0
20002626:	2109      	movs	r1, #9
20002628:	e70e      	b.n	20002448 <d_special_name+0x16c>
2000262a:	2100      	movs	r1, #0
2000262c:	f7ff fc76 	bl	20001f1c <d_name>
20002630:	2300      	movs	r3, #0
20002632:	4602      	mov	r2, r0
20002634:	2115      	movs	r1, #21
20002636:	e707      	b.n	20002448 <d_special_name+0x16c>
20002638:	2100      	movs	r1, #0
2000263a:	f7fd fdd9 	bl	200001f0 <d_call_offset>
2000263e:	2800      	cmp	r0, #0
20002640:	f43f ae7e 	beq.w	20002340 <d_special_name+0x64>
20002644:	2100      	movs	r1, #0
20002646:	4620      	mov	r0, r4
20002648:	f7fd fdd2 	bl	200001f0 <d_call_offset>
2000264c:	2800      	cmp	r0, #0
2000264e:	f43f ae77 	beq.w	20002340 <d_special_name+0x64>
20002652:	68e3      	ldr	r3, [r4, #12]
20002654:	4620      	mov	r0, r4
20002656:	781b      	ldrb	r3, [r3, #0]
20002658:	2b47      	cmp	r3, #71	@ 0x47
2000265a:	f000 8087 	beq.w	2000276c <d_special_name+0x490>
2000265e:	f1a3 0154 	sub.w	r1, r3, #84	@ 0x54
20002662:	fab1 f181 	clz	r1, r1
20002666:	0949      	lsrs	r1, r1, #5
20002668:	2900      	cmp	r1, #0
2000266a:	d17f      	bne.n	2000276c <d_special_name+0x490>
2000266c:	f7ff fdb6 	bl	200021dc <d_encoding.part.0>
20002670:	4602      	mov	r2, r0
20002672:	2300      	movs	r3, #0
20002674:	2111      	movs	r1, #17
20002676:	e6e7      	b.n	20002448 <d_special_name+0x16c>
20002678:	2168      	movs	r1, #104	@ 0x68
2000267a:	f7fd fdb9 	bl	200001f0 <d_call_offset>
2000267e:	2800      	cmp	r0, #0
20002680:	f43f ae5e 	beq.w	20002340 <d_special_name+0x64>
20002684:	68e3      	ldr	r3, [r4, #12]
20002686:	4620      	mov	r0, r4
20002688:	781b      	ldrb	r3, [r3, #0]
2000268a:	2b47      	cmp	r3, #71	@ 0x47
2000268c:	d062      	beq.n	20002754 <d_special_name+0x478>
2000268e:	f1a3 0154 	sub.w	r1, r3, #84	@ 0x54
20002692:	fab1 f181 	clz	r1, r1
20002696:	0949      	lsrs	r1, r1, #5
20002698:	2900      	cmp	r1, #0
2000269a:	d15b      	bne.n	20002754 <d_special_name+0x478>
2000269c:	f7ff fd9e 	bl	200021dc <d_encoding.part.0>
200026a0:	4602      	mov	r2, r0
200026a2:	2300      	movs	r3, #0
200026a4:	210f      	movs	r1, #15
200026a6:	e6cf      	b.n	20002448 <d_special_name+0x16c>
200026a8:	f7fe f9ac 	bl	20000a04 <d_type>
200026ac:	2300      	movs	r3, #0
200026ae:	4602      	mov	r2, r0
200026b0:	210e      	movs	r1, #14
200026b2:	e6c9      	b.n	20002448 <d_special_name+0x16c>
200026b4:	f7fe f9a6 	bl	20000a04 <d_type>
200026b8:	4605      	mov	r5, r0
200026ba:	4620      	mov	r0, r4
200026bc:	f7fd fd58 	bl	20000170 <d_number>
200026c0:	2800      	cmp	r0, #0
200026c2:	f6ff ae3d 	blt.w	20002340 <d_special_name+0x64>
200026c6:	68e3      	ldr	r3, [r4, #12]
200026c8:	781a      	ldrb	r2, [r3, #0]
200026ca:	2a5f      	cmp	r2, #95	@ 0x5f
200026cc:	f47f ae38 	bne.w	20002340 <d_special_name+0x64>
200026d0:	3301      	adds	r3, #1
200026d2:	4620      	mov	r0, r4
200026d4:	60e3      	str	r3, [r4, #12]
200026d6:	f7fe f995 	bl	20000a04 <d_type>
200026da:	6ae6      	ldr	r6, [r4, #44]	@ 0x2c
200026dc:	4602      	mov	r2, r0
200026de:	462b      	mov	r3, r5
200026e0:	3605      	adds	r6, #5
200026e2:	210b      	movs	r1, #11
200026e4:	62e6      	str	r6, [r4, #44]	@ 0x2c
200026e6:	e6af      	b.n	20002448 <d_special_name+0x16c>
200026e8:	2100      	movs	r1, #0
200026ea:	f7ff fc17 	bl	20001f1c <d_name>
200026ee:	2300      	movs	r3, #0
200026f0:	4602      	mov	r2, r0
200026f2:	2114      	movs	r1, #20
200026f4:	e6a8      	b.n	20002448 <d_special_name+0x16c>
200026f6:	1e71      	subs	r1, r6, #1
200026f8:	2200      	movs	r2, #0
200026fa:	e004      	b.n	20002706 <d_special_name+0x42a>
200026fc:	2b24      	cmp	r3, #36	@ 0x24
200026fe:	d006      	beq.n	2000270e <d_special_name+0x432>
20002700:	3201      	adds	r2, #1
20002702:	42aa      	cmp	r2, r5
20002704:	d003      	beq.n	2000270e <d_special_name+0x432>
20002706:	f811 3f01 	ldrb.w	r3, [r1, #1]!
2000270a:	2b00      	cmp	r3, #0
2000270c:	d1f6      	bne.n	200026fc <d_special_name+0x420>
2000270e:	4631      	mov	r1, r6
20002710:	4620      	mov	r0, r4
20002712:	f7fd fd0b 	bl	2000012c <d_make_name>
20002716:	68e6      	ldr	r6, [r4, #12]
20002718:	1aad      	subs	r5, r5, r2
2000271a:	4603      	mov	r3, r0
2000271c:	4416      	add	r6, r2
2000271e:	60e6      	str	r6, [r4, #12]
20002720:	2800      	cmp	r0, #0
20002722:	f47f af1b 	bne.w	2000255c <d_special_name+0x280>
20002726:	e60b      	b.n	20002340 <d_special_name+0x64>
20002728:	461f      	mov	r7, r3
2000272a:	e723      	b.n	20002574 <d_special_name+0x298>
2000272c:	222f      	movs	r2, #47	@ 0x2f
2000272e:	e700      	b.n	20002532 <d_special_name+0x256>
20002730:	222e      	movs	r2, #46	@ 0x2e
20002732:	e6fe      	b.n	20002532 <d_special_name+0x256>
20002734:	60e6      	str	r6, [r4, #12]
20002736:	e603      	b.n	20002340 <d_special_name+0x64>
20002738:	2b47      	cmp	r3, #71	@ 0x47
2000273a:	d013      	beq.n	20002764 <d_special_name+0x488>
2000273c:	f1a3 0154 	sub.w	r1, r3, #84	@ 0x54
20002740:	fab1 f181 	clz	r1, r1
20002744:	0949      	lsrs	r1, r1, #5
20002746:	b969      	cbnz	r1, 20002764 <d_special_name+0x488>
20002748:	f7ff fd48 	bl	200021dc <d_encoding.part.0>
2000274c:	4602      	mov	r2, r0
2000274e:	2300      	movs	r3, #0
20002750:	214b      	movs	r1, #75	@ 0x4b
20002752:	e679      	b.n	20002448 <d_special_name+0x16c>
20002754:	f7ff fdc2 	bl	200022dc <d_special_name>
20002758:	4602      	mov	r2, r0
2000275a:	e7a2      	b.n	200026a2 <d_special_name+0x3c6>
2000275c:	f7ff fdbe 	bl	200022dc <d_special_name>
20002760:	4602      	mov	r2, r0
20002762:	e737      	b.n	200025d4 <d_special_name+0x2f8>
20002764:	f7ff fdba 	bl	200022dc <d_special_name>
20002768:	4602      	mov	r2, r0
2000276a:	e7f0      	b.n	2000274e <d_special_name+0x472>
2000276c:	f7ff fdb6 	bl	200022dc <d_special_name>
20002770:	4602      	mov	r2, r0
20002772:	e77e      	b.n	20002672 <d_special_name+0x396>

20002774 <d_expr_primary>:
20002774:	68c2      	ldr	r2, [r0, #12]
20002776:	b5f8      	push	{r3, r4, r5, r6, r7, lr}
20002778:	7813      	ldrb	r3, [r2, #0]
2000277a:	2b4c      	cmp	r3, #76	@ 0x4c
2000277c:	d11e      	bne.n	200027bc <d_expr_primary+0x48>
2000277e:	1c53      	adds	r3, r2, #1
20002780:	4604      	mov	r4, r0
20002782:	60c3      	str	r3, [r0, #12]
20002784:	7851      	ldrb	r1, [r2, #1]
20002786:	295f      	cmp	r1, #95	@ 0x5f
20002788:	d04a      	beq.n	20002820 <d_expr_primary+0xac>
2000278a:	295a      	cmp	r1, #90	@ 0x5a
2000278c:	d019      	beq.n	200027c2 <d_expr_primary+0x4e>
2000278e:	f7fe f939 	bl	20000a04 <d_type>
20002792:	4605      	mov	r5, r0
20002794:	b190      	cbz	r0, 200027bc <d_expr_primary+0x48>
20002796:	7803      	ldrb	r3, [r0, #0]
20002798:	68e6      	ldr	r6, [r4, #12]
2000279a:	2b27      	cmp	r3, #39	@ 0x27
2000279c:	d047      	beq.n	2000282e <d_expr_primary+0xba>
2000279e:	7833      	ldrb	r3, [r6, #0]
200027a0:	2b6e      	cmp	r3, #110	@ 0x6e
200027a2:	d028      	beq.n	200027f6 <d_expr_primary+0x82>
200027a4:	273d      	movs	r7, #61	@ 0x3d
200027a6:	2b45      	cmp	r3, #69	@ 0x45
200027a8:	d05b      	beq.n	20002862 <d_expr_primary+0xee>
200027aa:	4632      	mov	r2, r6
200027ac:	e003      	b.n	200027b6 <d_expr_primary+0x42>
200027ae:	60e2      	str	r2, [r4, #12]
200027b0:	7813      	ldrb	r3, [r2, #0]
200027b2:	2b45      	cmp	r3, #69	@ 0x45
200027b4:	d025      	beq.n	20002802 <d_expr_primary+0x8e>
200027b6:	3201      	adds	r2, #1
200027b8:	2b00      	cmp	r3, #0
200027ba:	d1f8      	bne.n	200027ae <d_expr_primary+0x3a>
200027bc:	2500      	movs	r5, #0
200027be:	4628      	mov	r0, r5
200027c0:	bdf8      	pop	{r3, r4, r5, r6, r7, pc}
200027c2:	295f      	cmp	r1, #95	@ 0x5f
200027c4:	d02c      	beq.n	20002820 <d_expr_primary+0xac>
200027c6:	1c5a      	adds	r2, r3, #1
200027c8:	4620      	mov	r0, r4
200027ca:	60e2      	str	r2, [r4, #12]
200027cc:	7859      	ldrb	r1, [r3, #1]
200027ce:	2947      	cmp	r1, #71	@ 0x47
200027d0:	d041      	beq.n	20002856 <d_expr_primary+0xe2>
200027d2:	f1a1 0154 	sub.w	r1, r1, #84	@ 0x54
200027d6:	fab1 f181 	clz	r1, r1
200027da:	0949      	lsrs	r1, r1, #5
200027dc:	2900      	cmp	r1, #0
200027de:	d13a      	bne.n	20002856 <d_expr_primary+0xe2>
200027e0:	f7ff fcfc 	bl	200021dc <d_encoding.part.0>
200027e4:	68e3      	ldr	r3, [r4, #12]
200027e6:	4605      	mov	r5, r0
200027e8:	781a      	ldrb	r2, [r3, #0]
200027ea:	2a45      	cmp	r2, #69	@ 0x45
200027ec:	d1e6      	bne.n	200027bc <d_expr_primary+0x48>
200027ee:	3301      	adds	r3, #1
200027f0:	4628      	mov	r0, r5
200027f2:	60e3      	str	r3, [r4, #12]
200027f4:	bdf8      	pop	{r3, r4, r5, r6, r7, pc}
200027f6:	1c72      	adds	r2, r6, #1
200027f8:	273e      	movs	r7, #62	@ 0x3e
200027fa:	60e2      	str	r2, [r4, #12]
200027fc:	7873      	ldrb	r3, [r6, #1]
200027fe:	4616      	mov	r6, r2
20002800:	e7d1      	b.n	200027a6 <d_expr_primary+0x32>
20002802:	1b92      	subs	r2, r2, r6
20002804:	4631      	mov	r1, r6
20002806:	4620      	mov	r0, r4
20002808:	f7fd fc90 	bl	2000012c <d_make_name>
2000280c:	462a      	mov	r2, r5
2000280e:	4603      	mov	r3, r0
20002810:	4639      	mov	r1, r7
20002812:	4620      	mov	r0, r4
20002814:	f7fd fc0e 	bl	20000034 <d_make_comp>
20002818:	68e3      	ldr	r3, [r4, #12]
2000281a:	4605      	mov	r5, r0
2000281c:	781a      	ldrb	r2, [r3, #0]
2000281e:	e7e4      	b.n	200027ea <d_expr_primary+0x76>
20002820:	1c93      	adds	r3, r2, #2
20002822:	60e3      	str	r3, [r4, #12]
20002824:	7892      	ldrb	r2, [r2, #2]
20002826:	2a5a      	cmp	r2, #90	@ 0x5a
20002828:	d0cd      	beq.n	200027c6 <d_expr_primary+0x52>
2000282a:	2500      	movs	r5, #0
2000282c:	e7dd      	b.n	200027ea <d_expr_primary+0x76>
2000282e:	68c3      	ldr	r3, [r0, #12]
20002830:	7c1a      	ldrb	r2, [r3, #16]
20002832:	b11a      	cbz	r2, 2000283c <d_expr_primary+0xc8>
20002834:	6ae2      	ldr	r2, [r4, #44]	@ 0x2c
20002836:	6859      	ldr	r1, [r3, #4]
20002838:	1a52      	subs	r2, r2, r1
2000283a:	62e2      	str	r2, [r4, #44]	@ 0x2c
2000283c:	6818      	ldr	r0, [r3, #0]
2000283e:	490b      	ldr	r1, [pc, #44]	@ (2000286c <d_expr_primary+0xf8>)
20002840:	f009 fa32 	bl	2000bca8 <__strcmp_veneer>
20002844:	7833      	ldrb	r3, [r6, #0]
20002846:	2800      	cmp	r0, #0
20002848:	d1aa      	bne.n	200027a0 <d_expr_primary+0x2c>
2000284a:	2b45      	cmp	r3, #69	@ 0x45
2000284c:	d00b      	beq.n	20002866 <d_expr_primary+0xf2>
2000284e:	2b6e      	cmp	r3, #110	@ 0x6e
20002850:	d0d1      	beq.n	200027f6 <d_expr_primary+0x82>
20002852:	273d      	movs	r7, #61	@ 0x3d
20002854:	e7a9      	b.n	200027aa <d_expr_primary+0x36>
20002856:	f7ff fd41 	bl	200022dc <d_special_name>
2000285a:	68e3      	ldr	r3, [r4, #12]
2000285c:	4605      	mov	r5, r0
2000285e:	781a      	ldrb	r2, [r3, #0]
20002860:	e7c3      	b.n	200027ea <d_expr_primary+0x76>
20002862:	2200      	movs	r2, #0
20002864:	e7ce      	b.n	20002804 <d_expr_primary+0x90>
20002866:	3601      	adds	r6, #1
20002868:	60e6      	str	r6, [r4, #12]
2000286a:	e7a8      	b.n	200027be <d_expr_primary+0x4a>
2000286c:	2000cb70 	.word	0x2000cb70

20002870 <d_template_arg>:
20002870:	b538      	push	{r3, r4, r5, lr}
20002872:	68c3      	ldr	r3, [r0, #12]
20002874:	781a      	ldrb	r2, [r3, #0]
20002876:	2a4c      	cmp	r2, #76	@ 0x4c
20002878:	d01a      	beq.n	200028b0 <d_template_arg+0x40>
2000287a:	4604      	mov	r4, r0
2000287c:	d807      	bhi.n	2000288e <d_template_arg+0x1e>
2000287e:	3a49      	subs	r2, #73	@ 0x49
20002880:	2a01      	cmp	r2, #1
20002882:	d818      	bhi.n	200028b6 <d_template_arg+0x46>
20002884:	3301      	adds	r3, #1
20002886:	60c3      	str	r3, [r0, #12]
20002888:	e8bd 4038 	ldmia.w	sp!, {r3, r4, r5, lr}
2000288c:	e01a      	b.n	200028c4 <d_template_args_1>
2000288e:	2a58      	cmp	r2, #88	@ 0x58
20002890:	d111      	bne.n	200028b6 <d_template_arg+0x46>
20002892:	3301      	adds	r3, #1
20002894:	2201      	movs	r2, #1
20002896:	6b05      	ldr	r5, [r0, #48]	@ 0x30
20002898:	60c3      	str	r3, [r0, #12]
2000289a:	6302      	str	r2, [r0, #48]	@ 0x30
2000289c:	f7fe ffe2 	bl	20001864 <d_expression_1>
200028a0:	68e3      	ldr	r3, [r4, #12]
200028a2:	6325      	str	r5, [r4, #48]	@ 0x30
200028a4:	781a      	ldrb	r2, [r3, #0]
200028a6:	2a45      	cmp	r2, #69	@ 0x45
200028a8:	d10a      	bne.n	200028c0 <d_template_arg+0x50>
200028aa:	3301      	adds	r3, #1
200028ac:	60e3      	str	r3, [r4, #12]
200028ae:	bd38      	pop	{r3, r4, r5, pc}
200028b0:	e8bd 4038 	ldmia.w	sp!, {r3, r4, r5, lr}
200028b4:	e75e      	b.n	20002774 <d_expr_primary>
200028b6:	4620      	mov	r0, r4
200028b8:	e8bd 4038 	ldmia.w	sp!, {r3, r4, r5, lr}
200028bc:	f7fe b8a2 	b.w	20000a04 <d_type>
200028c0:	2000      	movs	r0, #0
200028c2:	bd38      	pop	{r3, r4, r5, pc}

200028c4 <d_template_args_1>:
200028c4:	68c3      	ldr	r3, [r0, #12]
200028c6:	b570      	push	{r4, r5, r6, lr}
200028c8:	781a      	ldrb	r2, [r3, #0]
200028ca:	b082      	sub	sp, #8
200028cc:	4604      	mov	r4, r0
200028ce:	6a86      	ldr	r6, [r0, #40]	@ 0x28
200028d0:	2a45      	cmp	r2, #69	@ 0x45
200028d2:	d01f      	beq.n	20002914 <d_template_args_1+0x50>
200028d4:	2300      	movs	r3, #0
200028d6:	ad01      	add	r5, sp, #4
200028d8:	9301      	str	r3, [sp, #4]
200028da:	e009      	b.n	200028f0 <d_template_args_1+0x2c>
200028dc:	f7fd fbaa 	bl	20000034 <d_make_comp>
200028e0:	6028      	str	r0, [r5, #0]
200028e2:	f100 0510 	add.w	r5, r0, #16
200028e6:	b160      	cbz	r0, 20002902 <d_template_args_1+0x3e>
200028e8:	68e3      	ldr	r3, [r4, #12]
200028ea:	781a      	ldrb	r2, [r3, #0]
200028ec:	2a45      	cmp	r2, #69	@ 0x45
200028ee:	d00b      	beq.n	20002908 <d_template_args_1+0x44>
200028f0:	4620      	mov	r0, r4
200028f2:	f7ff ffbd 	bl	20002870 <d_template_arg>
200028f6:	4602      	mov	r2, r0
200028f8:	2300      	movs	r3, #0
200028fa:	212f      	movs	r1, #47	@ 0x2f
200028fc:	4620      	mov	r0, r4
200028fe:	2a00      	cmp	r2, #0
20002900:	d1ec      	bne.n	200028dc <d_template_args_1+0x18>
20002902:	2000      	movs	r0, #0
20002904:	b002      	add	sp, #8
20002906:	bd70      	pop	{r4, r5, r6, pc}
20002908:	3301      	adds	r3, #1
2000290a:	9801      	ldr	r0, [sp, #4]
2000290c:	62a6      	str	r6, [r4, #40]	@ 0x28
2000290e:	60e3      	str	r3, [r4, #12]
20002910:	b002      	add	sp, #8
20002912:	bd70      	pop	{r4, r5, r6, pc}
20002914:	1c5a      	adds	r2, r3, #1
20002916:	2300      	movs	r3, #0
20002918:	212f      	movs	r1, #47	@ 0x2f
2000291a:	60c2      	str	r2, [r0, #12]
2000291c:	461a      	mov	r2, r3
2000291e:	b002      	add	sp, #8
20002920:	e8bd 4070 	ldmia.w	sp!, {r4, r5, r6, lr}
20002924:	f7fd bb86 	b.w	20000034 <d_make_comp>

20002928 <d_prefix>:
20002928:	b570      	push	{r4, r5, r6, lr}
2000292a:	68c2      	ldr	r2, [r0, #12]
2000292c:	2400      	movs	r4, #0
2000292e:	4605      	mov	r5, r0
20002930:	460e      	mov	r6, r1
20002932:	7813      	ldrb	r3, [r2, #0]
20002934:	2b44      	cmp	r3, #68	@ 0x44
20002936:	d024      	beq.n	20002982 <d_prefix+0x5a>
20002938:	3b49      	subs	r3, #73	@ 0x49
2000293a:	2b0b      	cmp	r3, #11
2000293c:	d807      	bhi.n	2000294e <d_prefix+0x26>
2000293e:	e8df f003 	tbb	[pc, r3]
20002942:	0643      	.short	0x0643
20002944:	063f0606 	.word	0x063f0606
20002948:	06060606 	.word	0x06060606
2000294c:	2b31      	.short	0x2b31
2000294e:	2200      	movs	r2, #0
20002950:	4621      	mov	r1, r4
20002952:	4628      	mov	r0, r5
20002954:	f7fe fdb8 	bl	200014c8 <d_unqualified_name>
20002958:	4604      	mov	r4, r0
2000295a:	2c00      	cmp	r4, #0
2000295c:	d043      	beq.n	200029e6 <d_prefix+0xbe>
2000295e:	68ea      	ldr	r2, [r5, #12]
20002960:	7813      	ldrb	r3, [r2, #0]
20002962:	2b45      	cmp	r3, #69	@ 0x45
20002964:	d040      	beq.n	200029e8 <d_prefix+0xc0>
20002966:	2e00      	cmp	r6, #0
20002968:	d0e3      	beq.n	20002932 <d_prefix+0xa>
2000296a:	e9d5 3108 	ldrd	r3, r1, [r5, #32]
2000296e:	428b      	cmp	r3, r1
20002970:	da39      	bge.n	200029e6 <d_prefix+0xbe>
20002972:	69e9      	ldr	r1, [r5, #28]
20002974:	f841 4023 	str.w	r4, [r1, r3, lsl #2]
20002978:	3301      	adds	r3, #1
2000297a:	622b      	str	r3, [r5, #32]
2000297c:	7813      	ldrb	r3, [r2, #0]
2000297e:	2b44      	cmp	r3, #68	@ 0x44
20002980:	d1da      	bne.n	20002938 <d_prefix+0x10>
20002982:	7853      	ldrb	r3, [r2, #1]
20002984:	f003 03df 	and.w	r3, r3, #223	@ 0xdf
20002988:	2b54      	cmp	r3, #84	@ 0x54
2000298a:	d1e0      	bne.n	2000294e <d_prefix+0x26>
2000298c:	bb5c      	cbnz	r4, 200029e6 <d_prefix+0xbe>
2000298e:	4628      	mov	r0, r5
20002990:	f7fe f838 	bl	20000a04 <d_type>
20002994:	4604      	mov	r4, r0
20002996:	e7e0      	b.n	2000295a <d_prefix+0x32>
20002998:	bb2c      	cbnz	r4, 200029e6 <d_prefix+0xbe>
2000299a:	4628      	mov	r0, r5
2000299c:	f7fd fe68 	bl	20000670 <d_template_param>
200029a0:	4604      	mov	r4, r0
200029a2:	e7da      	b.n	2000295a <d_prefix+0x32>
200029a4:	2101      	movs	r1, #1
200029a6:	4628      	mov	r0, r5
200029a8:	f7fd ff28 	bl	200007fc <d_substitution>
200029ac:	4602      	mov	r2, r0
200029ae:	b1d0      	cbz	r0, 200029e6 <d_prefix+0xbe>
200029b0:	7803      	ldrb	r3, [r0, #0]
200029b2:	3b53      	subs	r3, #83	@ 0x53
200029b4:	2b01      	cmp	r3, #1
200029b6:	d9cb      	bls.n	20002950 <d_prefix+0x28>
200029b8:	b9ac      	cbnz	r4, 200029e6 <d_prefix+0xbe>
200029ba:	4604      	mov	r4, r0
200029bc:	68ea      	ldr	r2, [r5, #12]
200029be:	e7b8      	b.n	20002932 <d_prefix+0xa>
200029c0:	1c53      	adds	r3, r2, #1
200029c2:	461a      	mov	r2, r3
200029c4:	60eb      	str	r3, [r5, #12]
200029c6:	e7b4      	b.n	20002932 <d_prefix+0xa>
200029c8:	b16c      	cbz	r4, 200029e6 <d_prefix+0xbe>
200029ca:	3201      	adds	r2, #1
200029cc:	4628      	mov	r0, r5
200029ce:	60ea      	str	r2, [r5, #12]
200029d0:	f7ff ff78 	bl	200028c4 <d_template_args_1>
200029d4:	4603      	mov	r3, r0
200029d6:	b130      	cbz	r0, 200029e6 <d_prefix+0xbe>
200029d8:	4622      	mov	r2, r4
200029da:	2104      	movs	r1, #4
200029dc:	4628      	mov	r0, r5
200029de:	f7fd fb29 	bl	20000034 <d_make_comp>
200029e2:	4604      	mov	r4, r0
200029e4:	e7b9      	b.n	2000295a <d_prefix+0x32>
200029e6:	2400      	movs	r4, #0
200029e8:	4620      	mov	r0, r4
200029ea:	bd70      	pop	{r4, r5, r6, pc}

200029ec <d_print_comp_inner>:
200029ec:	e92d 4ff0 	stmdb	sp!, {r4, r5, r6, r7, r8, r9, sl, fp, lr}
200029f0:	4604      	mov	r4, r0
200029f2:	b099      	sub	sp, #100	@ 0x64
200029f4:	2a00      	cmp	r2, #0
200029f6:	d07e      	beq.n	20002af6 <d_print_comp_inner+0x10a>
200029f8:	f8d0 7118 	ldr.w	r7, [r0, #280]	@ 0x118
200029fc:	2f00      	cmp	r7, #0
200029fe:	d17d      	bne.n	20002afc <d_print_comp_inner+0x110>
20002a00:	7816      	ldrb	r6, [r2, #0]
20002a02:	4615      	mov	r5, r2
20002a04:	2e5c      	cmp	r6, #92	@ 0x5c
20002a06:	d876      	bhi.n	20002af6 <d_print_comp_inner+0x10a>
20002a08:	e8df f016 	tbh	[pc, r6, lsl #1]
20002a0c:	01480b80 	.word	0x01480b80
20002a10:	02670148 	.word	0x02670148
20002a14:	005d08b1 	.word	0x005d08b1
20002a18:	010a08aa 	.word	0x010a08aa
20002a1c:	07c605d7 	.word	0x07c605d7
20002a20:	06790794 	.word	0x06790794
20002a24:	06130645 	.word	0x06130645
20002a28:	036307fa 	.word	0x036307fa
20002a2c:	02ff0331 	.word	0x02ff0331
20002a30:	0729075b 	.word	0x0729075b
20002a34:	06f006f7 	.word	0x06f006f7
20002a38:	078d06be 	.word	0x078d06be
20002a3c:	00a0082c 	.word	0x00a0082c
20002a40:	00a000a0 	.word	0x00a000a0
20002a44:	00830083 	.word	0x00830083
20002a48:	00830083 	.word	0x00830083
20002a4c:	00830083 	.word	0x00830083
20002a50:	01270083 	.word	0x01270083
20002a54:	00830127 	.word	0x00830127
20002a58:	0bb80083 	.word	0x0bb80083
20002a5c:	08eb007b 	.word	0x08eb007b
20002a60:	00bf09c6 	.word	0x00bf09c6
20002a64:	00bf0075 	.word	0x00bf0075
20002a68:	01570157 	.word	0x01570157
20002a6c:	09a10863 	.word	0x09a10863
20002a70:	050b02b8 	.word	0x050b02b8
20002a74:	01cf0075 	.word	0x01cf0075
20002a78:	01b201c7 	.word	0x01b201c7
20002a7c:	00750579 	.word	0x00750579
20002a80:	0075053d 	.word	0x0075053d
20002a84:	00d70075 	.word	0x00d70075
20002a88:	091200d7 	.word	0x091200d7
20002a8c:	0935093d 	.word	0x0935093d
20002a90:	0b430acd 	.word	0x0b430acd
20002a94:	096f05df 	.word	0x096f05df
20002a98:	02010235 	.word	0x02010235
20002a9c:	01800075 	.word	0x01800075
20002aa0:	0ac60b11 	.word	0x0ac60b11
20002aa4:	0a280a69 	.word	0x0a280a69
20002aa8:	0adb0083 	.word	0x0adb0083
20002aac:	00830083 	.word	0x00830083
20002ab0:	010c0395 	.word	0x010c0395
20002ab4:	0411010c 	.word	0x0411010c
20002ab8:	04a403df 	.word	0x04a403df
20002abc:	007b0462 	.word	0x007b0462
20002ac0:	04250430 	.word	0x04250430
20002ac4:	04d2      	.short	0x04d2
20002ac6:	68d6      	ldr	r6, [r2, #12]
20002ac8:	f8d0 3120 	ldr.w	r3, [r0, #288]	@ 0x120
20002acc:	1c72      	adds	r2, r6, #1
20002ace:	4293      	cmp	r3, r2
20002ad0:	f341 8715 	ble.w	200048fe <d_print_comp_inner+0x1f12>
20002ad4:	f8d0 3110 	ldr.w	r3, [r0, #272]	@ 0x110
20002ad8:	4631      	mov	r1, r6
20002ada:	685b      	ldr	r3, [r3, #4]
20002adc:	68db      	ldr	r3, [r3, #12]
20002ade:	2e00      	cmp	r6, #0
20002ae0:	f002 804d 	beq.w	20004b7e <d_print_comp_inner+0x2192>
20002ae4:	b91b      	cbnz	r3, 20002aee <d_print_comp_inner+0x102>
20002ae6:	e006      	b.n	20002af6 <d_print_comp_inner+0x10a>
20002ae8:	2900      	cmp	r1, #0
20002aea:	f002 8048 	beq.w	20004b7e <d_print_comp_inner+0x2192>
20002aee:	691b      	ldr	r3, [r3, #16]
20002af0:	3901      	subs	r1, #1
20002af2:	2b00      	cmp	r3, #0
20002af4:	d1f8      	bne.n	20002ae8 <d_print_comp_inner+0xfc>
20002af6:	2301      	movs	r3, #1
20002af8:	f8c4 3118 	str.w	r3, [r4, #280]	@ 0x118
20002afc:	b019      	add	sp, #100	@ 0x64
20002afe:	e8bd 8ff0 	ldmia.w	sp!, {r4, r5, r6, r7, r8, r9, sl, fp, pc}
20002b02:	68ea      	ldr	r2, [r5, #12]
20002b04:	2111      	movs	r1, #17
20002b06:	4620      	mov	r0, r4
20002b08:	b019      	add	sp, #100	@ 0x64
20002b0a:	e8bd 4ff0 	ldmia.w	sp!, {r4, r5, r6, r7, r8, r9, sl, fp, lr}
20002b0e:	f002 bceb 	b.w	200054e8 <d_print_comp>
20002b12:	f8d0 2114 	ldr.w	r2, [r0, #276]	@ 0x114
20002b16:	ab08      	add	r3, sp, #32
20002b18:	e9cd 2508 	strd	r2, r5, [sp, #32]
20002b1c:	f8c0 3114 	str.w	r3, [r0, #276]	@ 0x114
20002b20:	2200      	movs	r2, #0
20002b22:	f8d0 3110 	ldr.w	r3, [r0, #272]	@ 0x110
20002b26:	e9cd 230a 	strd	r2, r3, [sp, #40]	@ 0x28
20002b2a:	68ea      	ldr	r2, [r5, #12]
20002b2c:	2111      	movs	r1, #17
20002b2e:	4620      	mov	r0, r4
20002b30:	f002 fcda 	bl	200054e8 <d_print_comp>
20002b34:	9b0a      	ldr	r3, [sp, #40]	@ 0x28
20002b36:	2b00      	cmp	r3, #0
20002b38:	f001 856a 	beq.w	20004610 <d_print_comp_inner+0x1c24>
20002b3c:	9b08      	ldr	r3, [sp, #32]
20002b3e:	f8c4 3114 	str.w	r3, [r4, #276]	@ 0x114
20002b42:	2f00      	cmp	r7, #0
20002b44:	d0da      	beq.n	20002afc <d_print_comp_inner+0x110>
20002b46:	f8c4 8110 	str.w	r8, [r4, #272]	@ 0x110
20002b4a:	e7d7      	b.n	20002afc <d_print_comp_inner+0x110>
20002b4c:	f8d0 1114 	ldr.w	r1, [r0, #276]	@ 0x114
20002b50:	2900      	cmp	r1, #0
20002b52:	f002 8410 	beq.w	20005376 <d_print_comp_inner+0x298a>
20002b56:	460b      	mov	r3, r1
20002b58:	689a      	ldr	r2, [r3, #8]
20002b5a:	b93a      	cbnz	r2, 20002b6c <d_print_comp_inner+0x180>
20002b5c:	685a      	ldr	r2, [r3, #4]
20002b5e:	7812      	ldrb	r2, [r2, #0]
20002b60:	f1a2 0019 	sub.w	r0, r2, #25
20002b64:	2802      	cmp	r0, #2
20002b66:	d804      	bhi.n	20002b72 <d_print_comp_inner+0x186>
20002b68:	4296      	cmp	r6, r2
20002b6a:	d0ca      	beq.n	20002b02 <d_print_comp_inner+0x116>
20002b6c:	681b      	ldr	r3, [r3, #0]
20002b6e:	2b00      	cmp	r3, #0
20002b70:	d1f2      	bne.n	20002b58 <d_print_comp_inner+0x16c>
20002b72:	ab08      	add	r3, sp, #32
20002b74:	2200      	movs	r2, #0
20002b76:	f8c4 3114 	str.w	r3, [r4, #276]	@ 0x114
20002b7a:	f8d4 3110 	ldr.w	r3, [r4, #272]	@ 0x110
20002b7e:	e9cd 1508 	strd	r1, r5, [sp, #32]
20002b82:	e9cd 230a 	strd	r2, r3, [sp, #40]	@ 0x28
20002b86:	68ea      	ldr	r2, [r5, #12]
20002b88:	e7d0      	b.n	20002b2c <d_print_comp_inner+0x140>
20002b8a:	2300      	movs	r3, #0
20002b8c:	f8d0 2114 	ldr.w	r2, [r0, #276]	@ 0x114
20002b90:	a908      	add	r1, sp, #32
20002b92:	9509      	str	r5, [sp, #36]	@ 0x24
20002b94:	930a      	str	r3, [sp, #40]	@ 0x28
20002b96:	f8d0 3110 	ldr.w	r3, [r0, #272]	@ 0x110
20002b9a:	f8c0 1114 	str.w	r1, [r0, #276]	@ 0x114
20002b9e:	2111      	movs	r1, #17
20002ba0:	9208      	str	r2, [sp, #32]
20002ba2:	692a      	ldr	r2, [r5, #16]
20002ba4:	930b      	str	r3, [sp, #44]	@ 0x2c
20002ba6:	f002 fc9f 	bl	200054e8 <d_print_comp>
20002baa:	9b0a      	ldr	r3, [sp, #40]	@ 0x28
20002bac:	2b00      	cmp	r3, #0
20002bae:	f001 876a 	beq.w	20004a86 <d_print_comp_inner+0x209a>
20002bb2:	9b08      	ldr	r3, [sp, #32]
20002bb4:	f8c4 3114 	str.w	r3, [r4, #276]	@ 0x114
20002bb8:	e7a0      	b.n	20002afc <d_print_comp_inner+0x110>
20002bba:	68d2      	ldr	r2, [r2, #12]
20002bbc:	7813      	ldrb	r3, [r2, #0]
20002bbe:	2b27      	cmp	r3, #39	@ 0x27
20002bc0:	f041 86d4 	bne.w	2000496c <d_print_comp_inner+0x1f80>
20002bc4:	68d3      	ldr	r3, [r2, #12]
20002bc6:	7c1f      	ldrb	r7, [r3, #16]
20002bc8:	2f06      	cmp	r7, #6
20002bca:	f202 8062 	bhi.w	20004c92 <d_print_comp_inner+0x22a6>
20002bce:	b127      	cbz	r7, 20002bda <d_print_comp_inner+0x1ee>
20002bd0:	692b      	ldr	r3, [r5, #16]
20002bd2:	781b      	ldrb	r3, [r3, #0]
20002bd4:	2b00      	cmp	r3, #0
20002bd6:	f002 839a 	beq.w	2000530e <d_print_comp_inner+0x2922>
20002bda:	f8d4 1100 	ldr.w	r1, [r4, #256]	@ 0x100
20002bde:	29ff      	cmp	r1, #255	@ 0xff
20002be0:	f002 818f 	beq.w	20004f02 <d_print_comp_inner+0x2516>
20002be4:	1c4b      	adds	r3, r1, #1
20002be6:	f8c4 3100 	str.w	r3, [r4, #256]	@ 0x100
20002bea:	2328      	movs	r3, #40	@ 0x28
20002bec:	4620      	mov	r0, r4
20002bee:	5463      	strb	r3, [r4, r1]
20002bf0:	2111      	movs	r1, #17
20002bf2:	f884 3104 	strb.w	r3, [r4, #260]	@ 0x104
20002bf6:	f002 fc77 	bl	200054e8 <d_print_comp>
20002bfa:	f8d4 1100 	ldr.w	r1, [r4, #256]	@ 0x100
20002bfe:	29ff      	cmp	r1, #255	@ 0xff
20002c00:	f002 816f 	beq.w	20004ee2 <d_print_comp_inner+0x24f6>
20002c04:	1c4b      	adds	r3, r1, #1
20002c06:	f8c4 3100 	str.w	r3, [r4, #256]	@ 0x100
20002c0a:	2329      	movs	r3, #41	@ 0x29
20002c0c:	5463      	strb	r3, [r4, r1]
20002c0e:	f884 3104 	strb.w	r3, [r4, #260]	@ 0x104
20002c12:	782b      	ldrb	r3, [r5, #0]
20002c14:	2b3e      	cmp	r3, #62	@ 0x3e
20002c16:	f002 81aa 	beq.w	20004f6e <d_print_comp_inner+0x2582>
20002c1a:	2f08      	cmp	r7, #8
20002c1c:	f002 819b 	beq.w	20004f56 <d_print_comp_inner+0x256a>
20002c20:	692a      	ldr	r2, [r5, #16]
20002c22:	e76f      	b.n	20002b04 <d_print_comp_inner+0x118>
20002c24:	68d2      	ldr	r2, [r2, #12]
20002c26:	2a00      	cmp	r2, #0
20002c28:	f001 86a3 	beq.w	20004972 <d_print_comp_inner+0x1f86>
20002c2c:	2111      	movs	r1, #17
20002c2e:	f002 fc5b 	bl	200054e8 <d_print_comp>
20002c32:	782b      	ldrb	r3, [r5, #0]
20002c34:	2b54      	cmp	r3, #84	@ 0x54
20002c36:	f001 869f 	beq.w	20004978 <d_print_comp_inner+0x1f8c>
20002c3a:	68eb      	ldr	r3, [r5, #12]
20002c3c:	2b00      	cmp	r3, #0
20002c3e:	d0ef      	beq.n	20002c20 <d_print_comp_inner+0x234>
20002c40:	262e      	movs	r6, #46	@ 0x2e
20002c42:	f8d4 1100 	ldr.w	r1, [r4, #256]	@ 0x100
20002c46:	29ff      	cmp	r1, #255	@ 0xff
20002c48:	f002 81f4 	beq.w	20005034 <d_print_comp_inner+0x2648>
20002c4c:	1c4b      	adds	r3, r1, #1
20002c4e:	f8c4 3100 	str.w	r3, [r4, #256]	@ 0x100
20002c52:	5466      	strb	r6, [r4, r1]
20002c54:	f884 6104 	strb.w	r6, [r4, #260]	@ 0x104
20002c58:	e7e2      	b.n	20002c20 <d_print_comp_inner+0x234>
20002c5a:	68d2      	ldr	r2, [r2, #12]
20002c5c:	f8d0 9120 	ldr.w	r9, [r0, #288]	@ 0x120
20002c60:	7813      	ldrb	r3, [r2, #0]
20002c62:	f1b9 0f00 	cmp.w	r9, #0
20002c66:	d103      	bne.n	20002c70 <d_print_comp_inner+0x284>
20002c68:	2b05      	cmp	r3, #5
20002c6a:	f002 8186 	beq.w	20004f7a <d_print_comp_inner+0x258e>
20002c6e:	464f      	mov	r7, r9
20002c70:	4610      	mov	r0, r2
20002c72:	2b23      	cmp	r3, #35	@ 0x23
20002c74:	e9d4 1c44 	ldrd	r1, ip, [r4, #272]	@ 0x110
20002c78:	f001 85f5 	beq.w	20004866 <d_print_comp_inner+0x1e7a>
20002c7c:	429e      	cmp	r6, r3
20002c7e:	f001 85f2 	beq.w	20004866 <d_print_comp_inner+0x1e7a>
20002c82:	2b24      	cmp	r3, #36	@ 0x24
20002c84:	f001 8510 	beq.w	200046a8 <d_print_comp_inner+0x1cbc>
20002c88:	ab08      	add	r3, sp, #32
20002c8a:	f8cd c020 	str.w	ip, [sp, #32]
20002c8e:	910b      	str	r1, [sp, #44]	@ 0x2c
20002c90:	f8c4 3114 	str.w	r3, [r4, #276]	@ 0x114
20002c94:	2300      	movs	r3, #0
20002c96:	9509      	str	r5, [sp, #36]	@ 0x24
20002c98:	930a      	str	r3, [sp, #40]	@ 0x28
20002c9a:	e747      	b.n	20002b2c <d_print_comp_inner+0x140>
20002c9c:	68d2      	ldr	r2, [r2, #12]
20002c9e:	2111      	movs	r1, #17
20002ca0:	f002 fc22 	bl	200054e8 <d_print_comp>
20002ca4:	49bc      	ldr	r1, [pc, #752]	@ (20002f98 <d_print_comp_inner+0x5ac>)
20002ca6:	4620      	mov	r0, r4
20002ca8:	f7fd fc4c 	bl	20000544 <d_append_string>
20002cac:	692d      	ldr	r5, [r5, #16]
20002cae:	782b      	ldrb	r3, [r5, #0]
20002cb0:	2b48      	cmp	r3, #72	@ 0x48
20002cb2:	f001 829c 	beq.w	200041ee <d_print_comp_inner+0x1802>
20002cb6:	462a      	mov	r2, r5
20002cb8:	e724      	b.n	20002b04 <d_print_comp_inner+0x118>
20002cba:	68d2      	ldr	r2, [r2, #12]
20002cbc:	b112      	cbz	r2, 20002cc4 <d_print_comp_inner+0x2d8>
20002cbe:	2111      	movs	r1, #17
20002cc0:	f002 fc12 	bl	200054e8 <d_print_comp>
20002cc4:	692b      	ldr	r3, [r5, #16]
20002cc6:	2b00      	cmp	r3, #0
20002cc8:	f43f af18 	beq.w	20002afc <d_print_comp_inner+0x110>
20002ccc:	f8d4 1100 	ldr.w	r1, [r4, #256]	@ 0x100
20002cd0:	29fd      	cmp	r1, #253	@ 0xfd
20002cd2:	f201 87f8 	bhi.w	20004cc6 <d_print_comp_inner+0x22da>
20002cd6:	49b1      	ldr	r1, [pc, #708]	@ (20002f9c <d_print_comp_inner+0x5b0>)
20002cd8:	4620      	mov	r0, r4
20002cda:	f7fd fc33 	bl	20000544 <d_append_string>
20002cde:	692a      	ldr	r2, [r5, #16]
20002ce0:	2111      	movs	r1, #17
20002ce2:	4620      	mov	r0, r4
20002ce4:	f8d4 5128 	ldr.w	r5, [r4, #296]	@ 0x128
20002ce8:	f8d4 6100 	ldr.w	r6, [r4, #256]	@ 0x100
20002cec:	f002 fbfc 	bl	200054e8 <d_print_comp>
20002cf0:	f8d4 3128 	ldr.w	r3, [r4, #296]	@ 0x128
20002cf4:	42ab      	cmp	r3, r5
20002cf6:	f47f af01 	bne.w	20002afc <d_print_comp_inner+0x110>
20002cfa:	f8d4 3100 	ldr.w	r3, [r4, #256]	@ 0x100
20002cfe:	42b3      	cmp	r3, r6
20002d00:	f47f aefc 	bne.w	20002afc <d_print_comp_inner+0x110>
20002d04:	3b02      	subs	r3, #2
20002d06:	f8c4 3100 	str.w	r3, [r4, #256]	@ 0x100
20002d0a:	e6f7      	b.n	20002afc <d_print_comp_inner+0x110>
20002d0c:	4ea4      	ldr	r6, [pc, #656]	@ (20002fa0 <d_print_comp_inner+0x5b4>)
20002d0e:	f04f 0a00 	mov.w	sl, #0
20002d12:	f8d0 1100 	ldr.w	r1, [r0, #256]	@ 0x100
20002d16:	f04f 0901 	mov.w	r9, #1
20002d1a:	f106 0b0e 	add.w	fp, r6, #14
20002d1e:	e009      	b.n	20002d34 <d_print_comp_inner+0x348>
20002d20:	4646      	mov	r6, r8
20002d22:	1c59      	adds	r1, r3, #1
20002d24:	45b3      	cmp	fp, r6
20002d26:	f8c4 1100 	str.w	r1, [r4, #256]	@ 0x100
20002d2a:	54e7      	strb	r7, [r4, r3]
20002d2c:	f884 7104 	strb.w	r7, [r4, #260]	@ 0x104
20002d30:	f001 8329 	beq.w	20004386 <d_print_comp_inner+0x199a>
20002d34:	29ff      	cmp	r1, #255	@ 0xff
20002d36:	7877      	ldrb	r7, [r6, #1]
20002d38:	f106 0801 	add.w	r8, r6, #1
20002d3c:	460b      	mov	r3, r1
20002d3e:	d1ef      	bne.n	20002d20 <d_print_comp_inner+0x334>
20002d40:	4620      	mov	r0, r4
20002d42:	f884 a0ff 	strb.w	sl, [r4, #255]	@ 0xff
20002d46:	e9d4 3242 	ldrd	r3, r2, [r4, #264]	@ 0x108
20002d4a:	4798      	blx	r3
20002d4c:	f8d4 3128 	ldr.w	r3, [r4, #296]	@ 0x128
20002d50:	45d8      	cmp	r8, fp
20002d52:	7027      	strb	r7, [r4, #0]
20002d54:	f103 0301 	add.w	r3, r3, #1
20002d58:	f884 7104 	strb.w	r7, [r4, #260]	@ 0x104
20002d5c:	f8c4 9100 	str.w	r9, [r4, #256]	@ 0x100
20002d60:	f8c4 3128 	str.w	r3, [r4, #296]	@ 0x128
20002d64:	f001 830f 	beq.w	20004386 <d_print_comp_inner+0x199a>
20002d68:	f816 7f02 	ldrb.w	r7, [r6, #2]!
20002d6c:	2301      	movs	r3, #1
20002d6e:	e7d8      	b.n	20002d22 <d_print_comp_inner+0x336>
20002d70:	e9d2 6503 	ldrd	r6, r5, [r2, #12]
20002d74:	7833      	ldrb	r3, [r6, #0]
20002d76:	2b32      	cmp	r3, #50	@ 0x32
20002d78:	f001 862b 	beq.w	200049d2 <d_print_comp_inner+0x1fe6>
20002d7c:	2b34      	cmp	r3, #52	@ 0x34
20002d7e:	f001 8691 	beq.w	20004aa4 <d_print_comp_inner+0x20b8>
20002d82:	4632      	mov	r2, r6
20002d84:	2111      	movs	r1, #17
20002d86:	f003 fac1 	bl	2000630c <d_print_expr_op>
20002d8a:	462a      	mov	r2, r5
20002d8c:	2111      	movs	r1, #17
20002d8e:	4620      	mov	r0, r4
20002d90:	b019      	add	sp, #100	@ 0x64
20002d92:	e8bd 4ff0 	ldmia.w	sp!, {r4, r5, r6, r7, r8, r9, sl, fp, lr}
20002d96:	f003 bcab 	b.w	200066f0 <d_print_subexpr>
20002d9a:	68d2      	ldr	r2, [r2, #12]
20002d9c:	2111      	movs	r1, #17
20002d9e:	4620      	mov	r0, r4
20002da0:	b019      	add	sp, #100	@ 0x64
20002da2:	e8bd 4ff0 	ldmia.w	sp!, {r4, r5, r6, r7, r8, r9, sl, fp, lr}
20002da6:	f003 bab1 	b.w	2000630c <d_print_expr_op>
20002daa:	4e7e      	ldr	r6, [pc, #504]	@ (20002fa4 <d_print_comp_inner+0x5b8>)
20002dac:	f04f 0a00 	mov.w	sl, #0
20002db0:	f8d0 1100 	ldr.w	r1, [r0, #256]	@ 0x100
20002db4:	f04f 0901 	mov.w	r9, #1
20002db8:	f106 0b09 	add.w	fp, r6, #9
20002dbc:	e009      	b.n	20002dd2 <d_print_comp_inner+0x3e6>
20002dbe:	4646      	mov	r6, r8
20002dc0:	1c59      	adds	r1, r3, #1
20002dc2:	45b3      	cmp	fp, r6
20002dc4:	f8c4 1100 	str.w	r1, [r4, #256]	@ 0x100
20002dc8:	54e7      	strb	r7, [r4, r3]
20002dca:	f884 7104 	strb.w	r7, [r4, #260]	@ 0x104
20002dce:	f001 82bd 	beq.w	2000434c <d_print_comp_inner+0x1960>
20002dd2:	29ff      	cmp	r1, #255	@ 0xff
20002dd4:	7877      	ldrb	r7, [r6, #1]
20002dd6:	f106 0801 	add.w	r8, r6, #1
20002dda:	460b      	mov	r3, r1
20002ddc:	d1ef      	bne.n	20002dbe <d_print_comp_inner+0x3d2>
20002dde:	4620      	mov	r0, r4
20002de0:	f884 a0ff 	strb.w	sl, [r4, #255]	@ 0xff
20002de4:	e9d4 3242 	ldrd	r3, r2, [r4, #264]	@ 0x108
20002de8:	4798      	blx	r3
20002dea:	f8d4 3128 	ldr.w	r3, [r4, #296]	@ 0x128
20002dee:	45d8      	cmp	r8, fp
20002df0:	7027      	strb	r7, [r4, #0]
20002df2:	f103 0301 	add.w	r3, r3, #1
20002df6:	f884 7104 	strb.w	r7, [r4, #260]	@ 0x104
20002dfa:	f8c4 9100 	str.w	r9, [r4, #256]	@ 0x100
20002dfe:	f8c4 3128 	str.w	r3, [r4, #296]	@ 0x128
20002e02:	f001 82a3 	beq.w	2000434c <d_print_comp_inner+0x1960>
20002e06:	f816 7f02 	ldrb.w	r7, [r6, #2]!
20002e0a:	2301      	movs	r3, #1
20002e0c:	e7d8      	b.n	20002dc0 <d_print_comp_inner+0x3d4>
20002e0e:	4e66      	ldr	r6, [pc, #408]	@ (20002fa8 <d_print_comp_inner+0x5bc>)
20002e10:	f04f 0800 	mov.w	r8, #0
20002e14:	f8d0 1100 	ldr.w	r1, [r0, #256]	@ 0x100
20002e18:	2701      	movs	r7, #1
20002e1a:	f106 0b07 	add.w	fp, r6, #7
20002e1e:	e00a      	b.n	20002e36 <d_print_comp_inner+0x44a>
20002e20:	4656      	mov	r6, sl
20002e22:	1c59      	adds	r1, r3, #1
20002e24:	45b3      	cmp	fp, r6
20002e26:	f8c4 1100 	str.w	r1, [r4, #256]	@ 0x100
20002e2a:	f804 9003 	strb.w	r9, [r4, r3]
20002e2e:	f884 9104 	strb.w	r9, [r4, #260]	@ 0x104
20002e32:	f001 8448 	beq.w	200046c6 <d_print_comp_inner+0x1cda>
20002e36:	29ff      	cmp	r1, #255	@ 0xff
20002e38:	f896 9001 	ldrb.w	r9, [r6, #1]
20002e3c:	f106 0a01 	add.w	sl, r6, #1
20002e40:	460b      	mov	r3, r1
20002e42:	d1ed      	bne.n	20002e20 <d_print_comp_inner+0x434>
20002e44:	4620      	mov	r0, r4
20002e46:	f884 80ff 	strb.w	r8, [r4, #255]	@ 0xff
20002e4a:	e9d4 3242 	ldrd	r3, r2, [r4, #264]	@ 0x108
20002e4e:	4798      	blx	r3
20002e50:	f8d4 3128 	ldr.w	r3, [r4, #296]	@ 0x128
20002e54:	45da      	cmp	sl, fp
20002e56:	f884 9000 	strb.w	r9, [r4]
20002e5a:	f103 0301 	add.w	r3, r3, #1
20002e5e:	f884 9104 	strb.w	r9, [r4, #260]	@ 0x104
20002e62:	f8c4 7100 	str.w	r7, [r4, #256]	@ 0x100
20002e66:	f8c4 3128 	str.w	r3, [r4, #296]	@ 0x128
20002e6a:	f002 805b 	beq.w	20004f24 <d_print_comp_inner+0x2538>
20002e6e:	f816 9f02 	ldrb.w	r9, [r6, #2]!
20002e72:	2301      	movs	r3, #1
20002e74:	e7d5      	b.n	20002e22 <d_print_comp_inner+0x436>
20002e76:	4e4d      	ldr	r6, [pc, #308]	@ (20002fac <d_print_comp_inner+0x5c0>)
20002e78:	f04f 0a00 	mov.w	sl, #0
20002e7c:	f8d0 1100 	ldr.w	r1, [r0, #256]	@ 0x100
20002e80:	f04f 0901 	mov.w	r9, #1
20002e84:	f106 0b1c 	add.w	fp, r6, #28
20002e88:	e009      	b.n	20002e9e <d_print_comp_inner+0x4b2>
20002e8a:	4646      	mov	r6, r8
20002e8c:	1c59      	adds	r1, r3, #1
20002e8e:	45b3      	cmp	fp, r6
20002e90:	f8c4 1100 	str.w	r1, [r4, #256]	@ 0x100
20002e94:	54e7      	strb	r7, [r4, r3]
20002e96:	f884 7104 	strb.w	r7, [r4, #260]	@ 0x104
20002e9a:	f43f ae32 	beq.w	20002b02 <d_print_comp_inner+0x116>
20002e9e:	29ff      	cmp	r1, #255	@ 0xff
20002ea0:	7877      	ldrb	r7, [r6, #1]
20002ea2:	f106 0801 	add.w	r8, r6, #1
20002ea6:	460b      	mov	r3, r1
20002ea8:	d1ef      	bne.n	20002e8a <d_print_comp_inner+0x49e>
20002eaa:	4620      	mov	r0, r4
20002eac:	f884 a0ff 	strb.w	sl, [r4, #255]	@ 0xff
20002eb0:	e9d4 3242 	ldrd	r3, r2, [r4, #264]	@ 0x108
20002eb4:	4798      	blx	r3
20002eb6:	f8d4 3128 	ldr.w	r3, [r4, #296]	@ 0x128
20002eba:	45d8      	cmp	r8, fp
20002ebc:	7027      	strb	r7, [r4, #0]
20002ebe:	f103 0301 	add.w	r3, r3, #1
20002ec2:	f884 7104 	strb.w	r7, [r4, #260]	@ 0x104
20002ec6:	f8c4 9100 	str.w	r9, [r4, #256]	@ 0x100
20002eca:	f8c4 3128 	str.w	r3, [r4, #296]	@ 0x128
20002ece:	f43f ae18 	beq.w	20002b02 <d_print_comp_inner+0x116>
20002ed2:	f816 7f02 	ldrb.w	r7, [r6, #2]!
20002ed6:	2301      	movs	r3, #1
20002ed8:	e7d8      	b.n	20002e8c <d_print_comp_inner+0x4a0>
20002eda:	2200      	movs	r2, #0
20002edc:	f8d5 800c 	ldr.w	r8, [r5, #12]
20002ee0:	f8d0 9114 	ldr.w	r9, [r0, #276]	@ 0x114
20002ee4:	f8c0 2114 	str.w	r2, [r0, #276]	@ 0x114
20002ee8:	f1b8 0f00 	cmp.w	r8, #0
20002eec:	f43f ae03 	beq.w	20002af6 <d_print_comp_inner+0x10a>
20002ef0:	ab08      	add	r3, sp, #32
20002ef2:	f8d0 1110 	ldr.w	r1, [r0, #272]	@ 0x110
20002ef6:	4694      	mov	ip, r2
20002ef8:	4610      	mov	r0, r2
20002efa:	4647      	mov	r7, r8
20002efc:	9301      	str	r3, [sp, #4]
20002efe:	469e      	mov	lr, r3
20002f00:	f10c 0601 	add.w	r6, ip, #1
20002f04:	e9c3 2700 	strd	r2, r7, [r3]
20002f08:	e9c3 0102 	strd	r0, r1, [r3, #8]
20002f0c:	783a      	ldrb	r2, [r7, #0]
20002f0e:	2a4e      	cmp	r2, #78	@ 0x4e
20002f10:	f1a2 081c 	sub.w	r8, r2, #28
20002f14:	f1a2 0250 	sub.w	r2, r2, #80	@ 0x50
20002f18:	f001 848f 	beq.w	2000483a <d_print_comp_inner+0x1e4e>
20002f1c:	f201 848a 	bhi.w	20004834 <d_print_comp_inner+0x1e48>
20002f20:	f1b8 0f04 	cmp.w	r8, #4
20002f24:	f241 8489 	bls.w	2000483a <d_print_comp_inner+0x1e4e>
20002f28:	f8c4 3114 	str.w	r3, [r4, #276]	@ 0x114
20002f2c:	46b8      	mov	r8, r7
20002f2e:	783b      	ldrb	r3, [r7, #0]
20002f30:	2b02      	cmp	r3, #2
20002f32:	f001 86fa 	beq.w	20004d2a <d_print_comp_inner+0x233e>
20002f36:	2b04      	cmp	r3, #4
20002f38:	d104      	bne.n	20002f44 <d_print_comp_inner+0x558>
20002f3a:	ab06      	add	r3, sp, #24
20002f3c:	e9cd 1806 	strd	r1, r8, [sp, #24]
20002f40:	f8c4 3110 	str.w	r3, [r4, #272]	@ 0x110
20002f44:	692a      	ldr	r2, [r5, #16]
20002f46:	2111      	movs	r1, #17
20002f48:	4620      	mov	r0, r4
20002f4a:	f002 facd 	bl	200054e8 <d_print_comp>
20002f4e:	f898 3000 	ldrb.w	r3, [r8]
20002f52:	2b04      	cmp	r3, #4
20002f54:	d102      	bne.n	20002f5c <d_print_comp_inner+0x570>
20002f56:	9b06      	ldr	r3, [sp, #24]
20002f58:	f8c4 3110 	str.w	r3, [r4, #272]	@ 0x110
20002f5c:	9f01      	ldr	r7, [sp, #4]
20002f5e:	f04f 0820 	mov.w	r8, #32
20002f62:	eb07 1506 	add.w	r5, r7, r6, lsl #4
20002f66:	f855 6c08 	ldr.w	r6, [r5, #-8]
20002f6a:	2e00      	cmp	r6, #0
20002f6c:	f001 8446 	beq.w	200047fc <d_print_comp_inner+0x1e10>
20002f70:	3d10      	subs	r5, #16
20002f72:	42af      	cmp	r7, r5
20002f74:	d1f7      	bne.n	20002f66 <d_print_comp_inner+0x57a>
20002f76:	f8c4 9114 	str.w	r9, [r4, #276]	@ 0x114
20002f7a:	e5bf      	b.n	20002afc <d_print_comp_inner+0x110>
20002f7c:	68d7      	ldr	r7, [r2, #12]
20002f7e:	f04f 0a00 	mov.w	sl, #0
20002f82:	4d0b      	ldr	r5, [pc, #44]	@ (20002fb0 <d_print_comp_inner+0x5c4>)
20002f84:	f04f 0901 	mov.w	r9, #1
20002f88:	68be      	ldr	r6, [r7, #8]
20002f8a:	f8d0 1100 	ldr.w	r1, [r0, #256]	@ 0x100
20002f8e:	f105 0808 	add.w	r8, r5, #8
20002f92:	9601      	str	r6, [sp, #4]
20002f94:	4606      	mov	r6, r0
20002f96:	e018      	b.n	20002fca <d_print_comp_inner+0x5de>
20002f98:	2000cb90 	.word	0x2000cb90
20002f9c:	2000cb8c 	.word	0x2000cb8c
20002fa0:	2000ce03 	.word	0x2000ce03
20002fa4:	2000cd43 	.word	0x2000cd43
20002fa8:	2000cdf7 	.word	0x2000cdf7
20002fac:	2000cdd7 	.word	0x2000cdd7
20002fb0:	2000cd37 	.word	0x2000cd37
20002fb4:	4625      	mov	r5, r4
20002fb6:	1c59      	adds	r1, r3, #1
20002fb8:	45a8      	cmp	r8, r5
20002fba:	f8c6 1100 	str.w	r1, [r6, #256]	@ 0x100
20002fbe:	f806 b003 	strb.w	fp, [r6, r3]
20002fc2:	f886 b104 	strb.w	fp, [r6, #260]	@ 0x104
20002fc6:	f001 832a 	beq.w	2000461e <d_print_comp_inner+0x1c32>
20002fca:	29ff      	cmp	r1, #255	@ 0xff
20002fcc:	f895 b001 	ldrb.w	fp, [r5, #1]
20002fd0:	f105 0401 	add.w	r4, r5, #1
20002fd4:	460b      	mov	r3, r1
20002fd6:	d1ed      	bne.n	20002fb4 <d_print_comp_inner+0x5c8>
20002fd8:	4630      	mov	r0, r6
20002fda:	f886 a0ff 	strb.w	sl, [r6, #255]	@ 0xff
20002fde:	e9d6 3242 	ldrd	r3, r2, [r6, #264]	@ 0x108
20002fe2:	4798      	blx	r3
20002fe4:	f8d6 3128 	ldr.w	r3, [r6, #296]	@ 0x128
20002fe8:	4544      	cmp	r4, r8
20002fea:	f886 b000 	strb.w	fp, [r6]
20002fee:	f103 0301 	add.w	r3, r3, #1
20002ff2:	f886 b104 	strb.w	fp, [r6, #260]	@ 0x104
20002ff6:	f8c6 9100 	str.w	r9, [r6, #256]	@ 0x100
20002ffa:	f8c6 3128 	str.w	r3, [r6, #296]	@ 0x128
20002ffe:	f001 830e 	beq.w	2000461e <d_print_comp_inner+0x1c32>
20003002:	f815 bf02 	ldrb.w	fp, [r5, #2]!
20003006:	2301      	movs	r3, #1
20003008:	e7d5      	b.n	20002fb6 <d_print_comp_inner+0x5ca>
2000300a:	4eca      	ldr	r6, [pc, #808]	@ (20003334 <d_print_comp_inner+0x948>)
2000300c:	f04f 0a00 	mov.w	sl, #0
20003010:	f8d0 1100 	ldr.w	r1, [r0, #256]	@ 0x100
20003014:	f04f 0901 	mov.w	r9, #1
20003018:	f106 0b1a 	add.w	fp, r6, #26
2000301c:	e009      	b.n	20003032 <d_print_comp_inner+0x646>
2000301e:	4646      	mov	r6, r8
20003020:	1c59      	adds	r1, r3, #1
20003022:	45b3      	cmp	fp, r6
20003024:	f8c4 1100 	str.w	r1, [r4, #256]	@ 0x100
20003028:	54e7      	strb	r7, [r4, r3]
2000302a:	f884 7104 	strb.w	r7, [r4, #260]	@ 0x104
2000302e:	f43f ad68 	beq.w	20002b02 <d_print_comp_inner+0x116>
20003032:	29ff      	cmp	r1, #255	@ 0xff
20003034:	7877      	ldrb	r7, [r6, #1]
20003036:	f106 0801 	add.w	r8, r6, #1
2000303a:	460b      	mov	r3, r1
2000303c:	d1ef      	bne.n	2000301e <d_print_comp_inner+0x632>
2000303e:	4620      	mov	r0, r4
20003040:	f884 a0ff 	strb.w	sl, [r4, #255]	@ 0xff
20003044:	e9d4 3242 	ldrd	r3, r2, [r4, #264]	@ 0x108
20003048:	4798      	blx	r3
2000304a:	f8d4 3128 	ldr.w	r3, [r4, #296]	@ 0x128
2000304e:	45c3      	cmp	fp, r8
20003050:	7027      	strb	r7, [r4, #0]
20003052:	f103 0301 	add.w	r3, r3, #1
20003056:	f884 7104 	strb.w	r7, [r4, #260]	@ 0x104
2000305a:	f8c4 9100 	str.w	r9, [r4, #256]	@ 0x100
2000305e:	f8c4 3128 	str.w	r3, [r4, #296]	@ 0x128
20003062:	f43f ad4e 	beq.w	20002b02 <d_print_comp_inner+0x116>
20003066:	f816 7f02 	ldrb.w	r7, [r6, #2]!
2000306a:	2301      	movs	r3, #1
2000306c:	e7d8      	b.n	20003020 <d_print_comp_inner+0x634>
2000306e:	4eb2      	ldr	r6, [pc, #712]	@ (20003338 <d_print_comp_inner+0x94c>)
20003070:	f04f 0a00 	mov.w	sl, #0
20003074:	f8d0 1100 	ldr.w	r1, [r0, #256]	@ 0x100
20003078:	f04f 0901 	mov.w	r9, #1
2000307c:	f106 0b11 	add.w	fp, r6, #17
20003080:	e009      	b.n	20003096 <d_print_comp_inner+0x6aa>
20003082:	4646      	mov	r6, r8
20003084:	1c59      	adds	r1, r3, #1
20003086:	45b3      	cmp	fp, r6
20003088:	f8c4 1100 	str.w	r1, [r4, #256]	@ 0x100
2000308c:	54e7      	strb	r7, [r4, r3]
2000308e:	f884 7104 	strb.w	r7, [r4, #260]	@ 0x104
20003092:	f43f ad36 	beq.w	20002b02 <d_print_comp_inner+0x116>
20003096:	29ff      	cmp	r1, #255	@ 0xff
20003098:	7877      	ldrb	r7, [r6, #1]
2000309a:	f106 0801 	add.w	r8, r6, #1
2000309e:	460b      	mov	r3, r1
200030a0:	d1ef      	bne.n	20003082 <d_print_comp_inner+0x696>
200030a2:	4620      	mov	r0, r4
200030a4:	f884 a0ff 	strb.w	sl, [r4, #255]	@ 0xff
200030a8:	e9d4 3242 	ldrd	r3, r2, [r4, #264]	@ 0x108
200030ac:	4798      	blx	r3
200030ae:	f8d4 3128 	ldr.w	r3, [r4, #296]	@ 0x128
200030b2:	45c3      	cmp	fp, r8
200030b4:	7027      	strb	r7, [r4, #0]
200030b6:	f103 0301 	add.w	r3, r3, #1
200030ba:	f884 7104 	strb.w	r7, [r4, #260]	@ 0x104
200030be:	f8c4 9100 	str.w	r9, [r4, #256]	@ 0x100
200030c2:	f8c4 3128 	str.w	r3, [r4, #296]	@ 0x128
200030c6:	f43f ad1c 	beq.w	20002b02 <d_print_comp_inner+0x116>
200030ca:	f816 7f02 	ldrb.w	r7, [r6, #2]!
200030ce:	2301      	movs	r3, #1
200030d0:	e7d8      	b.n	20003084 <d_print_comp_inner+0x698>
200030d2:	4e9a      	ldr	r6, [pc, #616]	@ (2000333c <d_print_comp_inner+0x950>)
200030d4:	f04f 0a00 	mov.w	sl, #0
200030d8:	f8d0 1100 	ldr.w	r1, [r0, #256]	@ 0x100
200030dc:	f04f 0901 	mov.w	r9, #1
200030e0:	f106 0b15 	add.w	fp, r6, #21
200030e4:	e009      	b.n	200030fa <d_print_comp_inner+0x70e>
200030e6:	4646      	mov	r6, r8
200030e8:	1c59      	adds	r1, r3, #1
200030ea:	45b3      	cmp	fp, r6
200030ec:	f8c4 1100 	str.w	r1, [r4, #256]	@ 0x100
200030f0:	54e7      	strb	r7, [r4, r3]
200030f2:	f884 7104 	strb.w	r7, [r4, #260]	@ 0x104
200030f6:	f43f ad04 	beq.w	20002b02 <d_print_comp_inner+0x116>
200030fa:	29ff      	cmp	r1, #255	@ 0xff
200030fc:	7877      	ldrb	r7, [r6, #1]
200030fe:	f106 0801 	add.w	r8, r6, #1
20003102:	460b      	mov	r3, r1
20003104:	d1ef      	bne.n	200030e6 <d_print_comp_inner+0x6fa>
20003106:	4620      	mov	r0, r4
20003108:	f884 a0ff 	strb.w	sl, [r4, #255]	@ 0xff
2000310c:	e9d4 3242 	ldrd	r3, r2, [r4, #264]	@ 0x108
20003110:	4798      	blx	r3
20003112:	f8d4 3128 	ldr.w	r3, [r4, #296]	@ 0x128
20003116:	45c3      	cmp	fp, r8
20003118:	7027      	strb	r7, [r4, #0]
2000311a:	f103 0301 	add.w	r3, r3, #1
2000311e:	f884 7104 	strb.w	r7, [r4, #260]	@ 0x104
20003122:	f8c4 9100 	str.w	r9, [r4, #256]	@ 0x100
20003126:	f8c4 3128 	str.w	r3, [r4, #296]	@ 0x128
2000312a:	f43f acea 	beq.w	20002b02 <d_print_comp_inner+0x116>
2000312e:	f816 7f02 	ldrb.w	r7, [r6, #2]!
20003132:	2301      	movs	r3, #1
20003134:	e7d8      	b.n	200030e8 <d_print_comp_inner+0x6fc>
20003136:	f8d0 1100 	ldr.w	r1, [r0, #256]	@ 0x100
2000313a:	29ff      	cmp	r1, #255	@ 0xff
2000313c:	f001 8642 	beq.w	20004dc4 <d_print_comp_inner+0x23d8>
20003140:	1c4a      	adds	r2, r1, #1
20003142:	235b      	movs	r3, #91	@ 0x5b
20003144:	f04f 0a00 	mov.w	sl, #0
20003148:	46ab      	mov	fp, r5
2000314a:	f8c4 2100 	str.w	r2, [r4, #256]	@ 0x100
2000314e:	5463      	strb	r3, [r4, r1]
20003150:	f884 3104 	strb.w	r3, [r4, #260]	@ 0x104
20003154:	f8db 200c 	ldr.w	r2, [fp, #12]
20003158:	2111      	movs	r1, #17
2000315a:	4620      	mov	r0, r4
2000315c:	f002 f9c4 	bl	200054e8 <d_print_comp>
20003160:	f8db b010 	ldr.w	fp, [fp, #16]
20003164:	f1bb 0f00 	cmp.w	fp, #0
20003168:	f001 80dd 	beq.w	20004326 <d_print_comp_inner+0x193a>
2000316c:	f8df 81e0 	ldr.w	r8, [pc, #480]	@ 20003350 <d_print_comp_inner+0x964>
20003170:	2501      	movs	r5, #1
20003172:	f8d4 1100 	ldr.w	r1, [r4, #256]	@ 0x100
20003176:	f108 0902 	add.w	r9, r8, #2
2000317a:	e008      	b.n	2000318e <d_print_comp_inner+0x7a2>
2000317c:	46b0      	mov	r8, r6
2000317e:	1c59      	adds	r1, r3, #1
20003180:	45c1      	cmp	r9, r8
20003182:	f8c4 1100 	str.w	r1, [r4, #256]	@ 0x100
20003186:	54e7      	strb	r7, [r4, r3]
20003188:	f884 7104 	strb.w	r7, [r4, #260]	@ 0x104
2000318c:	d0e2      	beq.n	20003154 <d_print_comp_inner+0x768>
2000318e:	4646      	mov	r6, r8
20003190:	29ff      	cmp	r1, #255	@ 0xff
20003192:	460b      	mov	r3, r1
20003194:	f816 7b01 	ldrb.w	r7, [r6], #1
20003198:	d1f0      	bne.n	2000317c <d_print_comp_inner+0x790>
2000319a:	4620      	mov	r0, r4
2000319c:	f884 a0ff 	strb.w	sl, [r4, #255]	@ 0xff
200031a0:	f108 0802 	add.w	r8, r8, #2
200031a4:	e9d4 3242 	ldrd	r3, r2, [r4, #264]	@ 0x108
200031a8:	4798      	blx	r3
200031aa:	f8d4 3128 	ldr.w	r3, [r4, #296]	@ 0x128
200031ae:	45b1      	cmp	r9, r6
200031b0:	7027      	strb	r7, [r4, #0]
200031b2:	f103 0301 	add.w	r3, r3, #1
200031b6:	f884 7104 	strb.w	r7, [r4, #260]	@ 0x104
200031ba:	f8c4 5100 	str.w	r5, [r4, #256]	@ 0x100
200031be:	f8c4 3128 	str.w	r3, [r4, #296]	@ 0x128
200031c2:	d0c7      	beq.n	20003154 <d_print_comp_inner+0x768>
200031c4:	7837      	ldrb	r7, [r6, #0]
200031c6:	2301      	movs	r3, #1
200031c8:	e7d9      	b.n	2000317e <d_print_comp_inner+0x792>
200031ca:	4e5d      	ldr	r6, [pc, #372]	@ (20003340 <d_print_comp_inner+0x954>)
200031cc:	f04f 0a00 	mov.w	sl, #0
200031d0:	f8d0 1100 	ldr.w	r1, [r0, #256]	@ 0x100
200031d4:	f04f 0901 	mov.w	r9, #1
200031d8:	f106 0b17 	add.w	fp, r6, #23
200031dc:	e009      	b.n	200031f2 <d_print_comp_inner+0x806>
200031de:	4646      	mov	r6, r8
200031e0:	1c59      	adds	r1, r3, #1
200031e2:	45b3      	cmp	fp, r6
200031e4:	f8c4 1100 	str.w	r1, [r4, #256]	@ 0x100
200031e8:	54e7      	strb	r7, [r4, r3]
200031ea:	f884 7104 	strb.w	r7, [r4, #260]	@ 0x104
200031ee:	f43f ac88 	beq.w	20002b02 <d_print_comp_inner+0x116>
200031f2:	29ff      	cmp	r1, #255	@ 0xff
200031f4:	7877      	ldrb	r7, [r6, #1]
200031f6:	f106 0801 	add.w	r8, r6, #1
200031fa:	460b      	mov	r3, r1
200031fc:	d1ef      	bne.n	200031de <d_print_comp_inner+0x7f2>
200031fe:	4620      	mov	r0, r4
20003200:	f884 a0ff 	strb.w	sl, [r4, #255]	@ 0xff
20003204:	e9d4 3242 	ldrd	r3, r2, [r4, #264]	@ 0x108
20003208:	4798      	blx	r3
2000320a:	f8d4 3128 	ldr.w	r3, [r4, #296]	@ 0x128
2000320e:	45c3      	cmp	fp, r8
20003210:	7027      	strb	r7, [r4, #0]
20003212:	f103 0301 	add.w	r3, r3, #1
20003216:	f884 7104 	strb.w	r7, [r4, #260]	@ 0x104
2000321a:	f8c4 9100 	str.w	r9, [r4, #256]	@ 0x100
2000321e:	f8c4 3128 	str.w	r3, [r4, #296]	@ 0x128
20003222:	f43f ac6e 	beq.w	20002b02 <d_print_comp_inner+0x116>
20003226:	f816 7f02 	ldrb.w	r7, [r6, #2]!
2000322a:	2301      	movs	r3, #1
2000322c:	e7d8      	b.n	200031e0 <d_print_comp_inner+0x7f4>
2000322e:	2111      	movs	r1, #17
20003230:	68d2      	ldr	r2, [r2, #12]
20003232:	f002 f959 	bl	200054e8 <d_print_comp>
20003236:	f8d4 1100 	ldr.w	r1, [r4, #256]	@ 0x100
2000323a:	29ff      	cmp	r1, #255	@ 0xff
2000323c:	f001 85b0 	beq.w	20004da0 <d_print_comp_inner+0x23b4>
20003240:	1c4a      	adds	r2, r1, #1
20003242:	2340      	movs	r3, #64	@ 0x40
20003244:	f8c4 2100 	str.w	r2, [r4, #256]	@ 0x100
20003248:	4620      	mov	r0, r4
2000324a:	5463      	strb	r3, [r4, r1]
2000324c:	2111      	movs	r1, #17
2000324e:	f884 3104 	strb.w	r3, [r4, #260]	@ 0x104
20003252:	692a      	ldr	r2, [r5, #16]
20003254:	e458      	b.n	20002b08 <d_print_comp_inner+0x11c>
20003256:	68d2      	ldr	r2, [r2, #12]
20003258:	2111      	movs	r1, #17
2000325a:	f002 f945 	bl	200054e8 <d_print_comp>
2000325e:	4939      	ldr	r1, [pc, #228]	@ (20003344 <d_print_comp_inner+0x958>)
20003260:	4620      	mov	r0, r4
20003262:	b019      	add	sp, #100	@ 0x64
20003264:	e8bd 4ff0 	ldmia.w	sp!, {r4, r5, r6, r7, r8, r9, sl, fp, lr}
20003268:	f7fd b96c 	b.w	20000544 <d_append_string>
2000326c:	4e36      	ldr	r6, [pc, #216]	@ (20003348 <d_print_comp_inner+0x95c>)
2000326e:	f04f 0a00 	mov.w	sl, #0
20003272:	f8d0 1100 	ldr.w	r1, [r0, #256]	@ 0x100
20003276:	f04f 0901 	mov.w	r9, #1
2000327a:	f106 0b08 	add.w	fp, r6, #8
2000327e:	e009      	b.n	20003294 <d_print_comp_inner+0x8a8>
20003280:	4646      	mov	r6, r8
20003282:	1c59      	adds	r1, r3, #1
20003284:	45b3      	cmp	fp, r6
20003286:	f8c4 1100 	str.w	r1, [r4, #256]	@ 0x100
2000328a:	54e7      	strb	r7, [r4, r3]
2000328c:	f884 7104 	strb.w	r7, [r4, #260]	@ 0x104
20003290:	f001 80c8 	beq.w	20004424 <d_print_comp_inner+0x1a38>
20003294:	29ff      	cmp	r1, #255	@ 0xff
20003296:	7877      	ldrb	r7, [r6, #1]
20003298:	f106 0801 	add.w	r8, r6, #1
2000329c:	460b      	mov	r3, r1
2000329e:	d1ef      	bne.n	20003280 <d_print_comp_inner+0x894>
200032a0:	4620      	mov	r0, r4
200032a2:	f884 a0ff 	strb.w	sl, [r4, #255]	@ 0xff
200032a6:	e9d4 3242 	ldrd	r3, r2, [r4, #264]	@ 0x108
200032aa:	4798      	blx	r3
200032ac:	f8d4 3128 	ldr.w	r3, [r4, #296]	@ 0x128
200032b0:	45d8      	cmp	r8, fp
200032b2:	7027      	strb	r7, [r4, #0]
200032b4:	f103 0301 	add.w	r3, r3, #1
200032b8:	f884 7104 	strb.w	r7, [r4, #260]	@ 0x104
200032bc:	f8c4 9100 	str.w	r9, [r4, #256]	@ 0x100
200032c0:	f8c4 3128 	str.w	r3, [r4, #296]	@ 0x128
200032c4:	f001 80ae 	beq.w	20004424 <d_print_comp_inner+0x1a38>
200032c8:	f816 7f02 	ldrb.w	r7, [r6, #2]!
200032cc:	2301      	movs	r3, #1
200032ce:	e7d8      	b.n	20003282 <d_print_comp_inner+0x896>
200032d0:	4d1e      	ldr	r5, [pc, #120]	@ (2000334c <d_print_comp_inner+0x960>)
200032d2:	f04f 0900 	mov.w	r9, #0
200032d6:	f8d0 1100 	ldr.w	r1, [r0, #256]	@ 0x100
200032da:	f04f 0801 	mov.w	r8, #1
200032de:	f105 0a08 	add.w	sl, r5, #8
200032e2:	e009      	b.n	200032f8 <d_print_comp_inner+0x90c>
200032e4:	463d      	mov	r5, r7
200032e6:	1c59      	adds	r1, r3, #1
200032e8:	45aa      	cmp	sl, r5
200032ea:	f8c4 1100 	str.w	r1, [r4, #256]	@ 0x100
200032ee:	54e6      	strb	r6, [r4, r3]
200032f0:	f884 6104 	strb.w	r6, [r4, #260]	@ 0x104
200032f4:	f43f ac02 	beq.w	20002afc <d_print_comp_inner+0x110>
200032f8:	29ff      	cmp	r1, #255	@ 0xff
200032fa:	786e      	ldrb	r6, [r5, #1]
200032fc:	f105 0701 	add.w	r7, r5, #1
20003300:	460b      	mov	r3, r1
20003302:	d1ef      	bne.n	200032e4 <d_print_comp_inner+0x8f8>
20003304:	4620      	mov	r0, r4
20003306:	f884 90ff 	strb.w	r9, [r4, #255]	@ 0xff
2000330a:	e9d4 3242 	ldrd	r3, r2, [r4, #264]	@ 0x108
2000330e:	4798      	blx	r3
20003310:	f8d4 3128 	ldr.w	r3, [r4, #296]	@ 0x128
20003314:	4557      	cmp	r7, sl
20003316:	7026      	strb	r6, [r4, #0]
20003318:	f103 0301 	add.w	r3, r3, #1
2000331c:	f884 6104 	strb.w	r6, [r4, #260]	@ 0x104
20003320:	f8c4 8100 	str.w	r8, [r4, #256]	@ 0x100
20003324:	f8c4 3128 	str.w	r3, [r4, #296]	@ 0x128
20003328:	f43f abe8 	beq.w	20002afc <d_print_comp_inner+0x110>
2000332c:	f815 6f02 	ldrb.w	r6, [r5, #2]!
20003330:	2301      	movs	r3, #1
20003332:	e7d8      	b.n	200032e6 <d_print_comp_inner+0x8fa>
20003334:	2000cc73 	.word	0x2000cc73
20003338:	2000cc5f 	.word	0x2000cc5f
2000333c:	2000cc5b 	.word	0x2000cc5b
20003340:	2000cbcf 	.word	0x2000cbcf
20003344:	2000cda4 	.word	0x2000cda4
20003348:	2000ce2b 	.word	0x2000ce2b
2000334c:	2000ce1f 	.word	0x2000ce1f
20003350:	2000cb8c 	.word	0x2000cb8c
20003354:	f8d0 1100 	ldr.w	r1, [r0, #256]	@ 0x100
20003358:	29ff      	cmp	r1, #255	@ 0xff
2000335a:	f001 84c3 	beq.w	20004ce4 <d_print_comp_inner+0x22f8>
2000335e:	1c4a      	adds	r2, r1, #1
20003360:	233c      	movs	r3, #60	@ 0x3c
20003362:	f8c4 2100 	str.w	r2, [r4, #256]	@ 0x100
20003366:	5463      	strb	r3, [r4, r1]
20003368:	f884 3104 	strb.w	r3, [r4, #260]	@ 0x104
2000336c:	68ee      	ldr	r6, [r5, #12]
2000336e:	b18e      	cbz	r6, 20003394 <d_print_comp_inner+0x9a8>
20003370:	2500      	movs	r5, #0
20003372:	46b3      	mov	fp, r6
20003374:	46a9      	mov	r9, r5
20003376:	462f      	mov	r7, r5
20003378:	2f00      	cmp	r7, #0
2000337a:	f040 8789 	bne.w	20004290 <d_print_comp_inner+0x18a4>
2000337e:	465a      	mov	r2, fp
20003380:	2111      	movs	r1, #17
20003382:	4620      	mov	r0, r4
20003384:	3701      	adds	r7, #1
20003386:	f002 f8af 	bl	200054e8 <d_print_comp>
2000338a:	f8db b010 	ldr.w	fp, [fp, #16]
2000338e:	f1bb 0f00 	cmp.w	fp, #0
20003392:	d1f1      	bne.n	20003378 <d_print_comp_inner+0x98c>
20003394:	f8d4 1100 	ldr.w	r1, [r4, #256]	@ 0x100
20003398:	29ff      	cmp	r1, #255	@ 0xff
2000339a:	f001 8579 	beq.w	20004e90 <d_print_comp_inner+0x24a4>
2000339e:	1c4a      	adds	r2, r1, #1
200033a0:	233e      	movs	r3, #62	@ 0x3e
200033a2:	f8c4 2100 	str.w	r2, [r4, #256]	@ 0x100
200033a6:	5463      	strb	r3, [r4, r1]
200033a8:	f884 3104 	strb.w	r3, [r4, #260]	@ 0x104
200033ac:	f7ff bba6 	b.w	20002afc <d_print_comp_inner+0x110>
200033b0:	68d2      	ldr	r2, [r2, #12]
200033b2:	e9d2 6300 	ldrd	r6, r3, [r2]
200033b6:	2b00      	cmp	r3, #0
200033b8:	f001 803c 	beq.w	20004434 <d_print_comp_inner+0x1a48>
200033bc:	4433      	add	r3, r6
200033be:	f8d0 1100 	ldr.w	r1, [r0, #256]	@ 0x100
200033c2:	3e01      	subs	r6, #1
200033c4:	f04f 0a00 	mov.w	sl, #0
200033c8:	f103 38ff 	add.w	r8, r3, #4294967295
200033cc:	f04f 0901 	mov.w	r9, #1
200033d0:	e009      	b.n	200033e6 <d_print_comp_inner+0x9fa>
200033d2:	465e      	mov	r6, fp
200033d4:	1c59      	adds	r1, r3, #1
200033d6:	45b0      	cmp	r8, r6
200033d8:	f8c4 1100 	str.w	r1, [r4, #256]	@ 0x100
200033dc:	54e7      	strb	r7, [r4, r3]
200033de:	f884 7104 	strb.w	r7, [r4, #260]	@ 0x104
200033e2:	f001 8027 	beq.w	20004434 <d_print_comp_inner+0x1a48>
200033e6:	29ff      	cmp	r1, #255	@ 0xff
200033e8:	7877      	ldrb	r7, [r6, #1]
200033ea:	f106 0b01 	add.w	fp, r6, #1
200033ee:	460b      	mov	r3, r1
200033f0:	d1ef      	bne.n	200033d2 <d_print_comp_inner+0x9e6>
200033f2:	4620      	mov	r0, r4
200033f4:	f884 a0ff 	strb.w	sl, [r4, #255]	@ 0xff
200033f8:	e9d4 3242 	ldrd	r3, r2, [r4, #264]	@ 0x108
200033fc:	4798      	blx	r3
200033fe:	f8d4 3128 	ldr.w	r3, [r4, #296]	@ 0x128
20003402:	45d8      	cmp	r8, fp
20003404:	f8c4 9100 	str.w	r9, [r4, #256]	@ 0x100
20003408:	f103 0301 	add.w	r3, r3, #1
2000340c:	7027      	strb	r7, [r4, #0]
2000340e:	f884 7104 	strb.w	r7, [r4, #260]	@ 0x104
20003412:	f8c4 3128 	str.w	r3, [r4, #296]	@ 0x128
20003416:	f001 800d 	beq.w	20004434 <d_print_comp_inner+0x1a48>
2000341a:	f816 7f02 	ldrb.w	r7, [r6, #2]!
2000341e:	2301      	movs	r3, #1
20003420:	e7d8      	b.n	200033d4 <d_print_comp_inner+0x9e8>
20003422:	4ebc      	ldr	r6, [pc, #752]	@ (20003714 <d_print_comp_inner+0xd28>)
20003424:	f04f 0a00 	mov.w	sl, #0
20003428:	f8d0 1100 	ldr.w	r1, [r0, #256]	@ 0x100
2000342c:	f04f 0901 	mov.w	r9, #1
20003430:	f106 0b09 	add.w	fp, r6, #9
20003434:	e009      	b.n	2000344a <d_print_comp_inner+0xa5e>
20003436:	4646      	mov	r6, r8
20003438:	1c59      	adds	r1, r3, #1
2000343a:	45b3      	cmp	fp, r6
2000343c:	f8c4 1100 	str.w	r1, [r4, #256]	@ 0x100
20003440:	54e7      	strb	r7, [r4, r3]
20003442:	f884 7104 	strb.w	r7, [r4, #260]	@ 0x104
20003446:	f43f abeb 	beq.w	20002c20 <d_print_comp_inner+0x234>
2000344a:	29ff      	cmp	r1, #255	@ 0xff
2000344c:	7877      	ldrb	r7, [r6, #1]
2000344e:	f106 0801 	add.w	r8, r6, #1
20003452:	460b      	mov	r3, r1
20003454:	d1ef      	bne.n	20003436 <d_print_comp_inner+0xa4a>
20003456:	4620      	mov	r0, r4
20003458:	f884 a0ff 	strb.w	sl, [r4, #255]	@ 0xff
2000345c:	e9d4 3242 	ldrd	r3, r2, [r4, #264]	@ 0x108
20003460:	4798      	blx	r3
20003462:	f8d4 3128 	ldr.w	r3, [r4, #296]	@ 0x128
20003466:	45d8      	cmp	r8, fp
20003468:	7027      	strb	r7, [r4, #0]
2000346a:	f103 0301 	add.w	r3, r3, #1
2000346e:	f884 7104 	strb.w	r7, [r4, #260]	@ 0x104
20003472:	f8c4 9100 	str.w	r9, [r4, #256]	@ 0x100
20003476:	f8c4 3128 	str.w	r3, [r4, #296]	@ 0x128
2000347a:	f43f abd1 	beq.w	20002c20 <d_print_comp_inner+0x234>
2000347e:	f816 7f02 	ldrb.w	r7, [r6, #2]!
20003482:	2301      	movs	r3, #1
20003484:	e7d8      	b.n	20003438 <d_print_comp_inner+0xa4c>
20003486:	6913      	ldr	r3, [r2, #16]
20003488:	781a      	ldrb	r2, [r3, #0]
2000348a:	2a3b      	cmp	r2, #59	@ 0x3b
2000348c:	f47f ab33 	bne.w	20002af6 <d_print_comp_inner+0x10a>
20003490:	691b      	ldr	r3, [r3, #16]
20003492:	781b      	ldrb	r3, [r3, #0]
20003494:	2b3c      	cmp	r3, #60	@ 0x3c
20003496:	f47f ab2e 	bne.w	20002af6 <d_print_comp_inner+0x10a>
2000349a:	462a      	mov	r2, r5
2000349c:	2111      	movs	r1, #17
2000349e:	f003 f9b1 	bl	20006804 <d_maybe_print_fold_expression>
200034a2:	2800      	cmp	r0, #0
200034a4:	f47f ab2a 	bne.w	20002afc <d_print_comp_inner+0x110>
200034a8:	462a      	mov	r2, r5
200034aa:	2111      	movs	r1, #17
200034ac:	4620      	mov	r0, r4
200034ae:	f003 faef 	bl	20006a90 <d_maybe_print_designated_init>
200034b2:	2800      	cmp	r0, #0
200034b4:	f47f ab22 	bne.w	20002afc <d_print_comp_inner+0x110>
200034b8:	4997      	ldr	r1, [pc, #604]	@ (20003718 <d_print_comp_inner+0xd2c>)
200034ba:	e9d5 8303 	ldrd	r8, r3, [r5, #12]
200034be:	f8d8 200c 	ldr.w	r2, [r8, #12]
200034c2:	e9d3 6303 	ldrd	r6, r3, [r3, #12]
200034c6:	6810      	ldr	r0, [r2, #0]
200034c8:	e9d3 7503 	ldrd	r7, r5, [r3, #12]
200034cc:	f008 fbec 	bl	2000bca8 <__strcmp_veneer>
200034d0:	2800      	cmp	r0, #0
200034d2:	f041 87d0 	bne.w	20005476 <d_print_comp_inner+0x2a8a>
200034d6:	4632      	mov	r2, r6
200034d8:	4620      	mov	r0, r4
200034da:	2111      	movs	r1, #17
200034dc:	f003 f908 	bl	200066f0 <d_print_subexpr>
200034e0:	4642      	mov	r2, r8
200034e2:	4620      	mov	r0, r4
200034e4:	2111      	movs	r1, #17
200034e6:	f002 ff11 	bl	2000630c <d_print_expr_op>
200034ea:	4620      	mov	r0, r4
200034ec:	463a      	mov	r2, r7
200034ee:	2111      	movs	r1, #17
200034f0:	f003 f8fe 	bl	200066f0 <d_print_subexpr>
200034f4:	4989      	ldr	r1, [pc, #548]	@ (2000371c <d_print_comp_inner+0xd30>)
200034f6:	4620      	mov	r0, r4
200034f8:	f7fd f824 	bl	20000544 <d_append_string>
200034fc:	e445      	b.n	20002d8a <d_print_comp_inner+0x39e>
200034fe:	6913      	ldr	r3, [r2, #16]
20003500:	781b      	ldrb	r3, [r3, #0]
20003502:	2b39      	cmp	r3, #57	@ 0x39
20003504:	f47f aaf7 	bne.w	20002af6 <d_print_comp_inner+0x10a>
20003508:	68d2      	ldr	r2, [r2, #12]
2000350a:	68d3      	ldr	r3, [r2, #12]
2000350c:	681b      	ldr	r3, [r3, #0]
2000350e:	7859      	ldrb	r1, [r3, #1]
20003510:	2963      	cmp	r1, #99	@ 0x63
20003512:	f001 856b 	beq.w	20004fec <d_print_comp_inner+0x2600>
20003516:	462a      	mov	r2, r5
20003518:	2111      	movs	r1, #17
2000351a:	4620      	mov	r0, r4
2000351c:	f003 f972 	bl	20006804 <d_maybe_print_fold_expression>
20003520:	2800      	cmp	r0, #0
20003522:	f47f aaeb 	bne.w	20002afc <d_print_comp_inner+0x110>
20003526:	462a      	mov	r2, r5
20003528:	2111      	movs	r1, #17
2000352a:	4620      	mov	r0, r4
2000352c:	f003 fab0 	bl	20006a90 <d_maybe_print_designated_init>
20003530:	2800      	cmp	r0, #0
20003532:	f47f aae3 	bne.w	20002afc <d_print_comp_inner+0x110>
20003536:	68eb      	ldr	r3, [r5, #12]
20003538:	781a      	ldrb	r2, [r3, #0]
2000353a:	2a32      	cmp	r2, #50	@ 0x32
2000353c:	f001 8727 	beq.w	2000538e <d_print_comp_inner+0x29a2>
20003540:	68db      	ldr	r3, [r3, #12]
20003542:	4977      	ldr	r1, [pc, #476]	@ (20003720 <d_print_comp_inner+0xd34>)
20003544:	6818      	ldr	r0, [r3, #0]
20003546:	f008 fbaf 	bl	2000bca8 <__strcmp_veneer>
2000354a:	692b      	ldr	r3, [r5, #16]
2000354c:	68da      	ldr	r2, [r3, #12]
2000354e:	b918      	cbnz	r0, 20003558 <d_print_comp_inner+0xb6c>
20003550:	7813      	ldrb	r3, [r2, #0]
20003552:	2b03      	cmp	r3, #3
20003554:	f001 8750 	beq.w	200053f8 <d_print_comp_inner+0x2a0c>
20003558:	2111      	movs	r1, #17
2000355a:	4620      	mov	r0, r4
2000355c:	f003 f8c8 	bl	200066f0 <d_print_subexpr>
20003560:	68ee      	ldr	r6, [r5, #12]
20003562:	4970      	ldr	r1, [pc, #448]	@ (20003724 <d_print_comp_inner+0xd38>)
20003564:	68f3      	ldr	r3, [r6, #12]
20003566:	681f      	ldr	r7, [r3, #0]
20003568:	4638      	mov	r0, r7
2000356a:	f008 fb9d 	bl	2000bca8 <__strcmp_veneer>
2000356e:	2800      	cmp	r0, #0
20003570:	f001 871e 	beq.w	200053b0 <d_print_comp_inner+0x29c4>
20003574:	496a      	ldr	r1, [pc, #424]	@ (20003720 <d_print_comp_inner+0xd34>)
20003576:	4638      	mov	r0, r7
20003578:	f008 fb96 	bl	2000bca8 <__strcmp_veneer>
2000357c:	2800      	cmp	r0, #0
2000357e:	f041 8734 	bne.w	200053ea <d_print_comp_inner+0x29fe>
20003582:	692b      	ldr	r3, [r5, #16]
20003584:	2111      	movs	r1, #17
20003586:	4620      	mov	r0, r4
20003588:	691a      	ldr	r2, [r3, #16]
2000358a:	f003 f8b1 	bl	200066f0 <d_print_subexpr>
2000358e:	68eb      	ldr	r3, [r5, #12]
20003590:	781a      	ldrb	r2, [r3, #0]
20003592:	2a32      	cmp	r2, #50	@ 0x32
20003594:	f47f aab2 	bne.w	20002afc <d_print_comp_inner+0x110>
20003598:	68db      	ldr	r3, [r3, #12]
2000359a:	689a      	ldr	r2, [r3, #8]
2000359c:	2a01      	cmp	r2, #1
2000359e:	f47f aaad 	bne.w	20002afc <d_print_comp_inner+0x110>
200035a2:	685b      	ldr	r3, [r3, #4]
200035a4:	781b      	ldrb	r3, [r3, #0]
200035a6:	2b3e      	cmp	r3, #62	@ 0x3e
200035a8:	f47f aaa8 	bne.w	20002afc <d_print_comp_inner+0x110>
200035ac:	2129      	movs	r1, #41	@ 0x29
200035ae:	4620      	mov	r0, r4
200035b0:	b019      	add	sp, #100	@ 0x64
200035b2:	e8bd 4ff0 	ldmia.w	sp!, {r4, r5, r6, r7, r8, r9, sl, fp, lr}
200035b6:	f7fc bf89 	b.w	200004cc <d_append_char>
200035ba:	f8d0 1100 	ldr.w	r1, [r0, #256]	@ 0x100
200035be:	29ff      	cmp	r1, #255	@ 0xff
200035c0:	f001 8476 	beq.w	20004eb0 <d_print_comp_inner+0x24c4>
200035c4:	1c4a      	adds	r2, r1, #1
200035c6:	237e      	movs	r3, #126	@ 0x7e
200035c8:	e63c      	b.n	20003244 <d_print_comp_inner+0x858>
200035ca:	f8df 8164 	ldr.w	r8, [pc, #356]	@ 20003730 <d_print_comp_inner+0xd44>
200035ce:	f04f 0a00 	mov.w	sl, #0
200035d2:	f8d0 1100 	ldr.w	r1, [r0, #256]	@ 0x100
200035d6:	f04f 0901 	mov.w	r9, #1
200035da:	f108 0b0a 	add.w	fp, r8, #10
200035de:	e009      	b.n	200035f4 <d_print_comp_inner+0xc08>
200035e0:	46b0      	mov	r8, r6
200035e2:	1c59      	adds	r1, r3, #1
200035e4:	45c3      	cmp	fp, r8
200035e6:	f8c4 1100 	str.w	r1, [r4, #256]	@ 0x100
200035ea:	54e7      	strb	r7, [r4, r3]
200035ec:	f884 7104 	strb.w	r7, [r4, #260]	@ 0x104
200035f0:	f000 87f4 	beq.w	200045dc <d_print_comp_inner+0x1bf0>
200035f4:	4646      	mov	r6, r8
200035f6:	29ff      	cmp	r1, #255	@ 0xff
200035f8:	460b      	mov	r3, r1
200035fa:	f816 7b01 	ldrb.w	r7, [r6], #1
200035fe:	d1ef      	bne.n	200035e0 <d_print_comp_inner+0xbf4>
20003600:	4620      	mov	r0, r4
20003602:	f884 a0ff 	strb.w	sl, [r4, #255]	@ 0xff
20003606:	f108 0802 	add.w	r8, r8, #2
2000360a:	e9d4 3242 	ldrd	r3, r2, [r4, #264]	@ 0x108
2000360e:	4798      	blx	r3
20003610:	f8d4 3128 	ldr.w	r3, [r4, #296]	@ 0x128
20003614:	455e      	cmp	r6, fp
20003616:	7027      	strb	r7, [r4, #0]
20003618:	f103 0301 	add.w	r3, r3, #1
2000361c:	f884 7104 	strb.w	r7, [r4, #260]	@ 0x104
20003620:	f8c4 9100 	str.w	r9, [r4, #256]	@ 0x100
20003624:	f8c4 3128 	str.w	r3, [r4, #296]	@ 0x128
20003628:	f000 87d8 	beq.w	200045dc <d_print_comp_inner+0x1bf0>
2000362c:	7837      	ldrb	r7, [r6, #0]
2000362e:	2301      	movs	r3, #1
20003630:	e7d7      	b.n	200035e2 <d_print_comp_inner+0xbf6>
20003632:	4e3d      	ldr	r6, [pc, #244]	@ (20003728 <d_print_comp_inner+0xd3c>)
20003634:	f04f 0a00 	mov.w	sl, #0
20003638:	f8d0 1100 	ldr.w	r1, [r0, #256]	@ 0x100
2000363c:	f04f 0901 	mov.w	r9, #1
20003640:	f106 0b12 	add.w	fp, r6, #18
20003644:	e009      	b.n	2000365a <d_print_comp_inner+0xc6e>
20003646:	4646      	mov	r6, r8
20003648:	1c59      	adds	r1, r3, #1
2000364a:	45b3      	cmp	fp, r6
2000364c:	f8c4 1100 	str.w	r1, [r4, #256]	@ 0x100
20003650:	54e7      	strb	r7, [r4, r3]
20003652:	f884 7104 	strb.w	r7, [r4, #260]	@ 0x104
20003656:	f43f aa54 	beq.w	20002b02 <d_print_comp_inner+0x116>
2000365a:	29ff      	cmp	r1, #255	@ 0xff
2000365c:	7877      	ldrb	r7, [r6, #1]
2000365e:	f106 0801 	add.w	r8, r6, #1
20003662:	460b      	mov	r3, r1
20003664:	d1ef      	bne.n	20003646 <d_print_comp_inner+0xc5a>
20003666:	4620      	mov	r0, r4
20003668:	f884 a0ff 	strb.w	sl, [r4, #255]	@ 0xff
2000366c:	e9d4 3242 	ldrd	r3, r2, [r4, #264]	@ 0x108
20003670:	4798      	blx	r3
20003672:	f8d4 3128 	ldr.w	r3, [r4, #296]	@ 0x128
20003676:	45d8      	cmp	r8, fp
20003678:	7027      	strb	r7, [r4, #0]
2000367a:	f103 0301 	add.w	r3, r3, #1
2000367e:	f884 7104 	strb.w	r7, [r4, #260]	@ 0x104
20003682:	f8c4 9100 	str.w	r9, [r4, #256]	@ 0x100
20003686:	f8c4 3128 	str.w	r3, [r4, #296]	@ 0x128
2000368a:	f43f aa3a 	beq.w	20002b02 <d_print_comp_inner+0x116>
2000368e:	f816 7f02 	ldrb.w	r7, [r6, #2]!
20003692:	2301      	movs	r3, #1
20003694:	e7d8      	b.n	20003648 <d_print_comp_inner+0xc5c>
20003696:	f8df 809c 	ldr.w	r8, [pc, #156]	@ 20003734 <d_print_comp_inner+0xd48>
2000369a:	f04f 0a00 	mov.w	sl, #0
2000369e:	f8d0 1100 	ldr.w	r1, [r0, #256]	@ 0x100
200036a2:	f04f 0901 	mov.w	r9, #1
200036a6:	f108 0b0d 	add.w	fp, r8, #13
200036aa:	e009      	b.n	200036c0 <d_print_comp_inner+0xcd4>
200036ac:	46b0      	mov	r8, r6
200036ae:	1c59      	adds	r1, r3, #1
200036b0:	45c3      	cmp	fp, r8
200036b2:	f8c4 1100 	str.w	r1, [r4, #256]	@ 0x100
200036b6:	54e7      	strb	r7, [r4, r3]
200036b8:	f884 7104 	strb.w	r7, [r4, #260]	@ 0x104
200036bc:	f43f aa21 	beq.w	20002b02 <d_print_comp_inner+0x116>
200036c0:	4646      	mov	r6, r8
200036c2:	29ff      	cmp	r1, #255	@ 0xff
200036c4:	460b      	mov	r3, r1
200036c6:	f816 7b01 	ldrb.w	r7, [r6], #1
200036ca:	d1ef      	bne.n	200036ac <d_print_comp_inner+0xcc0>
200036cc:	4620      	mov	r0, r4
200036ce:	f884 a0ff 	strb.w	sl, [r4, #255]	@ 0xff
200036d2:	f108 0802 	add.w	r8, r8, #2
200036d6:	e9d4 3242 	ldrd	r3, r2, [r4, #264]	@ 0x108
200036da:	4798      	blx	r3
200036dc:	f8d4 3128 	ldr.w	r3, [r4, #296]	@ 0x128
200036e0:	455e      	cmp	r6, fp
200036e2:	7027      	strb	r7, [r4, #0]
200036e4:	f103 0301 	add.w	r3, r3, #1
200036e8:	f884 7104 	strb.w	r7, [r4, #260]	@ 0x104
200036ec:	f8c4 9100 	str.w	r9, [r4, #256]	@ 0x100
200036f0:	f8c4 3128 	str.w	r3, [r4, #296]	@ 0x128
200036f4:	f43f aa05 	beq.w	20002b02 <d_print_comp_inner+0x116>
200036f8:	7837      	ldrb	r7, [r6, #0]
200036fa:	2301      	movs	r3, #1
200036fc:	e7d7      	b.n	200036ae <d_print_comp_inner+0xcc2>
200036fe:	4e0b      	ldr	r6, [pc, #44]	@ (2000372c <d_print_comp_inner+0xd40>)
20003700:	f04f 0a00 	mov.w	sl, #0
20003704:	f8d0 1100 	ldr.w	r1, [r0, #256]	@ 0x100
20003708:	f04f 0901 	mov.w	r9, #1
2000370c:	f106 0b18 	add.w	fp, r6, #24
20003710:	e01c      	b.n	2000374c <d_print_comp_inner+0xd60>
20003712:	bf00      	nop
20003714:	2000cd43 	.word	0x2000cd43
20003718:	2000cd5c 	.word	0x2000cd5c
2000371c:	2000cd60 	.word	0x2000cd60
20003720:	2000cd54 	.word	0x2000cd54
20003724:	2000cd58 	.word	0x2000cd58
20003728:	2000cc33 	.word	0x2000cc33
2000372c:	2000cbff 	.word	0x2000cbff
20003730:	2000cd98 	.word	0x2000cd98
20003734:	2000cc24 	.word	0x2000cc24
20003738:	4646      	mov	r6, r8
2000373a:	1c59      	adds	r1, r3, #1
2000373c:	45b3      	cmp	fp, r6
2000373e:	f8c4 1100 	str.w	r1, [r4, #256]	@ 0x100
20003742:	54e7      	strb	r7, [r4, r3]
20003744:	f884 7104 	strb.w	r7, [r4, #260]	@ 0x104
20003748:	f000 8704 	beq.w	20004554 <d_print_comp_inner+0x1b68>
2000374c:	29ff      	cmp	r1, #255	@ 0xff
2000374e:	7877      	ldrb	r7, [r6, #1]
20003750:	f106 0801 	add.w	r8, r6, #1
20003754:	460b      	mov	r3, r1
20003756:	d1ef      	bne.n	20003738 <d_print_comp_inner+0xd4c>
20003758:	4620      	mov	r0, r4
2000375a:	f884 a0ff 	strb.w	sl, [r4, #255]	@ 0xff
2000375e:	e9d4 3242 	ldrd	r3, r2, [r4, #264]	@ 0x108
20003762:	4798      	blx	r3
20003764:	f8d4 3128 	ldr.w	r3, [r4, #296]	@ 0x128
20003768:	45c3      	cmp	fp, r8
2000376a:	7027      	strb	r7, [r4, #0]
2000376c:	f103 0301 	add.w	r3, r3, #1
20003770:	f884 7104 	strb.w	r7, [r4, #260]	@ 0x104
20003774:	f8c4 9100 	str.w	r9, [r4, #256]	@ 0x100
20003778:	f8c4 3128 	str.w	r3, [r4, #296]	@ 0x128
2000377c:	f000 86ea 	beq.w	20004554 <d_print_comp_inner+0x1b68>
20003780:	f816 7f02 	ldrb.w	r7, [r6, #2]!
20003784:	2301      	movs	r3, #1
20003786:	e7d8      	b.n	2000373a <d_print_comp_inner+0xd4e>
20003788:	4ed7      	ldr	r6, [pc, #860]	@ (20003ae8 <d_print_comp_inner+0x10fc>)
2000378a:	f04f 0a00 	mov.w	sl, #0
2000378e:	f8d0 1100 	ldr.w	r1, [r0, #256]	@ 0x100
20003792:	f04f 0901 	mov.w	r9, #1
20003796:	f106 0b15 	add.w	fp, r6, #21
2000379a:	e009      	b.n	200037b0 <d_print_comp_inner+0xdc4>
2000379c:	4646      	mov	r6, r8
2000379e:	1c59      	adds	r1, r3, #1
200037a0:	45b3      	cmp	fp, r6
200037a2:	f8c4 1100 	str.w	r1, [r4, #256]	@ 0x100
200037a6:	54e7      	strb	r7, [r4, r3]
200037a8:	f884 7104 	strb.w	r7, [r4, #260]	@ 0x104
200037ac:	f000 8699 	beq.w	200044e2 <d_print_comp_inner+0x1af6>
200037b0:	29ff      	cmp	r1, #255	@ 0xff
200037b2:	7877      	ldrb	r7, [r6, #1]
200037b4:	f106 0801 	add.w	r8, r6, #1
200037b8:	460b      	mov	r3, r1
200037ba:	d1ef      	bne.n	2000379c <d_print_comp_inner+0xdb0>
200037bc:	4620      	mov	r0, r4
200037be:	f884 a0ff 	strb.w	sl, [r4, #255]	@ 0xff
200037c2:	e9d4 3242 	ldrd	r3, r2, [r4, #264]	@ 0x108
200037c6:	4798      	blx	r3
200037c8:	f8d4 3128 	ldr.w	r3, [r4, #296]	@ 0x128
200037cc:	45c3      	cmp	fp, r8
200037ce:	7027      	strb	r7, [r4, #0]
200037d0:	f103 0301 	add.w	r3, r3, #1
200037d4:	f884 7104 	strb.w	r7, [r4, #260]	@ 0x104
200037d8:	f8c4 9100 	str.w	r9, [r4, #256]	@ 0x100
200037dc:	f8c4 3128 	str.w	r3, [r4, #296]	@ 0x128
200037e0:	f000 867f 	beq.w	200044e2 <d_print_comp_inner+0x1af6>
200037e4:	f816 7f02 	ldrb.w	r7, [r6, #2]!
200037e8:	2301      	movs	r3, #1
200037ea:	e7d8      	b.n	2000379e <d_print_comp_inner+0xdb2>
200037ec:	49bf      	ldr	r1, [pc, #764]	@ (20003aec <d_print_comp_inner+0x1100>)
200037ee:	f7fc fea9 	bl	20000544 <d_append_string>
200037f2:	2111      	movs	r1, #17
200037f4:	68ea      	ldr	r2, [r5, #12]
200037f6:	f7ff b986 	b.w	20002b06 <d_print_comp_inner+0x11a>
200037fa:	4ebd      	ldr	r6, [pc, #756]	@ (20003af0 <d_print_comp_inner+0x1104>)
200037fc:	f04f 0a00 	mov.w	sl, #0
20003800:	f8d0 1100 	ldr.w	r1, [r0, #256]	@ 0x100
20003804:	f04f 0901 	mov.w	r9, #1
20003808:	f106 0b16 	add.w	fp, r6, #22
2000380c:	e009      	b.n	20003822 <d_print_comp_inner+0xe36>
2000380e:	4646      	mov	r6, r8
20003810:	1c59      	adds	r1, r3, #1
20003812:	45b3      	cmp	fp, r6
20003814:	f8c4 1100 	str.w	r1, [r4, #256]	@ 0x100
20003818:	54e7      	strb	r7, [r4, r3]
2000381a:	f884 7104 	strb.w	r7, [r4, #260]	@ 0x104
2000381e:	f43f a970 	beq.w	20002b02 <d_print_comp_inner+0x116>
20003822:	29ff      	cmp	r1, #255	@ 0xff
20003824:	7877      	ldrb	r7, [r6, #1]
20003826:	f106 0801 	add.w	r8, r6, #1
2000382a:	460b      	mov	r3, r1
2000382c:	d1ef      	bne.n	2000380e <d_print_comp_inner+0xe22>
2000382e:	4620      	mov	r0, r4
20003830:	f884 a0ff 	strb.w	sl, [r4, #255]	@ 0xff
20003834:	e9d4 3242 	ldrd	r3, r2, [r4, #264]	@ 0x108
20003838:	4798      	blx	r3
2000383a:	f8d4 3128 	ldr.w	r3, [r4, #296]	@ 0x128
2000383e:	45c3      	cmp	fp, r8
20003840:	7027      	strb	r7, [r4, #0]
20003842:	f103 0301 	add.w	r3, r3, #1
20003846:	f884 7104 	strb.w	r7, [r4, #260]	@ 0x104
2000384a:	f8c4 9100 	str.w	r9, [r4, #256]	@ 0x100
2000384e:	f8c4 3128 	str.w	r3, [r4, #296]	@ 0x128
20003852:	f43f a956 	beq.w	20002b02 <d_print_comp_inner+0x116>
20003856:	f816 7f02 	ldrb.w	r7, [r6, #2]!
2000385a:	2301      	movs	r3, #1
2000385c:	e7d8      	b.n	20003810 <d_print_comp_inner+0xe24>
2000385e:	4ea5      	ldr	r6, [pc, #660]	@ (20003af4 <d_print_comp_inner+0x1108>)
20003860:	f04f 0a00 	mov.w	sl, #0
20003864:	f8d0 1100 	ldr.w	r1, [r0, #256]	@ 0x100
20003868:	f04f 0901 	mov.w	r9, #1
2000386c:	f106 0b13 	add.w	fp, r6, #19
20003870:	e009      	b.n	20003886 <d_print_comp_inner+0xe9a>
20003872:	4646      	mov	r6, r8
20003874:	1c59      	adds	r1, r3, #1
20003876:	45b3      	cmp	fp, r6
20003878:	f8c4 1100 	str.w	r1, [r4, #256]	@ 0x100
2000387c:	54e7      	strb	r7, [r4, r3]
2000387e:	f884 7104 	strb.w	r7, [r4, #260]	@ 0x104
20003882:	f43f a93e 	beq.w	20002b02 <d_print_comp_inner+0x116>
20003886:	29ff      	cmp	r1, #255	@ 0xff
20003888:	7877      	ldrb	r7, [r6, #1]
2000388a:	f106 0801 	add.w	r8, r6, #1
2000388e:	460b      	mov	r3, r1
20003890:	d1ef      	bne.n	20003872 <d_print_comp_inner+0xe86>
20003892:	4620      	mov	r0, r4
20003894:	f884 a0ff 	strb.w	sl, [r4, #255]	@ 0xff
20003898:	e9d4 3242 	ldrd	r3, r2, [r4, #264]	@ 0x108
2000389c:	4798      	blx	r3
2000389e:	f8d4 3128 	ldr.w	r3, [r4, #296]	@ 0x128
200038a2:	45c3      	cmp	fp, r8
200038a4:	7027      	strb	r7, [r4, #0]
200038a6:	f103 0301 	add.w	r3, r3, #1
200038aa:	f884 7104 	strb.w	r7, [r4, #260]	@ 0x104
200038ae:	f8c4 9100 	str.w	r9, [r4, #256]	@ 0x100
200038b2:	f8c4 3128 	str.w	r3, [r4, #296]	@ 0x128
200038b6:	f43f a924 	beq.w	20002b02 <d_print_comp_inner+0x116>
200038ba:	f816 7f02 	ldrb.w	r7, [r6, #2]!
200038be:	2301      	movs	r3, #1
200038c0:	e7d8      	b.n	20003874 <d_print_comp_inner+0xe88>
200038c2:	4e8d      	ldr	r6, [pc, #564]	@ (20003af8 <d_print_comp_inner+0x110c>)
200038c4:	f04f 0a00 	mov.w	sl, #0
200038c8:	f8d0 1100 	ldr.w	r1, [r0, #256]	@ 0x100
200038cc:	f04f 0901 	mov.w	r9, #1
200038d0:	f106 0b0f 	add.w	fp, r6, #15
200038d4:	e009      	b.n	200038ea <d_print_comp_inner+0xefe>
200038d6:	4646      	mov	r6, r8
200038d8:	1c59      	adds	r1, r3, #1
200038da:	45b3      	cmp	fp, r6
200038dc:	f8c4 1100 	str.w	r1, [r4, #256]	@ 0x100
200038e0:	54e7      	strb	r7, [r4, r3]
200038e2:	f884 7104 	strb.w	r7, [r4, #260]	@ 0x104
200038e6:	f43f a90c 	beq.w	20002b02 <d_print_comp_inner+0x116>
200038ea:	29ff      	cmp	r1, #255	@ 0xff
200038ec:	7877      	ldrb	r7, [r6, #1]
200038ee:	f106 0801 	add.w	r8, r6, #1
200038f2:	460b      	mov	r3, r1
200038f4:	d1ef      	bne.n	200038d6 <d_print_comp_inner+0xeea>
200038f6:	4620      	mov	r0, r4
200038f8:	f884 a0ff 	strb.w	sl, [r4, #255]	@ 0xff
200038fc:	e9d4 3242 	ldrd	r3, r2, [r4, #264]	@ 0x108
20003900:	4798      	blx	r3
20003902:	f8d4 3128 	ldr.w	r3, [r4, #296]	@ 0x128
20003906:	45c3      	cmp	fp, r8
20003908:	7027      	strb	r7, [r4, #0]
2000390a:	f103 0301 	add.w	r3, r3, #1
2000390e:	f884 7104 	strb.w	r7, [r4, #260]	@ 0x104
20003912:	f8c4 9100 	str.w	r9, [r4, #256]	@ 0x100
20003916:	f8c4 3128 	str.w	r3, [r4, #296]	@ 0x128
2000391a:	f43f a8f2 	beq.w	20002b02 <d_print_comp_inner+0x116>
2000391e:	f816 7f02 	ldrb.w	r7, [r6, #2]!
20003922:	2301      	movs	r3, #1
20003924:	e7d8      	b.n	200038d8 <d_print_comp_inner+0xeec>
20003926:	4975      	ldr	r1, [pc, #468]	@ (20003afc <d_print_comp_inner+0x1110>)
20003928:	f7fc fe0c 	bl	20000544 <d_append_string>
2000392c:	2111      	movs	r1, #17
2000392e:	68ea      	ldr	r2, [r5, #12]
20003930:	f7ff b8e9 	b.w	20002b06 <d_print_comp_inner+0x11a>
20003934:	4e72      	ldr	r6, [pc, #456]	@ (20003b00 <d_print_comp_inner+0x1114>)
20003936:	f04f 0a00 	mov.w	sl, #0
2000393a:	f8d0 1100 	ldr.w	r1, [r0, #256]	@ 0x100
2000393e:	f04f 0901 	mov.w	r9, #1
20003942:	f106 0b08 	add.w	fp, r6, #8
20003946:	e009      	b.n	2000395c <d_print_comp_inner+0xf70>
20003948:	4646      	mov	r6, r8
2000394a:	1c59      	adds	r1, r3, #1
2000394c:	45b3      	cmp	fp, r6
2000394e:	f8c4 1100 	str.w	r1, [r4, #256]	@ 0x100
20003952:	54e7      	strb	r7, [r4, r3]
20003954:	f884 7104 	strb.w	r7, [r4, #260]	@ 0x104
20003958:	f43f a8d3 	beq.w	20002b02 <d_print_comp_inner+0x116>
2000395c:	29ff      	cmp	r1, #255	@ 0xff
2000395e:	7877      	ldrb	r7, [r6, #1]
20003960:	f106 0801 	add.w	r8, r6, #1
20003964:	460b      	mov	r3, r1
20003966:	d1ef      	bne.n	20003948 <d_print_comp_inner+0xf5c>
20003968:	4620      	mov	r0, r4
2000396a:	f884 a0ff 	strb.w	sl, [r4, #255]	@ 0xff
2000396e:	e9d4 3242 	ldrd	r3, r2, [r4, #264]	@ 0x108
20003972:	4798      	blx	r3
20003974:	f8d4 3128 	ldr.w	r3, [r4, #296]	@ 0x128
20003978:	45c3      	cmp	fp, r8
2000397a:	7027      	strb	r7, [r4, #0]
2000397c:	f103 0301 	add.w	r3, r3, #1
20003980:	f884 7104 	strb.w	r7, [r4, #260]	@ 0x104
20003984:	f8c4 9100 	str.w	r9, [r4, #256]	@ 0x100
20003988:	f8c4 3128 	str.w	r3, [r4, #296]	@ 0x128
2000398c:	f43f a8b9 	beq.w	20002b02 <d_print_comp_inner+0x116>
20003990:	f816 7f02 	ldrb.w	r7, [r6, #2]!
20003994:	2301      	movs	r3, #1
20003996:	e7d8      	b.n	2000394a <d_print_comp_inner+0xf5e>
20003998:	f8df 8170 	ldr.w	r8, [pc, #368]	@ 20003b0c <d_print_comp_inner+0x1120>
2000399c:	f04f 0a00 	mov.w	sl, #0
200039a0:	f8d0 1100 	ldr.w	r1, [r0, #256]	@ 0x100
200039a4:	f04f 0901 	mov.w	r9, #1
200039a8:	f108 0b0b 	add.w	fp, r8, #11
200039ac:	e009      	b.n	200039c2 <d_print_comp_inner+0xfd6>
200039ae:	46b0      	mov	r8, r6
200039b0:	1c59      	adds	r1, r3, #1
200039b2:	45c3      	cmp	fp, r8
200039b4:	f8c4 1100 	str.w	r1, [r4, #256]	@ 0x100
200039b8:	54e7      	strb	r7, [r4, r3]
200039ba:	f884 7104 	strb.w	r7, [r4, #260]	@ 0x104
200039be:	f43f a8a0 	beq.w	20002b02 <d_print_comp_inner+0x116>
200039c2:	4646      	mov	r6, r8
200039c4:	29ff      	cmp	r1, #255	@ 0xff
200039c6:	460b      	mov	r3, r1
200039c8:	f816 7b01 	ldrb.w	r7, [r6], #1
200039cc:	d1ef      	bne.n	200039ae <d_print_comp_inner+0xfc2>
200039ce:	4620      	mov	r0, r4
200039d0:	f884 a0ff 	strb.w	sl, [r4, #255]	@ 0xff
200039d4:	f108 0802 	add.w	r8, r8, #2
200039d8:	e9d4 3242 	ldrd	r3, r2, [r4, #264]	@ 0x108
200039dc:	4798      	blx	r3
200039de:	f8d4 3128 	ldr.w	r3, [r4, #296]	@ 0x128
200039e2:	45b3      	cmp	fp, r6
200039e4:	7027      	strb	r7, [r4, #0]
200039e6:	f103 0301 	add.w	r3, r3, #1
200039ea:	f884 7104 	strb.w	r7, [r4, #260]	@ 0x104
200039ee:	f8c4 9100 	str.w	r9, [r4, #256]	@ 0x100
200039f2:	f8c4 3128 	str.w	r3, [r4, #296]	@ 0x128
200039f6:	f43f a884 	beq.w	20002b02 <d_print_comp_inner+0x116>
200039fa:	7837      	ldrb	r7, [r6, #0]
200039fc:	2301      	movs	r3, #1
200039fe:	e7d7      	b.n	200039b0 <d_print_comp_inner+0xfc4>
20003a00:	4e40      	ldr	r6, [pc, #256]	@ (20003b04 <d_print_comp_inner+0x1118>)
20003a02:	f04f 0a00 	mov.w	sl, #0
20003a06:	f8d0 1100 	ldr.w	r1, [r0, #256]	@ 0x100
20003a0a:	f04f 0901 	mov.w	r9, #1
20003a0e:	f106 0b10 	add.w	fp, r6, #16
20003a12:	e009      	b.n	20003a28 <d_print_comp_inner+0x103c>
20003a14:	4646      	mov	r6, r8
20003a16:	1c59      	adds	r1, r3, #1
20003a18:	45b3      	cmp	fp, r6
20003a1a:	f8c4 1100 	str.w	r1, [r4, #256]	@ 0x100
20003a1e:	54e7      	strb	r7, [r4, r3]
20003a20:	f884 7104 	strb.w	r7, [r4, #260]	@ 0x104
20003a24:	f43f a86d 	beq.w	20002b02 <d_print_comp_inner+0x116>
20003a28:	29ff      	cmp	r1, #255	@ 0xff
20003a2a:	7877      	ldrb	r7, [r6, #1]
20003a2c:	f106 0801 	add.w	r8, r6, #1
20003a30:	460b      	mov	r3, r1
20003a32:	d1ef      	bne.n	20003a14 <d_print_comp_inner+0x1028>
20003a34:	4620      	mov	r0, r4
20003a36:	f884 a0ff 	strb.w	sl, [r4, #255]	@ 0xff
20003a3a:	e9d4 3242 	ldrd	r3, r2, [r4, #264]	@ 0x108
20003a3e:	4798      	blx	r3
20003a40:	f8d4 3128 	ldr.w	r3, [r4, #296]	@ 0x128
20003a44:	45c3      	cmp	fp, r8
20003a46:	7027      	strb	r7, [r4, #0]
20003a48:	f103 0301 	add.w	r3, r3, #1
20003a4c:	f884 7104 	strb.w	r7, [r4, #260]	@ 0x104
20003a50:	f8c4 9100 	str.w	r9, [r4, #256]	@ 0x100
20003a54:	f8c4 3128 	str.w	r3, [r4, #296]	@ 0x128
20003a58:	f43f a853 	beq.w	20002b02 <d_print_comp_inner+0x116>
20003a5c:	f816 7f02 	ldrb.w	r7, [r6, #2]!
20003a60:	2301      	movs	r3, #1
20003a62:	e7d8      	b.n	20003a16 <d_print_comp_inner+0x102a>
20003a64:	e9d2 5303 	ldrd	r5, r3, [r2, #12]
20003a68:	2b00      	cmp	r3, #0
20003a6a:	f43f a847 	beq.w	20002afc <d_print_comp_inner+0x110>
20003a6e:	442b      	add	r3, r5
20003a70:	f8d0 1100 	ldr.w	r1, [r0, #256]	@ 0x100
20003a74:	3d01      	subs	r5, #1
20003a76:	f04f 0900 	mov.w	r9, #0
20003a7a:	1e5f      	subs	r7, r3, #1
20003a7c:	f04f 0801 	mov.w	r8, #1
20003a80:	e009      	b.n	20003a96 <d_print_comp_inner+0x10aa>
20003a82:	4655      	mov	r5, sl
20003a84:	1c59      	adds	r1, r3, #1
20003a86:	42af      	cmp	r7, r5
20003a88:	f8c4 1100 	str.w	r1, [r4, #256]	@ 0x100
20003a8c:	54e6      	strb	r6, [r4, r3]
20003a8e:	f884 6104 	strb.w	r6, [r4, #260]	@ 0x104
20003a92:	f43f a833 	beq.w	20002afc <d_print_comp_inner+0x110>
20003a96:	29ff      	cmp	r1, #255	@ 0xff
20003a98:	786e      	ldrb	r6, [r5, #1]
20003a9a:	f105 0a01 	add.w	sl, r5, #1
20003a9e:	460b      	mov	r3, r1
20003aa0:	d1ef      	bne.n	20003a82 <d_print_comp_inner+0x1096>
20003aa2:	4620      	mov	r0, r4
20003aa4:	f884 90ff 	strb.w	r9, [r4, #255]	@ 0xff
20003aa8:	e9d4 3242 	ldrd	r3, r2, [r4, #264]	@ 0x108
20003aac:	4798      	blx	r3
20003aae:	f8d4 3128 	ldr.w	r3, [r4, #296]	@ 0x128
20003ab2:	4557      	cmp	r7, sl
20003ab4:	f8c4 8100 	str.w	r8, [r4, #256]	@ 0x100
20003ab8:	f103 0301 	add.w	r3, r3, #1
20003abc:	7026      	strb	r6, [r4, #0]
20003abe:	f884 6104 	strb.w	r6, [r4, #260]	@ 0x104
20003ac2:	f8c4 3128 	str.w	r3, [r4, #296]	@ 0x128
20003ac6:	f43f a819 	beq.w	20002afc <d_print_comp_inner+0x110>
20003aca:	f815 6f02 	ldrb.w	r6, [r5, #2]!
20003ace:	2301      	movs	r3, #1
20003ad0:	e7d8      	b.n	20003a84 <d_print_comp_inner+0x1098>
20003ad2:	4e0d      	ldr	r6, [pc, #52]	@ (20003b08 <d_print_comp_inner+0x111c>)
20003ad4:	f04f 0a00 	mov.w	sl, #0
20003ad8:	f8d0 1100 	ldr.w	r1, [r0, #256]	@ 0x100
20003adc:	f04f 0901 	mov.w	r9, #1
20003ae0:	f106 0b1e 	add.w	fp, r6, #30
20003ae4:	e01e      	b.n	20003b24 <d_print_comp_inner+0x1138>
20003ae6:	bf00      	nop
20003ae8:	2000cce7 	.word	0x2000cce7
20003aec:	2000cccc 	.word	0x2000cccc
20003af0:	2000ccb3 	.word	0x2000ccb3
20003af4:	2000cc9f 	.word	0x2000cc9f
20003af8:	2000cc8f 	.word	0x2000cc8f
20003afc:	2000cd08 	.word	0x2000cd08
20003b00:	2000cbf3 	.word	0x2000cbf3
20003b04:	2000cc47 	.word	0x2000cc47
20003b08:	2000cbaf 	.word	0x2000cbaf
20003b0c:	2000cbe8 	.word	0x2000cbe8
20003b10:	4646      	mov	r6, r8
20003b12:	1c59      	adds	r1, r3, #1
20003b14:	45b3      	cmp	fp, r6
20003b16:	f8c4 1100 	str.w	r1, [r4, #256]	@ 0x100
20003b1a:	54e7      	strb	r7, [r4, r3]
20003b1c:	f884 7104 	strb.w	r7, [r4, #260]	@ 0x104
20003b20:	f43e afef 	beq.w	20002b02 <d_print_comp_inner+0x116>
20003b24:	29ff      	cmp	r1, #255	@ 0xff
20003b26:	7877      	ldrb	r7, [r6, #1]
20003b28:	f106 0801 	add.w	r8, r6, #1
20003b2c:	460b      	mov	r3, r1
20003b2e:	d1ef      	bne.n	20003b10 <d_print_comp_inner+0x1124>
20003b30:	4620      	mov	r0, r4
20003b32:	f884 a0ff 	strb.w	sl, [r4, #255]	@ 0xff
20003b36:	e9d4 3242 	ldrd	r3, r2, [r4, #264]	@ 0x108
20003b3a:	4798      	blx	r3
20003b3c:	f8d4 3128 	ldr.w	r3, [r4, #296]	@ 0x128
20003b40:	45c3      	cmp	fp, r8
20003b42:	7027      	strb	r7, [r4, #0]
20003b44:	f103 0301 	add.w	r3, r3, #1
20003b48:	f884 7104 	strb.w	r7, [r4, #260]	@ 0x104
20003b4c:	f8c4 9100 	str.w	r9, [r4, #256]	@ 0x100
20003b50:	f8c4 3128 	str.w	r3, [r4, #296]	@ 0x128
20003b54:	f43e afd5 	beq.w	20002b02 <d_print_comp_inner+0x116>
20003b58:	f816 7f02 	ldrb.w	r7, [r6, #2]!
20003b5c:	2301      	movs	r3, #1
20003b5e:	e7d8      	b.n	20003b12 <d_print_comp_inner+0x1126>
20003b60:	68d5      	ldr	r5, [r2, #12]
20003b62:	2d00      	cmp	r5, #0
20003b64:	f040 868c 	bne.w	20004880 <d_print_comp_inner+0x1e94>
20003b68:	49c4      	ldr	r1, [pc, #784]	@ (20003e7c <d_print_comp_inner+0x1490>)
20003b6a:	f7ff bb79 	b.w	20003260 <d_print_comp_inner+0x874>
20003b6e:	2300      	movs	r3, #0
20003b70:	f8d0 8114 	ldr.w	r8, [r0, #276]	@ 0x114
20003b74:	f8d0 7148 	ldr.w	r7, [r0, #328]	@ 0x148
20003b78:	2111      	movs	r1, #17
20003b7a:	f8c4 2148 	str.w	r2, [r4, #328]	@ 0x148
20003b7e:	f8c0 3114 	str.w	r3, [r0, #276]	@ 0x114
20003b82:	68d2      	ldr	r2, [r2, #12]
20003b84:	f001 fcb0 	bl	200054e8 <d_print_comp>
20003b88:	f894 3104 	ldrb.w	r3, [r4, #260]	@ 0x104
20003b8c:	2b3c      	cmp	r3, #60	@ 0x3c
20003b8e:	f001 8150 	beq.w	20004e32 <d_print_comp_inner+0x2446>
20003b92:	f8d4 1100 	ldr.w	r1, [r4, #256]	@ 0x100
20003b96:	29ff      	cmp	r1, #255	@ 0xff
20003b98:	f001 813b 	beq.w	20004e12 <d_print_comp_inner+0x2426>
20003b9c:	1c4b      	adds	r3, r1, #1
20003b9e:	f8c4 3100 	str.w	r3, [r4, #256]	@ 0x100
20003ba2:	233c      	movs	r3, #60	@ 0x3c
20003ba4:	4620      	mov	r0, r4
20003ba6:	5463      	strb	r3, [r4, r1]
20003ba8:	2111      	movs	r1, #17
20003baa:	f884 3104 	strb.w	r3, [r4, #260]	@ 0x104
20003bae:	692a      	ldr	r2, [r5, #16]
20003bb0:	f001 fc9a 	bl	200054e8 <d_print_comp>
20003bb4:	f894 3104 	ldrb.w	r3, [r4, #260]	@ 0x104
20003bb8:	2b3e      	cmp	r3, #62	@ 0x3e
20003bba:	f001 8124 	beq.w	20004e06 <d_print_comp_inner+0x241a>
20003bbe:	f8d4 1100 	ldr.w	r1, [r4, #256]	@ 0x100
20003bc2:	29ff      	cmp	r1, #255	@ 0xff
20003bc4:	f001 810f 	beq.w	20004de6 <d_print_comp_inner+0x23fa>
20003bc8:	1c4b      	adds	r3, r1, #1
20003bca:	f8c4 3100 	str.w	r3, [r4, #256]	@ 0x100
20003bce:	233e      	movs	r3, #62	@ 0x3e
20003bd0:	5463      	strb	r3, [r4, r1]
20003bd2:	f884 3104 	strb.w	r3, [r4, #260]	@ 0x104
20003bd6:	f8c4 8114 	str.w	r8, [r4, #276]	@ 0x114
20003bda:	f8c4 7148 	str.w	r7, [r4, #328]	@ 0x148
20003bde:	f7fe bf8d 	b.w	20002afc <d_print_comp_inner+0x110>
20003be2:	68d2      	ldr	r2, [r2, #12]
20003be4:	f8d0 a114 	ldr.w	sl, [r0, #276]	@ 0x114
20003be8:	b1ca      	cbz	r2, 20003c1e <d_print_comp_inner+0x1232>
20003bea:	ab08      	add	r3, sp, #32
20003bec:	2100      	movs	r1, #0
20003bee:	f8c0 3114 	str.w	r3, [r0, #276]	@ 0x114
20003bf2:	f8d0 3110 	ldr.w	r3, [r0, #272]	@ 0x110
20003bf6:	e9cd 130a 	strd	r1, r3, [sp, #40]	@ 0x28
20003bfa:	2111      	movs	r1, #17
20003bfc:	e9cd a508 	strd	sl, r5, [sp, #32]
20003c00:	f001 fc72 	bl	200054e8 <d_print_comp>
20003c04:	9a08      	ldr	r2, [sp, #32]
20003c06:	9b0a      	ldr	r3, [sp, #40]	@ 0x28
20003c08:	f8c4 2114 	str.w	r2, [r4, #276]	@ 0x114
20003c0c:	2b00      	cmp	r3, #0
20003c0e:	f47e af75 	bne.w	20002afc <d_print_comp_inner+0x110>
20003c12:	2120      	movs	r1, #32
20003c14:	4620      	mov	r0, r4
20003c16:	f7fc fc59 	bl	200004cc <d_append_char>
20003c1a:	f8d4 a114 	ldr.w	sl, [r4, #276]	@ 0x114
20003c1e:	4653      	mov	r3, sl
20003c20:	462a      	mov	r2, r5
20003c22:	2111      	movs	r1, #17
20003c24:	4620      	mov	r0, r4
20003c26:	b019      	add	sp, #100	@ 0x64
20003c28:	e8bd 4ff0 	ldmia.w	sp!, {r4, r5, r6, r7, r8, r9, sl, fp, lr}
20003c2c:	f002 b830 	b.w	20005c90 <d_print_function_type>
20003c30:	2111      	movs	r1, #17
20003c32:	68d2      	ldr	r2, [r2, #12]
20003c34:	f001 fc58 	bl	200054e8 <d_print_comp>
20003c38:	f8d4 1100 	ldr.w	r1, [r4, #256]	@ 0x100
20003c3c:	29ff      	cmp	r1, #255	@ 0xff
20003c3e:	f001 8115 	beq.w	20004e6c <d_print_comp_inner+0x2480>
20003c42:	1c4a      	adds	r2, r1, #1
20003c44:	2328      	movs	r3, #40	@ 0x28
20003c46:	f8c4 2100 	str.w	r2, [r4, #256]	@ 0x100
20003c4a:	4620      	mov	r0, r4
20003c4c:	5463      	strb	r3, [r4, r1]
20003c4e:	2111      	movs	r1, #17
20003c50:	f884 3104 	strb.w	r3, [r4, #260]	@ 0x104
20003c54:	692a      	ldr	r2, [r5, #16]
20003c56:	f001 fc47 	bl	200054e8 <d_print_comp>
20003c5a:	f8d4 1100 	ldr.w	r1, [r4, #256]	@ 0x100
20003c5e:	29ff      	cmp	r1, #255	@ 0xff
20003c60:	f000 84c6 	beq.w	200045f0 <d_print_comp_inner+0x1c04>
20003c64:	1c4a      	adds	r2, r1, #1
20003c66:	2329      	movs	r3, #41	@ 0x29
20003c68:	f8c4 2100 	str.w	r2, [r4, #256]	@ 0x100
20003c6c:	5463      	strb	r3, [r4, r1]
20003c6e:	f884 3104 	strb.w	r3, [r4, #260]	@ 0x104
20003c72:	f7fe bf43 	b.w	20002afc <d_print_comp_inner+0x110>
20003c76:	68d2      	ldr	r2, [r2, #12]
20003c78:	2111      	movs	r1, #17
20003c7a:	f001 fc35 	bl	200054e8 <d_print_comp>
20003c7e:	2111      	movs	r1, #17
20003c80:	692a      	ldr	r2, [r5, #16]
20003c82:	f7fe bf40 	b.w	20002b06 <d_print_comp_inner+0x11a>
20003c86:	4e7e      	ldr	r6, [pc, #504]	@ (20003e80 <d_print_comp_inner+0x1494>)
20003c88:	f04f 0a00 	mov.w	sl, #0
20003c8c:	f8d0 1100 	ldr.w	r1, [r0, #256]	@ 0x100
20003c90:	f04f 0901 	mov.w	r9, #1
20003c94:	f106 0b0e 	add.w	fp, r6, #14
20003c98:	e009      	b.n	20003cae <d_print_comp_inner+0x12c2>
20003c9a:	4646      	mov	r6, r8
20003c9c:	1c59      	adds	r1, r3, #1
20003c9e:	45b3      	cmp	fp, r6
20003ca0:	f8c4 1100 	str.w	r1, [r4, #256]	@ 0x100
20003ca4:	54e7      	strb	r7, [r4, r3]
20003ca6:	f884 7104 	strb.w	r7, [r4, #260]	@ 0x104
20003caa:	f43e af2a 	beq.w	20002b02 <d_print_comp_inner+0x116>
20003cae:	29ff      	cmp	r1, #255	@ 0xff
20003cb0:	7877      	ldrb	r7, [r6, #1]
20003cb2:	f106 0801 	add.w	r8, r6, #1
20003cb6:	460b      	mov	r3, r1
20003cb8:	d1ef      	bne.n	20003c9a <d_print_comp_inner+0x12ae>
20003cba:	4620      	mov	r0, r4
20003cbc:	f884 a0ff 	strb.w	sl, [r4, #255]	@ 0xff
20003cc0:	e9d4 3242 	ldrd	r3, r2, [r4, #264]	@ 0x108
20003cc4:	4798      	blx	r3
20003cc6:	f8d4 3128 	ldr.w	r3, [r4, #296]	@ 0x128
20003cca:	45c3      	cmp	fp, r8
20003ccc:	7027      	strb	r7, [r4, #0]
20003cce:	f103 0301 	add.w	r3, r3, #1
20003cd2:	f884 7104 	strb.w	r7, [r4, #260]	@ 0x104
20003cd6:	f8c4 9100 	str.w	r9, [r4, #256]	@ 0x100
20003cda:	f8c4 3128 	str.w	r3, [r4, #296]	@ 0x128
20003cde:	f43e af10 	beq.w	20002b02 <d_print_comp_inner+0x116>
20003ce2:	f816 7f02 	ldrb.w	r7, [r6, #2]!
20003ce6:	2301      	movs	r3, #1
20003ce8:	e7d8      	b.n	20003c9c <d_print_comp_inner+0x12b0>
20003cea:	4e66      	ldr	r6, [pc, #408]	@ (20003e84 <d_print_comp_inner+0x1498>)
20003cec:	f04f 0a00 	mov.w	sl, #0
20003cf0:	f8d0 1100 	ldr.w	r1, [r0, #256]	@ 0x100
20003cf4:	f04f 0901 	mov.w	r9, #1
20003cf8:	f106 0b1d 	add.w	fp, r6, #29
20003cfc:	e009      	b.n	20003d12 <d_print_comp_inner+0x1326>
20003cfe:	4646      	mov	r6, r8
20003d00:	1c59      	adds	r1, r3, #1
20003d02:	45b3      	cmp	fp, r6
20003d04:	f8c4 1100 	str.w	r1, [r4, #256]	@ 0x100
20003d08:	54e7      	strb	r7, [r4, r3]
20003d0a:	f884 7104 	strb.w	r7, [r4, #260]	@ 0x104
20003d0e:	f43e aef8 	beq.w	20002b02 <d_print_comp_inner+0x116>
20003d12:	29ff      	cmp	r1, #255	@ 0xff
20003d14:	7877      	ldrb	r7, [r6, #1]
20003d16:	f106 0801 	add.w	r8, r6, #1
20003d1a:	460b      	mov	r3, r1
20003d1c:	d1ef      	bne.n	20003cfe <d_print_comp_inner+0x1312>
20003d1e:	4620      	mov	r0, r4
20003d20:	f884 a0ff 	strb.w	sl, [r4, #255]	@ 0xff
20003d24:	e9d4 3242 	ldrd	r3, r2, [r4, #264]	@ 0x108
20003d28:	4798      	blx	r3
20003d2a:	f8d4 3128 	ldr.w	r3, [r4, #296]	@ 0x128
20003d2e:	45c3      	cmp	fp, r8
20003d30:	7027      	strb	r7, [r4, #0]
20003d32:	f103 0301 	add.w	r3, r3, #1
20003d36:	f884 7104 	strb.w	r7, [r4, #260]	@ 0x104
20003d3a:	f8c4 9100 	str.w	r9, [r4, #256]	@ 0x100
20003d3e:	f8c4 3128 	str.w	r3, [r4, #296]	@ 0x128
20003d42:	f43e aede 	beq.w	20002b02 <d_print_comp_inner+0x116>
20003d46:	f816 7f02 	ldrb.w	r7, [r6, #2]!
20003d4a:	2301      	movs	r3, #1
20003d4c:	e7d8      	b.n	20003d00 <d_print_comp_inner+0x1314>
20003d4e:	e9d2 2503 	ldrd	r2, r5, [r2, #12]
20003d52:	b112      	cbz	r2, 20003d5a <d_print_comp_inner+0x136e>
20003d54:	2111      	movs	r1, #17
20003d56:	f001 fbc7 	bl	200054e8 <d_print_comp>
20003d5a:	f8d4 1100 	ldr.w	r1, [r4, #256]	@ 0x100
20003d5e:	29ff      	cmp	r1, #255	@ 0xff
20003d60:	f000 87d1 	beq.w	20004d06 <d_print_comp_inner+0x231a>
20003d64:	1c4a      	adds	r2, r1, #1
20003d66:	237b      	movs	r3, #123	@ 0x7b
20003d68:	f8c4 2100 	str.w	r2, [r4, #256]	@ 0x100
20003d6c:	4620      	mov	r0, r4
20003d6e:	462a      	mov	r2, r5
20003d70:	5463      	strb	r3, [r4, r1]
20003d72:	2111      	movs	r1, #17
20003d74:	f884 3104 	strb.w	r3, [r4, #260]	@ 0x104
20003d78:	f001 fbb6 	bl	200054e8 <d_print_comp>
20003d7c:	f8d4 1100 	ldr.w	r1, [r4, #256]	@ 0x100
20003d80:	29ff      	cmp	r1, #255	@ 0xff
20003d82:	f000 8340 	beq.w	20004406 <d_print_comp_inner+0x1a1a>
20003d86:	1c4a      	adds	r2, r1, #1
20003d88:	237d      	movs	r3, #125	@ 0x7d
20003d8a:	f8c4 2100 	str.w	r2, [r4, #256]	@ 0x100
20003d8e:	5463      	strb	r3, [r4, r1]
20003d90:	f884 3104 	strb.w	r3, [r4, #260]	@ 0x104
20003d94:	f7fe beb2 	b.w	20002afc <d_print_comp_inner+0x110>
20003d98:	2300      	movs	r3, #0
20003d9a:	f8d0 a114 	ldr.w	sl, [r0, #276]	@ 0x114
20003d9e:	aa08      	add	r2, sp, #32
20003da0:	9509      	str	r5, [sp, #36]	@ 0x24
20003da2:	930a      	str	r3, [sp, #40]	@ 0x28
20003da4:	46d1      	mov	r9, sl
20003da6:	f8d0 3110 	ldr.w	r3, [r0, #272]	@ 0x110
20003daa:	9201      	str	r2, [sp, #4]
20003dac:	f8cd a020 	str.w	sl, [sp, #32]
20003db0:	f8c0 2114 	str.w	r2, [r0, #276]	@ 0x114
20003db4:	930b      	str	r3, [sp, #44]	@ 0x2c
20003db6:	f1ba 0f00 	cmp.w	sl, #0
20003dba:	f001 82d0 	beq.w	2000535e <d_print_comp_inner+0x2972>
20003dbe:	f04f 0801 	mov.w	r8, #1
20003dc2:	4656      	mov	r6, sl
20003dc4:	f8dd c004 	ldr.w	ip, [sp, #4]
20003dc8:	4617      	mov	r7, r2
20003dca:	46c6      	mov	lr, r8
20003dcc:	e01a      	b.n	20003e04 <d_print_comp_inner+0x1418>
20003dce:	68b3      	ldr	r3, [r6, #8]
20003dd0:	b9b3      	cbnz	r3, 20003e00 <d_print_comp_inner+0x1414>
20003dd2:	f1b8 0f03 	cmp.w	r8, #3
20003dd6:	f63e ae8e 	bhi.w	20002af6 <d_print_comp_inner+0x10a>
20003dda:	ab18      	add	r3, sp, #96	@ 0x60
20003ddc:	eb03 1b08 	add.w	fp, r3, r8, lsl #4
20003de0:	e896 000f 	ldmia.w	r6, {r0, r1, r2, r3}
20003de4:	f1ab 0a40 	sub.w	sl, fp, #64	@ 0x40
20003de8:	e88a 000f 	stmia.w	sl, {r0, r1, r2, r3}
20003dec:	f84b 7c40 	str.w	r7, [fp, #-64]
20003df0:	eb0c 1708 	add.w	r7, ip, r8, lsl #4
20003df4:	f108 0801 	add.w	r8, r8, #1
20003df8:	f8c4 7114 	str.w	r7, [r4, #276]	@ 0x114
20003dfc:	f8c6 e008 	str.w	lr, [r6, #8]
20003e00:	6836      	ldr	r6, [r6, #0]
20003e02:	b126      	cbz	r6, 20003e0e <d_print_comp_inner+0x1422>
20003e04:	6873      	ldr	r3, [r6, #4]
20003e06:	781b      	ldrb	r3, [r3, #0]
20003e08:	3b19      	subs	r3, #25
20003e0a:	2b02      	cmp	r3, #2
20003e0c:	d9df      	bls.n	20003dce <d_print_comp_inner+0x13e2>
20003e0e:	692a      	ldr	r2, [r5, #16]
20003e10:	2111      	movs	r1, #17
20003e12:	4620      	mov	r0, r4
20003e14:	f001 fb68 	bl	200054e8 <d_print_comp>
20003e18:	9b0a      	ldr	r3, [sp, #40]	@ 0x28
20003e1a:	f8c4 9114 	str.w	r9, [r4, #276]	@ 0x114
20003e1e:	2b00      	cmp	r3, #0
20003e20:	f47e ae6c 	bne.w	20002afc <d_print_comp_inner+0x110>
20003e24:	f1b8 0f01 	cmp.w	r8, #1
20003e28:	d90f      	bls.n	20003e4a <d_print_comp_inner+0x145e>
20003e2a:	9b01      	ldr	r3, [sp, #4]
20003e2c:	eb03 1708 	add.w	r7, r3, r8, lsl #4
20003e30:	f108 38ff 	add.w	r8, r8, #4294967295
20003e34:	f857 2c0c 	ldr.w	r2, [r7, #-12]
20003e38:	2111      	movs	r1, #17
20003e3a:	4620      	mov	r0, r4
20003e3c:	f001 fb82 	bl	20005544 <d_print_mod>
20003e40:	f1b8 0f01 	cmp.w	r8, #1
20003e44:	f1a7 0710 	sub.w	r7, r7, #16
20003e48:	d1f2      	bne.n	20003e30 <d_print_comp_inner+0x1444>
20003e4a:	f8d4 3114 	ldr.w	r3, [r4, #276]	@ 0x114
20003e4e:	462a      	mov	r2, r5
20003e50:	2111      	movs	r1, #17
20003e52:	4620      	mov	r0, r4
20003e54:	f002 f96e 	bl	20006134 <d_print_array_type>
20003e58:	f7fe be50 	b.w	20002afc <d_print_comp_inner+0x110>
20003e5c:	f8df 8028 	ldr.w	r8, [pc, #40]	@ 20003e88 <d_print_comp_inner+0x149c>
20003e60:	2111      	movs	r1, #17
20003e62:	68d2      	ldr	r2, [r2, #12]
20003e64:	f04f 0a00 	mov.w	sl, #0
20003e68:	f001 fb3e 	bl	200054e8 <d_print_comp>
20003e6c:	f108 0b05 	add.w	fp, r8, #5
20003e70:	f8d4 1100 	ldr.w	r1, [r4, #256]	@ 0x100
20003e74:	f04f 0901 	mov.w	r9, #1
20003e78:	e012      	b.n	20003ea0 <d_print_comp_inner+0x14b4>
20003e7a:	bf00      	nop
20003e7c:	2000cda8 	.word	0x2000cda8
20003e80:	2000cd87 	.word	0x2000cd87
20003e84:	2000cdb7 	.word	0x2000cdb7
20003e88:	2000cb84 	.word	0x2000cb84
20003e8c:	46b0      	mov	r8, r6
20003e8e:	1c59      	adds	r1, r3, #1
20003e90:	45c3      	cmp	fp, r8
20003e92:	f8c4 1100 	str.w	r1, [r4, #256]	@ 0x100
20003e96:	54e7      	strb	r7, [r4, r3]
20003e98:	f884 7104 	strb.w	r7, [r4, #260]	@ 0x104
20003e9c:	f000 822d 	beq.w	200042fa <d_print_comp_inner+0x190e>
20003ea0:	4646      	mov	r6, r8
20003ea2:	29ff      	cmp	r1, #255	@ 0xff
20003ea4:	460b      	mov	r3, r1
20003ea6:	f816 7b01 	ldrb.w	r7, [r6], #1
20003eaa:	d1ef      	bne.n	20003e8c <d_print_comp_inner+0x14a0>
20003eac:	4620      	mov	r0, r4
20003eae:	f884 a0ff 	strb.w	sl, [r4, #255]	@ 0xff
20003eb2:	f108 0802 	add.w	r8, r8, #2
20003eb6:	e9d4 3242 	ldrd	r3, r2, [r4, #264]	@ 0x108
20003eba:	4798      	blx	r3
20003ebc:	f8d4 3128 	ldr.w	r3, [r4, #296]	@ 0x128
20003ec0:	45b3      	cmp	fp, r6
20003ec2:	7027      	strb	r7, [r4, #0]
20003ec4:	f103 0301 	add.w	r3, r3, #1
20003ec8:	f884 7104 	strb.w	r7, [r4, #260]	@ 0x104
20003ecc:	f8c4 9100 	str.w	r9, [r4, #256]	@ 0x100
20003ed0:	f8c4 3128 	str.w	r3, [r4, #296]	@ 0x128
20003ed4:	f000 8211 	beq.w	200042fa <d_print_comp_inner+0x190e>
20003ed8:	7837      	ldrb	r7, [r6, #0]
20003eda:	2301      	movs	r3, #1
20003edc:	e7d7      	b.n	20003e8e <d_print_comp_inner+0x14a2>
20003ede:	f8d0 8120 	ldr.w	r8, [r0, #288]	@ 0x120
20003ee2:	68d5      	ldr	r5, [r2, #12]
20003ee4:	f1b8 0f00 	cmp.w	r8, #0
20003ee8:	f040 849d 	bne.w	20004826 <d_print_comp_inner+0x1e3a>
20003eec:	4629      	mov	r1, r5
20003eee:	f7fc fb63 	bl	200005b8 <d_find_pack>
20003ef2:	2800      	cmp	r0, #0
20003ef4:	f000 8497 	beq.w	20004826 <d_print_comp_inner+0x1e3a>
20003ef8:	4647      	mov	r7, r8
20003efa:	e004      	b.n	20003f06 <d_print_comp_inner+0x151a>
20003efc:	68c3      	ldr	r3, [r0, #12]
20003efe:	b12b      	cbz	r3, 20003f0c <d_print_comp_inner+0x1520>
20003f00:	6900      	ldr	r0, [r0, #16]
20003f02:	3701      	adds	r7, #1
20003f04:	b128      	cbz	r0, 20003f12 <d_print_comp_inner+0x1526>
20003f06:	7803      	ldrb	r3, [r0, #0]
20003f08:	2b2f      	cmp	r3, #47	@ 0x2f
20003f0a:	d0f7      	beq.n	20003efc <d_print_comp_inner+0x1510>
20003f0c:	2f00      	cmp	r7, #0
20003f0e:	f43e adf5 	beq.w	20002afc <d_print_comp_inner+0x110>
20003f12:	4646      	mov	r6, r8
20003f14:	f04f 0900 	mov.w	r9, #0
20003f18:	46a0      	mov	r8, r4
20003f1a:	f8c8 6124 	str.w	r6, [r8, #292]	@ 0x124
20003f1e:	3601      	adds	r6, #1
20003f20:	462a      	mov	r2, r5
20003f22:	2111      	movs	r1, #17
20003f24:	4640      	mov	r0, r8
20003f26:	f001 fadf 	bl	200054e8 <d_print_comp>
20003f2a:	42b7      	cmp	r7, r6
20003f2c:	f43e ade6 	beq.w	20002afc <d_print_comp_inner+0x110>
20003f30:	4cd1      	ldr	r4, [pc, #836]	@ (20004278 <d_print_comp_inner+0x188c>)
20003f32:	f8d8 1100 	ldr.w	r1, [r8, #256]	@ 0x100
20003f36:	9501      	str	r5, [sp, #4]
20003f38:	f104 0b02 	add.w	fp, r4, #2
20003f3c:	4645      	mov	r5, r8
20003f3e:	46a0      	mov	r8, r4
20003f40:	e009      	b.n	20003f56 <d_print_comp_inner+0x156a>
20003f42:	46d0      	mov	r8, sl
20003f44:	1c59      	adds	r1, r3, #1
20003f46:	45c3      	cmp	fp, r8
20003f48:	f8c5 1100 	str.w	r1, [r5, #256]	@ 0x100
20003f4c:	54ec      	strb	r4, [r5, r3]
20003f4e:	f885 4104 	strb.w	r4, [r5, #260]	@ 0x104
20003f52:	f000 81e5 	beq.w	20004320 <d_print_comp_inner+0x1934>
20003f56:	46c2      	mov	sl, r8
20003f58:	29ff      	cmp	r1, #255	@ 0xff
20003f5a:	460b      	mov	r3, r1
20003f5c:	f81a 4b01 	ldrb.w	r4, [sl], #1
20003f60:	d1ef      	bne.n	20003f42 <d_print_comp_inner+0x1556>
20003f62:	4628      	mov	r0, r5
20003f64:	f885 90ff 	strb.w	r9, [r5, #255]	@ 0xff
20003f68:	f108 0802 	add.w	r8, r8, #2
20003f6c:	e9d5 3242 	ldrd	r3, r2, [r5, #264]	@ 0x108
20003f70:	4798      	blx	r3
20003f72:	f8d5 3128 	ldr.w	r3, [r5, #296]	@ 0x128
20003f76:	45d3      	cmp	fp, sl
20003f78:	702c      	strb	r4, [r5, #0]
20003f7a:	f103 0301 	add.w	r3, r3, #1
20003f7e:	f885 4104 	strb.w	r4, [r5, #260]	@ 0x104
20003f82:	f8c5 3128 	str.w	r3, [r5, #296]	@ 0x128
20003f86:	f04f 0301 	mov.w	r3, #1
20003f8a:	f8c5 3100 	str.w	r3, [r5, #256]	@ 0x100
20003f8e:	f000 81c7 	beq.w	20004320 <d_print_comp_inner+0x1934>
20003f92:	f89a 4000 	ldrb.w	r4, [sl]
20003f96:	e7d5      	b.n	20003f44 <d_print_comp_inner+0x1558>
20003f98:	49b8      	ldr	r1, [pc, #736]	@ (2000427c <d_print_comp_inner+0x1890>)
20003f9a:	f7fc fad3 	bl	20000544 <d_append_string>
20003f9e:	2111      	movs	r1, #17
20003fa0:	68ea      	ldr	r2, [r5, #12]
20003fa2:	f7fe bdb0 	b.w	20002b06 <d_print_comp_inner+0x11a>
20003fa6:	f8d0 1100 	ldr.w	r1, [r0, #256]	@ 0x100
20003faa:	7b15      	ldrb	r5, [r2, #12]
20003fac:	29ff      	cmp	r1, #255	@ 0xff
20003fae:	f000 8287 	beq.w	200044c0 <d_print_comp_inner+0x1ad4>
20003fb2:	1c4b      	adds	r3, r1, #1
20003fb4:	f8c4 3100 	str.w	r3, [r4, #256]	@ 0x100
20003fb8:	5465      	strb	r5, [r4, r1]
20003fba:	f884 5104 	strb.w	r5, [r4, #260]	@ 0x104
20003fbe:	f7fe bd9d 	b.w	20002afc <d_print_comp_inner+0x110>
20003fc2:	4eaf      	ldr	r6, [pc, #700]	@ (20004280 <d_print_comp_inner+0x1894>)
20003fc4:	2111      	movs	r1, #17
20003fc6:	68d2      	ldr	r2, [r2, #12]
20003fc8:	f04f 0a00 	mov.w	sl, #0
20003fcc:	f001 fa8c 	bl	200054e8 <d_print_comp>
20003fd0:	f106 0b08 	add.w	fp, r6, #8
20003fd4:	f8d4 1100 	ldr.w	r1, [r4, #256]	@ 0x100
20003fd8:	f04f 0901 	mov.w	r9, #1
20003fdc:	e009      	b.n	20003ff2 <d_print_comp_inner+0x1606>
20003fde:	4646      	mov	r6, r8
20003fe0:	1c59      	adds	r1, r3, #1
20003fe2:	45b3      	cmp	fp, r6
20003fe4:	f8c4 1100 	str.w	r1, [r4, #256]	@ 0x100
20003fe8:	54e7      	strb	r7, [r4, r3]
20003fea:	f884 7104 	strb.w	r7, [r4, #260]	@ 0x104
20003fee:	f000 8184 	beq.w	200042fa <d_print_comp_inner+0x190e>
20003ff2:	29ff      	cmp	r1, #255	@ 0xff
20003ff4:	7877      	ldrb	r7, [r6, #1]
20003ff6:	f106 0801 	add.w	r8, r6, #1
20003ffa:	460b      	mov	r3, r1
20003ffc:	d1ef      	bne.n	20003fde <d_print_comp_inner+0x15f2>
20003ffe:	4620      	mov	r0, r4
20004000:	f884 a0ff 	strb.w	sl, [r4, #255]	@ 0xff
20004004:	e9d4 3242 	ldrd	r3, r2, [r4, #264]	@ 0x108
20004008:	4798      	blx	r3
2000400a:	f8d4 3128 	ldr.w	r3, [r4, #296]	@ 0x128
2000400e:	45c3      	cmp	fp, r8
20004010:	7027      	strb	r7, [r4, #0]
20004012:	f103 0301 	add.w	r3, r3, #1
20004016:	f884 7104 	strb.w	r7, [r4, #260]	@ 0x104
2000401a:	f8c4 9100 	str.w	r9, [r4, #256]	@ 0x100
2000401e:	f8c4 3128 	str.w	r3, [r4, #296]	@ 0x128
20004022:	f000 816a 	beq.w	200042fa <d_print_comp_inner+0x190e>
20004026:	f816 7f02 	ldrb.w	r7, [r6, #2]!
2000402a:	2301      	movs	r3, #1
2000402c:	e7d8      	b.n	20003fe0 <d_print_comp_inner+0x15f4>
2000402e:	4e95      	ldr	r6, [pc, #596]	@ (20004284 <d_print_comp_inner+0x1898>)
20004030:	f04f 0a00 	mov.w	sl, #0
20004034:	f8d0 1100 	ldr.w	r1, [r0, #256]	@ 0x100
20004038:	f04f 0901 	mov.w	r9, #1
2000403c:	f106 0b16 	add.w	fp, r6, #22
20004040:	e009      	b.n	20004056 <d_print_comp_inner+0x166a>
20004042:	4646      	mov	r6, r8
20004044:	1c59      	adds	r1, r3, #1
20004046:	45b3      	cmp	fp, r6
20004048:	f8c4 1100 	str.w	r1, [r4, #256]	@ 0x100
2000404c:	54e7      	strb	r7, [r4, r3]
2000404e:	f884 7104 	strb.w	r7, [r4, #260]	@ 0x104
20004052:	f43e ad56 	beq.w	20002b02 <d_print_comp_inner+0x116>
20004056:	29ff      	cmp	r1, #255	@ 0xff
20004058:	7877      	ldrb	r7, [r6, #1]
2000405a:	f106 0801 	add.w	r8, r6, #1
2000405e:	460b      	mov	r3, r1
20004060:	d1ef      	bne.n	20004042 <d_print_comp_inner+0x1656>
20004062:	4620      	mov	r0, r4
20004064:	f884 a0ff 	strb.w	sl, [r4, #255]	@ 0xff
20004068:	e9d4 3242 	ldrd	r3, r2, [r4, #264]	@ 0x108
2000406c:	4798      	blx	r3
2000406e:	f8d4 3128 	ldr.w	r3, [r4, #296]	@ 0x128
20004072:	45c3      	cmp	fp, r8
20004074:	7027      	strb	r7, [r4, #0]
20004076:	f103 0301 	add.w	r3, r3, #1
2000407a:	f884 7104 	strb.w	r7, [r4, #260]	@ 0x104
2000407e:	f8c4 9100 	str.w	r9, [r4, #256]	@ 0x100
20004082:	f8c4 3128 	str.w	r3, [r4, #296]	@ 0x128
20004086:	f43e ad3c 	beq.w	20002b02 <d_print_comp_inner+0x116>
2000408a:	f816 7f02 	ldrb.w	r7, [r6, #2]!
2000408e:	2301      	movs	r3, #1
20004090:	e7d8      	b.n	20004044 <d_print_comp_inner+0x1658>
20004092:	68d2      	ldr	r2, [r2, #12]
20004094:	a808      	add	r0, sp, #32
20004096:	497c      	ldr	r1, [pc, #496]	@ (20004288 <d_print_comp_inner+0x189c>)
20004098:	f007 fe0a 	bl	2000bcb0 <__sprintf_veneer>
2000409c:	a808      	add	r0, sp, #32
2000409e:	f007 fde7 	bl	2000bc70 <__strlen_veneer>
200040a2:	2800      	cmp	r0, #0
200040a4:	f43e ad2a 	beq.w	20002afc <d_print_comp_inner+0x110>
200040a8:	ae08      	add	r6, sp, #32
200040aa:	f8d4 1100 	ldr.w	r1, [r4, #256]	@ 0x100
200040ae:	f04f 0900 	mov.w	r9, #0
200040b2:	f04f 0801 	mov.w	r8, #1
200040b6:	eb06 0a00 	add.w	sl, r6, r0
200040ba:	e009      	b.n	200040d0 <d_print_comp_inner+0x16e4>
200040bc:	462e      	mov	r6, r5
200040be:	1c59      	adds	r1, r3, #1
200040c0:	45b2      	cmp	sl, r6
200040c2:	f8c4 1100 	str.w	r1, [r4, #256]	@ 0x100
200040c6:	54e7      	strb	r7, [r4, r3]
200040c8:	f884 7104 	strb.w	r7, [r4, #260]	@ 0x104
200040cc:	f43e ad16 	beq.w	20002afc <d_print_comp_inner+0x110>
200040d0:	4635      	mov	r5, r6
200040d2:	29ff      	cmp	r1, #255	@ 0xff
200040d4:	460b      	mov	r3, r1
200040d6:	f815 7b01 	ldrb.w	r7, [r5], #1
200040da:	d1ef      	bne.n	200040bc <d_print_comp_inner+0x16d0>
200040dc:	4620      	mov	r0, r4
200040de:	f884 90ff 	strb.w	r9, [r4, #255]	@ 0xff
200040e2:	3602      	adds	r6, #2
200040e4:	e9d4 3242 	ldrd	r3, r2, [r4, #264]	@ 0x108
200040e8:	4798      	blx	r3
200040ea:	f8d4 3128 	ldr.w	r3, [r4, #296]	@ 0x128
200040ee:	4555      	cmp	r5, sl
200040f0:	7027      	strb	r7, [r4, #0]
200040f2:	f103 0301 	add.w	r3, r3, #1
200040f6:	f884 7104 	strb.w	r7, [r4, #260]	@ 0x104
200040fa:	f8c4 8100 	str.w	r8, [r4, #256]	@ 0x100
200040fe:	f8c4 3128 	str.w	r3, [r4, #296]	@ 0x128
20004102:	f43e acfb 	beq.w	20002afc <d_print_comp_inner+0x110>
20004106:	782f      	ldrb	r7, [r5, #0]
20004108:	2301      	movs	r3, #1
2000410a:	e7d8      	b.n	200040be <d_print_comp_inner+0x16d2>
2000410c:	e9d2 5303 	ldrd	r5, r3, [r2, #12]
20004110:	2b00      	cmp	r3, #0
20004112:	f43e acf3 	beq.w	20002afc <d_print_comp_inner+0x110>
20004116:	442b      	add	r3, r5
20004118:	f8d0 1100 	ldr.w	r1, [r0, #256]	@ 0x100
2000411c:	3d01      	subs	r5, #1
2000411e:	f04f 0900 	mov.w	r9, #0
20004122:	f103 3aff 	add.w	sl, r3, #4294967295
20004126:	f04f 0801 	mov.w	r8, #1
2000412a:	e009      	b.n	20004140 <d_print_comp_inner+0x1754>
2000412c:	463d      	mov	r5, r7
2000412e:	1c59      	adds	r1, r3, #1
20004130:	45aa      	cmp	sl, r5
20004132:	f8c4 1100 	str.w	r1, [r4, #256]	@ 0x100
20004136:	54e6      	strb	r6, [r4, r3]
20004138:	f884 6104 	strb.w	r6, [r4, #260]	@ 0x104
2000413c:	f43e acde 	beq.w	20002afc <d_print_comp_inner+0x110>
20004140:	29ff      	cmp	r1, #255	@ 0xff
20004142:	786e      	ldrb	r6, [r5, #1]
20004144:	f105 0701 	add.w	r7, r5, #1
20004148:	460b      	mov	r3, r1
2000414a:	d1ef      	bne.n	2000412c <d_print_comp_inner+0x1740>
2000414c:	4620      	mov	r0, r4
2000414e:	f884 90ff 	strb.w	r9, [r4, #255]	@ 0xff
20004152:	e9d4 3242 	ldrd	r3, r2, [r4, #264]	@ 0x108
20004156:	4798      	blx	r3
20004158:	f8d4 3128 	ldr.w	r3, [r4, #296]	@ 0x128
2000415c:	45ba      	cmp	sl, r7
2000415e:	f8c4 8100 	str.w	r8, [r4, #256]	@ 0x100
20004162:	f103 0301 	add.w	r3, r3, #1
20004166:	7026      	strb	r6, [r4, #0]
20004168:	f884 6104 	strb.w	r6, [r4, #260]	@ 0x104
2000416c:	f8c4 3128 	str.w	r3, [r4, #296]	@ 0x128
20004170:	f43e acc4 	beq.w	20002afc <d_print_comp_inner+0x110>
20004174:	f815 6f02 	ldrb.w	r6, [r5, #2]!
20004178:	2301      	movs	r3, #1
2000417a:	e7d8      	b.n	2000412e <d_print_comp_inner+0x1742>
2000417c:	68d2      	ldr	r2, [r2, #12]
2000417e:	e9d2 5300 	ldrd	r5, r3, [r2]
20004182:	2b00      	cmp	r3, #0
20004184:	f43e acba 	beq.w	20002afc <d_print_comp_inner+0x110>
20004188:	442b      	add	r3, r5
2000418a:	f8d0 1100 	ldr.w	r1, [r0, #256]	@ 0x100
2000418e:	3d01      	subs	r5, #1
20004190:	f04f 0900 	mov.w	r9, #0
20004194:	f103 3aff 	add.w	sl, r3, #4294967295
20004198:	f04f 0801 	mov.w	r8, #1
2000419c:	e009      	b.n	200041b2 <d_print_comp_inner+0x17c6>
2000419e:	463d      	mov	r5, r7
200041a0:	1c59      	adds	r1, r3, #1
200041a2:	45aa      	cmp	sl, r5
200041a4:	f8c4 1100 	str.w	r1, [r4, #256]	@ 0x100
200041a8:	54e6      	strb	r6, [r4, r3]
200041aa:	f884 6104 	strb.w	r6, [r4, #260]	@ 0x104
200041ae:	f43e aca5 	beq.w	20002afc <d_print_comp_inner+0x110>
200041b2:	29ff      	cmp	r1, #255	@ 0xff
200041b4:	786e      	ldrb	r6, [r5, #1]
200041b6:	f105 0701 	add.w	r7, r5, #1
200041ba:	460b      	mov	r3, r1
200041bc:	d1ef      	bne.n	2000419e <d_print_comp_inner+0x17b2>
200041be:	4620      	mov	r0, r4
200041c0:	f884 90ff 	strb.w	r9, [r4, #255]	@ 0xff
200041c4:	e9d4 3242 	ldrd	r3, r2, [r4, #264]	@ 0x108
200041c8:	4798      	blx	r3
200041ca:	f8d4 3128 	ldr.w	r3, [r4, #296]	@ 0x128
200041ce:	45ba      	cmp	sl, r7
200041d0:	f8c4 8100 	str.w	r8, [r4, #256]	@ 0x100
200041d4:	f103 0301 	add.w	r3, r3, #1
200041d8:	7026      	strb	r6, [r4, #0]
200041da:	f884 6104 	strb.w	r6, [r4, #260]	@ 0x104
200041de:	f8c4 3128 	str.w	r3, [r4, #296]	@ 0x128
200041e2:	f43e ac8b 	beq.w	20002afc <d_print_comp_inner+0x110>
200041e6:	f815 6f02 	ldrb.w	r6, [r5, #2]!
200041ea:	2301      	movs	r3, #1
200041ec:	e7d8      	b.n	200041a0 <d_print_comp_inner+0x17b4>
200041ee:	4927      	ldr	r1, [pc, #156]	@ (2000428c <d_print_comp_inner+0x18a0>)
200041f0:	4620      	mov	r0, r4
200041f2:	f7fc f9a7 	bl	20000544 <d_append_string>
200041f6:	692a      	ldr	r2, [r5, #16]
200041f8:	4923      	ldr	r1, [pc, #140]	@ (20004288 <d_print_comp_inner+0x189c>)
200041fa:	a808      	add	r0, sp, #32
200041fc:	3201      	adds	r2, #1
200041fe:	f007 fd57 	bl	2000bcb0 <__sprintf_veneer>
20004202:	a808      	add	r0, sp, #32
20004204:	f007 fd34 	bl	2000bc70 <__strlen_veneer>
20004208:	4682      	mov	sl, r0
2000420a:	2800      	cmp	r0, #0
2000420c:	f000 8661 	beq.w	20004ed2 <d_print_comp_inner+0x24e6>
20004210:	ae08      	add	r6, sp, #32
20004212:	f8d4 1100 	ldr.w	r1, [r4, #256]	@ 0x100
20004216:	f04f 0900 	mov.w	r9, #0
2000421a:	f04f 0801 	mov.w	r8, #1
2000421e:	44b2      	add	sl, r6
20004220:	e00a      	b.n	20004238 <d_print_comp_inner+0x184c>
20004222:	463e      	mov	r6, r7
20004224:	1c59      	adds	r1, r3, #1
20004226:	45b2      	cmp	sl, r6
20004228:	f8c4 1100 	str.w	r1, [r4, #256]	@ 0x100
2000422c:	f804 b003 	strb.w	fp, [r4, r3]
20004230:	f884 b104 	strb.w	fp, [r4, #260]	@ 0x104
20004234:	f000 864d 	beq.w	20004ed2 <d_print_comp_inner+0x24e6>
20004238:	4637      	mov	r7, r6
2000423a:	29ff      	cmp	r1, #255	@ 0xff
2000423c:	460b      	mov	r3, r1
2000423e:	f817 bb01 	ldrb.w	fp, [r7], #1
20004242:	d1ee      	bne.n	20004222 <d_print_comp_inner+0x1836>
20004244:	4620      	mov	r0, r4
20004246:	f884 90ff 	strb.w	r9, [r4, #255]	@ 0xff
2000424a:	3602      	adds	r6, #2
2000424c:	e9d4 3242 	ldrd	r3, r2, [r4, #264]	@ 0x108
20004250:	4798      	blx	r3
20004252:	f8d4 3128 	ldr.w	r3, [r4, #296]	@ 0x128
20004256:	45ba      	cmp	sl, r7
20004258:	f884 b000 	strb.w	fp, [r4]
2000425c:	f103 0301 	add.w	r3, r3, #1
20004260:	f884 b104 	strb.w	fp, [r4, #260]	@ 0x104
20004264:	f8c4 8100 	str.w	r8, [r4, #256]	@ 0x100
20004268:	f8c4 3128 	str.w	r3, [r4, #296]	@ 0x128
2000426c:	f000 8631 	beq.w	20004ed2 <d_print_comp_inner+0x24e6>
20004270:	f897 b000 	ldrb.w	fp, [r7]
20004274:	2301      	movs	r3, #1
20004276:	e7d5      	b.n	20004224 <d_print_comp_inner+0x1838>
20004278:	2000cb8c 	.word	0x2000cb8c
2000427c:	2000cd1c 	.word	0x2000cd1c
20004280:	2000ce13 	.word	0x2000ce13
20004284:	2000cd1f 	.word	0x2000cd1f
20004288:	2000cb1c 	.word	0x2000cb1c
2000428c:	2000cb94 	.word	0x2000cb94
20004290:	4dcd      	ldr	r5, [pc, #820]	@ (200045c8 <d_print_comp_inner+0x1bdc>)
20004292:	2601      	movs	r6, #1
20004294:	f8d4 1100 	ldr.w	r1, [r4, #256]	@ 0x100
20004298:	9701      	str	r7, [sp, #4]
2000429a:	f105 0a02 	add.w	sl, r5, #2
2000429e:	4627      	mov	r7, r4
200042a0:	462c      	mov	r4, r5
200042a2:	e008      	b.n	200042b6 <d_print_comp_inner+0x18ca>
200042a4:	4644      	mov	r4, r8
200042a6:	1c59      	adds	r1, r3, #1
200042a8:	45a2      	cmp	sl, r4
200042aa:	f8c7 1100 	str.w	r1, [r7, #256]	@ 0x100
200042ae:	54fd      	strb	r5, [r7, r3]
200042b0:	f887 5104 	strb.w	r5, [r7, #260]	@ 0x104
200042b4:	d01d      	beq.n	200042f2 <d_print_comp_inner+0x1906>
200042b6:	46a0      	mov	r8, r4
200042b8:	29ff      	cmp	r1, #255	@ 0xff
200042ba:	460b      	mov	r3, r1
200042bc:	f818 5b01 	ldrb.w	r5, [r8], #1
200042c0:	d1f0      	bne.n	200042a4 <d_print_comp_inner+0x18b8>
200042c2:	4638      	mov	r0, r7
200042c4:	f887 90ff 	strb.w	r9, [r7, #255]	@ 0xff
200042c8:	3402      	adds	r4, #2
200042ca:	e9d7 3242 	ldrd	r3, r2, [r7, #264]	@ 0x108
200042ce:	4798      	blx	r3
200042d0:	f8d7 3128 	ldr.w	r3, [r7, #296]	@ 0x128
200042d4:	45c2      	cmp	sl, r8
200042d6:	703d      	strb	r5, [r7, #0]
200042d8:	f103 0301 	add.w	r3, r3, #1
200042dc:	f887 5104 	strb.w	r5, [r7, #260]	@ 0x104
200042e0:	f8c7 6100 	str.w	r6, [r7, #256]	@ 0x100
200042e4:	f8c7 3128 	str.w	r3, [r7, #296]	@ 0x128
200042e8:	d003      	beq.n	200042f2 <d_print_comp_inner+0x1906>
200042ea:	f898 5000 	ldrb.w	r5, [r8]
200042ee:	2301      	movs	r3, #1
200042f0:	e7d9      	b.n	200042a6 <d_print_comp_inner+0x18ba>
200042f2:	463c      	mov	r4, r7
200042f4:	9f01      	ldr	r7, [sp, #4]
200042f6:	f7ff b842 	b.w	2000337e <d_print_comp_inner+0x992>
200042fa:	2111      	movs	r1, #17
200042fc:	692a      	ldr	r2, [r5, #16]
200042fe:	4620      	mov	r0, r4
20004300:	f001 f8f2 	bl	200054e8 <d_print_comp>
20004304:	f8d4 1100 	ldr.w	r1, [r4, #256]	@ 0x100
20004308:	29ff      	cmp	r1, #255	@ 0xff
2000430a:	f000 8338 	beq.w	2000497e <d_print_comp_inner+0x1f92>
2000430e:	1c4a      	adds	r2, r1, #1
20004310:	235d      	movs	r3, #93	@ 0x5d
20004312:	f8c4 2100 	str.w	r2, [r4, #256]	@ 0x100
20004316:	5463      	strb	r3, [r4, r1]
20004318:	f884 3104 	strb.w	r3, [r4, #260]	@ 0x104
2000431c:	f7fe bbee 	b.w	20002afc <d_print_comp_inner+0x110>
20004320:	46a8      	mov	r8, r5
20004322:	9d01      	ldr	r5, [sp, #4]
20004324:	e5f9      	b.n	20003f1a <d_print_comp_inner+0x152e>
20004326:	f8d4 1100 	ldr.w	r1, [r4, #256]	@ 0x100
2000432a:	465d      	mov	r5, fp
2000432c:	29ff      	cmp	r1, #255	@ 0xff
2000432e:	d1ee      	bne.n	2000430e <d_print_comp_inner+0x1922>
20004330:	4620      	mov	r0, r4
20004332:	f884 50ff 	strb.w	r5, [r4, #255]	@ 0xff
20004336:	e9d4 3242 	ldrd	r3, r2, [r4, #264]	@ 0x108
2000433a:	4798      	blx	r3
2000433c:	f8d4 3128 	ldr.w	r3, [r4, #296]	@ 0x128
20004340:	2201      	movs	r2, #1
20004342:	4629      	mov	r1, r5
20004344:	4413      	add	r3, r2
20004346:	f8c4 3128 	str.w	r3, [r4, #296]	@ 0x128
2000434a:	e7e1      	b.n	20004310 <d_print_comp_inner+0x1924>
2000434c:	f8d4 3148 	ldr.w	r3, [r4, #328]	@ 0x148
20004350:	b133      	cbz	r3, 20004360 <d_print_comp_inner+0x1974>
20004352:	f8d4 1110 	ldr.w	r1, [r4, #272]	@ 0x110
20004356:	aa08      	add	r2, sp, #32
20004358:	e9cd 1308 	strd	r1, r3, [sp, #32]
2000435c:	f8c4 2110 	str.w	r2, [r4, #272]	@ 0x110
20004360:	68ea      	ldr	r2, [r5, #12]
20004362:	7813      	ldrb	r3, [r2, #0]
20004364:	2b04      	cmp	r3, #4
20004366:	f000 830f 	beq.w	20004988 <d_print_comp_inner+0x1f9c>
2000436a:	2111      	movs	r1, #17
2000436c:	4620      	mov	r0, r4
2000436e:	f001 f8bb 	bl	200054e8 <d_print_comp>
20004372:	f8d4 3148 	ldr.w	r3, [r4, #328]	@ 0x148
20004376:	2b00      	cmp	r3, #0
20004378:	f43e abc0 	beq.w	20002afc <d_print_comp_inner+0x110>
2000437c:	9b08      	ldr	r3, [sp, #32]
2000437e:	f8c4 3110 	str.w	r3, [r4, #272]	@ 0x110
20004382:	f7fe bbbb 	b.w	20002afc <d_print_comp_inner+0x110>
20004386:	68ea      	ldr	r2, [r5, #12]
20004388:	a808      	add	r0, sp, #32
2000438a:	4990      	ldr	r1, [pc, #576]	@ (200045cc <d_print_comp_inner+0x1be0>)
2000438c:	3201      	adds	r2, #1
2000438e:	f007 fc8f 	bl	2000bcb0 <__sprintf_veneer>
20004392:	a808      	add	r0, sp, #32
20004394:	f007 fc6c 	bl	2000bc70 <__strlen_veneer>
20004398:	b380      	cbz	r0, 200043fc <d_print_comp_inner+0x1a10>
2000439a:	ae08      	add	r6, sp, #32
2000439c:	f8d4 1100 	ldr.w	r1, [r4, #256]	@ 0x100
200043a0:	f04f 0900 	mov.w	r9, #0
200043a4:	f04f 0801 	mov.w	r8, #1
200043a8:	eb06 0a00 	add.w	sl, r6, r0
200043ac:	e008      	b.n	200043c0 <d_print_comp_inner+0x19d4>
200043ae:	462e      	mov	r6, r5
200043b0:	1c59      	adds	r1, r3, #1
200043b2:	45b2      	cmp	sl, r6
200043b4:	f8c4 1100 	str.w	r1, [r4, #256]	@ 0x100
200043b8:	54e7      	strb	r7, [r4, r3]
200043ba:	f884 7104 	strb.w	r7, [r4, #260]	@ 0x104
200043be:	d01f      	beq.n	20004400 <d_print_comp_inner+0x1a14>
200043c0:	4635      	mov	r5, r6
200043c2:	29ff      	cmp	r1, #255	@ 0xff
200043c4:	460b      	mov	r3, r1
200043c6:	f815 7b01 	ldrb.w	r7, [r5], #1
200043ca:	d1f0      	bne.n	200043ae <d_print_comp_inner+0x19c2>
200043cc:	4620      	mov	r0, r4
200043ce:	f884 90ff 	strb.w	r9, [r4, #255]	@ 0xff
200043d2:	3602      	adds	r6, #2
200043d4:	e9d4 3242 	ldrd	r3, r2, [r4, #264]	@ 0x108
200043d8:	4798      	blx	r3
200043da:	f8d4 3128 	ldr.w	r3, [r4, #296]	@ 0x128
200043de:	4555      	cmp	r5, sl
200043e0:	7027      	strb	r7, [r4, #0]
200043e2:	f103 0301 	add.w	r3, r3, #1
200043e6:	f884 7104 	strb.w	r7, [r4, #260]	@ 0x104
200043ea:	f8c4 8100 	str.w	r8, [r4, #256]	@ 0x100
200043ee:	f8c4 3128 	str.w	r3, [r4, #296]	@ 0x128
200043f2:	f000 82c6 	beq.w	20004982 <d_print_comp_inner+0x1f96>
200043f6:	782f      	ldrb	r7, [r5, #0]
200043f8:	2301      	movs	r3, #1
200043fa:	e7d9      	b.n	200043b0 <d_print_comp_inner+0x19c4>
200043fc:	f8d4 1100 	ldr.w	r1, [r4, #256]	@ 0x100
20004400:	29ff      	cmp	r1, #255	@ 0xff
20004402:	f47f acc0 	bne.w	20003d86 <d_print_comp_inner+0x139a>
20004406:	2500      	movs	r5, #0
20004408:	4620      	mov	r0, r4
2000440a:	e9d4 3242 	ldrd	r3, r2, [r4, #264]	@ 0x108
2000440e:	f884 50ff 	strb.w	r5, [r4, #255]	@ 0xff
20004412:	4798      	blx	r3
20004414:	f8d4 3128 	ldr.w	r3, [r4, #296]	@ 0x128
20004418:	2201      	movs	r2, #1
2000441a:	4629      	mov	r1, r5
2000441c:	4413      	add	r3, r2
2000441e:	f8c4 3128 	str.w	r3, [r4, #296]	@ 0x128
20004422:	e4b1      	b.n	20003d88 <d_print_comp_inner+0x139c>
20004424:	2111      	movs	r1, #17
20004426:	68ea      	ldr	r2, [r5, #12]
20004428:	4620      	mov	r0, r4
2000442a:	f001 f85d 	bl	200054e8 <d_print_comp>
2000442e:	4968      	ldr	r1, [pc, #416]	@ (200045d0 <d_print_comp_inner+0x1be4>)
20004430:	f7fe bf16 	b.w	20003260 <d_print_comp_inner+0x874>
20004434:	f9b5 2010 	ldrsh.w	r2, [r5, #16]
20004438:	a808      	add	r0, sp, #32
2000443a:	4964      	ldr	r1, [pc, #400]	@ (200045cc <d_print_comp_inner+0x1be0>)
2000443c:	f007 fc38 	bl	2000bcb0 <__sprintf_veneer>
20004440:	a808      	add	r0, sp, #32
20004442:	f007 fc15 	bl	2000bc70 <__strlen_veneer>
20004446:	b390      	cbz	r0, 200044ae <d_print_comp_inner+0x1ac2>
20004448:	af08      	add	r7, sp, #32
2000444a:	f8d4 1100 	ldr.w	r1, [r4, #256]	@ 0x100
2000444e:	f04f 0a00 	mov.w	sl, #0
20004452:	f04f 0901 	mov.w	r9, #1
20004456:	eb07 0b00 	add.w	fp, r7, r0
2000445a:	e009      	b.n	20004470 <d_print_comp_inner+0x1a84>
2000445c:	4637      	mov	r7, r6
2000445e:	1c59      	adds	r1, r3, #1
20004460:	45bb      	cmp	fp, r7
20004462:	f8c4 1100 	str.w	r1, [r4, #256]	@ 0x100
20004466:	f804 8003 	strb.w	r8, [r4, r3]
2000446a:	f884 8104 	strb.w	r8, [r4, #260]	@ 0x104
2000446e:	d01e      	beq.n	200044ae <d_print_comp_inner+0x1ac2>
20004470:	463e      	mov	r6, r7
20004472:	29ff      	cmp	r1, #255	@ 0xff
20004474:	460b      	mov	r3, r1
20004476:	f816 8b01 	ldrb.w	r8, [r6], #1
2000447a:	d1ef      	bne.n	2000445c <d_print_comp_inner+0x1a70>
2000447c:	4620      	mov	r0, r4
2000447e:	f884 a0ff 	strb.w	sl, [r4, #255]	@ 0xff
20004482:	3702      	adds	r7, #2
20004484:	e9d4 3242 	ldrd	r3, r2, [r4, #264]	@ 0x108
20004488:	4798      	blx	r3
2000448a:	f8d4 3128 	ldr.w	r3, [r4, #296]	@ 0x128
2000448e:	45b3      	cmp	fp, r6
20004490:	f884 8000 	strb.w	r8, [r4]
20004494:	f103 0301 	add.w	r3, r3, #1
20004498:	f884 8104 	strb.w	r8, [r4, #260]	@ 0x104
2000449c:	f8c4 9100 	str.w	r9, [r4, #256]	@ 0x100
200044a0:	f8c4 3128 	str.w	r3, [r4, #296]	@ 0x128
200044a4:	d003      	beq.n	200044ae <d_print_comp_inner+0x1ac2>
200044a6:	f896 8000 	ldrb.w	r8, [r6]
200044aa:	2301      	movs	r3, #1
200044ac:	e7d7      	b.n	2000445e <d_print_comp_inner+0x1a72>
200044ae:	7cad      	ldrb	r5, [r5, #18]
200044b0:	2d00      	cmp	r5, #0
200044b2:	f43e ab23 	beq.w	20002afc <d_print_comp_inner+0x110>
200044b6:	f8d4 1100 	ldr.w	r1, [r4, #256]	@ 0x100
200044ba:	29ff      	cmp	r1, #255	@ 0xff
200044bc:	f47f ad79 	bne.w	20003fb2 <d_print_comp_inner+0x15c6>
200044c0:	2600      	movs	r6, #0
200044c2:	f8d4 3108 	ldr.w	r3, [r4, #264]	@ 0x108
200044c6:	f8d4 210c 	ldr.w	r2, [r4, #268]	@ 0x10c
200044ca:	4620      	mov	r0, r4
200044cc:	f884 60ff 	strb.w	r6, [r4, #255]	@ 0xff
200044d0:	4798      	blx	r3
200044d2:	f8d4 2128 	ldr.w	r2, [r4, #296]	@ 0x128
200044d6:	2301      	movs	r3, #1
200044d8:	4631      	mov	r1, r6
200044da:	441a      	add	r2, r3
200044dc:	f8c4 2128 	str.w	r2, [r4, #296]	@ 0x128
200044e0:	e568      	b.n	20003fb4 <d_print_comp_inner+0x15c8>
200044e2:	f8df 80f0 	ldr.w	r8, [pc, #240]	@ 200045d4 <d_print_comp_inner+0x1be8>
200044e6:	2111      	movs	r1, #17
200044e8:	692a      	ldr	r2, [r5, #16]
200044ea:	4620      	mov	r0, r4
200044ec:	f000 fffc 	bl	200054e8 <d_print_comp>
200044f0:	f108 0b05 	add.w	fp, r8, #5
200044f4:	f8d4 1100 	ldr.w	r1, [r4, #256]	@ 0x100
200044f8:	f04f 0a00 	mov.w	sl, #0
200044fc:	f04f 0901 	mov.w	r9, #1
20004500:	e009      	b.n	20004516 <d_print_comp_inner+0x1b2a>
20004502:	46b0      	mov	r8, r6
20004504:	1c59      	adds	r1, r3, #1
20004506:	45c3      	cmp	fp, r8
20004508:	f8c4 1100 	str.w	r1, [r4, #256]	@ 0x100
2000450c:	54e7      	strb	r7, [r4, r3]
2000450e:	f884 7104 	strb.w	r7, [r4, #260]	@ 0x104
20004512:	f43e aaf6 	beq.w	20002b02 <d_print_comp_inner+0x116>
20004516:	4646      	mov	r6, r8
20004518:	29ff      	cmp	r1, #255	@ 0xff
2000451a:	460b      	mov	r3, r1
2000451c:	f816 7b01 	ldrb.w	r7, [r6], #1
20004520:	d1ef      	bne.n	20004502 <d_print_comp_inner+0x1b16>
20004522:	4620      	mov	r0, r4
20004524:	f884 a0ff 	strb.w	sl, [r4, #255]	@ 0xff
20004528:	f108 0802 	add.w	r8, r8, #2
2000452c:	e9d4 3242 	ldrd	r3, r2, [r4, #264]	@ 0x108
20004530:	4798      	blx	r3
20004532:	f8d4 3128 	ldr.w	r3, [r4, #296]	@ 0x128
20004536:	45b3      	cmp	fp, r6
20004538:	7027      	strb	r7, [r4, #0]
2000453a:	f103 0301 	add.w	r3, r3, #1
2000453e:	f884 7104 	strb.w	r7, [r4, #260]	@ 0x104
20004542:	f8c4 9100 	str.w	r9, [r4, #256]	@ 0x100
20004546:	f8c4 3128 	str.w	r3, [r4, #296]	@ 0x128
2000454a:	f43e aada 	beq.w	20002b02 <d_print_comp_inner+0x116>
2000454e:	7837      	ldrb	r7, [r6, #0]
20004550:	2301      	movs	r3, #1
20004552:	e7d7      	b.n	20004504 <d_print_comp_inner+0x1b18>
20004554:	f8df 8080 	ldr.w	r8, [pc, #128]	@ 200045d8 <d_print_comp_inner+0x1bec>
20004558:	2111      	movs	r1, #17
2000455a:	68ea      	ldr	r2, [r5, #12]
2000455c:	4620      	mov	r0, r4
2000455e:	f000 ffc3 	bl	200054e8 <d_print_comp>
20004562:	f108 0b04 	add.w	fp, r8, #4
20004566:	f8d4 1100 	ldr.w	r1, [r4, #256]	@ 0x100
2000456a:	f04f 0a00 	mov.w	sl, #0
2000456e:	f04f 0901 	mov.w	r9, #1
20004572:	e009      	b.n	20004588 <d_print_comp_inner+0x1b9c>
20004574:	46b0      	mov	r8, r6
20004576:	1c59      	adds	r1, r3, #1
20004578:	45c3      	cmp	fp, r8
2000457a:	f8c4 1100 	str.w	r1, [r4, #256]	@ 0x100
2000457e:	54e7      	strb	r7, [r4, r3]
20004580:	f884 7104 	strb.w	r7, [r4, #260]	@ 0x104
20004584:	f43e ab4c 	beq.w	20002c20 <d_print_comp_inner+0x234>
20004588:	4646      	mov	r6, r8
2000458a:	29ff      	cmp	r1, #255	@ 0xff
2000458c:	460b      	mov	r3, r1
2000458e:	f816 7b01 	ldrb.w	r7, [r6], #1
20004592:	d1ef      	bne.n	20004574 <d_print_comp_inner+0x1b88>
20004594:	4620      	mov	r0, r4
20004596:	f884 a0ff 	strb.w	sl, [r4, #255]	@ 0xff
2000459a:	f108 0802 	add.w	r8, r8, #2
2000459e:	e9d4 3242 	ldrd	r3, r2, [r4, #264]	@ 0x108
200045a2:	4798      	blx	r3
200045a4:	f8d4 3128 	ldr.w	r3, [r4, #296]	@ 0x128
200045a8:	45b3      	cmp	fp, r6
200045aa:	7027      	strb	r7, [r4, #0]
200045ac:	f103 0301 	add.w	r3, r3, #1
200045b0:	f884 7104 	strb.w	r7, [r4, #260]	@ 0x104
200045b4:	f8c4 9100 	str.w	r9, [r4, #256]	@ 0x100
200045b8:	f8c4 3128 	str.w	r3, [r4, #296]	@ 0x128
200045bc:	f43e ab30 	beq.w	20002c20 <d_print_comp_inner+0x234>
200045c0:	7837      	ldrb	r7, [r6, #0]
200045c2:	2301      	movs	r3, #1
200045c4:	e7d7      	b.n	20004576 <d_print_comp_inner+0x1b8a>
200045c6:	bf00      	nop
200045c8:	2000cb8c 	.word	0x2000cb8c
200045cc:	2000cb1c 	.word	0x2000cb1c
200045d0:	2000ce38 	.word	0x2000ce38
200045d4:	2000cd00 	.word	0x2000cd00
200045d8:	2000cc1c 	.word	0x2000cc1c
200045dc:	2111      	movs	r1, #17
200045de:	68ea      	ldr	r2, [r5, #12]
200045e0:	4620      	mov	r0, r4
200045e2:	f000 ff81 	bl	200054e8 <d_print_comp>
200045e6:	f8d4 1100 	ldr.w	r1, [r4, #256]	@ 0x100
200045ea:	29ff      	cmp	r1, #255	@ 0xff
200045ec:	f47f ab3a 	bne.w	20003c64 <d_print_comp_inner+0x1278>
200045f0:	2500      	movs	r5, #0
200045f2:	4620      	mov	r0, r4
200045f4:	e9d4 3242 	ldrd	r3, r2, [r4, #264]	@ 0x108
200045f8:	f884 50ff 	strb.w	r5, [r4, #255]	@ 0xff
200045fc:	4798      	blx	r3
200045fe:	f8d4 3128 	ldr.w	r3, [r4, #296]	@ 0x128
20004602:	2201      	movs	r2, #1
20004604:	4629      	mov	r1, r5
20004606:	4413      	add	r3, r2
20004608:	f8c4 3128 	str.w	r3, [r4, #296]	@ 0x128
2000460c:	f7ff bb2b 	b.w	20003c66 <d_print_comp_inner+0x127a>
20004610:	462a      	mov	r2, r5
20004612:	2111      	movs	r1, #17
20004614:	4620      	mov	r0, r4
20004616:	f000 ff95 	bl	20005544 <d_print_mod>
2000461a:	f7fe ba8f 	b.w	20002b3c <d_print_comp_inner+0x150>
2000461e:	687d      	ldr	r5, [r7, #4]
20004620:	4634      	mov	r4, r6
20004622:	9e01      	ldr	r6, [sp, #4]
20004624:	782b      	ldrb	r3, [r5, #0]
20004626:	3b61      	subs	r3, #97	@ 0x61
20004628:	2b19      	cmp	r3, #25
2000462a:	d804      	bhi.n	20004636 <d_print_comp_inner+0x1c4a>
2000462c:	2120      	movs	r1, #32
2000462e:	4620      	mov	r0, r4
20004630:	f7fb ff4c 	bl	200004cc <d_append_char>
20004634:	687d      	ldr	r5, [r7, #4]
20004636:	1e77      	subs	r7, r6, #1
20004638:	5deb      	ldrb	r3, [r5, r7]
2000463a:	2b20      	cmp	r3, #32
2000463c:	bf18      	it	ne
2000463e:	4637      	movne	r7, r6
20004640:	2f00      	cmp	r7, #0
20004642:	f43e aa5b 	beq.w	20002afc <d_print_comp_inner+0x110>
20004646:	3d01      	subs	r5, #1
20004648:	f8d4 1100 	ldr.w	r1, [r4, #256]	@ 0x100
2000464c:	f04f 0900 	mov.w	r9, #0
20004650:	f04f 0801 	mov.w	r8, #1
20004654:	442f      	add	r7, r5
20004656:	e009      	b.n	2000466c <d_print_comp_inner+0x1c80>
20004658:	4655      	mov	r5, sl
2000465a:	1c59      	adds	r1, r3, #1
2000465c:	42af      	cmp	r7, r5
2000465e:	f8c4 1100 	str.w	r1, [r4, #256]	@ 0x100
20004662:	54e6      	strb	r6, [r4, r3]
20004664:	f884 6104 	strb.w	r6, [r4, #260]	@ 0x104
20004668:	f43e aa48 	beq.w	20002afc <d_print_comp_inner+0x110>
2000466c:	29ff      	cmp	r1, #255	@ 0xff
2000466e:	786e      	ldrb	r6, [r5, #1]
20004670:	f105 0a01 	add.w	sl, r5, #1
20004674:	460b      	mov	r3, r1
20004676:	d1ef      	bne.n	20004658 <d_print_comp_inner+0x1c6c>
20004678:	4620      	mov	r0, r4
2000467a:	f884 90ff 	strb.w	r9, [r4, #255]	@ 0xff
2000467e:	e9d4 3242 	ldrd	r3, r2, [r4, #264]	@ 0x108
20004682:	4798      	blx	r3
20004684:	f8d4 3128 	ldr.w	r3, [r4, #296]	@ 0x128
20004688:	4557      	cmp	r7, sl
2000468a:	f8c4 8100 	str.w	r8, [r4, #256]	@ 0x100
2000468e:	f103 0301 	add.w	r3, r3, #1
20004692:	7026      	strb	r6, [r4, #0]
20004694:	f884 6104 	strb.w	r6, [r4, #260]	@ 0x104
20004698:	f8c4 3128 	str.w	r3, [r4, #296]	@ 0x128
2000469c:	f43e aa2e 	beq.w	20002afc <d_print_comp_inner+0x110>
200046a0:	f815 6f02 	ldrb.w	r6, [r5, #2]!
200046a4:	2301      	movs	r3, #1
200046a6:	e7d8      	b.n	2000465a <d_print_comp_inner+0x1c6e>
200046a8:	ab08      	add	r3, sp, #32
200046aa:	68c2      	ldr	r2, [r0, #12]
200046ac:	f8cd c020 	str.w	ip, [sp, #32]
200046b0:	f8c4 3114 	str.w	r3, [r4, #276]	@ 0x114
200046b4:	2300      	movs	r3, #0
200046b6:	910b      	str	r1, [sp, #44]	@ 0x2c
200046b8:	9509      	str	r5, [sp, #36]	@ 0x24
200046ba:	930a      	str	r3, [sp, #40]	@ 0x28
200046bc:	2a00      	cmp	r2, #0
200046be:	f47e aa35 	bne.w	20002b2c <d_print_comp_inner+0x140>
200046c2:	f7fe ba60 	b.w	20002b86 <d_print_comp_inner+0x19a>
200046c6:	2300      	movs	r3, #0
200046c8:	68ee      	ldr	r6, [r5, #12]
200046ca:	f8d4 9120 	ldr.w	r9, [r4, #288]	@ 0x120
200046ce:	9307      	str	r3, [sp, #28]
200046d0:	f8c4 3120 	str.w	r3, [r4, #288]	@ 0x120
200046d4:	f8d4 3110 	ldr.w	r3, [r4, #272]	@ 0x110
200046d8:	9306      	str	r3, [sp, #24]
200046da:	ab06      	add	r3, sp, #24
200046dc:	f8c4 3110 	str.w	r3, [r4, #272]	@ 0x110
200046e0:	b11e      	cbz	r6, 200046ea <d_print_comp_inner+0x1cfe>
200046e2:	7833      	ldrb	r3, [r6, #0]
200046e4:	2b57      	cmp	r3, #87	@ 0x57
200046e6:	f000 84c6 	beq.w	20005076 <d_print_comp_inner+0x268a>
200046ea:	aa08      	add	r2, sp, #32
200046ec:	2301      	movs	r3, #1
200046ee:	9201      	str	r2, [sp, #4]
200046f0:	29ff      	cmp	r1, #255	@ 0xff
200046f2:	f8c4 3120 	str.w	r3, [r4, #288]	@ 0x120
200046f6:	f000 83a2 	beq.w	20004e3e <d_print_comp_inner+0x2452>
200046fa:	1c4b      	adds	r3, r1, #1
200046fc:	f8c4 3100 	str.w	r3, [r4, #256]	@ 0x100
20004700:	2328      	movs	r3, #40	@ 0x28
20004702:	4632      	mov	r2, r6
20004704:	4620      	mov	r0, r4
20004706:	5463      	strb	r3, [r4, r1]
20004708:	2111      	movs	r1, #17
2000470a:	f884 3104 	strb.w	r3, [r4, #260]	@ 0x104
2000470e:	f04f 0a00 	mov.w	sl, #0
20004712:	f000 fee9 	bl	200054e8 <d_print_comp>
20004716:	f8df 8384 	ldr.w	r8, [pc, #900]	@ 20004a9c <d_print_comp_inner+0x20b0>
2000471a:	9b06      	ldr	r3, [sp, #24]
2000471c:	f8c4 9120 	str.w	r9, [r4, #288]	@ 0x120
20004720:	f108 0b02 	add.w	fp, r8, #2
20004724:	f8d4 1100 	ldr.w	r1, [r4, #256]	@ 0x100
20004728:	f04f 0901 	mov.w	r9, #1
2000472c:	f8c4 3110 	str.w	r3, [r4, #272]	@ 0x110
20004730:	e008      	b.n	20004744 <d_print_comp_inner+0x1d58>
20004732:	46b0      	mov	r8, r6
20004734:	1c59      	adds	r1, r3, #1
20004736:	45c3      	cmp	fp, r8
20004738:	f8c4 1100 	str.w	r1, [r4, #256]	@ 0x100
2000473c:	54e7      	strb	r7, [r4, r3]
2000473e:	f884 7104 	strb.w	r7, [r4, #260]	@ 0x104
20004742:	d01d      	beq.n	20004780 <d_print_comp_inner+0x1d94>
20004744:	4646      	mov	r6, r8
20004746:	29ff      	cmp	r1, #255	@ 0xff
20004748:	460b      	mov	r3, r1
2000474a:	f816 7b01 	ldrb.w	r7, [r6], #1
2000474e:	d1f0      	bne.n	20004732 <d_print_comp_inner+0x1d46>
20004750:	4620      	mov	r0, r4
20004752:	f884 a0ff 	strb.w	sl, [r4, #255]	@ 0xff
20004756:	f108 0802 	add.w	r8, r8, #2
2000475a:	e9d4 3242 	ldrd	r3, r2, [r4, #264]	@ 0x108
2000475e:	4798      	blx	r3
20004760:	f8d4 3128 	ldr.w	r3, [r4, #296]	@ 0x128
20004764:	45b3      	cmp	fp, r6
20004766:	7027      	strb	r7, [r4, #0]
20004768:	f103 0301 	add.w	r3, r3, #1
2000476c:	f884 7104 	strb.w	r7, [r4, #260]	@ 0x104
20004770:	f8c4 9100 	str.w	r9, [r4, #256]	@ 0x100
20004774:	f8c4 3128 	str.w	r3, [r4, #296]	@ 0x128
20004778:	d002      	beq.n	20004780 <d_print_comp_inner+0x1d94>
2000477a:	7837      	ldrb	r7, [r6, #0]
2000477c:	2301      	movs	r3, #1
2000477e:	e7d9      	b.n	20004734 <d_print_comp_inner+0x1d48>
20004780:	9f01      	ldr	r7, [sp, #4]
20004782:	692a      	ldr	r2, [r5, #16]
20004784:	49c3      	ldr	r1, [pc, #780]	@ (20004a94 <d_print_comp_inner+0x20a8>)
20004786:	4638      	mov	r0, r7
20004788:	3201      	adds	r2, #1
2000478a:	f007 fa91 	bl	2000bcb0 <__sprintf_veneer>
2000478e:	4638      	mov	r0, r7
20004790:	f007 fa6e 	bl	2000bc70 <__strlen_veneer>
20004794:	f8d4 1100 	ldr.w	r1, [r4, #256]	@ 0x100
20004798:	2800      	cmp	r0, #0
2000479a:	f43f ae31 	beq.w	20004400 <d_print_comp_inner+0x1a14>
2000479e:	f04f 0900 	mov.w	r9, #0
200047a2:	eb07 0a00 	add.w	sl, r7, r0
200047a6:	f04f 0801 	mov.w	r8, #1
200047aa:	e009      	b.n	200047c0 <d_print_comp_inner+0x1dd4>
200047ac:	462f      	mov	r7, r5
200047ae:	1c59      	adds	r1, r3, #1
200047b0:	45ba      	cmp	sl, r7
200047b2:	f8c4 1100 	str.w	r1, [r4, #256]	@ 0x100
200047b6:	54e6      	strb	r6, [r4, r3]
200047b8:	f884 6104 	strb.w	r6, [r4, #260]	@ 0x104
200047bc:	f43f ae20 	beq.w	20004400 <d_print_comp_inner+0x1a14>
200047c0:	463d      	mov	r5, r7
200047c2:	29ff      	cmp	r1, #255	@ 0xff
200047c4:	460b      	mov	r3, r1
200047c6:	f815 6b01 	ldrb.w	r6, [r5], #1
200047ca:	d1ef      	bne.n	200047ac <d_print_comp_inner+0x1dc0>
200047cc:	4620      	mov	r0, r4
200047ce:	f884 90ff 	strb.w	r9, [r4, #255]	@ 0xff
200047d2:	3702      	adds	r7, #2
200047d4:	e9d4 3242 	ldrd	r3, r2, [r4, #264]	@ 0x108
200047d8:	4798      	blx	r3
200047da:	f8d4 3128 	ldr.w	r3, [r4, #296]	@ 0x128
200047de:	45aa      	cmp	sl, r5
200047e0:	7026      	strb	r6, [r4, #0]
200047e2:	f103 0301 	add.w	r3, r3, #1
200047e6:	f884 6104 	strb.w	r6, [r4, #260]	@ 0x104
200047ea:	f8c4 8100 	str.w	r8, [r4, #256]	@ 0x100
200047ee:	f8c4 3128 	str.w	r3, [r4, #296]	@ 0x128
200047f2:	f000 80c6 	beq.w	20004982 <d_print_comp_inner+0x1f96>
200047f6:	782e      	ldrb	r6, [r5, #0]
200047f8:	2301      	movs	r3, #1
200047fa:	e7d8      	b.n	200047ae <d_print_comp_inner+0x1dc2>
200047fc:	f8d4 1100 	ldr.w	r1, [r4, #256]	@ 0x100
20004800:	29ff      	cmp	r1, #255	@ 0xff
20004802:	f101 0301 	add.w	r3, r1, #1
20004806:	f000 8425 	beq.w	20005054 <d_print_comp_inner+0x2668>
2000480a:	f8c4 3100 	str.w	r3, [r4, #256]	@ 0x100
2000480e:	4620      	mov	r0, r4
20004810:	f804 8001 	strb.w	r8, [r4, r1]
20004814:	2111      	movs	r1, #17
20004816:	f855 2c0c 	ldr.w	r2, [r5, #-12]
2000481a:	f884 8104 	strb.w	r8, [r4, #260]	@ 0x104
2000481e:	f000 fe91 	bl	20005544 <d_print_mod>
20004822:	f7fe bba5 	b.w	20002f70 <d_print_comp_inner+0x584>
20004826:	462a      	mov	r2, r5
20004828:	2111      	movs	r1, #17
2000482a:	4620      	mov	r0, r4
2000482c:	f001 ff60 	bl	200066f0 <d_print_subexpr>
20004830:	f7fe bd15 	b.w	2000325e <d_print_comp_inner+0x872>
20004834:	2a01      	cmp	r2, #1
20004836:	f63e ab77 	bhi.w	20002f28 <d_print_comp_inner+0x53c>
2000483a:	68ff      	ldr	r7, [r7, #12]
2000483c:	4672      	mov	r2, lr
2000483e:	2f00      	cmp	r7, #0
20004840:	f000 8615 	beq.w	2000546e <d_print_comp_inner+0x2a82>
20004844:	2e04      	cmp	r6, #4
20004846:	f103 0310 	add.w	r3, r3, #16
2000484a:	46b4      	mov	ip, r6
2000484c:	f47e ab57 	bne.w	20002efe <d_print_comp_inner+0x512>
20004850:	2301      	movs	r3, #1
20004852:	e9c4 e345 	strd	lr, r3, [r4, #276]	@ 0x114
20004856:	f7fe b951 	b.w	20002afc <d_print_comp_inner+0x110>
2000485a:	2e2f      	cmp	r6, #47	@ 0x2f
2000485c:	464f      	mov	r7, r9
2000485e:	e9d4 1c44 	ldrd	r1, ip, [r4, #272]	@ 0x110
20004862:	f47e aa11 	bne.w	20002c88 <d_print_comp_inner+0x29c>
20004866:	ab08      	add	r3, sp, #32
20004868:	68c2      	ldr	r2, [r0, #12]
2000486a:	4605      	mov	r5, r0
2000486c:	f8cd c020 	str.w	ip, [sp, #32]
20004870:	f8c4 3114 	str.w	r3, [r4, #276]	@ 0x114
20004874:	2300      	movs	r3, #0
20004876:	910b      	str	r1, [sp, #44]	@ 0x2c
20004878:	9009      	str	r0, [sp, #36]	@ 0x24
2000487a:	930a      	str	r3, [sp, #40]	@ 0x28
2000487c:	f7fe b956 	b.w	20002b2c <d_print_comp_inner+0x140>
20004880:	4985      	ldr	r1, [pc, #532]	@ (20004a98 <d_print_comp_inner+0x20ac>)
20004882:	f7fb fe5f 	bl	20000544 <d_append_string>
20004886:	462a      	mov	r2, r5
20004888:	4982      	ldr	r1, [pc, #520]	@ (20004a94 <d_print_comp_inner+0x20a8>)
2000488a:	a808      	add	r0, sp, #32
2000488c:	f007 fa10 	bl	2000bcb0 <__sprintf_veneer>
20004890:	a808      	add	r0, sp, #32
20004892:	f007 f9ed 	bl	2000bc70 <__strlen_veneer>
20004896:	b378      	cbz	r0, 200048f8 <d_print_comp_inner+0x1f0c>
20004898:	ae08      	add	r6, sp, #32
2000489a:	f8d4 1100 	ldr.w	r1, [r4, #256]	@ 0x100
2000489e:	f04f 0900 	mov.w	r9, #0
200048a2:	f04f 0801 	mov.w	r8, #1
200048a6:	eb06 0a00 	add.w	sl, r6, r0
200048aa:	e008      	b.n	200048be <d_print_comp_inner+0x1ed2>
200048ac:	462e      	mov	r6, r5
200048ae:	1c59      	adds	r1, r3, #1
200048b0:	45b2      	cmp	sl, r6
200048b2:	f8c4 1100 	str.w	r1, [r4, #256]	@ 0x100
200048b6:	54e7      	strb	r7, [r4, r3]
200048b8:	f884 7104 	strb.w	r7, [r4, #260]	@ 0x104
200048bc:	d01c      	beq.n	200048f8 <d_print_comp_inner+0x1f0c>
200048be:	4635      	mov	r5, r6
200048c0:	29ff      	cmp	r1, #255	@ 0xff
200048c2:	460b      	mov	r3, r1
200048c4:	f815 7b01 	ldrb.w	r7, [r5], #1
200048c8:	d1f0      	bne.n	200048ac <d_print_comp_inner+0x1ec0>
200048ca:	4620      	mov	r0, r4
200048cc:	f884 90ff 	strb.w	r9, [r4, #255]	@ 0xff
200048d0:	3602      	adds	r6, #2
200048d2:	e9d4 3242 	ldrd	r3, r2, [r4, #264]	@ 0x108
200048d6:	4798      	blx	r3
200048d8:	f8d4 3128 	ldr.w	r3, [r4, #296]	@ 0x128
200048dc:	45aa      	cmp	sl, r5
200048de:	7027      	strb	r7, [r4, #0]
200048e0:	f103 0301 	add.w	r3, r3, #1
200048e4:	f884 7104 	strb.w	r7, [r4, #260]	@ 0x104
200048e8:	f8c4 8100 	str.w	r8, [r4, #256]	@ 0x100
200048ec:	f8c4 3128 	str.w	r3, [r4, #296]	@ 0x128
200048f0:	d002      	beq.n	200048f8 <d_print_comp_inner+0x1f0c>
200048f2:	782f      	ldrb	r7, [r5, #0]
200048f4:	2301      	movs	r3, #1
200048f6:	e7da      	b.n	200048ae <d_print_comp_inner+0x1ec2>
200048f8:	217d      	movs	r1, #125	@ 0x7d
200048fa:	f7fe be58 	b.w	200035ae <d_print_comp_inner+0xbc2>
200048fe:	2b00      	cmp	r3, #0
20004900:	f000 80de 	beq.w	20004ac0 <d_print_comp_inner+0x20d4>
20004904:	f8df 8198 	ldr.w	r8, [pc, #408]	@ 20004aa0 <d_print_comp_inner+0x20b4>
20004908:	f04f 0a00 	mov.w	sl, #0
2000490c:	f8d0 1100 	ldr.w	r1, [r0, #256]	@ 0x100
20004910:	f04f 0901 	mov.w	r9, #1
20004914:	f108 0b05 	add.w	fp, r8, #5
20004918:	e009      	b.n	2000492e <d_print_comp_inner+0x1f42>
2000491a:	46b0      	mov	r8, r6
2000491c:	1c59      	adds	r1, r3, #1
2000491e:	45c3      	cmp	fp, r8
20004920:	f8c4 1100 	str.w	r1, [r4, #256]	@ 0x100
20004924:	54e7      	strb	r7, [r4, r3]
20004926:	f884 7104 	strb.w	r7, [r4, #260]	@ 0x104
2000492a:	f000 80ea 	beq.w	20004b02 <d_print_comp_inner+0x2116>
2000492e:	4646      	mov	r6, r8
20004930:	29ff      	cmp	r1, #255	@ 0xff
20004932:	460b      	mov	r3, r1
20004934:	f816 7b01 	ldrb.w	r7, [r6], #1
20004938:	d1ef      	bne.n	2000491a <d_print_comp_inner+0x1f2e>
2000493a:	4620      	mov	r0, r4
2000493c:	f884 a0ff 	strb.w	sl, [r4, #255]	@ 0xff
20004940:	f108 0802 	add.w	r8, r8, #2
20004944:	e9d4 3242 	ldrd	r3, r2, [r4, #264]	@ 0x108
20004948:	4798      	blx	r3
2000494a:	f8d4 3128 	ldr.w	r3, [r4, #296]	@ 0x128
2000494e:	45b3      	cmp	fp, r6
20004950:	7027      	strb	r7, [r4, #0]
20004952:	f103 0301 	add.w	r3, r3, #1
20004956:	f884 7104 	strb.w	r7, [r4, #260]	@ 0x104
2000495a:	f8c4 9100 	str.w	r9, [r4, #256]	@ 0x100
2000495e:	f8c4 3128 	str.w	r3, [r4, #296]	@ 0x128
20004962:	f000 80ce 	beq.w	20004b02 <d_print_comp_inner+0x2116>
20004966:	7837      	ldrb	r7, [r6, #0]
20004968:	2301      	movs	r3, #1
2000496a:	e7d7      	b.n	2000491c <d_print_comp_inner+0x1f30>
2000496c:	2700      	movs	r7, #0
2000496e:	f7fe b934 	b.w	20002bda <d_print_comp_inner+0x1ee>
20004972:	2e54      	cmp	r6, #84	@ 0x54
20004974:	f47e a954 	bne.w	20002c20 <d_print_comp_inner+0x234>
20004978:	263a      	movs	r6, #58	@ 0x3a
2000497a:	f7fe b962 	b.w	20002c42 <d_print_comp_inner+0x256>
2000497e:	2500      	movs	r5, #0
20004980:	e4d6      	b.n	20004330 <d_print_comp_inner+0x1944>
20004982:	2101      	movs	r1, #1
20004984:	f7ff b9ff 	b.w	20003d86 <d_print_comp_inner+0x139a>
20004988:	68d2      	ldr	r2, [r2, #12]
2000498a:	2111      	movs	r1, #17
2000498c:	4620      	mov	r0, r4
2000498e:	f000 fdab 	bl	200054e8 <d_print_comp>
20004992:	f8d4 3148 	ldr.w	r3, [r4, #328]	@ 0x148
20004996:	b113      	cbz	r3, 2000499e <d_print_comp_inner+0x1fb2>
20004998:	9b08      	ldr	r3, [sp, #32]
2000499a:	f8c4 3110 	str.w	r3, [r4, #272]	@ 0x110
2000499e:	f894 3104 	ldrb.w	r3, [r4, #260]	@ 0x104
200049a2:	2b3c      	cmp	r3, #60	@ 0x3c
200049a4:	f000 848d 	beq.w	200052c2 <d_print_comp_inner+0x28d6>
200049a8:	213c      	movs	r1, #60	@ 0x3c
200049aa:	4620      	mov	r0, r4
200049ac:	f7fb fd8e 	bl	200004cc <d_append_char>
200049b0:	68eb      	ldr	r3, [r5, #12]
200049b2:	2111      	movs	r1, #17
200049b4:	4620      	mov	r0, r4
200049b6:	691a      	ldr	r2, [r3, #16]
200049b8:	f000 fd96 	bl	200054e8 <d_print_comp>
200049bc:	f894 3104 	ldrb.w	r3, [r4, #260]	@ 0x104
200049c0:	2b3e      	cmp	r3, #62	@ 0x3e
200049c2:	f000 8478 	beq.w	200052b6 <d_print_comp_inner+0x28ca>
200049c6:	213e      	movs	r1, #62	@ 0x3e
200049c8:	4620      	mov	r0, r4
200049ca:	f7fb fd7f 	bl	200004cc <d_append_char>
200049ce:	f7fe b895 	b.w	20002afc <d_print_comp_inner+0x110>
200049d2:	68f3      	ldr	r3, [r6, #12]
200049d4:	681f      	ldr	r7, [r3, #0]
200049d6:	783b      	ldrb	r3, [r7, #0]
200049d8:	f1b3 0261 	subs.w	r2, r3, #97	@ 0x61
200049dc:	d103      	bne.n	200049e6 <d_print_comp_inner+0x1ffa>
200049de:	787a      	ldrb	r2, [r7, #1]
200049e0:	3a64      	subs	r2, #100	@ 0x64
200049e2:	bf08      	it	eq
200049e4:	78ba      	ldrbeq	r2, [r7, #2]
200049e6:	7829      	ldrb	r1, [r5, #0]
200049e8:	b912      	cbnz	r2, 200049f0 <d_print_comp_inner+0x2004>
200049ea:	2903      	cmp	r1, #3
200049ec:	f000 8483 	beq.w	200052f6 <d_print_comp_inner+0x290a>
200049f0:	2939      	cmp	r1, #57	@ 0x39
200049f2:	f000 84ac 	beq.w	2000534e <d_print_comp_inner+0x2962>
200049f6:	2b73      	cmp	r3, #115	@ 0x73
200049f8:	d11f      	bne.n	20004a3a <d_print_comp_inner+0x204e>
200049fa:	787a      	ldrb	r2, [r7, #1]
200049fc:	2a5a      	cmp	r2, #90	@ 0x5a
200049fe:	f040 8426 	bne.w	2000524e <d_print_comp_inner+0x2862>
20004a02:	f897 8002 	ldrb.w	r8, [r7, #2]
20004a06:	f1b8 0f00 	cmp.w	r8, #0
20004a0a:	f040 8420 	bne.w	2000524e <d_print_comp_inner+0x2862>
20004a0e:	4629      	mov	r1, r5
20004a10:	4620      	mov	r0, r4
20004a12:	f7fb fdd1 	bl	200005b8 <d_find_pack>
20004a16:	b930      	cbnz	r0, 20004a26 <d_print_comp_inner+0x203a>
20004a18:	e008      	b.n	20004a2c <d_print_comp_inner+0x2040>
20004a1a:	68c3      	ldr	r3, [r0, #12]
20004a1c:	b133      	cbz	r3, 20004a2c <d_print_comp_inner+0x2040>
20004a1e:	6900      	ldr	r0, [r0, #16]
20004a20:	f108 0801 	add.w	r8, r8, #1
20004a24:	b110      	cbz	r0, 20004a2c <d_print_comp_inner+0x2040>
20004a26:	7803      	ldrb	r3, [r0, #0]
20004a28:	2b2f      	cmp	r3, #47	@ 0x2f
20004a2a:	d0f6      	beq.n	20004a1a <d_print_comp_inner+0x202e>
20004a2c:	4641      	mov	r1, r8
20004a2e:	4620      	mov	r0, r4
20004a30:	b019      	add	sp, #100	@ 0x64
20004a32:	e8bd 4ff0 	ldmia.w	sp!, {r4, r5, r6, r7, r8, r9, sl, fp, lr}
20004a36:	f7fb be49 	b.w	200006cc <d_append_num>
20004a3a:	4632      	mov	r2, r6
20004a3c:	2111      	movs	r1, #17
20004a3e:	4620      	mov	r0, r4
20004a40:	f001 fc64 	bl	2000630c <d_print_expr_op>
20004a44:	783b      	ldrb	r3, [r7, #0]
20004a46:	2b67      	cmp	r3, #103	@ 0x67
20004a48:	d106      	bne.n	20004a58 <d_print_comp_inner+0x206c>
20004a4a:	787a      	ldrb	r2, [r7, #1]
20004a4c:	2a73      	cmp	r2, #115	@ 0x73
20004a4e:	d103      	bne.n	20004a58 <d_print_comp_inner+0x206c>
20004a50:	78ba      	ldrb	r2, [r7, #2]
20004a52:	2a00      	cmp	r2, #0
20004a54:	f43e a92f 	beq.w	20002cb6 <d_print_comp_inner+0x2ca>
20004a58:	2b73      	cmp	r3, #115	@ 0x73
20004a5a:	f47e a996 	bne.w	20002d8a <d_print_comp_inner+0x39e>
20004a5e:	787b      	ldrb	r3, [r7, #1]
20004a60:	2b74      	cmp	r3, #116	@ 0x74
20004a62:	f47e a992 	bne.w	20002d8a <d_print_comp_inner+0x39e>
20004a66:	78bb      	ldrb	r3, [r7, #2]
20004a68:	2b00      	cmp	r3, #0
20004a6a:	f47e a98e 	bne.w	20002d8a <d_print_comp_inner+0x39e>
20004a6e:	2128      	movs	r1, #40	@ 0x28
20004a70:	4620      	mov	r0, r4
20004a72:	f7fb fd2b 	bl	200004cc <d_append_char>
20004a76:	2111      	movs	r1, #17
20004a78:	462a      	mov	r2, r5
20004a7a:	4620      	mov	r0, r4
20004a7c:	f000 fd34 	bl	200054e8 <d_print_comp>
20004a80:	2129      	movs	r1, #41	@ 0x29
20004a82:	f7fe bd94 	b.w	200035ae <d_print_comp_inner+0xbc2>
20004a86:	462a      	mov	r2, r5
20004a88:	2111      	movs	r1, #17
20004a8a:	4620      	mov	r0, r4
20004a8c:	f000 fd5a 	bl	20005544 <d_print_mod>
20004a90:	f7fe b88f 	b.w	20002bb2 <d_print_comp_inner+0x1c6>
20004a94:	2000cb1c 	.word	0x2000cb1c
20004a98:	2000cdb0 	.word	0x2000cdb0
20004a9c:	2000ce00 	.word	0x2000ce00
20004aa0:	2000cba8 	.word	0x2000cba8
20004aa4:	2128      	movs	r1, #40	@ 0x28
20004aa6:	f7fb fd11 	bl	200004cc <d_append_char>
20004aaa:	4620      	mov	r0, r4
20004aac:	2111      	movs	r1, #17
20004aae:	68f2      	ldr	r2, [r6, #12]
20004ab0:	f000 fd1a 	bl	200054e8 <d_print_comp>
20004ab4:	2129      	movs	r1, #41	@ 0x29
20004ab6:	4620      	mov	r0, r4
20004ab8:	f7fb fd08 	bl	200004cc <d_append_char>
20004abc:	f7fe b965 	b.w	20002d8a <d_print_comp_inner+0x39e>
20004ac0:	4629      	mov	r1, r5
20004ac2:	f7fb fd25 	bl	20000510 <d_lookup_template_argument>
20004ac6:	4602      	mov	r2, r0
20004ac8:	2800      	cmp	r0, #0
20004aca:	f43e a814 	beq.w	20002af6 <d_print_comp_inner+0x10a>
20004ace:	7803      	ldrb	r3, [r0, #0]
20004ad0:	2b2f      	cmp	r3, #47	@ 0x2f
20004ad2:	d109      	bne.n	20004ae8 <d_print_comp_inner+0x20fc>
20004ad4:	f8d4 1124 	ldr.w	r1, [r4, #292]	@ 0x124
20004ad8:	2900      	cmp	r1, #0
20004ada:	db05      	blt.n	20004ae8 <d_print_comp_inner+0x20fc>
20004adc:	f7fb fc84 	bl	200003e8 <d_index_template_argument.part.0>
20004ae0:	4602      	mov	r2, r0
20004ae2:	2800      	cmp	r0, #0
20004ae4:	f43e a807 	beq.w	20002af6 <d_print_comp_inner+0x10a>
20004ae8:	f8d4 5110 	ldr.w	r5, [r4, #272]	@ 0x110
20004aec:	2111      	movs	r1, #17
20004aee:	4620      	mov	r0, r4
20004af0:	682b      	ldr	r3, [r5, #0]
20004af2:	f8c4 3110 	str.w	r3, [r4, #272]	@ 0x110
20004af6:	f000 fcf7 	bl	200054e8 <d_print_comp>
20004afa:	f8c4 5110 	str.w	r5, [r4, #272]	@ 0x110
20004afe:	f7fd bffd 	b.w	20002afc <d_print_comp_inner+0x110>
20004b02:	68ea      	ldr	r2, [r5, #12]
20004b04:	a808      	add	r0, sp, #32
20004b06:	49d6      	ldr	r1, [pc, #856]	@ (20004e60 <d_print_comp_inner+0x2474>)
20004b08:	3201      	adds	r2, #1
20004b0a:	f007 f8d1 	bl	2000bcb0 <__sprintf_veneer>
20004b0e:	a808      	add	r0, sp, #32
20004b10:	f007 f8ae 	bl	2000bc70 <__strlen_veneer>
20004b14:	4682      	mov	sl, r0
20004b16:	2800      	cmp	r0, #0
20004b18:	f43d aff0 	beq.w	20002afc <d_print_comp_inner+0x110>
20004b1c:	ae08      	add	r6, sp, #32
20004b1e:	f8d4 1100 	ldr.w	r1, [r4, #256]	@ 0x100
20004b22:	f04f 0900 	mov.w	r9, #0
20004b26:	f04f 0801 	mov.w	r8, #1
20004b2a:	44b2      	add	sl, r6
20004b2c:	e009      	b.n	20004b42 <d_print_comp_inner+0x2156>
20004b2e:	462e      	mov	r6, r5
20004b30:	1c59      	adds	r1, r3, #1
20004b32:	45b2      	cmp	sl, r6
20004b34:	f8c4 1100 	str.w	r1, [r4, #256]	@ 0x100
20004b38:	54e7      	strb	r7, [r4, r3]
20004b3a:	f884 7104 	strb.w	r7, [r4, #260]	@ 0x104
20004b3e:	f43d afdd 	beq.w	20002afc <d_print_comp_inner+0x110>
20004b42:	4635      	mov	r5, r6
20004b44:	29ff      	cmp	r1, #255	@ 0xff
20004b46:	460b      	mov	r3, r1
20004b48:	f815 7b01 	ldrb.w	r7, [r5], #1
20004b4c:	d1ef      	bne.n	20004b2e <d_print_comp_inner+0x2142>
20004b4e:	4620      	mov	r0, r4
20004b50:	f884 90ff 	strb.w	r9, [r4, #255]	@ 0xff
20004b54:	3602      	adds	r6, #2
20004b56:	e9d4 3242 	ldrd	r3, r2, [r4, #264]	@ 0x108
20004b5a:	4798      	blx	r3
20004b5c:	f8d4 3128 	ldr.w	r3, [r4, #296]	@ 0x128
20004b60:	45aa      	cmp	sl, r5
20004b62:	7027      	strb	r7, [r4, #0]
20004b64:	f103 0301 	add.w	r3, r3, #1
20004b68:	f884 7104 	strb.w	r7, [r4, #260]	@ 0x104
20004b6c:	f8c4 8100 	str.w	r8, [r4, #256]	@ 0x100
20004b70:	f8c4 3128 	str.w	r3, [r4, #296]	@ 0x128
20004b74:	f43d afc2 	beq.w	20002afc <d_print_comp_inner+0x110>
20004b78:	782f      	ldrb	r7, [r5, #0]
20004b7a:	2301      	movs	r3, #1
20004b7c:	e7d8      	b.n	20004b30 <d_print_comp_inner+0x2144>
20004b7e:	2b00      	cmp	r3, #0
20004b80:	f43d afb9 	beq.w	20002af6 <d_print_comp_inner+0x10a>
20004b84:	781a      	ldrb	r2, [r3, #0]
20004b86:	2a5b      	cmp	r2, #91	@ 0x5b
20004b88:	d104      	bne.n	20004b94 <d_print_comp_inner+0x21a8>
20004b8a:	68db      	ldr	r3, [r3, #12]
20004b8c:	2b00      	cmp	r3, #0
20004b8e:	f43d afb2 	beq.w	20002af6 <d_print_comp_inner+0x10a>
20004b92:	781a      	ldrb	r2, [r3, #0]
20004b94:	3a58      	subs	r2, #88	@ 0x58
20004b96:	2a02      	cmp	r2, #2
20004b98:	d93f      	bls.n	20004c1a <d_print_comp_inner+0x222e>
20004b9a:	2301      	movs	r3, #1
20004b9c:	f8c4 3118 	str.w	r3, [r4, #280]	@ 0x118
20004ba0:	4632      	mov	r2, r6
20004ba2:	49af      	ldr	r1, [pc, #700]	@ (20004e60 <d_print_comp_inner+0x2474>)
20004ba4:	a808      	add	r0, sp, #32
20004ba6:	f007 f883 	bl	2000bcb0 <__sprintf_veneer>
20004baa:	a808      	add	r0, sp, #32
20004bac:	f007 f860 	bl	2000bc70 <__strlen_veneer>
20004bb0:	2800      	cmp	r0, #0
20004bb2:	f43d afa3 	beq.w	20002afc <d_print_comp_inner+0x110>
20004bb6:	ae08      	add	r6, sp, #32
20004bb8:	f8d4 1100 	ldr.w	r1, [r4, #256]	@ 0x100
20004bbc:	f04f 0900 	mov.w	r9, #0
20004bc0:	f04f 0801 	mov.w	r8, #1
20004bc4:	eb06 0a00 	add.w	sl, r6, r0
20004bc8:	e009      	b.n	20004bde <d_print_comp_inner+0x21f2>
20004bca:	462e      	mov	r6, r5
20004bcc:	1c59      	adds	r1, r3, #1
20004bce:	45b2      	cmp	sl, r6
20004bd0:	f8c4 1100 	str.w	r1, [r4, #256]	@ 0x100
20004bd4:	54e7      	strb	r7, [r4, r3]
20004bd6:	f884 7104 	strb.w	r7, [r4, #260]	@ 0x104
20004bda:	f43d af8f 	beq.w	20002afc <d_print_comp_inner+0x110>
20004bde:	4635      	mov	r5, r6
20004be0:	29ff      	cmp	r1, #255	@ 0xff
20004be2:	460b      	mov	r3, r1
20004be4:	f815 7b01 	ldrb.w	r7, [r5], #1
20004be8:	d1ef      	bne.n	20004bca <d_print_comp_inner+0x21de>
20004bea:	4620      	mov	r0, r4
20004bec:	f884 90ff 	strb.w	r9, [r4, #255]	@ 0xff
20004bf0:	3602      	adds	r6, #2
20004bf2:	e9d4 3242 	ldrd	r3, r2, [r4, #264]	@ 0x108
20004bf6:	4798      	blx	r3
20004bf8:	f8d4 3128 	ldr.w	r3, [r4, #296]	@ 0x128
20004bfc:	45aa      	cmp	sl, r5
20004bfe:	7027      	strb	r7, [r4, #0]
20004c00:	f103 0301 	add.w	r3, r3, #1
20004c04:	f884 7104 	strb.w	r7, [r4, #260]	@ 0x104
20004c08:	f8c4 8100 	str.w	r8, [r4, #256]	@ 0x100
20004c0c:	f8c4 3128 	str.w	r3, [r4, #296]	@ 0x128
20004c10:	f43d af74 	beq.w	20002afc <d_print_comp_inner+0x110>
20004c14:	782f      	ldrb	r7, [r5, #0]
20004c16:	2301      	movs	r3, #1
20004c18:	e7d8      	b.n	20004bcc <d_print_comp_inner+0x21e0>
20004c1a:	4b92      	ldr	r3, [pc, #584]	@ (20004e64 <d_print_comp_inner+0x2478>)
20004c1c:	eb03 0382 	add.w	r3, r3, r2, lsl #2
20004c20:	f8d3 5824 	ldr.w	r5, [r3, #2084]	@ 0x824
20004c24:	4628      	mov	r0, r5
20004c26:	f007 f823 	bl	2000bc70 <__strlen_veneer>
20004c2a:	2800      	cmp	r0, #0
20004c2c:	d0b8      	beq.n	20004ba0 <d_print_comp_inner+0x21b4>
20004c2e:	3d01      	subs	r5, #1
20004c30:	f8d4 1100 	ldr.w	r1, [r4, #256]	@ 0x100
20004c34:	f04f 0a00 	mov.w	sl, #0
20004c38:	f04f 0901 	mov.w	r9, #1
20004c3c:	182f      	adds	r7, r5, r0
20004c3e:	e009      	b.n	20004c54 <d_print_comp_inner+0x2268>
20004c40:	465d      	mov	r5, fp
20004c42:	1c59      	adds	r1, r3, #1
20004c44:	42af      	cmp	r7, r5
20004c46:	f8c4 1100 	str.w	r1, [r4, #256]	@ 0x100
20004c4a:	f804 8003 	strb.w	r8, [r4, r3]
20004c4e:	f884 8104 	strb.w	r8, [r4, #260]	@ 0x104
20004c52:	d0a5      	beq.n	20004ba0 <d_print_comp_inner+0x21b4>
20004c54:	29ff      	cmp	r1, #255	@ 0xff
20004c56:	f895 8001 	ldrb.w	r8, [r5, #1]
20004c5a:	f105 0b01 	add.w	fp, r5, #1
20004c5e:	460b      	mov	r3, r1
20004c60:	d1ee      	bne.n	20004c40 <d_print_comp_inner+0x2254>
20004c62:	4620      	mov	r0, r4
20004c64:	f884 a0ff 	strb.w	sl, [r4, #255]	@ 0xff
20004c68:	e9d4 3242 	ldrd	r3, r2, [r4, #264]	@ 0x108
20004c6c:	4798      	blx	r3
20004c6e:	f8d4 3128 	ldr.w	r3, [r4, #296]	@ 0x128
20004c72:	455f      	cmp	r7, fp
20004c74:	f8c4 9100 	str.w	r9, [r4, #256]	@ 0x100
20004c78:	f103 0301 	add.w	r3, r3, #1
20004c7c:	f884 8000 	strb.w	r8, [r4]
20004c80:	f884 8104 	strb.w	r8, [r4, #260]	@ 0x104
20004c84:	f8c4 3128 	str.w	r3, [r4, #296]	@ 0x128
20004c88:	d08a      	beq.n	20004ba0 <d_print_comp_inner+0x21b4>
20004c8a:	f815 8f02 	ldrb.w	r8, [r5, #2]!
20004c8e:	2301      	movs	r3, #1
20004c90:	e7d7      	b.n	20004c42 <d_print_comp_inner+0x2256>
20004c92:	2f07      	cmp	r7, #7
20004c94:	f47d afa1 	bne.w	20002bda <d_print_comp_inner+0x1ee>
20004c98:	692b      	ldr	r3, [r5, #16]
20004c9a:	7819      	ldrb	r1, [r3, #0]
20004c9c:	2900      	cmp	r1, #0
20004c9e:	f47d af9c 	bne.w	20002bda <d_print_comp_inner+0x1ee>
20004ca2:	6919      	ldr	r1, [r3, #16]
20004ca4:	2901      	cmp	r1, #1
20004ca6:	f47d af98 	bne.w	20002bda <d_print_comp_inner+0x1ee>
20004caa:	2e3d      	cmp	r6, #61	@ 0x3d
20004cac:	f47d af95 	bne.w	20002bda <d_print_comp_inner+0x1ee>
20004cb0:	68db      	ldr	r3, [r3, #12]
20004cb2:	781b      	ldrb	r3, [r3, #0]
20004cb4:	2b30      	cmp	r3, #48	@ 0x30
20004cb6:	f000 8407 	beq.w	200054c8 <d_print_comp_inner+0x2adc>
20004cba:	2b31      	cmp	r3, #49	@ 0x31
20004cbc:	f47d af8d 	bne.w	20002bda <d_print_comp_inner+0x1ee>
20004cc0:	4969      	ldr	r1, [pc, #420]	@ (20004e68 <d_print_comp_inner+0x247c>)
20004cc2:	f7fe bacd 	b.w	20003260 <d_print_comp_inner+0x874>
20004cc6:	2600      	movs	r6, #0
20004cc8:	4620      	mov	r0, r4
20004cca:	5466      	strb	r6, [r4, r1]
20004ccc:	e9d4 3242 	ldrd	r3, r2, [r4, #264]	@ 0x108
20004cd0:	4798      	blx	r3
20004cd2:	f8d4 3128 	ldr.w	r3, [r4, #296]	@ 0x128
20004cd6:	f8c4 6100 	str.w	r6, [r4, #256]	@ 0x100
20004cda:	3301      	adds	r3, #1
20004cdc:	f8c4 3128 	str.w	r3, [r4, #296]	@ 0x128
20004ce0:	f7fd bff9 	b.w	20002cd6 <d_print_comp_inner+0x2ea>
20004ce4:	2600      	movs	r6, #0
20004ce6:	f8d0 3108 	ldr.w	r3, [r0, #264]	@ 0x108
20004cea:	f8d0 210c 	ldr.w	r2, [r0, #268]	@ 0x10c
20004cee:	f880 60ff 	strb.w	r6, [r0, #255]	@ 0xff
20004cf2:	4798      	blx	r3
20004cf4:	f8d4 3128 	ldr.w	r3, [r4, #296]	@ 0x128
20004cf8:	2201      	movs	r2, #1
20004cfa:	4631      	mov	r1, r6
20004cfc:	4413      	add	r3, r2
20004cfe:	f8c4 3128 	str.w	r3, [r4, #296]	@ 0x128
20004d02:	f7fe bb2d 	b.w	20003360 <d_print_comp_inner+0x974>
20004d06:	2600      	movs	r6, #0
20004d08:	f8d4 3108 	ldr.w	r3, [r4, #264]	@ 0x108
20004d0c:	f8d4 210c 	ldr.w	r2, [r4, #268]	@ 0x10c
20004d10:	4620      	mov	r0, r4
20004d12:	f884 60ff 	strb.w	r6, [r4, #255]	@ 0xff
20004d16:	4798      	blx	r3
20004d18:	f8d4 3128 	ldr.w	r3, [r4, #296]	@ 0x128
20004d1c:	2201      	movs	r2, #1
20004d1e:	4631      	mov	r1, r6
20004d20:	4413      	add	r3, r2
20004d22:	f8c4 3128 	str.w	r3, [r4, #296]	@ 0x128
20004d26:	f7ff b81e 	b.w	20003d66 <d_print_comp_inner+0x137a>
20004d2a:	f8d8 8010 	ldr.w	r8, [r8, #16]
20004d2e:	f898 3000 	ldrb.w	r3, [r8]
20004d32:	2b48      	cmp	r3, #72	@ 0x48
20004d34:	f000 82b7 	beq.w	200052a6 <d_print_comp_inner+0x28ba>
20004d38:	9b01      	ldr	r3, [sp, #4]
20004d3a:	468a      	mov	sl, r1
20004d3c:	eb03 1c0c 	add.w	ip, r3, ip, lsl #4
20004d40:	4667      	mov	r7, ip
20004d42:	f898 3000 	ldrb.w	r3, [r8]
20004d46:	2b4e      	cmp	r3, #78	@ 0x4e
20004d48:	f1a3 011c 	sub.w	r1, r3, #28
20004d4c:	f1a3 0250 	sub.w	r2, r3, #80	@ 0x50
20004d50:	d007      	beq.n	20004d62 <d_print_comp_inner+0x2376>
20004d52:	d804      	bhi.n	20004d5e <d_print_comp_inner+0x2372>
20004d54:	2904      	cmp	r1, #4
20004d56:	d904      	bls.n	20004d62 <d_print_comp_inner+0x2376>
20004d58:	4651      	mov	r1, sl
20004d5a:	f7fe b8ec 	b.w	20002f36 <d_print_comp_inner+0x54a>
20004d5e:	2a01      	cmp	r2, #1
20004d60:	d8fa      	bhi.n	20004d58 <d_print_comp_inner+0x236c>
20004d62:	2e04      	cmp	r6, #4
20004d64:	46be      	mov	lr, r7
20004d66:	f106 0601 	add.w	r6, r6, #1
20004d6a:	f43d aec4 	beq.w	20002af6 <d_print_comp_inner+0x10a>
20004d6e:	f107 0c10 	add.w	ip, r7, #16
20004d72:	f04f 0b00 	mov.w	fp, #0
20004d76:	e897 000f 	ldmia.w	r7, {r0, r1, r2, r3}
20004d7a:	e88c 000f 	stmia.w	ip, {r0, r1, r2, r3}
20004d7e:	613f      	str	r7, [r7, #16]
20004d80:	4667      	mov	r7, ip
20004d82:	f8ce b008 	str.w	fp, [lr, #8]
20004d86:	f8ce 8004 	str.w	r8, [lr, #4]
20004d8a:	f8d8 800c 	ldr.w	r8, [r8, #12]
20004d8e:	f8ce a00c 	str.w	sl, [lr, #12]
20004d92:	f8c4 c114 	str.w	ip, [r4, #276]	@ 0x114
20004d96:	f1b8 0f00 	cmp.w	r8, #0
20004d9a:	d1d2      	bne.n	20004d42 <d_print_comp_inner+0x2356>
20004d9c:	f7fd beab 	b.w	20002af6 <d_print_comp_inner+0x10a>
20004da0:	2600      	movs	r6, #0
20004da2:	f8d4 3108 	ldr.w	r3, [r4, #264]	@ 0x108
20004da6:	f8d4 210c 	ldr.w	r2, [r4, #268]	@ 0x10c
20004daa:	4620      	mov	r0, r4
20004dac:	f884 60ff 	strb.w	r6, [r4, #255]	@ 0xff
20004db0:	4798      	blx	r3
20004db2:	f8d4 3128 	ldr.w	r3, [r4, #296]	@ 0x128
20004db6:	2201      	movs	r2, #1
20004db8:	4631      	mov	r1, r6
20004dba:	4413      	add	r3, r2
20004dbc:	f8c4 3128 	str.w	r3, [r4, #296]	@ 0x128
20004dc0:	f7fe ba3f 	b.w	20003242 <d_print_comp_inner+0x856>
20004dc4:	2600      	movs	r6, #0
20004dc6:	f8d0 3108 	ldr.w	r3, [r0, #264]	@ 0x108
20004dca:	f8d0 210c 	ldr.w	r2, [r0, #268]	@ 0x10c
20004dce:	f880 60ff 	strb.w	r6, [r0, #255]	@ 0xff
20004dd2:	4798      	blx	r3
20004dd4:	f8d4 3128 	ldr.w	r3, [r4, #296]	@ 0x128
20004dd8:	2201      	movs	r2, #1
20004dda:	4631      	mov	r1, r6
20004ddc:	4413      	add	r3, r2
20004dde:	f8c4 3128 	str.w	r3, [r4, #296]	@ 0x128
20004de2:	f7fe b9ae 	b.w	20003142 <d_print_comp_inner+0x756>
20004de6:	2500      	movs	r5, #0
20004de8:	4620      	mov	r0, r4
20004dea:	e9d4 3242 	ldrd	r3, r2, [r4, #264]	@ 0x108
20004dee:	f884 50ff 	strb.w	r5, [r4, #255]	@ 0xff
20004df2:	4798      	blx	r3
20004df4:	f8d4 3128 	ldr.w	r3, [r4, #296]	@ 0x128
20004df8:	4629      	mov	r1, r5
20004dfa:	3301      	adds	r3, #1
20004dfc:	f8c4 3128 	str.w	r3, [r4, #296]	@ 0x128
20004e00:	2301      	movs	r3, #1
20004e02:	f7fe bee2 	b.w	20003bca <d_print_comp_inner+0x11de>
20004e06:	2120      	movs	r1, #32
20004e08:	4620      	mov	r0, r4
20004e0a:	f7fb fb5f 	bl	200004cc <d_append_char>
20004e0e:	f7fe bed6 	b.w	20003bbe <d_print_comp_inner+0x11d2>
20004e12:	2600      	movs	r6, #0
20004e14:	4620      	mov	r0, r4
20004e16:	e9d4 3242 	ldrd	r3, r2, [r4, #264]	@ 0x108
20004e1a:	f884 60ff 	strb.w	r6, [r4, #255]	@ 0xff
20004e1e:	4798      	blx	r3
20004e20:	f8d4 3128 	ldr.w	r3, [r4, #296]	@ 0x128
20004e24:	4631      	mov	r1, r6
20004e26:	3301      	adds	r3, #1
20004e28:	f8c4 3128 	str.w	r3, [r4, #296]	@ 0x128
20004e2c:	2301      	movs	r3, #1
20004e2e:	f7fe beb6 	b.w	20003b9e <d_print_comp_inner+0x11b2>
20004e32:	2120      	movs	r1, #32
20004e34:	4620      	mov	r0, r4
20004e36:	f7fb fb49 	bl	200004cc <d_append_char>
20004e3a:	f7fe beaa 	b.w	20003b92 <d_print_comp_inner+0x11a6>
20004e3e:	f04f 0800 	mov.w	r8, #0
20004e42:	4620      	mov	r0, r4
20004e44:	e9d4 3242 	ldrd	r3, r2, [r4, #264]	@ 0x108
20004e48:	f884 80ff 	strb.w	r8, [r4, #255]	@ 0xff
20004e4c:	4798      	blx	r3
20004e4e:	f8d4 3128 	ldr.w	r3, [r4, #296]	@ 0x128
20004e52:	4641      	mov	r1, r8
20004e54:	3301      	adds	r3, #1
20004e56:	f8c4 3128 	str.w	r3, [r4, #296]	@ 0x128
20004e5a:	2301      	movs	r3, #1
20004e5c:	e44e      	b.n	200046fc <d_print_comp_inner+0x1d10>
20004e5e:	bf00      	nop
20004e60:	2000cb1c 	.word	0x2000cb1c
20004e64:	2000c1b4 	.word	0x2000c1b4
20004e68:	2000cd80 	.word	0x2000cd80
20004e6c:	2600      	movs	r6, #0
20004e6e:	f8d4 3108 	ldr.w	r3, [r4, #264]	@ 0x108
20004e72:	f8d4 210c 	ldr.w	r2, [r4, #268]	@ 0x10c
20004e76:	4620      	mov	r0, r4
20004e78:	f884 60ff 	strb.w	r6, [r4, #255]	@ 0xff
20004e7c:	4798      	blx	r3
20004e7e:	f8d4 3128 	ldr.w	r3, [r4, #296]	@ 0x128
20004e82:	2201      	movs	r2, #1
20004e84:	4631      	mov	r1, r6
20004e86:	4413      	add	r3, r2
20004e88:	f8c4 3128 	str.w	r3, [r4, #296]	@ 0x128
20004e8c:	f7fe beda 	b.w	20003c44 <d_print_comp_inner+0x1258>
20004e90:	2500      	movs	r5, #0
20004e92:	4620      	mov	r0, r4
20004e94:	e9d4 3242 	ldrd	r3, r2, [r4, #264]	@ 0x108
20004e98:	f884 50ff 	strb.w	r5, [r4, #255]	@ 0xff
20004e9c:	4798      	blx	r3
20004e9e:	f8d4 3128 	ldr.w	r3, [r4, #296]	@ 0x128
20004ea2:	2201      	movs	r2, #1
20004ea4:	4629      	mov	r1, r5
20004ea6:	4413      	add	r3, r2
20004ea8:	f8c4 3128 	str.w	r3, [r4, #296]	@ 0x128
20004eac:	f7fe ba78 	b.w	200033a0 <d_print_comp_inner+0x9b4>
20004eb0:	2600      	movs	r6, #0
20004eb2:	f8d0 3108 	ldr.w	r3, [r0, #264]	@ 0x108
20004eb6:	f8d0 210c 	ldr.w	r2, [r0, #268]	@ 0x10c
20004eba:	f880 60ff 	strb.w	r6, [r0, #255]	@ 0xff
20004ebe:	4798      	blx	r3
20004ec0:	f8d4 3128 	ldr.w	r3, [r4, #296]	@ 0x128
20004ec4:	2201      	movs	r2, #1
20004ec6:	4631      	mov	r1, r6
20004ec8:	4413      	add	r3, r2
20004eca:	f8c4 3128 	str.w	r3, [r4, #296]	@ 0x128
20004ece:	f7fe bb7a 	b.w	200035c6 <d_print_comp_inner+0xbda>
20004ed2:	49ba      	ldr	r1, [pc, #744]	@ (200051bc <d_print_comp_inner+0x27d0>)
20004ed4:	4620      	mov	r0, r4
20004ed6:	f7fb fb35 	bl	20000544 <d_append_string>
20004eda:	68ed      	ldr	r5, [r5, #12]
20004edc:	462a      	mov	r2, r5
20004ede:	f7fd be11 	b.w	20002b04 <d_print_comp_inner+0x118>
20004ee2:	2600      	movs	r6, #0
20004ee4:	4620      	mov	r0, r4
20004ee6:	e9d4 3242 	ldrd	r3, r2, [r4, #264]	@ 0x108
20004eea:	f884 60ff 	strb.w	r6, [r4, #255]	@ 0xff
20004eee:	4798      	blx	r3
20004ef0:	f8d4 3128 	ldr.w	r3, [r4, #296]	@ 0x128
20004ef4:	4631      	mov	r1, r6
20004ef6:	3301      	adds	r3, #1
20004ef8:	f8c4 3128 	str.w	r3, [r4, #296]	@ 0x128
20004efc:	2301      	movs	r3, #1
20004efe:	f7fd be82 	b.w	20002c06 <d_print_comp_inner+0x21a>
20004f02:	2600      	movs	r6, #0
20004f04:	4620      	mov	r0, r4
20004f06:	e9d4 3242 	ldrd	r3, r2, [r4, #264]	@ 0x108
20004f0a:	f884 60ff 	strb.w	r6, [r4, #255]	@ 0xff
20004f0e:	4798      	blx	r3
20004f10:	f8d4 3128 	ldr.w	r3, [r4, #296]	@ 0x128
20004f14:	4631      	mov	r1, r6
20004f16:	68ea      	ldr	r2, [r5, #12]
20004f18:	3301      	adds	r3, #1
20004f1a:	f8c4 3128 	str.w	r3, [r4, #296]	@ 0x128
20004f1e:	2301      	movs	r3, #1
20004f20:	f7fd be61 	b.w	20002be6 <d_print_comp_inner+0x1fa>
20004f24:	f8d4 3110 	ldr.w	r3, [r4, #272]	@ 0x110
20004f28:	68ee      	ldr	r6, [r5, #12]
20004f2a:	9306      	str	r3, [sp, #24]
20004f2c:	ab06      	add	r3, sp, #24
20004f2e:	f8d4 9120 	ldr.w	r9, [r4, #288]	@ 0x120
20004f32:	f8cd 801c 	str.w	r8, [sp, #28]
20004f36:	f8c4 3110 	str.w	r3, [r4, #272]	@ 0x110
20004f3a:	f8c4 8120 	str.w	r8, [r4, #288]	@ 0x120
20004f3e:	b11e      	cbz	r6, 20004f48 <d_print_comp_inner+0x255c>
20004f40:	7833      	ldrb	r3, [r6, #0]
20004f42:	2b57      	cmp	r3, #87	@ 0x57
20004f44:	f000 8097 	beq.w	20005076 <d_print_comp_inner+0x268a>
20004f48:	ab08      	add	r3, sp, #32
20004f4a:	2101      	movs	r1, #1
20004f4c:	f8c4 7120 	str.w	r7, [r4, #288]	@ 0x120
20004f50:	9301      	str	r3, [sp, #4]
20004f52:	f7ff bbd2 	b.w	200046fa <d_print_comp_inner+0x1d0e>
20004f56:	215b      	movs	r1, #91	@ 0x5b
20004f58:	4620      	mov	r0, r4
20004f5a:	f7fb fab7 	bl	200004cc <d_append_char>
20004f5e:	2111      	movs	r1, #17
20004f60:	692a      	ldr	r2, [r5, #16]
20004f62:	4620      	mov	r0, r4
20004f64:	f000 fac0 	bl	200054e8 <d_print_comp>
20004f68:	215d      	movs	r1, #93	@ 0x5d
20004f6a:	f7fe bb20 	b.w	200035ae <d_print_comp_inner+0xbc2>
20004f6e:	212d      	movs	r1, #45	@ 0x2d
20004f70:	4620      	mov	r0, r4
20004f72:	f7fb faab 	bl	200004cc <d_append_char>
20004f76:	f7fd be50 	b.w	20002c1a <d_print_comp_inner+0x22e>
20004f7a:	f8d0 7134 	ldr.w	r7, [r0, #308]	@ 0x134
20004f7e:	2f00      	cmp	r7, #0
20004f80:	f340 8248 	ble.w	20005414 <d_print_comp_inner+0x2a28>
20004f84:	f8d0 c130 	ldr.w	ip, [r0, #304]	@ 0x130
20004f88:	464b      	mov	r3, r9
20004f8a:	4660      	mov	r0, ip
20004f8c:	e004      	b.n	20004f98 <d_print_comp_inner+0x25ac>
20004f8e:	42bb      	cmp	r3, r7
20004f90:	f100 0008 	add.w	r0, r0, #8
20004f94:	f000 823e 	beq.w	20005414 <d_print_comp_inner+0x2a28>
20004f98:	f85c 1033 	ldr.w	r1, [ip, r3, lsl #3]
20004f9c:	3301      	adds	r3, #1
20004f9e:	428a      	cmp	r2, r1
20004fa0:	d1f5      	bne.n	20004f8e <d_print_comp_inner+0x25a2>
20004fa2:	2800      	cmp	r0, #0
20004fa4:	f000 8236 	beq.w	20005414 <d_print_comp_inner+0x2a28>
20004fa8:	f8d4 712c 	ldr.w	r7, [r4, #300]	@ 0x12c
20004fac:	2f00      	cmp	r7, #0
20004fae:	f000 818e 	beq.w	200052ce <d_print_comp_inner+0x28e2>
20004fb2:	463b      	mov	r3, r7
20004fb4:	e007      	b.n	20004fc6 <d_print_comp_inner+0x25da>
20004fb6:	429f      	cmp	r7, r3
20004fb8:	d001      	beq.n	20004fbe <d_print_comp_inner+0x25d2>
20004fba:	42a9      	cmp	r1, r5
20004fbc:	d006      	beq.n	20004fcc <d_print_comp_inner+0x25e0>
20004fbe:	685b      	ldr	r3, [r3, #4]
20004fc0:	2b00      	cmp	r3, #0
20004fc2:	f000 8184 	beq.w	200052ce <d_print_comp_inner+0x28e2>
20004fc6:	6819      	ldr	r1, [r3, #0]
20004fc8:	4291      	cmp	r1, r2
20004fca:	d1f4      	bne.n	20004fb6 <d_print_comp_inner+0x25ca>
20004fcc:	4611      	mov	r1, r2
20004fce:	4620      	mov	r0, r4
20004fd0:	9201      	str	r2, [sp, #4]
20004fd2:	f7fb fa9d 	bl	20000510 <d_lookup_template_argument>
20004fd6:	9a01      	ldr	r2, [sp, #4]
20004fd8:	2800      	cmp	r0, #0
20004fda:	f43d ad8c 	beq.w	20002af6 <d_print_comp_inner+0x10a>
20004fde:	7803      	ldrb	r3, [r0, #0]
20004fe0:	2b2f      	cmp	r3, #47	@ 0x2f
20004fe2:	f000 81f5 	beq.w	200053d0 <d_print_comp_inner+0x29e4>
20004fe6:	464f      	mov	r7, r9
20004fe8:	f7fd be43 	b.w	20002c72 <d_print_comp_inner+0x286>
20004fec:	781b      	ldrb	r3, [r3, #0]
20004fee:	f1a3 0163 	sub.w	r1, r3, #99	@ 0x63
20004ff2:	2901      	cmp	r1, #1
20004ff4:	d903      	bls.n	20004ffe <d_print_comp_inner+0x2612>
20004ff6:	3b72      	subs	r3, #114	@ 0x72
20004ff8:	2b01      	cmp	r3, #1
20004ffa:	f63e aa8c 	bhi.w	20003516 <d_print_comp_inner+0xb2a>
20004ffe:	2111      	movs	r1, #17
20005000:	4620      	mov	r0, r4
20005002:	f001 f983 	bl	2000630c <d_print_expr_op>
20005006:	213c      	movs	r1, #60	@ 0x3c
20005008:	4620      	mov	r0, r4
2000500a:	f7fb fa5f 	bl	200004cc <d_append_char>
2000500e:	692b      	ldr	r3, [r5, #16]
20005010:	2111      	movs	r1, #17
20005012:	4620      	mov	r0, r4
20005014:	68da      	ldr	r2, [r3, #12]
20005016:	f000 fa67 	bl	200054e8 <d_print_comp>
2000501a:	4969      	ldr	r1, [pc, #420]	@ (200051c0 <d_print_comp_inner+0x27d4>)
2000501c:	4620      	mov	r0, r4
2000501e:	f7fb fa91 	bl	20000544 <d_append_string>
20005022:	692b      	ldr	r3, [r5, #16]
20005024:	2111      	movs	r1, #17
20005026:	4620      	mov	r0, r4
20005028:	691a      	ldr	r2, [r3, #16]
2000502a:	f000 fa5d 	bl	200054e8 <d_print_comp>
2000502e:	2129      	movs	r1, #41	@ 0x29
20005030:	f7fe babd 	b.w	200035ae <d_print_comp_inner+0xbc2>
20005034:	2700      	movs	r7, #0
20005036:	4620      	mov	r0, r4
20005038:	e9d4 3242 	ldrd	r3, r2, [r4, #264]	@ 0x108
2000503c:	f884 70ff 	strb.w	r7, [r4, #255]	@ 0xff
20005040:	4798      	blx	r3
20005042:	f8d4 3128 	ldr.w	r3, [r4, #296]	@ 0x128
20005046:	4639      	mov	r1, r7
20005048:	3301      	adds	r3, #1
2000504a:	f8c4 3128 	str.w	r3, [r4, #296]	@ 0x128
2000504e:	2301      	movs	r3, #1
20005050:	f7fd bdfd 	b.w	20002c4e <d_print_comp_inner+0x262>
20005054:	f8d4 3108 	ldr.w	r3, [r4, #264]	@ 0x108
20005058:	4620      	mov	r0, r4
2000505a:	f8d4 210c 	ldr.w	r2, [r4, #268]	@ 0x10c
2000505e:	f884 60ff 	strb.w	r6, [r4, #255]	@ 0xff
20005062:	4798      	blx	r3
20005064:	f8d4 3128 	ldr.w	r3, [r4, #296]	@ 0x128
20005068:	4631      	mov	r1, r6
2000506a:	3301      	adds	r3, #1
2000506c:	f8c4 3128 	str.w	r3, [r4, #296]	@ 0x128
20005070:	2301      	movs	r3, #1
20005072:	f7ff bbca 	b.w	2000480a <d_print_comp_inner+0x1e1e>
20005076:	213c      	movs	r1, #60	@ 0x3c
20005078:	4620      	mov	r0, r4
2000507a:	9607      	str	r6, [sp, #28]
2000507c:	f7fb fa26 	bl	200004cc <d_append_char>
20005080:	ab08      	add	r3, sp, #32
20005082:	f8d6 800c 	ldr.w	r8, [r6, #12]
20005086:	9301      	str	r3, [sp, #4]
20005088:	f1b8 0f00 	cmp.w	r8, #0
2000508c:	d074      	beq.n	20005178 <d_print_comp_inner+0x278c>
2000508e:	f04f 0b00 	mov.w	fp, #0
20005092:	4647      	mov	r7, r8
20005094:	9505      	str	r5, [sp, #20]
20005096:	e9cd 6903 	strd	r6, r9, [sp, #12]
2000509a:	f8d4 3120 	ldr.w	r3, [r4, #288]	@ 0x120
2000509e:	1c5a      	adds	r2, r3, #1
200050a0:	f8c4 2120 	str.w	r2, [r4, #288]	@ 0x120
200050a4:	2b00      	cmp	r3, #0
200050a6:	f040 80be 	bne.w	20005226 <d_print_comp_inner+0x283a>
200050aa:	463a      	mov	r2, r7
200050ac:	2111      	movs	r1, #17
200050ae:	4620      	mov	r0, r4
200050b0:	f000 fa1a 	bl	200054e8 <d_print_comp>
200050b4:	f8d4 3100 	ldr.w	r3, [r4, #256]	@ 0x100
200050b8:	2bff      	cmp	r3, #255	@ 0xff
200050ba:	f000 80b9 	beq.w	20005230 <d_print_comp_inner+0x2844>
200050be:	1c59      	adds	r1, r3, #1
200050c0:	2220      	movs	r2, #32
200050c2:	f8c4 1100 	str.w	r1, [r4, #256]	@ 0x100
200050c6:	54e2      	strb	r2, [r4, r3]
200050c8:	f884 2104 	strb.w	r2, [r4, #260]	@ 0x104
200050cc:	783b      	ldrb	r3, [r7, #0]
200050ce:	2b5b      	cmp	r3, #91	@ 0x5b
200050d0:	d101      	bne.n	200050d6 <d_print_comp_inner+0x26ea>
200050d2:	68ff      	ldr	r7, [r7, #12]
200050d4:	783b      	ldrb	r3, [r7, #0]
200050d6:	3b58      	subs	r3, #88	@ 0x58
200050d8:	f8d4 2120 	ldr.w	r2, [r4, #288]	@ 0x120
200050dc:	9102      	str	r1, [sp, #8]
200050de:	2b02      	cmp	r3, #2
200050e0:	f102 38ff 	add.w	r8, r2, #4294967295
200050e4:	d954      	bls.n	20005190 <d_print_comp_inner+0x27a4>
200050e6:	2301      	movs	r3, #1
200050e8:	f8c4 3118 	str.w	r3, [r4, #280]	@ 0x118
200050ec:	9d01      	ldr	r5, [sp, #4]
200050ee:	4642      	mov	r2, r8
200050f0:	4934      	ldr	r1, [pc, #208]	@ (200051c4 <d_print_comp_inner+0x27d8>)
200050f2:	4628      	mov	r0, r5
200050f4:	f006 fddc 	bl	2000bcb0 <__sprintf_veneer>
200050f8:	4628      	mov	r0, r5
200050fa:	f006 fdb9 	bl	2000bc70 <__strlen_veneer>
200050fe:	b3a8      	cbz	r0, 2000516c <d_print_comp_inner+0x2780>
20005100:	9b01      	ldr	r3, [sp, #4]
20005102:	4626      	mov	r6, r4
20005104:	f8d4 1100 	ldr.w	r1, [r4, #256]	@ 0x100
20005108:	f04f 0901 	mov.w	r9, #1
2000510c:	eb03 0a00 	add.w	sl, r3, r0
20005110:	4654      	mov	r4, sl
20005112:	469a      	mov	sl, r3
20005114:	e009      	b.n	2000512a <d_print_comp_inner+0x273e>
20005116:	46aa      	mov	sl, r5
20005118:	1c59      	adds	r1, r3, #1
2000511a:	4554      	cmp	r4, sl
2000511c:	f8c6 1100 	str.w	r1, [r6, #256]	@ 0x100
20005120:	f806 8003 	strb.w	r8, [r6, r3]
20005124:	f886 8104 	strb.w	r8, [r6, #260]	@ 0x104
20005128:	d01f      	beq.n	2000516a <d_print_comp_inner+0x277e>
2000512a:	4655      	mov	r5, sl
2000512c:	29ff      	cmp	r1, #255	@ 0xff
2000512e:	460b      	mov	r3, r1
20005130:	f815 8b01 	ldrb.w	r8, [r5], #1
20005134:	d1ef      	bne.n	20005116 <d_print_comp_inner+0x272a>
20005136:	4630      	mov	r0, r6
20005138:	f886 b0ff 	strb.w	fp, [r6, #255]	@ 0xff
2000513c:	f10a 0a02 	add.w	sl, sl, #2
20005140:	e9d6 3242 	ldrd	r3, r2, [r6, #264]	@ 0x108
20005144:	4798      	blx	r3
20005146:	f8d6 3128 	ldr.w	r3, [r6, #296]	@ 0x128
2000514a:	42a5      	cmp	r5, r4
2000514c:	f886 8000 	strb.w	r8, [r6]
20005150:	f103 0301 	add.w	r3, r3, #1
20005154:	f886 8104 	strb.w	r8, [r6, #260]	@ 0x104
20005158:	f8c6 9100 	str.w	r9, [r6, #256]	@ 0x100
2000515c:	f8c6 3128 	str.w	r3, [r6, #296]	@ 0x128
20005160:	d003      	beq.n	2000516a <d_print_comp_inner+0x277e>
20005162:	f895 8000 	ldrb.w	r8, [r5]
20005166:	2301      	movs	r3, #1
20005168:	e7d6      	b.n	20005118 <d_print_comp_inner+0x272c>
2000516a:	4634      	mov	r4, r6
2000516c:	693f      	ldr	r7, [r7, #16]
2000516e:	2f00      	cmp	r7, #0
20005170:	d193      	bne.n	2000509a <d_print_comp_inner+0x26ae>
20005172:	9d05      	ldr	r5, [sp, #20]
20005174:	e9dd 6903 	ldrd	r6, r9, [sp, #12]
20005178:	213e      	movs	r1, #62	@ 0x3e
2000517a:	4620      	mov	r0, r4
2000517c:	f7fb f9a6 	bl	200004cc <d_append_char>
20005180:	f8d4 3120 	ldr.w	r3, [r4, #288]	@ 0x120
20005184:	6936      	ldr	r6, [r6, #16]
20005186:	3301      	adds	r3, #1
20005188:	f8d4 1100 	ldr.w	r1, [r4, #256]	@ 0x100
2000518c:	f7ff bab0 	b.w	200046f0 <d_print_comp_inner+0x1d04>
20005190:	4a0d      	ldr	r2, [pc, #52]	@ (200051c8 <d_print_comp_inner+0x27dc>)
20005192:	eb02 0383 	add.w	r3, r2, r3, lsl #2
20005196:	f8d3 5824 	ldr.w	r5, [r3, #2084]	@ 0x824
2000519a:	4628      	mov	r0, r5
2000519c:	f006 fd68 	bl	2000bc70 <__strlen_veneer>
200051a0:	9902      	ldr	r1, [sp, #8]
200051a2:	2800      	cmp	r0, #0
200051a4:	d0a2      	beq.n	200050ec <d_print_comp_inner+0x2700>
200051a6:	3d01      	subs	r5, #1
200051a8:	4626      	mov	r6, r4
200051aa:	f04f 0901 	mov.w	r9, #1
200051ae:	f8cd 8008 	str.w	r8, [sp, #8]
200051b2:	eb05 0a00 	add.w	sl, r5, r0
200051b6:	4654      	mov	r4, sl
200051b8:	e012      	b.n	200051e0 <d_print_comp_inner+0x27f4>
200051ba:	bf00      	nop
200051bc:	2000cba4 	.word	0x2000cba4
200051c0:	2000cd50 	.word	0x2000cd50
200051c4:	2000cb1c 	.word	0x2000cb1c
200051c8:	2000c1b4 	.word	0x2000c1b4
200051cc:	4655      	mov	r5, sl
200051ce:	1c59      	adds	r1, r3, #1
200051d0:	42ac      	cmp	r4, r5
200051d2:	f8c6 1100 	str.w	r1, [r6, #256]	@ 0x100
200051d6:	f806 8003 	strb.w	r8, [r6, r3]
200051da:	f886 8104 	strb.w	r8, [r6, #260]	@ 0x104
200051de:	d01e      	beq.n	2000521e <d_print_comp_inner+0x2832>
200051e0:	29ff      	cmp	r1, #255	@ 0xff
200051e2:	f895 8001 	ldrb.w	r8, [r5, #1]
200051e6:	f105 0a01 	add.w	sl, r5, #1
200051ea:	460b      	mov	r3, r1
200051ec:	d1ee      	bne.n	200051cc <d_print_comp_inner+0x27e0>
200051ee:	4630      	mov	r0, r6
200051f0:	f886 b0ff 	strb.w	fp, [r6, #255]	@ 0xff
200051f4:	e9d6 3242 	ldrd	r3, r2, [r6, #264]	@ 0x108
200051f8:	4798      	blx	r3
200051fa:	f8d6 3128 	ldr.w	r3, [r6, #296]	@ 0x128
200051fe:	4554      	cmp	r4, sl
20005200:	f8c6 9100 	str.w	r9, [r6, #256]	@ 0x100
20005204:	f103 0301 	add.w	r3, r3, #1
20005208:	f886 8000 	strb.w	r8, [r6]
2000520c:	f886 8104 	strb.w	r8, [r6, #260]	@ 0x104
20005210:	f8c6 3128 	str.w	r3, [r6, #296]	@ 0x128
20005214:	d003      	beq.n	2000521e <d_print_comp_inner+0x2832>
20005216:	f815 8f02 	ldrb.w	r8, [r5, #2]!
2000521a:	2301      	movs	r3, #1
2000521c:	e7d7      	b.n	200051ce <d_print_comp_inner+0x27e2>
2000521e:	f8dd 8008 	ldr.w	r8, [sp, #8]
20005222:	4634      	mov	r4, r6
20005224:	e762      	b.n	200050ec <d_print_comp_inner+0x2700>
20005226:	49aa      	ldr	r1, [pc, #680]	@ (200054d0 <d_print_comp_inner+0x2ae4>)
20005228:	4620      	mov	r0, r4
2000522a:	f7fb f98b 	bl	20000544 <d_append_string>
2000522e:	e73c      	b.n	200050aa <d_print_comp_inner+0x26be>
20005230:	4619      	mov	r1, r3
20005232:	4620      	mov	r0, r4
20005234:	f884 b0ff 	strb.w	fp, [r4, #255]	@ 0xff
20005238:	e9d4 3242 	ldrd	r3, r2, [r4, #264]	@ 0x108
2000523c:	4798      	blx	r3
2000523e:	f8d4 3128 	ldr.w	r3, [r4, #296]	@ 0x128
20005242:	2101      	movs	r1, #1
20005244:	3301      	adds	r3, #1
20005246:	f8c4 3128 	str.w	r3, [r4, #296]	@ 0x128
2000524a:	2300      	movs	r3, #0
2000524c:	e738      	b.n	200050c0 <d_print_comp_inner+0x26d4>
2000524e:	2b73      	cmp	r3, #115	@ 0x73
20005250:	f47f abf3 	bne.w	20004a3a <d_print_comp_inner+0x204e>
20005254:	787b      	ldrb	r3, [r7, #1]
20005256:	2b50      	cmp	r3, #80	@ 0x50
20005258:	f47f abef 	bne.w	20004a3a <d_print_comp_inner+0x204e>
2000525c:	78bb      	ldrb	r3, [r7, #2]
2000525e:	2b00      	cmp	r3, #0
20005260:	f47f abeb 	bne.w	20004a3a <d_print_comp_inner+0x204e>
20005264:	461e      	mov	r6, r3
20005266:	e003      	b.n	20005270 <d_print_comp_inner+0x2884>
20005268:	3601      	adds	r6, #1
2000526a:	692d      	ldr	r5, [r5, #16]
2000526c:	2d00      	cmp	r5, #0
2000526e:	d03f      	beq.n	200052f0 <d_print_comp_inner+0x2904>
20005270:	782b      	ldrb	r3, [r5, #0]
20005272:	2b2f      	cmp	r3, #47	@ 0x2f
20005274:	d13c      	bne.n	200052f0 <d_print_comp_inner+0x2904>
20005276:	68eb      	ldr	r3, [r5, #12]
20005278:	2b00      	cmp	r3, #0
2000527a:	d039      	beq.n	200052f0 <d_print_comp_inner+0x2904>
2000527c:	781a      	ldrb	r2, [r3, #0]
2000527e:	2a4c      	cmp	r2, #76	@ 0x4c
20005280:	d1f2      	bne.n	20005268 <d_print_comp_inner+0x287c>
20005282:	68d9      	ldr	r1, [r3, #12]
20005284:	4620      	mov	r0, r4
20005286:	f7fb f997 	bl	200005b8 <d_find_pack>
2000528a:	4602      	mov	r2, r0
2000528c:	b148      	cbz	r0, 200052a2 <d_print_comp_inner+0x28b6>
2000528e:	2200      	movs	r2, #0
20005290:	e004      	b.n	2000529c <d_print_comp_inner+0x28b0>
20005292:	68c1      	ldr	r1, [r0, #12]
20005294:	b129      	cbz	r1, 200052a2 <d_print_comp_inner+0x28b6>
20005296:	6900      	ldr	r0, [r0, #16]
20005298:	3201      	adds	r2, #1
2000529a:	b110      	cbz	r0, 200052a2 <d_print_comp_inner+0x28b6>
2000529c:	7801      	ldrb	r1, [r0, #0]
2000529e:	292f      	cmp	r1, #47	@ 0x2f
200052a0:	d0f7      	beq.n	20005292 <d_print_comp_inner+0x28a6>
200052a2:	4416      	add	r6, r2
200052a4:	e7e1      	b.n	2000526a <d_print_comp_inner+0x287e>
200052a6:	f8d8 800c 	ldr.w	r8, [r8, #12]
200052aa:	f1b8 0f00 	cmp.w	r8, #0
200052ae:	f47f ad43 	bne.w	20004d38 <d_print_comp_inner+0x234c>
200052b2:	f7fd bc20 	b.w	20002af6 <d_print_comp_inner+0x10a>
200052b6:	2120      	movs	r1, #32
200052b8:	4620      	mov	r0, r4
200052ba:	f7fb f907 	bl	200004cc <d_append_char>
200052be:	f7ff bb82 	b.w	200049c6 <d_print_comp_inner+0x1fda>
200052c2:	2120      	movs	r1, #32
200052c4:	4620      	mov	r0, r4
200052c6:	f7fb f901 	bl	200004cc <d_append_char>
200052ca:	f7ff bb6d 	b.w	200049a8 <d_print_comp_inner+0x1fbc>
200052ce:	6843      	ldr	r3, [r0, #4]
200052d0:	4611      	mov	r1, r2
200052d2:	f8d4 8110 	ldr.w	r8, [r4, #272]	@ 0x110
200052d6:	4620      	mov	r0, r4
200052d8:	f8c4 3110 	str.w	r3, [r4, #272]	@ 0x110
200052dc:	9201      	str	r2, [sp, #4]
200052de:	f7fb f917 	bl	20000510 <d_lookup_template_argument>
200052e2:	2800      	cmp	r0, #0
200052e4:	f000 80e8 	beq.w	200054b8 <d_print_comp_inner+0x2acc>
200052e8:	f04f 0901 	mov.w	r9, #1
200052ec:	9a01      	ldr	r2, [sp, #4]
200052ee:	e676      	b.n	20004fde <d_print_comp_inner+0x25f2>
200052f0:	4631      	mov	r1, r6
200052f2:	f7ff bb9c 	b.w	20004a2e <d_print_comp_inner+0x2042>
200052f6:	68ea      	ldr	r2, [r5, #12]
200052f8:	7811      	ldrb	r1, [r2, #0]
200052fa:	2901      	cmp	r1, #1
200052fc:	f47f ab7b 	bne.w	200049f6 <d_print_comp_inner+0x200a>
20005300:	6929      	ldr	r1, [r5, #16]
20005302:	7809      	ldrb	r1, [r1, #0]
20005304:	2929      	cmp	r1, #41	@ 0x29
20005306:	bf08      	it	eq
20005308:	4615      	moveq	r5, r2
2000530a:	f7ff bb74 	b.w	200049f6 <d_print_comp_inner+0x200a>
2000530e:	2e3e      	cmp	r6, #62	@ 0x3e
20005310:	f000 80ca 	beq.w	200054a8 <d_print_comp_inner+0x2abc>
20005314:	3f02      	subs	r7, #2
20005316:	692a      	ldr	r2, [r5, #16]
20005318:	2111      	movs	r1, #17
2000531a:	4620      	mov	r0, r4
2000531c:	f000 f8e4 	bl	200054e8 <d_print_comp>
20005320:	2f04      	cmp	r7, #4
20005322:	f63d abeb 	bhi.w	20002afc <d_print_comp_inner+0x110>
20005326:	e8df f007 	tbb	[pc, r7]
2000532a:	0c0f      	.short	0x0c0f
2000532c:	0609      	.short	0x0609
2000532e:	03          	.byte	0x03
2000532f:	00          	.byte	0x00
20005330:	4968      	ldr	r1, [pc, #416]	@ (200054d4 <d_print_comp_inner+0x2ae8>)
20005332:	f7fd bf95 	b.w	20003260 <d_print_comp_inner+0x874>
20005336:	4968      	ldr	r1, [pc, #416]	@ (200054d8 <d_print_comp_inner+0x2aec>)
20005338:	f7fd bf92 	b.w	20003260 <d_print_comp_inner+0x874>
2000533c:	4967      	ldr	r1, [pc, #412]	@ (200054dc <d_print_comp_inner+0x2af0>)
2000533e:	f7fd bf8f 	b.w	20003260 <d_print_comp_inner+0x874>
20005342:	216c      	movs	r1, #108	@ 0x6c
20005344:	f7fe b933 	b.w	200035ae <d_print_comp_inner+0xbc2>
20005348:	2175      	movs	r1, #117	@ 0x75
2000534a:	f7fe b930 	b.w	200035ae <d_print_comp_inner+0xbc2>
2000534e:	68ea      	ldr	r2, [r5, #12]
20005350:	2111      	movs	r1, #17
20005352:	4620      	mov	r0, r4
20005354:	f001 f9cc 	bl	200066f0 <d_print_subexpr>
20005358:	4632      	mov	r2, r6
2000535a:	f7fd bd1f 	b.w	20002d9c <d_print_comp_inner+0x3b0>
2000535e:	692a      	ldr	r2, [r5, #16]
20005360:	2111      	movs	r1, #17
20005362:	f000 f8c1 	bl	200054e8 <d_print_comp>
20005366:	9b0a      	ldr	r3, [sp, #40]	@ 0x28
20005368:	f8c4 9114 	str.w	r9, [r4, #276]	@ 0x114
2000536c:	2b00      	cmp	r3, #0
2000536e:	f43e ad6c 	beq.w	20003e4a <d_print_comp_inner+0x145e>
20005372:	f7fd bbc3 	b.w	20002afc <d_print_comp_inner+0x110>
20005376:	aa08      	add	r2, sp, #32
20005378:	f8d0 3110 	ldr.w	r3, [r0, #272]	@ 0x110
2000537c:	910a      	str	r1, [sp, #40]	@ 0x28
2000537e:	f8c0 2114 	str.w	r2, [r0, #276]	@ 0x114
20005382:	930b      	str	r3, [sp, #44]	@ 0x2c
20005384:	68ea      	ldr	r2, [r5, #12]
20005386:	e9cd 1508 	strd	r1, r5, [sp, #32]
2000538a:	f7fd bbcf 	b.w	20002b2c <d_print_comp_inner+0x140>
2000538e:	68da      	ldr	r2, [r3, #12]
20005390:	6891      	ldr	r1, [r2, #8]
20005392:	2901      	cmp	r1, #1
20005394:	f47e a8d4 	bne.w	20003540 <d_print_comp_inner+0xb54>
20005398:	6852      	ldr	r2, [r2, #4]
2000539a:	7812      	ldrb	r2, [r2, #0]
2000539c:	2a3e      	cmp	r2, #62	@ 0x3e
2000539e:	f47e a8cf 	bne.w	20003540 <d_print_comp_inner+0xb54>
200053a2:	2128      	movs	r1, #40	@ 0x28
200053a4:	4620      	mov	r0, r4
200053a6:	f7fb f891 	bl	200004cc <d_append_char>
200053aa:	68eb      	ldr	r3, [r5, #12]
200053ac:	f7fe b8c8 	b.w	20003540 <d_print_comp_inner+0xb54>
200053b0:	4620      	mov	r0, r4
200053b2:	215b      	movs	r1, #91	@ 0x5b
200053b4:	f7fb f88a 	bl	200004cc <d_append_char>
200053b8:	692b      	ldr	r3, [r5, #16]
200053ba:	4620      	mov	r0, r4
200053bc:	2111      	movs	r1, #17
200053be:	691a      	ldr	r2, [r3, #16]
200053c0:	f000 f892 	bl	200054e8 <d_print_comp>
200053c4:	215d      	movs	r1, #93	@ 0x5d
200053c6:	4620      	mov	r0, r4
200053c8:	f7fb f880 	bl	200004cc <d_append_char>
200053cc:	f7fe b8df 	b.w	2000358e <d_print_comp_inner+0xba2>
200053d0:	f8d4 1124 	ldr.w	r1, [r4, #292]	@ 0x124
200053d4:	2900      	cmp	r1, #0
200053d6:	f6ff aa40 	blt.w	2000485a <d_print_comp_inner+0x1e6e>
200053da:	f7fb f805 	bl	200003e8 <d_index_template_argument.part.0>
200053de:	2800      	cmp	r0, #0
200053e0:	d066      	beq.n	200054b0 <d_print_comp_inner+0x2ac4>
200053e2:	464f      	mov	r7, r9
200053e4:	7803      	ldrb	r3, [r0, #0]
200053e6:	f7fd bc44 	b.w	20002c72 <d_print_comp_inner+0x286>
200053ea:	4632      	mov	r2, r6
200053ec:	2111      	movs	r1, #17
200053ee:	4620      	mov	r0, r4
200053f0:	f000 ff8c 	bl	2000630c <d_print_expr_op>
200053f4:	f7fe b8c5 	b.w	20003582 <d_print_comp_inner+0xb96>
200053f8:	6913      	ldr	r3, [r2, #16]
200053fa:	781b      	ldrb	r3, [r3, #0]
200053fc:	2b29      	cmp	r3, #41	@ 0x29
200053fe:	d002      	beq.n	20005406 <d_print_comp_inner+0x2a1a>
20005400:	2301      	movs	r3, #1
20005402:	f8c4 3118 	str.w	r3, [r4, #280]	@ 0x118
20005406:	68d2      	ldr	r2, [r2, #12]
20005408:	2111      	movs	r1, #17
2000540a:	4620      	mov	r0, r4
2000540c:	f001 f970 	bl	200066f0 <d_print_subexpr>
20005410:	f7fe b8a6 	b.w	20003560 <d_print_comp_inner+0xb74>
20005414:	f8d4 3138 	ldr.w	r3, [r4, #312]	@ 0x138
20005418:	42bb      	cmp	r3, r7
2000541a:	f77d ab6c 	ble.w	20002af6 <d_print_comp_inner+0x10a>
2000541e:	f8d4 3130 	ldr.w	r3, [r4, #304]	@ 0x130
20005422:	1c79      	adds	r1, r7, #1
20005424:	f8d4 c110 	ldr.w	ip, [r4, #272]	@ 0x110
20005428:	f8c4 1134 	str.w	r1, [r4, #308]	@ 0x134
2000542c:	f843 2037 	str.w	r2, [r3, r7, lsl #3]
20005430:	eb03 03c7 	add.w	r3, r3, r7, lsl #3
20005434:	3304      	adds	r3, #4
20005436:	f1bc 0f00 	cmp.w	ip, #0
2000543a:	d042      	beq.n	200054c2 <d_print_comp_inner+0x2ad6>
2000543c:	4696      	mov	lr, r2
2000543e:	e9d4 7050 	ldrd	r7, r0, [r4, #320]	@ 0x140
20005442:	e010      	b.n	20005466 <d_print_comp_inner+0x2a7a>
20005444:	f8d4 113c 	ldr.w	r1, [r4, #316]	@ 0x13c
20005448:	f8dc 2004 	ldr.w	r2, [ip, #4]
2000544c:	eb01 01c7 	add.w	r1, r1, r7, lsl #3
20005450:	3701      	adds	r7, #1
20005452:	f8c4 7140 	str.w	r7, [r4, #320]	@ 0x140
20005456:	604a      	str	r2, [r1, #4]
20005458:	6019      	str	r1, [r3, #0]
2000545a:	460b      	mov	r3, r1
2000545c:	f8dc c000 	ldr.w	ip, [ip]
20005460:	f1bc 0f00 	cmp.w	ip, #0
20005464:	d02c      	beq.n	200054c0 <d_print_comp_inner+0x2ad4>
20005466:	42b8      	cmp	r0, r7
20005468:	dcec      	bgt.n	20005444 <d_print_comp_inner+0x2a58>
2000546a:	f7fd bb44 	b.w	20002af6 <d_print_comp_inner+0x10a>
2000546e:	f8c4 3114 	str.w	r3, [r4, #276]	@ 0x114
20005472:	f7fd bb40 	b.w	20002af6 <d_print_comp_inner+0x10a>
20005476:	491a      	ldr	r1, [pc, #104]	@ (200054e0 <d_print_comp_inner+0x2af4>)
20005478:	4620      	mov	r0, r4
2000547a:	f7fb f863 	bl	20000544 <d_append_string>
2000547e:	68f3      	ldr	r3, [r6, #12]
20005480:	b143      	cbz	r3, 20005494 <d_print_comp_inner+0x2aa8>
20005482:	2111      	movs	r1, #17
20005484:	4620      	mov	r0, r4
20005486:	4632      	mov	r2, r6
20005488:	f001 f932 	bl	200066f0 <d_print_subexpr>
2000548c:	2120      	movs	r1, #32
2000548e:	4620      	mov	r0, r4
20005490:	f7fb f81c 	bl	200004cc <d_append_char>
20005494:	463a      	mov	r2, r7
20005496:	2111      	movs	r1, #17
20005498:	4620      	mov	r0, r4
2000549a:	f000 f825 	bl	200054e8 <d_print_comp>
2000549e:	2d00      	cmp	r5, #0
200054a0:	f47d ac73 	bne.w	20002d8a <d_print_comp_inner+0x39e>
200054a4:	f7fd bb2a 	b.w	20002afc <d_print_comp_inner+0x110>
200054a8:	212d      	movs	r1, #45	@ 0x2d
200054aa:	f7fb f80f 	bl	200004cc <d_append_char>
200054ae:	e731      	b.n	20005314 <d_print_comp_inner+0x2928>
200054b0:	f1b9 0f00 	cmp.w	r9, #0
200054b4:	f43d ab1f 	beq.w	20002af6 <d_print_comp_inner+0x10a>
200054b8:	f8c4 8110 	str.w	r8, [r4, #272]	@ 0x110
200054bc:	f7fd bb1b 	b.w	20002af6 <d_print_comp_inner+0x10a>
200054c0:	4672      	mov	r2, lr
200054c2:	2100      	movs	r1, #0
200054c4:	6019      	str	r1, [r3, #0]
200054c6:	e581      	b.n	20004fcc <d_print_comp_inner+0x25e0>
200054c8:	4906      	ldr	r1, [pc, #24]	@ (200054e4 <d_print_comp_inner+0x2af8>)
200054ca:	f7fd bec9 	b.w	20003260 <d_print_comp_inner+0x874>
200054ce:	bf00      	nop
200054d0:	2000cb8c 	.word	0x2000cb8c
200054d4:	2000cd74 	.word	0x2000cd74
200054d8:	2000cd70 	.word	0x2000cd70
200054dc:	2000cd6c 	.word	0x2000cd6c
200054e0:	2000cd64 	.word	0x2000cd64
200054e4:	2000cd78 	.word	0x2000cd78

200054e8 <d_print_comp>:
200054e8:	b530      	push	{r4, r5, lr}
200054ea:	4605      	mov	r5, r0
200054ec:	b083      	sub	sp, #12
200054ee:	b31a      	cbz	r2, 20005538 <d_print_comp+0x50>
200054f0:	6853      	ldr	r3, [r2, #4]
200054f2:	4614      	mov	r4, r2
200054f4:	2b01      	cmp	r3, #1
200054f6:	dc1f      	bgt.n	20005538 <d_print_comp+0x50>
200054f8:	f8d0 111c 	ldr.w	r1, [r0, #284]	@ 0x11c
200054fc:	f5b1 6f80 	cmp.w	r1, #1024	@ 0x400
20005500:	dc1a      	bgt.n	20005538 <d_print_comp+0x50>
20005502:	3301      	adds	r3, #1
20005504:	3101      	adds	r1, #1
20005506:	9200      	str	r2, [sp, #0]
20005508:	6053      	str	r3, [r2, #4]
2000550a:	f8d0 312c 	ldr.w	r3, [r0, #300]	@ 0x12c
2000550e:	f8c0 111c 	str.w	r1, [r0, #284]	@ 0x11c
20005512:	2111      	movs	r1, #17
20005514:	f8c0 d12c 	str.w	sp, [r0, #300]	@ 0x12c
20005518:	9301      	str	r3, [sp, #4]
2000551a:	f7fd fa67 	bl	200029ec <d_print_comp_inner>
2000551e:	6862      	ldr	r2, [r4, #4]
20005520:	f8d5 311c 	ldr.w	r3, [r5, #284]	@ 0x11c
20005524:	9901      	ldr	r1, [sp, #4]
20005526:	3a01      	subs	r2, #1
20005528:	3b01      	subs	r3, #1
2000552a:	f8c5 112c 	str.w	r1, [r5, #300]	@ 0x12c
2000552e:	6062      	str	r2, [r4, #4]
20005530:	f8c5 311c 	str.w	r3, [r5, #284]	@ 0x11c
20005534:	b003      	add	sp, #12
20005536:	bd30      	pop	{r4, r5, pc}
20005538:	2301      	movs	r3, #1
2000553a:	f8c5 3118 	str.w	r3, [r5, #280]	@ 0x118
2000553e:	b003      	add	sp, #12
20005540:	bd30      	pop	{r4, r5, pc}
20005542:	bf00      	nop

20005544 <d_print_mod>:
20005544:	e92d 4ff8 	stmdb	sp!, {r3, r4, r5, r6, r7, r8, r9, sl, fp, lr}
20005548:	7813      	ldrb	r3, [r2, #0]
2000554a:	4615      	mov	r5, r2
2000554c:	4604      	mov	r4, r0
2000554e:	3b03      	subs	r3, #3
20005550:	2b4e      	cmp	r3, #78	@ 0x4e
20005552:	d850      	bhi.n	200055f6 <d_print_mod+0xb2>
20005554:	e8df f013 	tbh	[pc, r3, lsl #1]
20005558:	004f0149 	.word	0x004f0149
2000555c:	004f004f 	.word	0x004f004f
20005560:	004f004f 	.word	0x004f004f
20005564:	004f004f 	.word	0x004f004f
20005568:	004f004f 	.word	0x004f004f
2000556c:	004f004f 	.word	0x004f004f
20005570:	004f004f 	.word	0x004f004f
20005574:	004f004f 	.word	0x004f004f
20005578:	004f004f 	.word	0x004f004f
2000557c:	004f004f 	.word	0x004f004f
20005580:	004f004f 	.word	0x004f004f
20005584:	00860054 	.word	0x00860054
20005588:	005400b8 	.word	0x005400b8
2000558c:	00b80086 	.word	0x00b80086
20005590:	012a011d 	.word	0x012a011d
20005594:	03120137 	.word	0x03120137
20005598:	015c014e 	.word	0x015c014e
2000559c:	01bc018c 	.word	0x01bc018c
200055a0:	004f004f 	.word	0x004f004f
200055a4:	004f004f 	.word	0x004f004f
200055a8:	004f01fc 	.word	0x004f01fc
200055ac:	004f0238 	.word	0x004f0238
200055b0:	004f004f 	.word	0x004f004f
200055b4:	004f004f 	.word	0x004f004f
200055b8:	004f004f 	.word	0x004f004f
200055bc:	004f004f 	.word	0x004f004f
200055c0:	004f004f 	.word	0x004f004f
200055c4:	004f004f 	.word	0x004f004f
200055c8:	004f004f 	.word	0x004f004f
200055cc:	004f004f 	.word	0x004f004f
200055d0:	004f004f 	.word	0x004f004f
200055d4:	004f004f 	.word	0x004f004f
200055d8:	004f004f 	.word	0x004f004f
200055dc:	004f004f 	.word	0x004f004f
200055e0:	004f004f 	.word	0x004f004f
200055e4:	004f004f 	.word	0x004f004f
200055e8:	004f004f 	.word	0x004f004f
200055ec:	026c004f 	.word	0x026c004f
200055f0:	029e004f 	.word	0x029e004f
200055f4:	00e9      	.short	0x00e9
200055f6:	462a      	mov	r2, r5
200055f8:	2111      	movs	r1, #17
200055fa:	e8bd 4ff8 	ldmia.w	sp!, {r3, r4, r5, r6, r7, r8, r9, sl, fp, lr}
200055fe:	e773      	b.n	200054e8 <d_print_comp>
20005600:	4dcc      	ldr	r5, [pc, #816]	@ (20005934 <d_print_mod+0x3f0>)
20005602:	f04f 0900 	mov.w	r9, #0
20005606:	f8d0 1100 	ldr.w	r1, [r0, #256]	@ 0x100
2000560a:	f04f 0801 	mov.w	r8, #1
2000560e:	f105 0a09 	add.w	sl, r5, #9
20005612:	e009      	b.n	20005628 <d_print_mod+0xe4>
20005614:	463d      	mov	r5, r7
20005616:	1c59      	adds	r1, r3, #1
20005618:	45aa      	cmp	sl, r5
2000561a:	f8c4 1100 	str.w	r1, [r4, #256]	@ 0x100
2000561e:	54e6      	strb	r6, [r4, r3]
20005620:	f884 6104 	strb.w	r6, [r4, #260]	@ 0x104
20005624:	f000 80f2 	beq.w	2000580c <d_print_mod+0x2c8>
20005628:	29ff      	cmp	r1, #255	@ 0xff
2000562a:	786e      	ldrb	r6, [r5, #1]
2000562c:	f105 0701 	add.w	r7, r5, #1
20005630:	460b      	mov	r3, r1
20005632:	d1ef      	bne.n	20005614 <d_print_mod+0xd0>
20005634:	4620      	mov	r0, r4
20005636:	f884 90ff 	strb.w	r9, [r4, #255]	@ 0xff
2000563a:	e9d4 3242 	ldrd	r3, r2, [r4, #264]	@ 0x108
2000563e:	4798      	blx	r3
20005640:	f8d4 3128 	ldr.w	r3, [r4, #296]	@ 0x128
20005644:	45ba      	cmp	sl, r7
20005646:	7026      	strb	r6, [r4, #0]
20005648:	f103 0301 	add.w	r3, r3, #1
2000564c:	f884 6104 	strb.w	r6, [r4, #260]	@ 0x104
20005650:	f8c4 8100 	str.w	r8, [r4, #256]	@ 0x100
20005654:	f8c4 3128 	str.w	r3, [r4, #296]	@ 0x128
20005658:	f000 80d8 	beq.w	2000580c <d_print_mod+0x2c8>
2000565c:	f815 6f02 	ldrb.w	r6, [r5, #2]!
20005660:	2301      	movs	r3, #1
20005662:	e7d8      	b.n	20005616 <d_print_mod+0xd2>
20005664:	4db4      	ldr	r5, [pc, #720]	@ (20005938 <d_print_mod+0x3f4>)
20005666:	f04f 0900 	mov.w	r9, #0
2000566a:	f8d0 1100 	ldr.w	r1, [r0, #256]	@ 0x100
2000566e:	f04f 0801 	mov.w	r8, #1
20005672:	f105 0a09 	add.w	sl, r5, #9
20005676:	e009      	b.n	2000568c <d_print_mod+0x148>
20005678:	463d      	mov	r5, r7
2000567a:	1c59      	adds	r1, r3, #1
2000567c:	45aa      	cmp	sl, r5
2000567e:	f8c4 1100 	str.w	r1, [r4, #256]	@ 0x100
20005682:	54e6      	strb	r6, [r4, r3]
20005684:	f884 6104 	strb.w	r6, [r4, #260]	@ 0x104
20005688:	f000 80c0 	beq.w	2000580c <d_print_mod+0x2c8>
2000568c:	29ff      	cmp	r1, #255	@ 0xff
2000568e:	786e      	ldrb	r6, [r5, #1]
20005690:	f105 0701 	add.w	r7, r5, #1
20005694:	460b      	mov	r3, r1
20005696:	d1ef      	bne.n	20005678 <d_print_mod+0x134>
20005698:	4620      	mov	r0, r4
2000569a:	f884 90ff 	strb.w	r9, [r4, #255]	@ 0xff
2000569e:	e9d4 3242 	ldrd	r3, r2, [r4, #264]	@ 0x108
200056a2:	4798      	blx	r3
200056a4:	f8d4 3128 	ldr.w	r3, [r4, #296]	@ 0x128
200056a8:	45ba      	cmp	sl, r7
200056aa:	7026      	strb	r6, [r4, #0]
200056ac:	f103 0301 	add.w	r3, r3, #1
200056b0:	f884 6104 	strb.w	r6, [r4, #260]	@ 0x104
200056b4:	f8c4 8100 	str.w	r8, [r4, #256]	@ 0x100
200056b8:	f8c4 3128 	str.w	r3, [r4, #296]	@ 0x128
200056bc:	f000 80a6 	beq.w	2000580c <d_print_mod+0x2c8>
200056c0:	f815 6f02 	ldrb.w	r6, [r5, #2]!
200056c4:	2301      	movs	r3, #1
200056c6:	e7d8      	b.n	2000567a <d_print_mod+0x136>
200056c8:	4f9c      	ldr	r7, [pc, #624]	@ (2000593c <d_print_mod+0x3f8>)
200056ca:	f04f 0900 	mov.w	r9, #0
200056ce:	f8d0 1100 	ldr.w	r1, [r0, #256]	@ 0x100
200056d2:	f04f 0801 	mov.w	r8, #1
200056d6:	f107 0a06 	add.w	sl, r7, #6
200056da:	e009      	b.n	200056f0 <d_print_mod+0x1ac>
200056dc:	462f      	mov	r7, r5
200056de:	1c59      	adds	r1, r3, #1
200056e0:	45ba      	cmp	sl, r7
200056e2:	f8c4 1100 	str.w	r1, [r4, #256]	@ 0x100
200056e6:	54e6      	strb	r6, [r4, r3]
200056e8:	f884 6104 	strb.w	r6, [r4, #260]	@ 0x104
200056ec:	f000 808e 	beq.w	2000580c <d_print_mod+0x2c8>
200056f0:	463d      	mov	r5, r7
200056f2:	29ff      	cmp	r1, #255	@ 0xff
200056f4:	460b      	mov	r3, r1
200056f6:	f815 6b01 	ldrb.w	r6, [r5], #1
200056fa:	d1ef      	bne.n	200056dc <d_print_mod+0x198>
200056fc:	4620      	mov	r0, r4
200056fe:	f884 90ff 	strb.w	r9, [r4, #255]	@ 0xff
20005702:	3702      	adds	r7, #2
20005704:	e9d4 3242 	ldrd	r3, r2, [r4, #264]	@ 0x108
20005708:	4798      	blx	r3
2000570a:	f8d4 3128 	ldr.w	r3, [r4, #296]	@ 0x128
2000570e:	45aa      	cmp	sl, r5
20005710:	7026      	strb	r6, [r4, #0]
20005712:	f103 0301 	add.w	r3, r3, #1
20005716:	f884 6104 	strb.w	r6, [r4, #260]	@ 0x104
2000571a:	f8c4 8100 	str.w	r8, [r4, #256]	@ 0x100
2000571e:	f8c4 3128 	str.w	r3, [r4, #296]	@ 0x128
20005722:	d073      	beq.n	2000580c <d_print_mod+0x2c8>
20005724:	782e      	ldrb	r6, [r5, #0]
20005726:	2301      	movs	r3, #1
20005728:	e7d9      	b.n	200056de <d_print_mod+0x19a>
2000572a:	f8df 8220 	ldr.w	r8, [pc, #544]	@ 2000594c <d_print_mod+0x408>
2000572e:	f04f 0a00 	mov.w	sl, #0
20005732:	f8d0 1100 	ldr.w	r1, [r0, #256]	@ 0x100
20005736:	f04f 0901 	mov.w	r9, #1
2000573a:	f108 0b06 	add.w	fp, r8, #6
2000573e:	e009      	b.n	20005754 <d_print_mod+0x210>
20005740:	46b0      	mov	r8, r6
20005742:	1c59      	adds	r1, r3, #1
20005744:	45c3      	cmp	fp, r8
20005746:	f8c4 1100 	str.w	r1, [r4, #256]	@ 0x100
2000574a:	54e7      	strb	r7, [r4, r3]
2000574c:	f884 7104 	strb.w	r7, [r4, #260]	@ 0x104
20005750:	f000 81d1 	beq.w	20005af6 <d_print_mod+0x5b2>
20005754:	4646      	mov	r6, r8
20005756:	29ff      	cmp	r1, #255	@ 0xff
20005758:	460b      	mov	r3, r1
2000575a:	f816 7b01 	ldrb.w	r7, [r6], #1
2000575e:	d1ef      	bne.n	20005740 <d_print_mod+0x1fc>
20005760:	4620      	mov	r0, r4
20005762:	f884 a0ff 	strb.w	sl, [r4, #255]	@ 0xff
20005766:	f108 0802 	add.w	r8, r8, #2
2000576a:	e9d4 3242 	ldrd	r3, r2, [r4, #264]	@ 0x108
2000576e:	4798      	blx	r3
20005770:	f8d4 3128 	ldr.w	r3, [r4, #296]	@ 0x128
20005774:	455e      	cmp	r6, fp
20005776:	7027      	strb	r7, [r4, #0]
20005778:	f103 0301 	add.w	r3, r3, #1
2000577c:	f884 7104 	strb.w	r7, [r4, #260]	@ 0x104
20005780:	f8c4 9100 	str.w	r9, [r4, #256]	@ 0x100
20005784:	f8c4 3128 	str.w	r3, [r4, #296]	@ 0x128
20005788:	f000 8243 	beq.w	20005c12 <d_print_mod+0x6ce>
2000578c:	7837      	ldrb	r7, [r6, #0]
2000578e:	2301      	movs	r3, #1
20005790:	e7d7      	b.n	20005742 <d_print_mod+0x1fe>
20005792:	f8d0 3100 	ldr.w	r3, [r0, #256]	@ 0x100
20005796:	2bff      	cmp	r3, #255	@ 0xff
20005798:	f000 81fc 	beq.w	20005b94 <d_print_mod+0x650>
2000579c:	2220      	movs	r2, #32
2000579e:	1c59      	adds	r1, r3, #1
200057a0:	f8c0 1100 	str.w	r1, [r0, #256]	@ 0x100
200057a4:	54c2      	strb	r2, [r0, r3]
200057a6:	f880 2104 	strb.w	r2, [r0, #260]	@ 0x104
200057aa:	e025      	b.n	200057f8 <d_print_mod+0x2b4>
200057ac:	f8d0 3100 	ldr.w	r3, [r0, #256]	@ 0x100
200057b0:	2bff      	cmp	r3, #255	@ 0xff
200057b2:	f000 8210 	beq.w	20005bd6 <d_print_mod+0x692>
200057b6:	1c59      	adds	r1, r3, #1
200057b8:	2220      	movs	r2, #32
200057ba:	f8c4 1100 	str.w	r1, [r4, #256]	@ 0x100
200057be:	54e2      	strb	r2, [r4, r3]
200057c0:	f884 2104 	strb.w	r2, [r4, #260]	@ 0x104
200057c4:	e026      	b.n	20005814 <d_print_mod+0x2d0>
200057c6:	f8d0 1100 	ldr.w	r1, [r0, #256]	@ 0x100
200057ca:	29ff      	cmp	r1, #255	@ 0xff
200057cc:	f000 81f3 	beq.w	20005bb6 <d_print_mod+0x672>
200057d0:	1c4a      	adds	r2, r1, #1
200057d2:	2320      	movs	r3, #32
200057d4:	f8c4 2100 	str.w	r2, [r4, #256]	@ 0x100
200057d8:	4620      	mov	r0, r4
200057da:	5463      	strb	r3, [r4, r1]
200057dc:	2111      	movs	r1, #17
200057de:	f884 3104 	strb.w	r3, [r4, #260]	@ 0x104
200057e2:	692a      	ldr	r2, [r5, #16]
200057e4:	e8bd 4ff8 	ldmia.w	sp!, {r3, r4, r5, r6, r7, r8, r9, sl, fp, lr}
200057e8:	e67e      	b.n	200054e8 <d_print_comp>
200057ea:	68ea      	ldr	r2, [r5, #12]
200057ec:	2111      	movs	r1, #17
200057ee:	e8bd 4ff8 	ldmia.w	sp!, {r3, r4, r5, r6, r7, r8, r9, sl, fp, lr}
200057f2:	e679      	b.n	200054e8 <d_print_comp>
200057f4:	f8d0 1100 	ldr.w	r1, [r0, #256]	@ 0x100
200057f8:	29ff      	cmp	r1, #255	@ 0xff
200057fa:	f000 81fb 	beq.w	20005bf4 <d_print_mod+0x6b0>
200057fe:	1c4a      	adds	r2, r1, #1
20005800:	2326      	movs	r3, #38	@ 0x26
20005802:	f8c4 2100 	str.w	r2, [r4, #256]	@ 0x100
20005806:	5463      	strb	r3, [r4, r1]
20005808:	f884 3104 	strb.w	r3, [r4, #260]	@ 0x104
2000580c:	e8bd 8ff8 	ldmia.w	sp!, {r3, r4, r5, r6, r7, r8, r9, sl, fp, pc}
20005810:	f8d0 1100 	ldr.w	r1, [r0, #256]	@ 0x100
20005814:	4f4a      	ldr	r7, [pc, #296]	@ (20005940 <d_print_mod+0x3fc>)
20005816:	f04f 0900 	mov.w	r9, #0
2000581a:	f04f 0801 	mov.w	r8, #1
2000581e:	f107 0a02 	add.w	sl, r7, #2
20005822:	e008      	b.n	20005836 <d_print_mod+0x2f2>
20005824:	462f      	mov	r7, r5
20005826:	1c59      	adds	r1, r3, #1
20005828:	45ba      	cmp	sl, r7
2000582a:	f8c4 1100 	str.w	r1, [r4, #256]	@ 0x100
2000582e:	54e6      	strb	r6, [r4, r3]
20005830:	f884 6104 	strb.w	r6, [r4, #260]	@ 0x104
20005834:	d0ea      	beq.n	2000580c <d_print_mod+0x2c8>
20005836:	463d      	mov	r5, r7
20005838:	29ff      	cmp	r1, #255	@ 0xff
2000583a:	460b      	mov	r3, r1
2000583c:	f815 6b01 	ldrb.w	r6, [r5], #1
20005840:	d1f0      	bne.n	20005824 <d_print_mod+0x2e0>
20005842:	4620      	mov	r0, r4
20005844:	f884 90ff 	strb.w	r9, [r4, #255]	@ 0xff
20005848:	3702      	adds	r7, #2
2000584a:	e9d4 3242 	ldrd	r3, r2, [r4, #264]	@ 0x108
2000584e:	4798      	blx	r3
20005850:	f8d4 3128 	ldr.w	r3, [r4, #296]	@ 0x128
20005854:	45aa      	cmp	sl, r5
20005856:	7026      	strb	r6, [r4, #0]
20005858:	f103 0301 	add.w	r3, r3, #1
2000585c:	f884 6104 	strb.w	r6, [r4, #260]	@ 0x104
20005860:	f8c4 8100 	str.w	r8, [r4, #256]	@ 0x100
20005864:	f8c4 3128 	str.w	r3, [r4, #296]	@ 0x128
20005868:	d0d0      	beq.n	2000580c <d_print_mod+0x2c8>
2000586a:	782e      	ldrb	r6, [r5, #0]
2000586c:	2301      	movs	r3, #1
2000586e:	e7da      	b.n	20005826 <d_print_mod+0x2e2>
20005870:	4d34      	ldr	r5, [pc, #208]	@ (20005944 <d_print_mod+0x400>)
20005872:	f04f 0900 	mov.w	r9, #0
20005876:	f8d0 1100 	ldr.w	r1, [r0, #256]	@ 0x100
2000587a:	f04f 0801 	mov.w	r8, #1
2000587e:	f105 0a09 	add.w	sl, r5, #9
20005882:	e008      	b.n	20005896 <d_print_mod+0x352>
20005884:	463d      	mov	r5, r7
20005886:	1c59      	adds	r1, r3, #1
20005888:	45aa      	cmp	sl, r5
2000588a:	f8c4 1100 	str.w	r1, [r4, #256]	@ 0x100
2000588e:	54e6      	strb	r6, [r4, r3]
20005890:	f884 6104 	strb.w	r6, [r4, #260]	@ 0x104
20005894:	d0ba      	beq.n	2000580c <d_print_mod+0x2c8>
20005896:	29ff      	cmp	r1, #255	@ 0xff
20005898:	786e      	ldrb	r6, [r5, #1]
2000589a:	f105 0701 	add.w	r7, r5, #1
2000589e:	460b      	mov	r3, r1
200058a0:	d1f0      	bne.n	20005884 <d_print_mod+0x340>
200058a2:	4620      	mov	r0, r4
200058a4:	f884 90ff 	strb.w	r9, [r4, #255]	@ 0xff
200058a8:	e9d4 3242 	ldrd	r3, r2, [r4, #264]	@ 0x108
200058ac:	4798      	blx	r3
200058ae:	f8d4 3128 	ldr.w	r3, [r4, #296]	@ 0x128
200058b2:	4557      	cmp	r7, sl
200058b4:	7026      	strb	r6, [r4, #0]
200058b6:	f103 0301 	add.w	r3, r3, #1
200058ba:	f884 6104 	strb.w	r6, [r4, #260]	@ 0x104
200058be:	f8c4 8100 	str.w	r8, [r4, #256]	@ 0x100
200058c2:	f8c4 3128 	str.w	r3, [r4, #296]	@ 0x128
200058c6:	d0a1      	beq.n	2000580c <d_print_mod+0x2c8>
200058c8:	f815 6f02 	ldrb.w	r6, [r5, #2]!
200058cc:	2301      	movs	r3, #1
200058ce:	e7da      	b.n	20005886 <d_print_mod+0x342>
200058d0:	4f1d      	ldr	r7, [pc, #116]	@ (20005948 <d_print_mod+0x404>)
200058d2:	f04f 0900 	mov.w	r9, #0
200058d6:	f8d0 1100 	ldr.w	r1, [r0, #256]	@ 0x100
200058da:	f04f 0801 	mov.w	r8, #1
200058de:	f107 0a0b 	add.w	sl, r7, #11
200058e2:	e008      	b.n	200058f6 <d_print_mod+0x3b2>
200058e4:	462f      	mov	r7, r5
200058e6:	1c59      	adds	r1, r3, #1
200058e8:	45ba      	cmp	sl, r7
200058ea:	f8c4 1100 	str.w	r1, [r4, #256]	@ 0x100
200058ee:	54e6      	strb	r6, [r4, r3]
200058f0:	f884 6104 	strb.w	r6, [r4, #260]	@ 0x104
200058f4:	d08a      	beq.n	2000580c <d_print_mod+0x2c8>
200058f6:	463d      	mov	r5, r7
200058f8:	29ff      	cmp	r1, #255	@ 0xff
200058fa:	460b      	mov	r3, r1
200058fc:	f815 6b01 	ldrb.w	r6, [r5], #1
20005900:	d1f0      	bne.n	200058e4 <d_print_mod+0x3a0>
20005902:	4620      	mov	r0, r4
20005904:	f884 90ff 	strb.w	r9, [r4, #255]	@ 0xff
20005908:	3702      	adds	r7, #2
2000590a:	e9d4 3242 	ldrd	r3, r2, [r4, #264]	@ 0x108
2000590e:	4798      	blx	r3
20005910:	f8d4 3128 	ldr.w	r3, [r4, #296]	@ 0x128
20005914:	45aa      	cmp	sl, r5
20005916:	7026      	strb	r6, [r4, #0]
20005918:	f103 0301 	add.w	r3, r3, #1
2000591c:	f884 6104 	strb.w	r6, [r4, #260]	@ 0x104
20005920:	f8c4 8100 	str.w	r8, [r4, #256]	@ 0x100
20005924:	f8c4 3128 	str.w	r3, [r4, #296]	@ 0x128
20005928:	f43f af70 	beq.w	2000580c <d_print_mod+0x2c8>
2000592c:	782e      	ldrb	r6, [r5, #0]
2000592e:	2301      	movs	r3, #1
20005930:	e7d9      	b.n	200058e6 <d_print_mod+0x3a2>
20005932:	bf00      	nop
20005934:	2000ce3f 	.word	0x2000ce3f
20005938:	2000ce4b 	.word	0x2000ce4b
2000593c:	2000ce58 	.word	0x2000ce58
20005940:	2000ce88 	.word	0x2000ce88
20005944:	2000ce8b 	.word	0x2000ce8b
20005948:	2000ce98 	.word	0x2000ce98
2000594c:	2000ce80 	.word	0x2000ce80
20005950:	f890 3104 	ldrb.w	r3, [r0, #260]	@ 0x104
20005954:	2b28      	cmp	r3, #40	@ 0x28
20005956:	f040 8105 	bne.w	20005b64 <d_print_mod+0x620>
2000595a:	4fc9      	ldr	r7, [pc, #804]	@ (20005c80 <d_print_mod+0x73c>)
2000595c:	2111      	movs	r1, #17
2000595e:	68ea      	ldr	r2, [r5, #12]
20005960:	4620      	mov	r0, r4
20005962:	f7ff fdc1 	bl	200054e8 <d_print_comp>
20005966:	f04f 0900 	mov.w	r9, #0
2000596a:	f8d4 1100 	ldr.w	r1, [r4, #256]	@ 0x100
2000596e:	f107 0a03 	add.w	sl, r7, #3
20005972:	f04f 0801 	mov.w	r8, #1
20005976:	e009      	b.n	2000598c <d_print_mod+0x448>
20005978:	462f      	mov	r7, r5
2000597a:	1c59      	adds	r1, r3, #1
2000597c:	45ba      	cmp	sl, r7
2000597e:	f8c4 1100 	str.w	r1, [r4, #256]	@ 0x100
20005982:	54e6      	strb	r6, [r4, r3]
20005984:	f884 6104 	strb.w	r6, [r4, #260]	@ 0x104
20005988:	f43f af40 	beq.w	2000580c <d_print_mod+0x2c8>
2000598c:	463d      	mov	r5, r7
2000598e:	29ff      	cmp	r1, #255	@ 0xff
20005990:	460b      	mov	r3, r1
20005992:	f815 6b01 	ldrb.w	r6, [r5], #1
20005996:	d1ef      	bne.n	20005978 <d_print_mod+0x434>
20005998:	4620      	mov	r0, r4
2000599a:	f884 90ff 	strb.w	r9, [r4, #255]	@ 0xff
2000599e:	3702      	adds	r7, #2
200059a0:	e9d4 3242 	ldrd	r3, r2, [r4, #264]	@ 0x108
200059a4:	4798      	blx	r3
200059a6:	f8d4 3128 	ldr.w	r3, [r4, #296]	@ 0x128
200059aa:	45aa      	cmp	sl, r5
200059ac:	7026      	strb	r6, [r4, #0]
200059ae:	f103 0301 	add.w	r3, r3, #1
200059b2:	f884 6104 	strb.w	r6, [r4, #260]	@ 0x104
200059b6:	f8c4 8100 	str.w	r8, [r4, #256]	@ 0x100
200059ba:	f8c4 3128 	str.w	r3, [r4, #296]	@ 0x128
200059be:	f43f af25 	beq.w	2000580c <d_print_mod+0x2c8>
200059c2:	782e      	ldrb	r6, [r5, #0]
200059c4:	2301      	movs	r3, #1
200059c6:	e7d8      	b.n	2000597a <d_print_mod+0x436>
200059c8:	f8df 82c0 	ldr.w	r8, [pc, #704]	@ 20005c8c <d_print_mod+0x748>
200059cc:	f04f 0a00 	mov.w	sl, #0
200059d0:	f8d0 1100 	ldr.w	r1, [r0, #256]	@ 0x100
200059d4:	f04f 0901 	mov.w	r9, #1
200059d8:	f108 0b0a 	add.w	fp, r8, #10
200059dc:	e009      	b.n	200059f2 <d_print_mod+0x4ae>
200059de:	46b0      	mov	r8, r6
200059e0:	1c59      	adds	r1, r3, #1
200059e2:	45c3      	cmp	fp, r8
200059e4:	f8c4 1100 	str.w	r1, [r4, #256]	@ 0x100
200059e8:	54e7      	strb	r7, [r4, r3]
200059ea:	f884 7104 	strb.w	r7, [r4, #260]	@ 0x104
200059ee:	f000 80a7 	beq.w	20005b40 <d_print_mod+0x5fc>
200059f2:	4646      	mov	r6, r8
200059f4:	29ff      	cmp	r1, #255	@ 0xff
200059f6:	460b      	mov	r3, r1
200059f8:	f816 7b01 	ldrb.w	r7, [r6], #1
200059fc:	d1ef      	bne.n	200059de <d_print_mod+0x49a>
200059fe:	4620      	mov	r0, r4
20005a00:	f884 a0ff 	strb.w	sl, [r4, #255]	@ 0xff
20005a04:	f108 0802 	add.w	r8, r8, #2
20005a08:	e9d4 3242 	ldrd	r3, r2, [r4, #264]	@ 0x108
20005a0c:	4798      	blx	r3
20005a0e:	f8d4 3128 	ldr.w	r3, [r4, #296]	@ 0x128
20005a12:	455e      	cmp	r6, fp
20005a14:	7027      	strb	r7, [r4, #0]
20005a16:	f103 0301 	add.w	r3, r3, #1
20005a1a:	f884 7104 	strb.w	r7, [r4, #260]	@ 0x104
20005a1e:	f8c4 9100 	str.w	r9, [r4, #256]	@ 0x100
20005a22:	f8c4 3128 	str.w	r3, [r4, #296]	@ 0x128
20005a26:	f000 808b 	beq.w	20005b40 <d_print_mod+0x5fc>
20005a2a:	7837      	ldrb	r7, [r6, #0]
20005a2c:	2301      	movs	r3, #1
20005a2e:	e7d7      	b.n	200059e0 <d_print_mod+0x49c>
20005a30:	4d94      	ldr	r5, [pc, #592]	@ (20005c84 <d_print_mod+0x740>)
20005a32:	f04f 0900 	mov.w	r9, #0
20005a36:	f8d0 1100 	ldr.w	r1, [r0, #256]	@ 0x100
20005a3a:	f04f 0801 	mov.w	r8, #1
20005a3e:	f105 0a11 	add.w	sl, r5, #17
20005a42:	e009      	b.n	20005a58 <d_print_mod+0x514>
20005a44:	463d      	mov	r5, r7
20005a46:	1c59      	adds	r1, r3, #1
20005a48:	45aa      	cmp	sl, r5
20005a4a:	f8c4 1100 	str.w	r1, [r4, #256]	@ 0x100
20005a4e:	54e6      	strb	r6, [r4, r3]
20005a50:	f884 6104 	strb.w	r6, [r4, #260]	@ 0x104
20005a54:	f43f aeda 	beq.w	2000580c <d_print_mod+0x2c8>
20005a58:	29ff      	cmp	r1, #255	@ 0xff
20005a5a:	786e      	ldrb	r6, [r5, #1]
20005a5c:	f105 0701 	add.w	r7, r5, #1
20005a60:	460b      	mov	r3, r1
20005a62:	d1ef      	bne.n	20005a44 <d_print_mod+0x500>
20005a64:	4620      	mov	r0, r4
20005a66:	f884 90ff 	strb.w	r9, [r4, #255]	@ 0xff
20005a6a:	e9d4 3242 	ldrd	r3, r2, [r4, #264]	@ 0x108
20005a6e:	4798      	blx	r3
20005a70:	f8d4 3128 	ldr.w	r3, [r4, #296]	@ 0x128
20005a74:	45ba      	cmp	sl, r7
20005a76:	7026      	strb	r6, [r4, #0]
20005a78:	f103 0301 	add.w	r3, r3, #1
20005a7c:	f884 6104 	strb.w	r6, [r4, #260]	@ 0x104
20005a80:	f8c4 8100 	str.w	r8, [r4, #256]	@ 0x100
20005a84:	f8c4 3128 	str.w	r3, [r4, #296]	@ 0x128
20005a88:	f43f aec0 	beq.w	2000580c <d_print_mod+0x2c8>
20005a8c:	f815 6f02 	ldrb.w	r6, [r5, #2]!
20005a90:	2301      	movs	r3, #1
20005a92:	e7d8      	b.n	20005a46 <d_print_mod+0x502>
20005a94:	4e7c      	ldr	r6, [pc, #496]	@ (20005c88 <d_print_mod+0x744>)
20005a96:	f04f 0a00 	mov.w	sl, #0
20005a9a:	f8d0 1100 	ldr.w	r1, [r0, #256]	@ 0x100
20005a9e:	f04f 0901 	mov.w	r9, #1
20005aa2:	f106 0b09 	add.w	fp, r6, #9
20005aa6:	e008      	b.n	20005aba <d_print_mod+0x576>
20005aa8:	4646      	mov	r6, r8
20005aaa:	1c59      	adds	r1, r3, #1
20005aac:	45b3      	cmp	fp, r6
20005aae:	f8c4 1100 	str.w	r1, [r4, #256]	@ 0x100
20005ab2:	54e7      	strb	r7, [r4, r3]
20005ab4:	f884 7104 	strb.w	r7, [r4, #260]	@ 0x104
20005ab8:	d01d      	beq.n	20005af6 <d_print_mod+0x5b2>
20005aba:	29ff      	cmp	r1, #255	@ 0xff
20005abc:	7877      	ldrb	r7, [r6, #1]
20005abe:	f106 0801 	add.w	r8, r6, #1
20005ac2:	460b      	mov	r3, r1
20005ac4:	d1f0      	bne.n	20005aa8 <d_print_mod+0x564>
20005ac6:	4620      	mov	r0, r4
20005ac8:	f884 a0ff 	strb.w	sl, [r4, #255]	@ 0xff
20005acc:	e9d4 3242 	ldrd	r3, r2, [r4, #264]	@ 0x108
20005ad0:	4798      	blx	r3
20005ad2:	f8d4 3128 	ldr.w	r3, [r4, #296]	@ 0x128
20005ad6:	45c3      	cmp	fp, r8
20005ad8:	7027      	strb	r7, [r4, #0]
20005ada:	f103 0301 	add.w	r3, r3, #1
20005ade:	f884 7104 	strb.w	r7, [r4, #260]	@ 0x104
20005ae2:	f8c4 9100 	str.w	r9, [r4, #256]	@ 0x100
20005ae6:	f8c4 3128 	str.w	r3, [r4, #296]	@ 0x128
20005aea:	f000 8092 	beq.w	20005c12 <d_print_mod+0x6ce>
20005aee:	f816 7f02 	ldrb.w	r7, [r6, #2]!
20005af2:	2301      	movs	r3, #1
20005af4:	e7d9      	b.n	20005aaa <d_print_mod+0x566>
20005af6:	692a      	ldr	r2, [r5, #16]
20005af8:	2a00      	cmp	r2, #0
20005afa:	f43f ae87 	beq.w	2000580c <d_print_mod+0x2c8>
20005afe:	29ff      	cmp	r1, #255	@ 0xff
20005b00:	f000 808d 	beq.w	20005c1e <d_print_mod+0x6da>
20005b04:	1c48      	adds	r0, r1, #1
20005b06:	2328      	movs	r3, #40	@ 0x28
20005b08:	f8c4 0100 	str.w	r0, [r4, #256]	@ 0x100
20005b0c:	4620      	mov	r0, r4
20005b0e:	5463      	strb	r3, [r4, r1]
20005b10:	2111      	movs	r1, #17
20005b12:	f884 3104 	strb.w	r3, [r4, #260]	@ 0x104
20005b16:	f7ff fce7 	bl	200054e8 <d_print_comp>
20005b1a:	f8d4 1100 	ldr.w	r1, [r4, #256]	@ 0x100
20005b1e:	29ff      	cmp	r1, #255	@ 0xff
20005b20:	d117      	bne.n	20005b52 <d_print_mod+0x60e>
20005b22:	2500      	movs	r5, #0
20005b24:	4620      	mov	r0, r4
20005b26:	e9d4 3242 	ldrd	r3, r2, [r4, #264]	@ 0x108
20005b2a:	f884 50ff 	strb.w	r5, [r4, #255]	@ 0xff
20005b2e:	4798      	blx	r3
20005b30:	f8d4 3128 	ldr.w	r3, [r4, #296]	@ 0x128
20005b34:	2201      	movs	r2, #1
20005b36:	4629      	mov	r1, r5
20005b38:	4413      	add	r3, r2
20005b3a:	f8c4 3128 	str.w	r3, [r4, #296]	@ 0x128
20005b3e:	e009      	b.n	20005b54 <d_print_mod+0x610>
20005b40:	2111      	movs	r1, #17
20005b42:	68ea      	ldr	r2, [r5, #12]
20005b44:	4620      	mov	r0, r4
20005b46:	f7ff fccf 	bl	200054e8 <d_print_comp>
20005b4a:	f8d4 1100 	ldr.w	r1, [r4, #256]	@ 0x100
20005b4e:	29ff      	cmp	r1, #255	@ 0xff
20005b50:	d0e7      	beq.n	20005b22 <d_print_mod+0x5de>
20005b52:	1c4a      	adds	r2, r1, #1
20005b54:	2329      	movs	r3, #41	@ 0x29
20005b56:	f8c4 2100 	str.w	r2, [r4, #256]	@ 0x100
20005b5a:	5463      	strb	r3, [r4, r1]
20005b5c:	f884 3104 	strb.w	r3, [r4, #260]	@ 0x104
20005b60:	e8bd 8ff8 	ldmia.w	sp!, {r3, r4, r5, r6, r7, r8, r9, sl, fp, pc}
20005b64:	f8d0 1100 	ldr.w	r1, [r0, #256]	@ 0x100
20005b68:	29ff      	cmp	r1, #255	@ 0xff
20005b6a:	d06a      	beq.n	20005c42 <d_print_mod+0x6fe>
20005b6c:	1c4a      	adds	r2, r1, #1
20005b6e:	2320      	movs	r3, #32
20005b70:	f8c4 2100 	str.w	r2, [r4, #256]	@ 0x100
20005b74:	5463      	strb	r3, [r4, r1]
20005b76:	f884 3104 	strb.w	r3, [r4, #260]	@ 0x104
20005b7a:	e6ee      	b.n	2000595a <d_print_mod+0x416>
20005b7c:	f8d0 1100 	ldr.w	r1, [r0, #256]	@ 0x100
20005b80:	29ff      	cmp	r1, #255	@ 0xff
20005b82:	d06e      	beq.n	20005c62 <d_print_mod+0x71e>
20005b84:	1c4a      	adds	r2, r1, #1
20005b86:	232a      	movs	r3, #42	@ 0x2a
20005b88:	f8c4 2100 	str.w	r2, [r4, #256]	@ 0x100
20005b8c:	5463      	strb	r3, [r4, r1]
20005b8e:	f884 3104 	strb.w	r3, [r4, #260]	@ 0x104
20005b92:	e63b      	b.n	2000580c <d_print_mod+0x2c8>
20005b94:	2000      	movs	r0, #0
20005b96:	4619      	mov	r1, r3
20005b98:	e9d4 5242 	ldrd	r5, r2, [r4, #264]	@ 0x108
20005b9c:	f884 00ff 	strb.w	r0, [r4, #255]	@ 0xff
20005ba0:	4620      	mov	r0, r4
20005ba2:	47a8      	blx	r5
20005ba4:	f8d4 3128 	ldr.w	r3, [r4, #296]	@ 0x128
20005ba8:	2101      	movs	r1, #1
20005baa:	2220      	movs	r2, #32
20005bac:	440b      	add	r3, r1
20005bae:	7022      	strb	r2, [r4, #0]
20005bb0:	f8c4 3128 	str.w	r3, [r4, #296]	@ 0x128
20005bb4:	e623      	b.n	200057fe <d_print_mod+0x2ba>
20005bb6:	2600      	movs	r6, #0
20005bb8:	f8d0 3108 	ldr.w	r3, [r0, #264]	@ 0x108
20005bbc:	f8d0 210c 	ldr.w	r2, [r0, #268]	@ 0x10c
20005bc0:	f880 60ff 	strb.w	r6, [r0, #255]	@ 0xff
20005bc4:	4798      	blx	r3
20005bc6:	f8d4 3128 	ldr.w	r3, [r4, #296]	@ 0x128
20005bca:	2201      	movs	r2, #1
20005bcc:	4631      	mov	r1, r6
20005bce:	4413      	add	r3, r2
20005bd0:	f8c4 3128 	str.w	r3, [r4, #296]	@ 0x128
20005bd4:	e5fd      	b.n	200057d2 <d_print_mod+0x28e>
20005bd6:	2500      	movs	r5, #0
20005bd8:	4619      	mov	r1, r3
20005bda:	e9d0 6242 	ldrd	r6, r2, [r0, #264]	@ 0x108
20005bde:	f880 50ff 	strb.w	r5, [r0, #255]	@ 0xff
20005be2:	47b0      	blx	r6
20005be4:	f8d4 2128 	ldr.w	r2, [r4, #296]	@ 0x128
20005be8:	2101      	movs	r1, #1
20005bea:	462b      	mov	r3, r5
20005bec:	440a      	add	r2, r1
20005bee:	f8c4 2128 	str.w	r2, [r4, #296]	@ 0x128
20005bf2:	e5e1      	b.n	200057b8 <d_print_mod+0x274>
20005bf4:	2500      	movs	r5, #0
20005bf6:	4620      	mov	r0, r4
20005bf8:	e9d4 3242 	ldrd	r3, r2, [r4, #264]	@ 0x108
20005bfc:	f884 50ff 	strb.w	r5, [r4, #255]	@ 0xff
20005c00:	4798      	blx	r3
20005c02:	f8d4 3128 	ldr.w	r3, [r4, #296]	@ 0x128
20005c06:	2201      	movs	r2, #1
20005c08:	4629      	mov	r1, r5
20005c0a:	4413      	add	r3, r2
20005c0c:	f8c4 3128 	str.w	r3, [r4, #296]	@ 0x128
20005c10:	e5f6      	b.n	20005800 <d_print_mod+0x2bc>
20005c12:	692a      	ldr	r2, [r5, #16]
20005c14:	2a00      	cmp	r2, #0
20005c16:	f43f adf9 	beq.w	2000580c <d_print_mod+0x2c8>
20005c1a:	2101      	movs	r1, #1
20005c1c:	e772      	b.n	20005b04 <d_print_mod+0x5c0>
20005c1e:	2600      	movs	r6, #0
20005c20:	f8d4 3108 	ldr.w	r3, [r4, #264]	@ 0x108
20005c24:	f8d4 210c 	ldr.w	r2, [r4, #268]	@ 0x10c
20005c28:	4620      	mov	r0, r4
20005c2a:	f884 60ff 	strb.w	r6, [r4, #255]	@ 0xff
20005c2e:	4798      	blx	r3
20005c30:	f8d4 3128 	ldr.w	r3, [r4, #296]	@ 0x128
20005c34:	2001      	movs	r0, #1
20005c36:	692a      	ldr	r2, [r5, #16]
20005c38:	4631      	mov	r1, r6
20005c3a:	4403      	add	r3, r0
20005c3c:	f8c4 3128 	str.w	r3, [r4, #296]	@ 0x128
20005c40:	e761      	b.n	20005b06 <d_print_mod+0x5c2>
20005c42:	2600      	movs	r6, #0
20005c44:	f8d0 3108 	ldr.w	r3, [r0, #264]	@ 0x108
20005c48:	f8d0 210c 	ldr.w	r2, [r0, #268]	@ 0x10c
20005c4c:	f880 60ff 	strb.w	r6, [r0, #255]	@ 0xff
20005c50:	4798      	blx	r3
20005c52:	f8d4 3128 	ldr.w	r3, [r4, #296]	@ 0x128
20005c56:	2201      	movs	r2, #1
20005c58:	4631      	mov	r1, r6
20005c5a:	4413      	add	r3, r2
20005c5c:	f8c4 3128 	str.w	r3, [r4, #296]	@ 0x128
20005c60:	e785      	b.n	20005b6e <d_print_mod+0x62a>
20005c62:	2500      	movs	r5, #0
20005c64:	e9d0 3242 	ldrd	r3, r2, [r0, #264]	@ 0x108
20005c68:	f880 50ff 	strb.w	r5, [r0, #255]	@ 0xff
20005c6c:	4798      	blx	r3
20005c6e:	f8d4 3128 	ldr.w	r3, [r4, #296]	@ 0x128
20005c72:	2201      	movs	r2, #1
20005c74:	4629      	mov	r1, r5
20005c76:	4413      	add	r3, r2
20005c78:	f8c4 3128 	str.w	r3, [r4, #296]	@ 0x128
20005c7c:	e783      	b.n	20005b86 <d_print_mod+0x642>
20005c7e:	bf00      	nop
20005c80:	2000cea4 	.word	0x2000cea4
20005c84:	2000ce5f 	.word	0x2000ce5f
20005c88:	2000ce73 	.word	0x2000ce73
20005c8c:	2000cea8 	.word	0x2000cea8

20005c90 <d_print_function_type>:
20005c90:	e92d 43f8 	stmdb	sp!, {r3, r4, r5, r6, r7, r8, r9, lr}
20005c94:	4604      	mov	r4, r0
20005c96:	4616      	mov	r6, r2
20005c98:	461d      	mov	r5, r3
20005c9a:	2b00      	cmp	r3, #0
20005c9c:	d064      	beq.n	20005d68 <d_print_function_type+0xd8>
20005c9e:	2001      	movs	r0, #1
20005ca0:	4f71      	ldr	r7, [pc, #452]	@ (20005e68 <d_print_function_type+0x1d8>)
20005ca2:	689a      	ldr	r2, [r3, #8]
20005ca4:	2a00      	cmp	r2, #0
20005ca6:	d15f      	bne.n	20005d68 <d_print_function_type+0xd8>
20005ca8:	685a      	ldr	r2, [r3, #4]
20005caa:	7811      	ldrb	r1, [r2, #0]
20005cac:	3919      	subs	r1, #25
20005cae:	b2c9      	uxtb	r1, r1
20005cb0:	2912      	cmp	r1, #18
20005cb2:	fa00 f201 	lsl.w	r2, r0, r1
20005cb6:	d854      	bhi.n	20005d62 <d_print_function_type+0xd2>
20005cb8:	423a      	tst	r2, r7
20005cba:	d17b      	bne.n	20005db4 <d_print_function_type+0x124>
20005cbc:	f412 6f60 	tst.w	r2, #3584	@ 0xe00
20005cc0:	d04f      	beq.n	20005d62 <d_print_function_type+0xd2>
20005cc2:	f894 3104 	ldrb.w	r3, [r4, #260]	@ 0x104
20005cc6:	f003 02fd 	and.w	r2, r3, #253	@ 0xfd
20005cca:	2a28      	cmp	r2, #40	@ 0x28
20005ccc:	d174      	bne.n	20005db8 <d_print_function_type+0x128>
20005cce:	f8d4 1100 	ldr.w	r1, [r4, #256]	@ 0x100
20005cd2:	29ff      	cmp	r1, #255	@ 0xff
20005cd4:	f000 8081 	beq.w	20005dda <d_print_function_type+0x14a>
20005cd8:	1c4b      	adds	r3, r1, #1
20005cda:	f04f 0828 	mov.w	r8, #40	@ 0x28
20005cde:	f04f 0900 	mov.w	r9, #0
20005ce2:	f8c4 3100 	str.w	r3, [r4, #256]	@ 0x100
20005ce6:	462a      	mov	r2, r5
20005ce8:	f804 8001 	strb.w	r8, [r4, r1]
20005cec:	464b      	mov	r3, r9
20005cee:	f8d4 7114 	ldr.w	r7, [r4, #276]	@ 0x114
20005cf2:	2111      	movs	r1, #17
20005cf4:	4620      	mov	r0, r4
20005cf6:	f884 8104 	strb.w	r8, [r4, #260]	@ 0x104
20005cfa:	f8c4 9114 	str.w	r9, [r4, #276]	@ 0x114
20005cfe:	f000 f8b5 	bl	20005e6c <d_print_mod_list>
20005d02:	f8d4 1100 	ldr.w	r1, [r4, #256]	@ 0x100
20005d06:	29ff      	cmp	r1, #255	@ 0xff
20005d08:	f000 8085 	beq.w	20005e16 <d_print_function_type+0x186>
20005d0c:	1c4b      	adds	r3, r1, #1
20005d0e:	2229      	movs	r2, #41	@ 0x29
20005d10:	2bff      	cmp	r3, #255	@ 0xff
20005d12:	f8c4 3100 	str.w	r3, [r4, #256]	@ 0x100
20005d16:	5462      	strb	r2, [r4, r1]
20005d18:	f884 2104 	strb.w	r2, [r4, #260]	@ 0x104
20005d1c:	d032      	beq.n	20005d84 <d_print_function_type+0xf4>
20005d1e:	2228      	movs	r2, #40	@ 0x28
20005d20:	1c59      	adds	r1, r3, #1
20005d22:	f8c4 1100 	str.w	r1, [r4, #256]	@ 0x100
20005d26:	54e2      	strb	r2, [r4, r3]
20005d28:	f884 2104 	strb.w	r2, [r4, #260]	@ 0x104
20005d2c:	6932      	ldr	r2, [r6, #16]
20005d2e:	b12a      	cbz	r2, 20005d3c <d_print_function_type+0xac>
20005d30:	2111      	movs	r1, #17
20005d32:	4620      	mov	r0, r4
20005d34:	f7ff fbd8 	bl	200054e8 <d_print_comp>
20005d38:	f8d4 1100 	ldr.w	r1, [r4, #256]	@ 0x100
20005d3c:	29ff      	cmp	r1, #255	@ 0xff
20005d3e:	d05b      	beq.n	20005df8 <d_print_function_type+0x168>
20005d40:	1c4b      	adds	r3, r1, #1
20005d42:	2029      	movs	r0, #41	@ 0x29
20005d44:	f8c4 3100 	str.w	r3, [r4, #256]	@ 0x100
20005d48:	462a      	mov	r2, r5
20005d4a:	2301      	movs	r3, #1
20005d4c:	5460      	strb	r0, [r4, r1]
20005d4e:	2111      	movs	r1, #17
20005d50:	f884 0104 	strb.w	r0, [r4, #260]	@ 0x104
20005d54:	4620      	mov	r0, r4
20005d56:	f000 f889 	bl	20005e6c <d_print_mod_list>
20005d5a:	f8c4 7114 	str.w	r7, [r4, #276]	@ 0x114
20005d5e:	e8bd 83f8 	ldmia.w	sp!, {r3, r4, r5, r6, r7, r8, r9, pc}
20005d62:	681b      	ldr	r3, [r3, #0]
20005d64:	2b00      	cmp	r3, #0
20005d66:	d19c      	bne.n	20005ca2 <d_print_function_type+0x12>
20005d68:	2300      	movs	r3, #0
20005d6a:	f8d4 7114 	ldr.w	r7, [r4, #276]	@ 0x114
20005d6e:	462a      	mov	r2, r5
20005d70:	2111      	movs	r1, #17
20005d72:	f8c4 3114 	str.w	r3, [r4, #276]	@ 0x114
20005d76:	4620      	mov	r0, r4
20005d78:	f000 f878 	bl	20005e6c <d_print_mod_list>
20005d7c:	f8d4 3100 	ldr.w	r3, [r4, #256]	@ 0x100
20005d80:	2bff      	cmp	r3, #255	@ 0xff
20005d82:	d1cc      	bne.n	20005d1e <d_print_function_type+0x8e>
20005d84:	4619      	mov	r1, r3
20005d86:	2300      	movs	r3, #0
20005d88:	4620      	mov	r0, r4
20005d8a:	f884 30ff 	strb.w	r3, [r4, #255]	@ 0xff
20005d8e:	e9d4 3242 	ldrd	r3, r2, [r4, #264]	@ 0x108
20005d92:	4798      	blx	r3
20005d94:	f8d4 3128 	ldr.w	r3, [r4, #296]	@ 0x128
20005d98:	2101      	movs	r1, #1
20005d9a:	3301      	adds	r3, #1
20005d9c:	f8c4 1100 	str.w	r1, [r4, #256]	@ 0x100
20005da0:	f8c4 3128 	str.w	r3, [r4, #296]	@ 0x128
20005da4:	2328      	movs	r3, #40	@ 0x28
20005da6:	7023      	strb	r3, [r4, #0]
20005da8:	f884 3104 	strb.w	r3, [r4, #260]	@ 0x104
20005dac:	6932      	ldr	r2, [r6, #16]
20005dae:	2a00      	cmp	r2, #0
20005db0:	d1be      	bne.n	20005d30 <d_print_function_type+0xa0>
20005db2:	e7c5      	b.n	20005d40 <d_print_function_type+0xb0>
20005db4:	f894 3104 	ldrb.w	r3, [r4, #260]	@ 0x104
20005db8:	2b20      	cmp	r3, #32
20005dba:	f8d4 1100 	ldr.w	r1, [r4, #256]	@ 0x100
20005dbe:	d088      	beq.n	20005cd2 <d_print_function_type+0x42>
20005dc0:	29ff      	cmp	r1, #255	@ 0xff
20005dc2:	d040      	beq.n	20005e46 <d_print_function_type+0x1b6>
20005dc4:	1c4a      	adds	r2, r1, #1
20005dc6:	2320      	movs	r3, #32
20005dc8:	f8c4 2100 	str.w	r2, [r4, #256]	@ 0x100
20005dcc:	5463      	strb	r3, [r4, r1]
20005dce:	4611      	mov	r1, r2
20005dd0:	f884 3104 	strb.w	r3, [r4, #260]	@ 0x104
20005dd4:	29ff      	cmp	r1, #255	@ 0xff
20005dd6:	f47f af7f 	bne.w	20005cd8 <d_print_function_type+0x48>
20005dda:	2700      	movs	r7, #0
20005ddc:	4620      	mov	r0, r4
20005dde:	e9d4 3242 	ldrd	r3, r2, [r4, #264]	@ 0x108
20005de2:	f884 70ff 	strb.w	r7, [r4, #255]	@ 0xff
20005de6:	4798      	blx	r3
20005de8:	f8d4 3128 	ldr.w	r3, [r4, #296]	@ 0x128
20005dec:	4639      	mov	r1, r7
20005dee:	3301      	adds	r3, #1
20005df0:	f8c4 3128 	str.w	r3, [r4, #296]	@ 0x128
20005df4:	2301      	movs	r3, #1
20005df6:	e770      	b.n	20005cda <d_print_function_type+0x4a>
20005df8:	2600      	movs	r6, #0
20005dfa:	4620      	mov	r0, r4
20005dfc:	e9d4 3242 	ldrd	r3, r2, [r4, #264]	@ 0x108
20005e00:	f884 60ff 	strb.w	r6, [r4, #255]	@ 0xff
20005e04:	4798      	blx	r3
20005e06:	f8d4 3128 	ldr.w	r3, [r4, #296]	@ 0x128
20005e0a:	4631      	mov	r1, r6
20005e0c:	3301      	adds	r3, #1
20005e0e:	f8c4 3128 	str.w	r3, [r4, #296]	@ 0x128
20005e12:	2301      	movs	r3, #1
20005e14:	e795      	b.n	20005d42 <d_print_function_type+0xb2>
20005e16:	e9d4 3242 	ldrd	r3, r2, [r4, #264]	@ 0x108
20005e1a:	4620      	mov	r0, r4
20005e1c:	f884 90ff 	strb.w	r9, [r4, #255]	@ 0xff
20005e20:	4798      	blx	r3
20005e22:	f8d4 3128 	ldr.w	r3, [r4, #296]	@ 0x128
20005e26:	2102      	movs	r1, #2
20005e28:	f884 8104 	strb.w	r8, [r4, #260]	@ 0x104
20005e2c:	3301      	adds	r3, #1
20005e2e:	f8c4 1100 	str.w	r1, [r4, #256]	@ 0x100
20005e32:	f8c4 3128 	str.w	r3, [r4, #296]	@ 0x128
20005e36:	f642 0329 	movw	r3, #10281	@ 0x2829
20005e3a:	8023      	strh	r3, [r4, #0]
20005e3c:	6932      	ldr	r2, [r6, #16]
20005e3e:	2a00      	cmp	r2, #0
20005e40:	f47f af76 	bne.w	20005d30 <d_print_function_type+0xa0>
20005e44:	e77c      	b.n	20005d40 <d_print_function_type+0xb0>
20005e46:	2300      	movs	r3, #0
20005e48:	4620      	mov	r0, r4
20005e4a:	f884 30ff 	strb.w	r3, [r4, #255]	@ 0xff
20005e4e:	e9d4 3242 	ldrd	r3, r2, [r4, #264]	@ 0x108
20005e52:	4798      	blx	r3
20005e54:	f8d4 3128 	ldr.w	r3, [r4, #296]	@ 0x128
20005e58:	2220      	movs	r2, #32
20005e5a:	2101      	movs	r1, #1
20005e5c:	3301      	adds	r3, #1
20005e5e:	7022      	strb	r2, [r4, #0]
20005e60:	f8c4 3128 	str.w	r3, [r4, #296]	@ 0x128
20005e64:	e738      	b.n	20005cd8 <d_print_function_type+0x48>
20005e66:	bf00      	nop
20005e68:	00043107 	.word	0x00043107

20005e6c <d_print_mod_list>:
20005e6c:	2a00      	cmp	r2, #0
20005e6e:	f000 80e0 	beq.w	20006032 <d_print_mod_list+0x1c6>
20005e72:	e92d 4ff0 	stmdb	sp!, {r4, r5, r6, r7, r8, r9, sl, fp, lr}
20005e76:	4604      	mov	r4, r0
20005e78:	b089      	sub	sp, #36	@ 0x24
20005e7a:	4616      	mov	r6, r2
20005e7c:	2701      	movs	r7, #1
20005e7e:	461d      	mov	r5, r3
20005e80:	f8d4 3118 	ldr.w	r3, [r4, #280]	@ 0x118
20005e84:	bb03      	cbnz	r3, 20005ec8 <d_print_mod_list+0x5c>
20005e86:	68b3      	ldr	r3, [r6, #8]
20005e88:	bb0b      	cbnz	r3, 20005ece <d_print_mod_list+0x62>
20005e8a:	6872      	ldr	r2, [r6, #4]
20005e8c:	7813      	ldrb	r3, [r2, #0]
20005e8e:	b935      	cbnz	r5, 20005e9e <d_print_mod_list+0x32>
20005e90:	2b4e      	cmp	r3, #78	@ 0x4e
20005e92:	d01c      	beq.n	20005ece <d_print_mod_list+0x62>
20005e94:	d81f      	bhi.n	20005ed6 <d_print_mod_list+0x6a>
20005e96:	f1a3 011c 	sub.w	r1, r3, #28
20005e9a:	2904      	cmp	r1, #4
20005e9c:	d917      	bls.n	20005ece <d_print_mod_list+0x62>
20005e9e:	68f1      	ldr	r1, [r6, #12]
20005ea0:	2b29      	cmp	r3, #41	@ 0x29
20005ea2:	f8d4 8110 	ldr.w	r8, [r4, #272]	@ 0x110
20005ea6:	60b7      	str	r7, [r6, #8]
20005ea8:	f8c4 1110 	str.w	r1, [r4, #272]	@ 0x110
20005eac:	d01e      	beq.n	20005eec <d_print_mod_list+0x80>
20005eae:	2b2a      	cmp	r3, #42	@ 0x2a
20005eb0:	d026      	beq.n	20005f00 <d_print_mod_list+0x94>
20005eb2:	2b02      	cmp	r3, #2
20005eb4:	d02e      	beq.n	20005f14 <d_print_mod_list+0xa8>
20005eb6:	2111      	movs	r1, #17
20005eb8:	4620      	mov	r0, r4
20005eba:	f7ff fb43 	bl	20005544 <d_print_mod>
20005ebe:	6836      	ldr	r6, [r6, #0]
20005ec0:	f8c4 8110 	str.w	r8, [r4, #272]	@ 0x110
20005ec4:	2e00      	cmp	r6, #0
20005ec6:	d1db      	bne.n	20005e80 <d_print_mod_list+0x14>
20005ec8:	b009      	add	sp, #36	@ 0x24
20005eca:	e8bd 8ff0 	ldmia.w	sp!, {r4, r5, r6, r7, r8, r9, sl, fp, pc}
20005ece:	6836      	ldr	r6, [r6, #0]
20005ed0:	2e00      	cmp	r6, #0
20005ed2:	d1d5      	bne.n	20005e80 <d_print_mod_list+0x14>
20005ed4:	e7f8      	b.n	20005ec8 <d_print_mod_list+0x5c>
20005ed6:	3b50      	subs	r3, #80	@ 0x50
20005ed8:	2b01      	cmp	r3, #1
20005eda:	d9f8      	bls.n	20005ece <d_print_mod_list+0x62>
20005edc:	2301      	movs	r3, #1
20005ede:	f8d4 8110 	ldr.w	r8, [r4, #272]	@ 0x110
20005ee2:	60b3      	str	r3, [r6, #8]
20005ee4:	68f3      	ldr	r3, [r6, #12]
20005ee6:	f8c4 3110 	str.w	r3, [r4, #272]	@ 0x110
20005eea:	e7e4      	b.n	20005eb6 <d_print_mod_list+0x4a>
20005eec:	6833      	ldr	r3, [r6, #0]
20005eee:	2111      	movs	r1, #17
20005ef0:	4620      	mov	r0, r4
20005ef2:	f7ff fecd 	bl	20005c90 <d_print_function_type>
20005ef6:	f8c4 8110 	str.w	r8, [r4, #272]	@ 0x110
20005efa:	b009      	add	sp, #36	@ 0x24
20005efc:	e8bd 8ff0 	ldmia.w	sp!, {r4, r5, r6, r7, r8, r9, sl, fp, pc}
20005f00:	6833      	ldr	r3, [r6, #0]
20005f02:	2111      	movs	r1, #17
20005f04:	4620      	mov	r0, r4
20005f06:	f000 f915 	bl	20006134 <d_print_array_type>
20005f0a:	f8c4 8110 	str.w	r8, [r4, #272]	@ 0x110
20005f0e:	b009      	add	sp, #36	@ 0x24
20005f10:	e8bd 8ff0 	ldmia.w	sp!, {r4, r5, r6, r7, r8, r9, sl, fp, pc}
20005f14:	2300      	movs	r3, #0
20005f16:	f8d4 7114 	ldr.w	r7, [r4, #276]	@ 0x114
20005f1a:	4645      	mov	r5, r8
20005f1c:	f8df 8208 	ldr.w	r8, [pc, #520]	@ 20006128 <d_print_mod_list+0x2bc>
20005f20:	68d2      	ldr	r2, [r2, #12]
20005f22:	2111      	movs	r1, #17
20005f24:	4620      	mov	r0, r4
20005f26:	f8c4 3114 	str.w	r3, [r4, #276]	@ 0x114
20005f2a:	f7ff fadd 	bl	200054e8 <d_print_comp>
20005f2e:	f108 0902 	add.w	r9, r8, #2
20005f32:	f8d4 1100 	ldr.w	r1, [r4, #256]	@ 0x100
20005f36:	f8c4 7114 	str.w	r7, [r4, #276]	@ 0x114
20005f3a:	e009      	b.n	20005f50 <d_print_mod_list+0xe4>
20005f3c:	46b8      	mov	r8, r7
20005f3e:	1c59      	adds	r1, r3, #1
20005f40:	45c1      	cmp	r9, r8
20005f42:	f8c4 1100 	str.w	r1, [r4, #256]	@ 0x100
20005f46:	f804 a003 	strb.w	sl, [r4, r3]
20005f4a:	f884 a104 	strb.w	sl, [r4, #260]	@ 0x104
20005f4e:	d021      	beq.n	20005f94 <d_print_mod_list+0x128>
20005f50:	4647      	mov	r7, r8
20005f52:	29ff      	cmp	r1, #255	@ 0xff
20005f54:	460b      	mov	r3, r1
20005f56:	f817 ab01 	ldrb.w	sl, [r7], #1
20005f5a:	d1ef      	bne.n	20005f3c <d_print_mod_list+0xd0>
20005f5c:	2300      	movs	r3, #0
20005f5e:	4620      	mov	r0, r4
20005f60:	f108 0802 	add.w	r8, r8, #2
20005f64:	f884 30ff 	strb.w	r3, [r4, #255]	@ 0xff
20005f68:	e9d4 3242 	ldrd	r3, r2, [r4, #264]	@ 0x108
20005f6c:	4798      	blx	r3
20005f6e:	f8d4 3128 	ldr.w	r3, [r4, #296]	@ 0x128
20005f72:	2101      	movs	r1, #1
20005f74:	454f      	cmp	r7, r9
20005f76:	f103 0301 	add.w	r3, r3, #1
20005f7a:	f884 a000 	strb.w	sl, [r4]
20005f7e:	f884 a104 	strb.w	sl, [r4, #260]	@ 0x104
20005f82:	f8c4 3128 	str.w	r3, [r4, #296]	@ 0x128
20005f86:	460b      	mov	r3, r1
20005f88:	f8c4 1100 	str.w	r1, [r4, #256]	@ 0x100
20005f8c:	d002      	beq.n	20005f94 <d_print_mod_list+0x128>
20005f8e:	f897 a000 	ldrb.w	sl, [r7]
20005f92:	e7d4      	b.n	20005f3e <d_print_mod_list+0xd2>
20005f94:	6873      	ldr	r3, [r6, #4]
20005f96:	691e      	ldr	r6, [r3, #16]
20005f98:	7833      	ldrb	r3, [r6, #0]
20005f9a:	2b48      	cmp	r3, #72	@ 0x48
20005f9c:	d017      	beq.n	20005fce <d_print_mod_list+0x162>
20005f9e:	2b4e      	cmp	r3, #78	@ 0x4e
20005fa0:	f1a3 0250 	sub.w	r2, r3, #80	@ 0x50
20005fa4:	f1a3 011c 	sub.w	r1, r3, #28
20005fa8:	d00e      	beq.n	20005fc8 <d_print_mod_list+0x15c>
20005faa:	d80b      	bhi.n	20005fc4 <d_print_mod_list+0x158>
20005fac:	2904      	cmp	r1, #4
20005fae:	d90b      	bls.n	20005fc8 <d_print_mod_list+0x15c>
20005fb0:	4632      	mov	r2, r6
20005fb2:	2111      	movs	r1, #17
20005fb4:	4620      	mov	r0, r4
20005fb6:	f7ff fa97 	bl	200054e8 <d_print_comp>
20005fba:	f8c4 5110 	str.w	r5, [r4, #272]	@ 0x110
20005fbe:	b009      	add	sp, #36	@ 0x24
20005fc0:	e8bd 8ff0 	ldmia.w	sp!, {r4, r5, r6, r7, r8, r9, sl, fp, pc}
20005fc4:	2a01      	cmp	r2, #1
20005fc6:	d8f3      	bhi.n	20005fb0 <d_print_mod_list+0x144>
20005fc8:	68f6      	ldr	r6, [r6, #12]
20005fca:	7833      	ldrb	r3, [r6, #0]
20005fcc:	e7e7      	b.n	20005f9e <d_print_mod_list+0x132>
20005fce:	f8df 915c 	ldr.w	r9, [pc, #348]	@ 2000612c <d_print_mod_list+0x2c0>
20005fd2:	f04f 0a00 	mov.w	sl, #0
20005fd6:	f109 0b0d 	add.w	fp, r9, #13
20005fda:	e009      	b.n	20005ff0 <d_print_mod_list+0x184>
20005fdc:	46b9      	mov	r9, r7
20005fde:	1c59      	adds	r1, r3, #1
20005fe0:	45cb      	cmp	fp, r9
20005fe2:	f8c4 1100 	str.w	r1, [r4, #256]	@ 0x100
20005fe6:	f804 8003 	strb.w	r8, [r4, r3]
20005fea:	f884 8104 	strb.w	r8, [r4, #260]	@ 0x104
20005fee:	d021      	beq.n	20006034 <d_print_mod_list+0x1c8>
20005ff0:	464f      	mov	r7, r9
20005ff2:	29ff      	cmp	r1, #255	@ 0xff
20005ff4:	460b      	mov	r3, r1
20005ff6:	f817 8b01 	ldrb.w	r8, [r7], #1
20005ffa:	d1ef      	bne.n	20005fdc <d_print_mod_list+0x170>
20005ffc:	4620      	mov	r0, r4
20005ffe:	f884 a0ff 	strb.w	sl, [r4, #255]	@ 0xff
20006002:	f109 0902 	add.w	r9, r9, #2
20006006:	e9d4 3242 	ldrd	r3, r2, [r4, #264]	@ 0x108
2000600a:	4798      	blx	r3
2000600c:	2301      	movs	r3, #1
2000600e:	455f      	cmp	r7, fp
20006010:	f884 8000 	strb.w	r8, [r4]
20006014:	f8c4 3100 	str.w	r3, [r4, #256]	@ 0x100
20006018:	f8d4 3128 	ldr.w	r3, [r4, #296]	@ 0x128
2000601c:	f884 8104 	strb.w	r8, [r4, #260]	@ 0x104
20006020:	f103 0301 	add.w	r3, r3, #1
20006024:	f8c4 3128 	str.w	r3, [r4, #296]	@ 0x128
20006028:	d004      	beq.n	20006034 <d_print_mod_list+0x1c8>
2000602a:	f897 8000 	ldrb.w	r8, [r7]
2000602e:	2301      	movs	r3, #1
20006030:	e7d5      	b.n	20005fde <d_print_mod_list+0x172>
20006032:	4770      	bx	lr
20006034:	6932      	ldr	r2, [r6, #16]
20006036:	a801      	add	r0, sp, #4
20006038:	493a      	ldr	r1, [pc, #232]	@ (20006124 <d_print_mod_list+0x2b8>)
2000603a:	3201      	adds	r2, #1
2000603c:	f005 fe38 	bl	2000bcb0 <__sprintf_veneer>
20006040:	a801      	add	r0, sp, #4
20006042:	f005 fe15 	bl	2000bc70 <__strlen_veneer>
20006046:	4683      	mov	fp, r0
20006048:	2800      	cmp	r0, #0
2000604a:	d067      	beq.n	2000611c <d_print_mod_list+0x2b0>
2000604c:	f10d 0804 	add.w	r8, sp, #4
20006050:	f8d4 1100 	ldr.w	r1, [r4, #256]	@ 0x100
20006054:	f04f 0a00 	mov.w	sl, #0
20006058:	44c3      	add	fp, r8
2000605a:	e009      	b.n	20006070 <d_print_mod_list+0x204>
2000605c:	46b8      	mov	r8, r7
2000605e:	1c59      	adds	r1, r3, #1
20006060:	45c3      	cmp	fp, r8
20006062:	f8c4 1100 	str.w	r1, [r4, #256]	@ 0x100
20006066:	f804 9003 	strb.w	r9, [r4, r3]
2000606a:	f884 9104 	strb.w	r9, [r4, #260]	@ 0x104
2000606e:	d021      	beq.n	200060b4 <d_print_mod_list+0x248>
20006070:	4647      	mov	r7, r8
20006072:	29ff      	cmp	r1, #255	@ 0xff
20006074:	460b      	mov	r3, r1
20006076:	f817 9b01 	ldrb.w	r9, [r7], #1
2000607a:	d1ef      	bne.n	2000605c <d_print_mod_list+0x1f0>
2000607c:	4620      	mov	r0, r4
2000607e:	f884 a0ff 	strb.w	sl, [r4, #255]	@ 0xff
20006082:	f108 0802 	add.w	r8, r8, #2
20006086:	e9d4 3242 	ldrd	r3, r2, [r4, #264]	@ 0x108
2000608a:	4798      	blx	r3
2000608c:	2301      	movs	r3, #1
2000608e:	455f      	cmp	r7, fp
20006090:	f884 9000 	strb.w	r9, [r4]
20006094:	f8c4 3100 	str.w	r3, [r4, #256]	@ 0x100
20006098:	f8d4 3128 	ldr.w	r3, [r4, #296]	@ 0x128
2000609c:	f884 9104 	strb.w	r9, [r4, #260]	@ 0x104
200060a0:	f103 0301 	add.w	r3, r3, #1
200060a4:	f8c4 3128 	str.w	r3, [r4, #296]	@ 0x128
200060a8:	d003      	beq.n	200060b2 <d_print_mod_list+0x246>
200060aa:	f897 9000 	ldrb.w	r9, [r7]
200060ae:	2301      	movs	r3, #1
200060b0:	e7d5      	b.n	2000605e <d_print_mod_list+0x1f2>
200060b2:	2101      	movs	r1, #1
200060b4:	f8df 9078 	ldr.w	r9, [pc, #120]	@ 20006130 <d_print_mod_list+0x2c4>
200060b8:	f04f 0a00 	mov.w	sl, #0
200060bc:	f109 0b03 	add.w	fp, r9, #3
200060c0:	e00a      	b.n	200060d8 <d_print_mod_list+0x26c>
200060c2:	46b9      	mov	r9, r7
200060c4:	1c59      	adds	r1, r3, #1
200060c6:	45cb      	cmp	fp, r9
200060c8:	f8c4 1100 	str.w	r1, [r4, #256]	@ 0x100
200060cc:	f804 8003 	strb.w	r8, [r4, r3]
200060d0:	f884 8104 	strb.w	r8, [r4, #260]	@ 0x104
200060d4:	f43f af78 	beq.w	20005fc8 <d_print_mod_list+0x15c>
200060d8:	464f      	mov	r7, r9
200060da:	29ff      	cmp	r1, #255	@ 0xff
200060dc:	460b      	mov	r3, r1
200060de:	f817 8b01 	ldrb.w	r8, [r7], #1
200060e2:	d1ee      	bne.n	200060c2 <d_print_mod_list+0x256>
200060e4:	4620      	mov	r0, r4
200060e6:	f884 a0ff 	strb.w	sl, [r4, #255]	@ 0xff
200060ea:	f109 0902 	add.w	r9, r9, #2
200060ee:	e9d4 3242 	ldrd	r3, r2, [r4, #264]	@ 0x108
200060f2:	4798      	blx	r3
200060f4:	2301      	movs	r3, #1
200060f6:	455f      	cmp	r7, fp
200060f8:	f884 8000 	strb.w	r8, [r4]
200060fc:	f8c4 3100 	str.w	r3, [r4, #256]	@ 0x100
20006100:	f8d4 3128 	ldr.w	r3, [r4, #296]	@ 0x128
20006104:	f884 8104 	strb.w	r8, [r4, #260]	@ 0x104
20006108:	f103 0301 	add.w	r3, r3, #1
2000610c:	f8c4 3128 	str.w	r3, [r4, #296]	@ 0x128
20006110:	f43f af5a 	beq.w	20005fc8 <d_print_mod_list+0x15c>
20006114:	f897 8000 	ldrb.w	r8, [r7]
20006118:	2301      	movs	r3, #1
2000611a:	e7d3      	b.n	200060c4 <d_print_mod_list+0x258>
2000611c:	f8d4 1100 	ldr.w	r1, [r4, #256]	@ 0x100
20006120:	e7c8      	b.n	200060b4 <d_print_mod_list+0x248>
20006122:	bf00      	nop
20006124:	2000cb1c 	.word	0x2000cb1c
20006128:	2000cb90 	.word	0x2000cb90
2000612c:	2000cb94 	.word	0x2000cb94
20006130:	2000cba4 	.word	0x2000cba4

20006134 <d_print_array_type>:
20006134:	e92d 4ff0 	stmdb	sp!, {r4, r5, r6, r7, r8, r9, sl, fp, lr}
20006138:	4604      	mov	r4, r0
2000613a:	b083      	sub	sp, #12
2000613c:	4617      	mov	r7, r2
2000613e:	b3a3      	cbz	r3, 200061aa <d_print_array_type+0x76>
20006140:	461e      	mov	r6, r3
20006142:	e001      	b.n	20006148 <d_print_array_type+0x14>
20006144:	681b      	ldr	r3, [r3, #0]
20006146:	b35b      	cbz	r3, 200061a0 <d_print_array_type+0x6c>
20006148:	689d      	ldr	r5, [r3, #8]
2000614a:	2d00      	cmp	r5, #0
2000614c:	d1fa      	bne.n	20006144 <d_print_array_type+0x10>
2000614e:	685b      	ldr	r3, [r3, #4]
20006150:	781b      	ldrb	r3, [r3, #0]
20006152:	2b2a      	cmp	r3, #42	@ 0x2a
20006154:	d15f      	bne.n	20006216 <d_print_array_type+0xe2>
20006156:	2111      	movs	r1, #17
20006158:	462b      	mov	r3, r5
2000615a:	4632      	mov	r2, r6
2000615c:	4620      	mov	r0, r4
2000615e:	f7ff fe85 	bl	20005e6c <d_print_mod_list>
20006162:	f8d4 1100 	ldr.w	r1, [r4, #256]	@ 0x100
20006166:	29ff      	cmp	r1, #255	@ 0xff
20006168:	d02c      	beq.n	200061c4 <d_print_array_type+0x90>
2000616a:	225b      	movs	r2, #91	@ 0x5b
2000616c:	1c4b      	adds	r3, r1, #1
2000616e:	f8c4 3100 	str.w	r3, [r4, #256]	@ 0x100
20006172:	5462      	strb	r2, [r4, r1]
20006174:	f884 2104 	strb.w	r2, [r4, #260]	@ 0x104
20006178:	68fa      	ldr	r2, [r7, #12]
2000617a:	b12a      	cbz	r2, 20006188 <d_print_array_type+0x54>
2000617c:	2111      	movs	r1, #17
2000617e:	4620      	mov	r0, r4
20006180:	f7ff f9b2 	bl	200054e8 <d_print_comp>
20006184:	f8d4 3100 	ldr.w	r3, [r4, #256]	@ 0x100
20006188:	2bff      	cmp	r3, #255	@ 0xff
2000618a:	d034      	beq.n	200061f6 <d_print_array_type+0xc2>
2000618c:	1c59      	adds	r1, r3, #1
2000618e:	225d      	movs	r2, #93	@ 0x5d
20006190:	f8c4 1100 	str.w	r1, [r4, #256]	@ 0x100
20006194:	54e2      	strb	r2, [r4, r3]
20006196:	f884 2104 	strb.w	r2, [r4, #260]	@ 0x104
2000619a:	b003      	add	sp, #12
2000619c:	e8bd 8ff0 	ldmia.w	sp!, {r4, r5, r6, r7, r8, r9, sl, fp, pc}
200061a0:	4632      	mov	r2, r6
200061a2:	2111      	movs	r1, #17
200061a4:	4620      	mov	r0, r4
200061a6:	f7ff fe61 	bl	20005e6c <d_print_mod_list>
200061aa:	f8d4 3100 	ldr.w	r3, [r4, #256]	@ 0x100
200061ae:	2bff      	cmp	r3, #255	@ 0xff
200061b0:	d07a      	beq.n	200062a8 <d_print_array_type+0x174>
200061b2:	1c59      	adds	r1, r3, #1
200061b4:	2220      	movs	r2, #32
200061b6:	29ff      	cmp	r1, #255	@ 0xff
200061b8:	f8c4 1100 	str.w	r1, [r4, #256]	@ 0x100
200061bc:	54e2      	strb	r2, [r4, r3]
200061be:	f884 2104 	strb.w	r2, [r4, #260]	@ 0x104
200061c2:	d1d2      	bne.n	2000616a <d_print_array_type+0x36>
200061c4:	2200      	movs	r2, #0
200061c6:	f8d4 3108 	ldr.w	r3, [r4, #264]	@ 0x108
200061ca:	4620      	mov	r0, r4
200061cc:	f884 20ff 	strb.w	r2, [r4, #255]	@ 0xff
200061d0:	f8d4 210c 	ldr.w	r2, [r4, #268]	@ 0x10c
200061d4:	4798      	blx	r3
200061d6:	215b      	movs	r1, #91	@ 0x5b
200061d8:	f8d4 2128 	ldr.w	r2, [r4, #296]	@ 0x128
200061dc:	2301      	movs	r3, #1
200061de:	7021      	strb	r1, [r4, #0]
200061e0:	f884 1104 	strb.w	r1, [r4, #260]	@ 0x104
200061e4:	18d1      	adds	r1, r2, r3
200061e6:	68fa      	ldr	r2, [r7, #12]
200061e8:	f8c4 3100 	str.w	r3, [r4, #256]	@ 0x100
200061ec:	f8c4 1128 	str.w	r1, [r4, #296]	@ 0x128
200061f0:	2a00      	cmp	r2, #0
200061f2:	d1c3      	bne.n	2000617c <d_print_array_type+0x48>
200061f4:	e7ca      	b.n	2000618c <d_print_array_type+0x58>
200061f6:	2500      	movs	r5, #0
200061f8:	4619      	mov	r1, r3
200061fa:	4620      	mov	r0, r4
200061fc:	f884 50ff 	strb.w	r5, [r4, #255]	@ 0xff
20006200:	e9d4 6242 	ldrd	r6, r2, [r4, #264]	@ 0x108
20006204:	47b0      	blx	r6
20006206:	f8d4 2128 	ldr.w	r2, [r4, #296]	@ 0x128
2000620a:	2101      	movs	r1, #1
2000620c:	462b      	mov	r3, r5
2000620e:	440a      	add	r2, r1
20006210:	f8c4 2128 	str.w	r2, [r4, #296]	@ 0x128
20006214:	e7bb      	b.n	2000618e <d_print_array_type+0x5a>
20006216:	f8df 90f0 	ldr.w	r9, [pc, #240]	@ 20006308 <d_print_array_type+0x1d4>
2000621a:	f04f 0a01 	mov.w	sl, #1
2000621e:	f8d4 1100 	ldr.w	r1, [r4, #256]	@ 0x100
20006222:	f109 0b02 	add.w	fp, r9, #2
20006226:	9601      	str	r6, [sp, #4]
20006228:	4626      	mov	r6, r4
2000622a:	464c      	mov	r4, r9
2000622c:	46a9      	mov	r9, r5
2000622e:	e008      	b.n	20006242 <d_print_array_type+0x10e>
20006230:	4644      	mov	r4, r8
20006232:	1c59      	adds	r1, r3, #1
20006234:	45a3      	cmp	fp, r4
20006236:	f8c6 1100 	str.w	r1, [r6, #256]	@ 0x100
2000623a:	54f5      	strb	r5, [r6, r3]
2000623c:	f886 5104 	strb.w	r5, [r6, #260]	@ 0x104
20006240:	d01d      	beq.n	2000627e <d_print_array_type+0x14a>
20006242:	46a0      	mov	r8, r4
20006244:	29ff      	cmp	r1, #255	@ 0xff
20006246:	460b      	mov	r3, r1
20006248:	f818 5b01 	ldrb.w	r5, [r8], #1
2000624c:	d1f0      	bne.n	20006230 <d_print_array_type+0xfc>
2000624e:	4630      	mov	r0, r6
20006250:	f886 90ff 	strb.w	r9, [r6, #255]	@ 0xff
20006254:	3402      	adds	r4, #2
20006256:	e9d6 3242 	ldrd	r3, r2, [r6, #264]	@ 0x108
2000625a:	4798      	blx	r3
2000625c:	f8d6 3128 	ldr.w	r3, [r6, #296]	@ 0x128
20006260:	45c3      	cmp	fp, r8
20006262:	7035      	strb	r5, [r6, #0]
20006264:	f103 0301 	add.w	r3, r3, #1
20006268:	f886 5104 	strb.w	r5, [r6, #260]	@ 0x104
2000626c:	f8c6 a100 	str.w	sl, [r6, #256]	@ 0x100
20006270:	f8c6 3128 	str.w	r3, [r6, #296]	@ 0x128
20006274:	d003      	beq.n	2000627e <d_print_array_type+0x14a>
20006276:	f898 5000 	ldrb.w	r5, [r8]
2000627a:	2301      	movs	r3, #1
2000627c:	e7d9      	b.n	20006232 <d_print_array_type+0xfe>
2000627e:	4634      	mov	r4, r6
20006280:	9e01      	ldr	r6, [sp, #4]
20006282:	2111      	movs	r1, #17
20006284:	2300      	movs	r3, #0
20006286:	4632      	mov	r2, r6
20006288:	4620      	mov	r0, r4
2000628a:	f7ff fdef 	bl	20005e6c <d_print_mod_list>
2000628e:	f8d4 1100 	ldr.w	r1, [r4, #256]	@ 0x100
20006292:	29ff      	cmp	r1, #255	@ 0xff
20006294:	d025      	beq.n	200062e2 <d_print_array_type+0x1ae>
20006296:	1c4b      	adds	r3, r1, #1
20006298:	2229      	movs	r2, #41	@ 0x29
2000629a:	2bff      	cmp	r3, #255	@ 0xff
2000629c:	f8c4 3100 	str.w	r3, [r4, #256]	@ 0x100
200062a0:	5462      	strb	r2, [r4, r1]
200062a2:	f884 2104 	strb.w	r2, [r4, #260]	@ 0x104
200062a6:	d184      	bne.n	200061b2 <d_print_array_type+0x7e>
200062a8:	2200      	movs	r2, #0
200062aa:	4619      	mov	r1, r3
200062ac:	4620      	mov	r0, r4
200062ae:	f8d4 5108 	ldr.w	r5, [r4, #264]	@ 0x108
200062b2:	f884 20ff 	strb.w	r2, [r4, #255]	@ 0xff
200062b6:	f8d4 210c 	ldr.w	r2, [r4, #268]	@ 0x10c
200062ba:	47a8      	blx	r5
200062bc:	f645 3120 	movw	r1, #23328	@ 0x5b20
200062c0:	205b      	movs	r0, #91	@ 0x5b
200062c2:	f8d4 2128 	ldr.w	r2, [r4, #296]	@ 0x128
200062c6:	8021      	strh	r1, [r4, #0]
200062c8:	2302      	movs	r3, #2
200062ca:	f884 0104 	strb.w	r0, [r4, #260]	@ 0x104
200062ce:	1c51      	adds	r1, r2, #1
200062d0:	68fa      	ldr	r2, [r7, #12]
200062d2:	f8c4 3100 	str.w	r3, [r4, #256]	@ 0x100
200062d6:	f8c4 1128 	str.w	r1, [r4, #296]	@ 0x128
200062da:	2a00      	cmp	r2, #0
200062dc:	f47f af4e 	bne.w	2000617c <d_print_array_type+0x48>
200062e0:	e754      	b.n	2000618c <d_print_array_type+0x58>
200062e2:	2200      	movs	r2, #0
200062e4:	f8d4 3108 	ldr.w	r3, [r4, #264]	@ 0x108
200062e8:	4620      	mov	r0, r4
200062ea:	f884 20ff 	strb.w	r2, [r4, #255]	@ 0xff
200062ee:	f8d4 210c 	ldr.w	r2, [r4, #268]	@ 0x10c
200062f2:	4798      	blx	r3
200062f4:	f8d4 3128 	ldr.w	r3, [r4, #296]	@ 0x128
200062f8:	f242 0229 	movw	r2, #8233	@ 0x2029
200062fc:	2102      	movs	r1, #2
200062fe:	3301      	adds	r3, #1
20006300:	8022      	strh	r2, [r4, #0]
20006302:	f8c4 3128 	str.w	r3, [r4, #296]	@ 0x128
20006306:	e730      	b.n	2000616a <d_print_array_type+0x36>
20006308:	2000cda0 	.word	0x2000cda0

2000630c <d_print_expr_op>:
2000630c:	7811      	ldrb	r1, [r2, #0]
2000630e:	2932      	cmp	r1, #50	@ 0x32
20006310:	d002      	beq.n	20006318 <d_print_expr_op+0xc>
20006312:	2111      	movs	r1, #17
20006314:	f7ff b8e8 	b.w	200054e8 <d_print_comp>
20006318:	68d3      	ldr	r3, [r2, #12]
2000631a:	e92d 47f0 	stmdb	sp!, {r4, r5, r6, r7, r8, r9, sl, lr}
2000631e:	e9d3 5701 	ldrd	r5, r7, [r3, #4]
20006322:	b387      	cbz	r7, 20006386 <d_print_expr_op+0x7a>
20006324:	442f      	add	r7, r5
20006326:	4604      	mov	r4, r0
20006328:	f8d0 1100 	ldr.w	r1, [r0, #256]	@ 0x100
2000632c:	3d01      	subs	r5, #1
2000632e:	3f01      	subs	r7, #1
20006330:	f04f 0900 	mov.w	r9, #0
20006334:	f04f 0801 	mov.w	r8, #1
20006338:	e008      	b.n	2000634c <d_print_expr_op+0x40>
2000633a:	4655      	mov	r5, sl
2000633c:	1c59      	adds	r1, r3, #1
2000633e:	42af      	cmp	r7, r5
20006340:	f8c4 1100 	str.w	r1, [r4, #256]	@ 0x100
20006344:	54e6      	strb	r6, [r4, r3]
20006346:	f884 6104 	strb.w	r6, [r4, #260]	@ 0x104
2000634a:	d01c      	beq.n	20006386 <d_print_expr_op+0x7a>
2000634c:	29ff      	cmp	r1, #255	@ 0xff
2000634e:	786e      	ldrb	r6, [r5, #1]
20006350:	f105 0a01 	add.w	sl, r5, #1
20006354:	460b      	mov	r3, r1
20006356:	d1f0      	bne.n	2000633a <d_print_expr_op+0x2e>
20006358:	4620      	mov	r0, r4
2000635a:	f884 90ff 	strb.w	r9, [r4, #255]	@ 0xff
2000635e:	e9d4 3242 	ldrd	r3, r2, [r4, #264]	@ 0x108
20006362:	4798      	blx	r3
20006364:	f8d4 3128 	ldr.w	r3, [r4, #296]	@ 0x128
20006368:	45ba      	cmp	sl, r7
2000636a:	f8c4 8100 	str.w	r8, [r4, #256]	@ 0x100
2000636e:	f103 0301 	add.w	r3, r3, #1
20006372:	7026      	strb	r6, [r4, #0]
20006374:	f884 6104 	strb.w	r6, [r4, #260]	@ 0x104
20006378:	f8c4 3128 	str.w	r3, [r4, #296]	@ 0x128
2000637c:	d003      	beq.n	20006386 <d_print_expr_op+0x7a>
2000637e:	f815 6f02 	ldrb.w	r6, [r5, #2]!
20006382:	2301      	movs	r3, #1
20006384:	e7da      	b.n	2000633c <d_print_expr_op+0x30>
20006386:	e8bd 87f0 	ldmia.w	sp!, {r4, r5, r6, r7, r8, r9, sl, pc}
2000638a:	bf00      	nop

2000638c <d_demangle_callback.constprop.0>:
2000638c:	e92d 4ff0 	stmdb	sp!, {r4, r5, r6, r7, r8, r9, sl, fp, lr}
20006390:	b0e9      	sub	sp, #420	@ 0x1a4
20006392:	4605      	mov	r5, r0
20006394:	7803      	ldrb	r3, [r0, #0]
20006396:	af00      	add	r7, sp, #0
20006398:	2b5f      	cmp	r3, #95	@ 0x5f
2000639a:	e9c7 2100 	strd	r2, r1, [r7]
2000639e:	f000 8128 	beq.w	200065f2 <d_demangle_callback.constprop.0+0x266>
200063a2:	2208      	movs	r2, #8
200063a4:	499d      	ldr	r1, [pc, #628]	@ (2000661c <d_demangle_callback.constprop.0+0x290>)
200063a6:	4628      	mov	r0, r5
200063a8:	f005 fc4e 	bl	2000bc48 <__strncmp_veneer>
200063ac:	2800      	cmp	r0, #0
200063ae:	d07a      	beq.n	200064a6 <d_demangle_callback.constprop.0+0x11a>
200063b0:	2300      	movs	r3, #0
200063b2:	469a      	mov	sl, r3
200063b4:	2b00      	cmp	r3, #0
200063b6:	f1aa 0902 	sub.w	r9, sl, #2
200063ba:	f04f 0301 	mov.w	r3, #1
200063be:	f04f 0811 	mov.w	r8, #17
200063c2:	fa5f f989 	uxtb.w	r9, r9
200063c6:	64bb      	str	r3, [r7, #72]	@ 0x48
200063c8:	bf14      	ite	ne
200063ca:	2345      	movne	r3, #69	@ 0x45
200063cc:	2346      	moveq	r3, #70	@ 0x46
200063ce:	60bb      	str	r3, [r7, #8]
200063d0:	4628      	mov	r0, r5
200063d2:	f005 fc4d 	bl	2000bc70 <__strlen_veneer>
200063d6:	2300      	movs	r3, #0
200063d8:	0041      	lsls	r1, r0, #1
200063da:	182a      	adds	r2, r5, r0
200063dc:	613d      	str	r5, [r7, #16]
200063de:	f5b1 6f00 	cmp.w	r1, #2048	@ 0x800
200063e2:	627b      	str	r3, [r7, #36]	@ 0x24
200063e4:	617a      	str	r2, [r7, #20]
200063e6:	62b9      	str	r1, [r7, #40]	@ 0x28
200063e8:	64fb      	str	r3, [r7, #76]	@ 0x4c
200063ea:	e9c7 8506 	strd	r8, r5, [r7, #24]
200063ee:	e9c7 300c 	strd	r3, r0, [r7, #48]	@ 0x30
200063f2:	e9c7 330e 	strd	r3, r3, [r7, #56]	@ 0x38
200063f6:	e9c7 3310 	strd	r3, r3, [r7, #64]	@ 0x40
200063fa:	f200 80f4 	bhi.w	200065e6 <d_demangle_callback.constprop.0+0x25a>
200063fe:	0083      	lsls	r3, r0, #2
20006400:	466e      	mov	r6, sp
20006402:	eb00 0080 	add.w	r0, r0, r0, lsl #2
20006406:	f1ba 0f01 	cmp.w	sl, #1
2000640a:	f103 0307 	add.w	r3, r3, #7
2000640e:	eba6 02c0 	sub.w	r2, r6, r0, lsl #3
20006412:	f023 0307 	bic.w	r3, r3, #7
20006416:	4695      	mov	sp, r2
20006418:	46eb      	mov	fp, sp
2000641a:	ebad 0d03 	sub.w	sp, sp, r3
2000641e:	f8c7 b020 	str.w	fp, [r7, #32]
20006422:	f8c7 d02c 	str.w	sp, [r7, #44]	@ 0x2c
20006426:	d061      	beq.n	200064ec <d_demangle_callback.constprop.0+0x160>
20006428:	f1b9 0f01 	cmp.w	r9, #1
2000642c:	d856      	bhi.n	200064dc <d_demangle_callback.constprop.0+0x150>
2000642e:	7aeb      	ldrb	r3, [r5, #11]
20006430:	f105 040b 	add.w	r4, r5, #11
20006434:	2b5f      	cmp	r3, #95	@ 0x5f
20006436:	61fc      	str	r4, [r7, #28]
20006438:	d103      	bne.n	20006442 <d_demangle_callback.constprop.0+0xb6>
2000643a:	7b2b      	ldrb	r3, [r5, #12]
2000643c:	2b5a      	cmp	r3, #90	@ 0x5a
2000643e:	f000 80bc 	beq.w	200065ba <d_demangle_callback.constprop.0+0x22e>
20006442:	4620      	mov	r0, r4
20006444:	60f9      	str	r1, [r7, #12]
20006446:	f005 fc13 	bl	2000bc70 <__strlen_veneer>
2000644a:	68f9      	ldr	r1, [r7, #12]
2000644c:	2900      	cmp	r1, #0
2000644e:	f000 80c7 	beq.w	200065e0 <d_demangle_callback.constprop.0+0x254>
20006452:	2300      	movs	r3, #0
20006454:	2101      	movs	r1, #1
20006456:	e9cb 3301 	strd	r3, r3, [fp, #4]
2000645a:	6279      	str	r1, [r7, #36]	@ 0x24
2000645c:	2800      	cmp	r0, #0
2000645e:	f000 80bf 	beq.w	200065e0 <d_demangle_callback.constprop.0+0x254>
20006462:	f88b 3000 	strb.w	r3, [fp]
20006466:	e9cb 4003 	strd	r4, r0, [fp, #12]
2000646a:	465a      	mov	r2, fp
2000646c:	2300      	movs	r3, #0
2000646e:	68b9      	ldr	r1, [r7, #8]
20006470:	f107 0010 	add.w	r0, r7, #16
20006474:	f7f9 fdde 	bl	20000034 <d_make_comp>
20006478:	4683      	mov	fp, r0
2000647a:	4620      	mov	r0, r4
2000647c:	f005 fbf8 	bl	2000bc70 <__strlen_veneer>
20006480:	1823      	adds	r3, r4, r0
20006482:	61fb      	str	r3, [r7, #28]
20006484:	5c23      	ldrb	r3, [r4, r0]
20006486:	b933      	cbnz	r3, 20006496 <d_demangle_callback.constprop.0+0x10a>
20006488:	fabb f48b 	clz	r4, fp
2000648c:	0964      	lsrs	r4, r4, #5
2000648e:	f1bb 0f00 	cmp.w	fp, #0
20006492:	f040 80c5 	bne.w	20006620 <d_demangle_callback.constprop.0+0x294>
20006496:	6cbb      	ldr	r3, [r7, #72]	@ 0x48
20006498:	3301      	adds	r3, #1
2000649a:	f040 80b2 	bne.w	20006602 <d_demangle_callback.constprop.0+0x276>
2000649e:	2300      	movs	r3, #0
200064a0:	64bb      	str	r3, [r7, #72]	@ 0x48
200064a2:	46b5      	mov	sp, r6
200064a4:	e794      	b.n	200063d0 <d_demangle_callback.constprop.0+0x44>
200064a6:	7a2a      	ldrb	r2, [r5, #8]
200064a8:	2a5f      	cmp	r2, #95	@ 0x5f
200064aa:	bf18      	it	ne
200064ac:	2a2e      	cmpne	r2, #46	@ 0x2e
200064ae:	bf0c      	ite	eq
200064b0:	2301      	moveq	r3, #1
200064b2:	2300      	movne	r3, #0
200064b4:	2a24      	cmp	r2, #36	@ 0x24
200064b6:	bf08      	it	eq
200064b8:	f043 0301 	orreq.w	r3, r3, #1
200064bc:	b163      	cbz	r3, 200064d8 <d_demangle_callback.constprop.0+0x14c>
200064be:	7a6a      	ldrb	r2, [r5, #9]
200064c0:	2a49      	cmp	r2, #73	@ 0x49
200064c2:	bf18      	it	ne
200064c4:	2a44      	cmpne	r2, #68	@ 0x44
200064c6:	bf0c      	ite	eq
200064c8:	2301      	moveq	r3, #1
200064ca:	2300      	movne	r3, #0
200064cc:	d104      	bne.n	200064d8 <d_demangle_callback.constprop.0+0x14c>
200064ce:	7aa9      	ldrb	r1, [r5, #10]
200064d0:	295f      	cmp	r1, #95	@ 0x5f
200064d2:	f000 8105 	beq.w	200066e0 <d_demangle_callback.constprop.0+0x354>
200064d6:	4603      	mov	r3, r0
200064d8:	469a      	mov	sl, r3
200064da:	e76b      	b.n	200063b4 <d_demangle_callback.constprop.0+0x28>
200064dc:	f107 0010 	add.w	r0, r7, #16
200064e0:	f7fa fa90 	bl	20000a04 <d_type>
200064e4:	69fb      	ldr	r3, [r7, #28]
200064e6:	4683      	mov	fp, r0
200064e8:	781b      	ldrb	r3, [r3, #0]
200064ea:	e7cc      	b.n	20006486 <d_demangle_callback.constprop.0+0xfa>
200064ec:	782b      	ldrb	r3, [r5, #0]
200064ee:	2b5f      	cmp	r3, #95	@ 0x5f
200064f0:	d1d1      	bne.n	20006496 <d_demangle_callback.constprop.0+0x10a>
200064f2:	1c6b      	adds	r3, r5, #1
200064f4:	61fb      	str	r3, [r7, #28]
200064f6:	786b      	ldrb	r3, [r5, #1]
200064f8:	2b5a      	cmp	r3, #90	@ 0x5a
200064fa:	d1cc      	bne.n	20006496 <d_demangle_callback.constprop.0+0x10a>
200064fc:	1cab      	adds	r3, r5, #2
200064fe:	61fb      	str	r3, [r7, #28]
20006500:	78ab      	ldrb	r3, [r5, #2]
20006502:	2b47      	cmp	r3, #71	@ 0x47
20006504:	f000 80e3 	beq.w	200066ce <d_demangle_callback.constprop.0+0x342>
20006508:	2b54      	cmp	r3, #84	@ 0x54
2000650a:	f000 80e0 	beq.w	200066ce <d_demangle_callback.constprop.0+0x342>
2000650e:	4651      	mov	r1, sl
20006510:	f107 0010 	add.w	r0, r7, #16
20006514:	f7fb fe62 	bl	200021dc <d_encoding.part.0>
20006518:	4683      	mov	fp, r0
2000651a:	e9d7 0106 	ldrd	r0, r1, [r7, #24]
2000651e:	07c2      	lsls	r2, r0, #31
20006520:	780b      	ldrb	r3, [r1, #0]
20006522:	d5b0      	bpl.n	20006486 <d_demangle_callback.constprop.0+0xfa>
20006524:	2b2e      	cmp	r3, #46	@ 0x2e
20006526:	d1ae      	bne.n	20006486 <d_demangle_callback.constprop.0+0xfa>
20006528:	784b      	ldrb	r3, [r1, #1]
2000652a:	f1a3 0261 	sub.w	r2, r3, #97	@ 0x61
2000652e:	2a19      	cmp	r2, #25
20006530:	d905      	bls.n	2000653e <d_demangle_callback.constprop.0+0x1b2>
20006532:	2b5f      	cmp	r3, #95	@ 0x5f
20006534:	d003      	beq.n	2000653e <d_demangle_callback.constprop.0+0x1b2>
20006536:	3b30      	subs	r3, #48	@ 0x30
20006538:	2b09      	cmp	r3, #9
2000653a:	f200 80ce 	bhi.w	200066da <d_demangle_callback.constprop.0+0x34e>
2000653e:	788b      	ldrb	r3, [r1, #2]
20006540:	1c8c      	adds	r4, r1, #2
20006542:	f1a3 0030 	sub.w	r0, r3, #48	@ 0x30
20006546:	f1a3 0261 	sub.w	r2, r3, #97	@ 0x61
2000654a:	2a19      	cmp	r2, #25
2000654c:	bf88      	it	hi
2000654e:	2809      	cmphi	r0, #9
20006550:	d809      	bhi.n	20006566 <d_demangle_callback.constprop.0+0x1da>
20006552:	f814 3f01 	ldrb.w	r3, [r4, #1]!
20006556:	f1a3 0061 	sub.w	r0, r3, #97	@ 0x61
2000655a:	f1a3 0230 	sub.w	r2, r3, #48	@ 0x30
2000655e:	2a09      	cmp	r2, #9
20006560:	bf88      	it	hi
20006562:	2819      	cmphi	r0, #25
20006564:	d9f5      	bls.n	20006552 <d_demangle_callback.constprop.0+0x1c6>
20006566:	2b5f      	cmp	r3, #95	@ 0x5f
20006568:	d0f3      	beq.n	20006552 <d_demangle_callback.constprop.0+0x1c6>
2000656a:	2b2e      	cmp	r3, #46	@ 0x2e
2000656c:	d111      	bne.n	20006592 <d_demangle_callback.constprop.0+0x206>
2000656e:	7863      	ldrb	r3, [r4, #1]
20006570:	3b30      	subs	r3, #48	@ 0x30
20006572:	2b09      	cmp	r3, #9
20006574:	d80d      	bhi.n	20006592 <d_demangle_callback.constprop.0+0x206>
20006576:	78a3      	ldrb	r3, [r4, #2]
20006578:	3402      	adds	r4, #2
2000657a:	f1a3 0230 	sub.w	r2, r3, #48	@ 0x30
2000657e:	2a09      	cmp	r2, #9
20006580:	d8f3      	bhi.n	2000656a <d_demangle_callback.constprop.0+0x1de>
20006582:	f814 3f01 	ldrb.w	r3, [r4, #1]!
20006586:	f1a3 0230 	sub.w	r2, r3, #48	@ 0x30
2000658a:	2a09      	cmp	r2, #9
2000658c:	d9f9      	bls.n	20006582 <d_demangle_callback.constprop.0+0x1f6>
2000658e:	2b2e      	cmp	r3, #46	@ 0x2e
20006590:	d0ed      	beq.n	2000656e <d_demangle_callback.constprop.0+0x1e2>
20006592:	1a62      	subs	r2, r4, r1
20006594:	f107 0010 	add.w	r0, r7, #16
20006598:	61fc      	str	r4, [r7, #28]
2000659a:	f7f9 fdc7 	bl	2000012c <d_make_name>
2000659e:	465a      	mov	r2, fp
200065a0:	4603      	mov	r3, r0
200065a2:	214f      	movs	r1, #79	@ 0x4f
200065a4:	f107 0010 	add.w	r0, r7, #16
200065a8:	f7f9 fd44 	bl	20000034 <d_make_comp>
200065ac:	7823      	ldrb	r3, [r4, #0]
200065ae:	4683      	mov	fp, r0
200065b0:	2b2e      	cmp	r3, #46	@ 0x2e
200065b2:	f47f af68 	bne.w	20006486 <d_demangle_callback.constprop.0+0xfa>
200065b6:	4621      	mov	r1, r4
200065b8:	e7b6      	b.n	20006528 <d_demangle_callback.constprop.0+0x19c>
200065ba:	f105 030d 	add.w	r3, r5, #13
200065be:	f107 0010 	add.w	r0, r7, #16
200065c2:	61fb      	str	r3, [r7, #28]
200065c4:	7b6b      	ldrb	r3, [r5, #13]
200065c6:	2b47      	cmp	r3, #71	@ 0x47
200065c8:	d022      	beq.n	20006610 <d_demangle_callback.constprop.0+0x284>
200065ca:	f1a3 0154 	sub.w	r1, r3, #84	@ 0x54
200065ce:	fab1 f181 	clz	r1, r1
200065d2:	0949      	lsrs	r1, r1, #5
200065d4:	b9e1      	cbnz	r1, 20006610 <d_demangle_callback.constprop.0+0x284>
200065d6:	f7fb fe01 	bl	200021dc <d_encoding.part.0>
200065da:	69fc      	ldr	r4, [r7, #28]
200065dc:	4683      	mov	fp, r0
200065de:	e744      	b.n	2000646a <d_demangle_callback.constprop.0+0xde>
200065e0:	f04f 0b00 	mov.w	fp, #0
200065e4:	e741      	b.n	2000646a <d_demangle_callback.constprop.0+0xde>
200065e6:	4618      	mov	r0, r3
200065e8:	f507 77d2 	add.w	r7, r7, #420	@ 0x1a4
200065ec:	46bd      	mov	sp, r7
200065ee:	e8bd 8ff0 	ldmia.w	sp!, {r4, r5, r6, r7, r8, r9, sl, fp, pc}
200065f2:	7843      	ldrb	r3, [r0, #1]
200065f4:	2b5a      	cmp	r3, #90	@ 0x5a
200065f6:	f47f aed4 	bne.w	200063a2 <d_demangle_callback.constprop.0+0x16>
200065fa:	2300      	movs	r3, #0
200065fc:	f04f 0a01 	mov.w	sl, #1
20006600:	e6d8      	b.n	200063b4 <d_demangle_callback.constprop.0+0x28>
20006602:	2000      	movs	r0, #0
20006604:	46b5      	mov	sp, r6
20006606:	f507 77d2 	add.w	r7, r7, #420	@ 0x1a4
2000660a:	46bd      	mov	sp, r7
2000660c:	e8bd 8ff0 	ldmia.w	sp!, {r4, r5, r6, r7, r8, r9, sl, fp, pc}
20006610:	f7fb fe64 	bl	200022dc <d_special_name>
20006614:	69fc      	ldr	r4, [r7, #28]
20006616:	4683      	mov	fp, r0
20006618:	e727      	b.n	2000646a <d_demangle_callback.constprop.0+0xde>
2000661a:	bf00      	nop
2000661c:	2000cb20 	.word	0x2000cb20
20006620:	687b      	ldr	r3, [r7, #4]
20006622:	f107 0550 	add.w	r5, r7, #80	@ 0x50
20006626:	2000      	movs	r0, #0
20006628:	2100      	movs	r1, #0
2000662a:	f8c5 3108 	str.w	r3, [r5, #264]	@ 0x108
2000662e:	683b      	ldr	r3, [r7, #0]
20006630:	f8c5 4100 	str.w	r4, [r5, #256]	@ 0x100
20006634:	f8c5 310c 	str.w	r3, [r5, #268]	@ 0x10c
20006638:	f885 4104 	strb.w	r4, [r5, #260]	@ 0x104
2000663c:	f8c5 4120 	str.w	r4, [r5, #288]	@ 0x120
20006640:	f8c5 412c 	str.w	r4, [r5, #300]	@ 0x12c
20006644:	e9c7 0164 	strd	r0, r1, [r7, #400]	@ 0x190
20006648:	4659      	mov	r1, fp
2000664a:	4628      	mov	r0, r5
2000664c:	e9c7 4461 	strd	r4, r4, [r7, #388]	@ 0x184
20006650:	e9c5 4444 	strd	r4, r4, [r5, #272]	@ 0x110
20006654:	e9c5 4449 	strd	r4, r4, [r5, #292]	@ 0x124
20006658:	e9c5 4446 	strd	r4, r4, [r5, #280]	@ 0x118
2000665c:	f7f9 fe2e 	bl	200002bc <d_count_templates_scopes>
20006660:	f8d5 311c 	ldr.w	r3, [r5, #284]	@ 0x11c
20006664:	f5b3 6f00 	cmp.w	r3, #2048	@ 0x800
20006668:	da01      	bge.n	2000666e <d_demangle_callback.constprop.0+0x2e2>
2000666a:	f8c5 411c 	str.w	r4, [r5, #284]	@ 0x11c
2000666e:	f8d5 1138 	ldr.w	r1, [r5, #312]	@ 0x138
20006672:	46e8      	mov	r8, sp
20006674:	f8d5 3144 	ldr.w	r3, [r5, #324]	@ 0x144
20006678:	2400      	movs	r4, #0
2000667a:	2901      	cmp	r1, #1
2000667c:	465a      	mov	r2, fp
2000667e:	fb01 f303 	mul.w	r3, r1, r3
20006682:	4628      	mov	r0, r5
20006684:	bfb8      	it	lt
20006686:	2101      	movlt	r1, #1
20006688:	2b01      	cmp	r3, #1
2000668a:	eba8 01c1 	sub.w	r1, r8, r1, lsl #3
2000668e:	468d      	mov	sp, r1
20006690:	f04f 0111 	mov.w	r1, #17
20006694:	46ec      	mov	ip, sp
20006696:	e9c5 3451 	strd	r3, r4, [r5, #324]	@ 0x144
2000669a:	bfb8      	it	lt
2000669c:	2301      	movlt	r3, #1
2000669e:	ebac 03c3 	sub.w	r3, ip, r3, lsl #3
200066a2:	469d      	mov	sp, r3
200066a4:	f8c5 c130 	str.w	ip, [r5, #304]	@ 0x130
200066a8:	f8c5 d13c 	str.w	sp, [r5, #316]	@ 0x13c
200066ac:	f7fe ff1c 	bl	200054e8 <d_print_comp>
200066b0:	f8d5 1100 	ldr.w	r1, [r5, #256]	@ 0x100
200066b4:	46c5      	mov	sp, r8
200066b6:	4628      	mov	r0, r5
200066b8:	546c      	strb	r4, [r5, r1]
200066ba:	e9d5 3242 	ldrd	r3, r2, [r5, #264]	@ 0x108
200066be:	4798      	blx	r3
200066c0:	f8d5 0118 	ldr.w	r0, [r5, #280]	@ 0x118
200066c4:	46b5      	mov	sp, r6
200066c6:	fab0 f080 	clz	r0, r0
200066ca:	0940      	lsrs	r0, r0, #5
200066cc:	e79b      	b.n	20006606 <d_demangle_callback.constprop.0+0x27a>
200066ce:	f107 0010 	add.w	r0, r7, #16
200066d2:	f7fb fe03 	bl	200022dc <d_special_name>
200066d6:	4683      	mov	fp, r0
200066d8:	e71f      	b.n	2000651a <d_demangle_callback.constprop.0+0x18e>
200066da:	69fb      	ldr	r3, [r7, #28]
200066dc:	781b      	ldrb	r3, [r3, #0]
200066de:	e6d2      	b.n	20006486 <d_demangle_callback.constprop.0+0xfa>
200066e0:	2a49      	cmp	r2, #73	@ 0x49
200066e2:	bf16      	itet	ne
200066e4:	f04f 0a03 	movne.w	sl, #3
200066e8:	f04f 0a02 	moveq.w	sl, #2
200066ec:	2300      	movne	r3, #0
200066ee:	e661      	b.n	200063b4 <d_demangle_callback.constprop.0+0x28>

200066f0 <d_print_subexpr>:
200066f0:	b570      	push	{r4, r5, r6, lr}
200066f2:	7813      	ldrb	r3, [r2, #0]
200066f4:	b082      	sub	sp, #8
200066f6:	4615      	mov	r5, r2
200066f8:	4604      	mov	r4, r0
200066fa:	2b01      	cmp	r3, #1
200066fc:	d907      	bls.n	2000670e <d_print_subexpr+0x1e>
200066fe:	f1a3 0631 	sub.w	r6, r3, #49	@ 0x31
20006702:	fab6 f686 	clz	r6, r6
20006706:	0976      	lsrs	r6, r6, #5
20006708:	b90e      	cbnz	r6, 2000670e <d_print_subexpr+0x1e>
2000670a:	2b06      	cmp	r3, #6
2000670c:	d136      	bne.n	2000677c <d_print_subexpr+0x8c>
2000670e:	686b      	ldr	r3, [r5, #4]
20006710:	2b01      	cmp	r3, #1
20006712:	dc2e      	bgt.n	20006772 <d_print_subexpr+0x82>
20006714:	f8d4 211c 	ldr.w	r2, [r4, #284]	@ 0x11c
20006718:	f5b2 6f80 	cmp.w	r2, #1024	@ 0x400
2000671c:	dc29      	bgt.n	20006772 <d_print_subexpr+0x82>
2000671e:	2601      	movs	r6, #1
20006720:	3301      	adds	r3, #1
20006722:	3201      	adds	r2, #1
20006724:	2111      	movs	r1, #17
20006726:	4620      	mov	r0, r4
20006728:	606b      	str	r3, [r5, #4]
2000672a:	f8d4 312c 	ldr.w	r3, [r4, #300]	@ 0x12c
2000672e:	f8c4 211c 	str.w	r2, [r4, #284]	@ 0x11c
20006732:	462a      	mov	r2, r5
20006734:	f8c4 d12c 	str.w	sp, [r4, #300]	@ 0x12c
20006738:	9301      	str	r3, [sp, #4]
2000673a:	9500      	str	r5, [sp, #0]
2000673c:	f7fc f956 	bl	200029ec <d_print_comp_inner>
20006740:	686a      	ldr	r2, [r5, #4]
20006742:	f8d4 311c 	ldr.w	r3, [r4, #284]	@ 0x11c
20006746:	9901      	ldr	r1, [sp, #4]
20006748:	3a01      	subs	r2, #1
2000674a:	3b01      	subs	r3, #1
2000674c:	f8c4 112c 	str.w	r1, [r4, #300]	@ 0x12c
20006750:	606a      	str	r2, [r5, #4]
20006752:	f8c4 311c 	str.w	r3, [r4, #284]	@ 0x11c
20006756:	b956      	cbnz	r6, 2000676e <d_print_subexpr+0x7e>
20006758:	f8d4 1100 	ldr.w	r1, [r4, #256]	@ 0x100
2000675c:	29ff      	cmp	r1, #255	@ 0xff
2000675e:	d024      	beq.n	200067aa <d_print_subexpr+0xba>
20006760:	1c4a      	adds	r2, r1, #1
20006762:	2329      	movs	r3, #41	@ 0x29
20006764:	f8c4 2100 	str.w	r2, [r4, #256]	@ 0x100
20006768:	5463      	strb	r3, [r4, r1]
2000676a:	f884 3104 	strb.w	r3, [r4, #260]	@ 0x104
2000676e:	b002      	add	sp, #8
20006770:	bd70      	pop	{r4, r5, r6, pc}
20006772:	2301      	movs	r3, #1
20006774:	f8c4 3118 	str.w	r3, [r4, #280]	@ 0x118
20006778:	b002      	add	sp, #8
2000677a:	bd70      	pop	{r4, r5, r6, pc}
2000677c:	f8d0 3100 	ldr.w	r3, [r0, #256]	@ 0x100
20006780:	2bff      	cmp	r3, #255	@ 0xff
20006782:	d021      	beq.n	200067c8 <d_print_subexpr+0xd8>
20006784:	1c59      	adds	r1, r3, #1
20006786:	2228      	movs	r2, #40	@ 0x28
20006788:	f8c0 1100 	str.w	r1, [r0, #256]	@ 0x100
2000678c:	54c2      	strb	r2, [r0, r3]
2000678e:	f880 2104 	strb.w	r2, [r0, #260]	@ 0x104
20006792:	686b      	ldr	r3, [r5, #4]
20006794:	2b01      	cmp	r3, #1
20006796:	dc04      	bgt.n	200067a2 <d_print_subexpr+0xb2>
20006798:	f8d0 211c 	ldr.w	r2, [r0, #284]	@ 0x11c
2000679c:	f5b2 6f80 	cmp.w	r2, #1024	@ 0x400
200067a0:	ddbe      	ble.n	20006720 <d_print_subexpr+0x30>
200067a2:	2301      	movs	r3, #1
200067a4:	f8c4 3118 	str.w	r3, [r4, #280]	@ 0x118
200067a8:	e7d8      	b.n	2000675c <d_print_subexpr+0x6c>
200067aa:	2500      	movs	r5, #0
200067ac:	4620      	mov	r0, r4
200067ae:	e9d4 3242 	ldrd	r3, r2, [r4, #264]	@ 0x108
200067b2:	f884 50ff 	strb.w	r5, [r4, #255]	@ 0xff
200067b6:	4798      	blx	r3
200067b8:	f8d4 3128 	ldr.w	r3, [r4, #296]	@ 0x128
200067bc:	2201      	movs	r2, #1
200067be:	4629      	mov	r1, r5
200067c0:	4413      	add	r3, r2
200067c2:	f8c4 3128 	str.w	r3, [r4, #296]	@ 0x128
200067c6:	e7cc      	b.n	20006762 <d_print_subexpr+0x72>
200067c8:	4619      	mov	r1, r3
200067ca:	f880 60ff 	strb.w	r6, [r0, #255]	@ 0xff
200067ce:	e9d0 3242 	ldrd	r3, r2, [r0, #264]	@ 0x108
200067d2:	4798      	blx	r3
200067d4:	2228      	movs	r2, #40	@ 0x28
200067d6:	f8d4 3128 	ldr.w	r3, [r4, #296]	@ 0x128
200067da:	2101      	movs	r1, #1
200067dc:	7022      	strb	r2, [r4, #0]
200067de:	f884 2104 	strb.w	r2, [r4, #260]	@ 0x104
200067e2:	1c5a      	adds	r2, r3, #1
200067e4:	686b      	ldr	r3, [r5, #4]
200067e6:	f8c4 2128 	str.w	r2, [r4, #296]	@ 0x128
200067ea:	428b      	cmp	r3, r1
200067ec:	f8c4 1100 	str.w	r1, [r4, #256]	@ 0x100
200067f0:	dc04      	bgt.n	200067fc <d_print_subexpr+0x10c>
200067f2:	f8d4 211c 	ldr.w	r2, [r4, #284]	@ 0x11c
200067f6:	f5b2 6f80 	cmp.w	r2, #1024	@ 0x400
200067fa:	dd91      	ble.n	20006720 <d_print_subexpr+0x30>
200067fc:	f8c4 1118 	str.w	r1, [r4, #280]	@ 0x118
20006800:	2101      	movs	r1, #1
20006802:	e7ad      	b.n	20006760 <d_print_subexpr+0x70>

20006804 <d_maybe_print_fold_expression>:
20006804:	68d3      	ldr	r3, [r2, #12]
20006806:	68db      	ldr	r3, [r3, #12]
20006808:	681b      	ldr	r3, [r3, #0]
2000680a:	7819      	ldrb	r1, [r3, #0]
2000680c:	2966      	cmp	r1, #102	@ 0x66
2000680e:	d166      	bne.n	200068de <d_maybe_print_fold_expression+0xda>
20006810:	6912      	ldr	r2, [r2, #16]
20006812:	f8d0 1124 	ldr.w	r1, [r0, #292]	@ 0x124
20006816:	e92d 4ff0 	stmdb	sp!, {r4, r5, r6, r7, r8, r9, sl, fp, lr}
2000681a:	e9d2 8403 	ldrd	r8, r4, [r2, #12]
2000681e:	b083      	sub	sp, #12
20006820:	4607      	mov	r7, r0
20006822:	7822      	ldrb	r2, [r4, #0]
20006824:	9100      	str	r1, [sp, #0]
20006826:	2a3c      	cmp	r2, #60	@ 0x3c
20006828:	f04f 32ff 	mov.w	r2, #4294967295
2000682c:	bf08      	it	eq
2000682e:	e9d4 4903 	ldrdeq	r4, r9, [r4, #12]
20006832:	f8c0 2124 	str.w	r2, [r0, #292]	@ 0x124
20006836:	bf18      	it	ne
20006838:	f04f 0900 	movne.w	r9, #0
2000683c:	785b      	ldrb	r3, [r3, #1]
2000683e:	2b6c      	cmp	r3, #108	@ 0x6c
20006840:	f000 8099 	beq.w	20006976 <d_maybe_print_fold_expression+0x172>
20006844:	d84e      	bhi.n	200068e4 <d_maybe_print_fold_expression+0xe0>
20006846:	2b4c      	cmp	r3, #76	@ 0x4c
20006848:	d002      	beq.n	20006850 <d_maybe_print_fold_expression+0x4c>
2000684a:	2b52      	cmp	r3, #82	@ 0x52
2000684c:	f040 80db 	bne.w	20006a06 <d_maybe_print_fold_expression+0x202>
20006850:	f8d7 1100 	ldr.w	r1, [r7, #256]	@ 0x100
20006854:	29ff      	cmp	r1, #255	@ 0xff
20006856:	f000 8106 	beq.w	20006a66 <d_maybe_print_fold_expression+0x262>
2000685a:	1c4b      	adds	r3, r1, #1
2000685c:	f8c7 3100 	str.w	r3, [r7, #256]	@ 0x100
20006860:	2328      	movs	r3, #40	@ 0x28
20006862:	4622      	mov	r2, r4
20006864:	4638      	mov	r0, r7
20006866:	547b      	strb	r3, [r7, r1]
20006868:	2111      	movs	r1, #17
2000686a:	f887 3104 	strb.w	r3, [r7, #260]	@ 0x104
2000686e:	f04f 0a00 	mov.w	sl, #0
20006872:	4e84      	ldr	r6, [pc, #528]	@ (20006a84 <d_maybe_print_fold_expression+0x280>)
20006874:	f7ff ff3c 	bl	200066f0 <d_print_subexpr>
20006878:	2111      	movs	r1, #17
2000687a:	4642      	mov	r2, r8
2000687c:	4638      	mov	r0, r7
2000687e:	f106 0b03 	add.w	fp, r6, #3
20006882:	f7ff fd43 	bl	2000630c <d_print_expr_op>
20006886:	f8d7 1100 	ldr.w	r1, [r7, #256]	@ 0x100
2000688a:	e009      	b.n	200068a0 <d_maybe_print_fold_expression+0x9c>
2000688c:	4626      	mov	r6, r4
2000688e:	1c59      	adds	r1, r3, #1
20006890:	45b3      	cmp	fp, r6
20006892:	f8c7 1100 	str.w	r1, [r7, #256]	@ 0x100
20006896:	54fd      	strb	r5, [r7, r3]
20006898:	f887 5104 	strb.w	r5, [r7, #260]	@ 0x104
2000689c:	f000 809e 	beq.w	200069dc <d_maybe_print_fold_expression+0x1d8>
200068a0:	4634      	mov	r4, r6
200068a2:	29ff      	cmp	r1, #255	@ 0xff
200068a4:	460b      	mov	r3, r1
200068a6:	f814 5b01 	ldrb.w	r5, [r4], #1
200068aa:	d1ef      	bne.n	2000688c <d_maybe_print_fold_expression+0x88>
200068ac:	4638      	mov	r0, r7
200068ae:	f887 a0ff 	strb.w	sl, [r7, #255]	@ 0xff
200068b2:	3602      	adds	r6, #2
200068b4:	e9d7 3242 	ldrd	r3, r2, [r7, #264]	@ 0x108
200068b8:	4798      	blx	r3
200068ba:	2301      	movs	r3, #1
200068bc:	45a3      	cmp	fp, r4
200068be:	703d      	strb	r5, [r7, #0]
200068c0:	f8c7 3100 	str.w	r3, [r7, #256]	@ 0x100
200068c4:	f8d7 3128 	ldr.w	r3, [r7, #296]	@ 0x128
200068c8:	f887 5104 	strb.w	r5, [r7, #260]	@ 0x104
200068cc:	f103 0301 	add.w	r3, r3, #1
200068d0:	f8c7 3128 	str.w	r3, [r7, #296]	@ 0x128
200068d4:	f000 8082 	beq.w	200069dc <d_maybe_print_fold_expression+0x1d8>
200068d8:	7825      	ldrb	r5, [r4, #0]
200068da:	2301      	movs	r3, #1
200068dc:	e7d7      	b.n	2000688e <d_maybe_print_fold_expression+0x8a>
200068de:	2300      	movs	r3, #0
200068e0:	4618      	mov	r0, r3
200068e2:	4770      	bx	lr
200068e4:	2b72      	cmp	r3, #114	@ 0x72
200068e6:	f040 808e 	bne.w	20006a06 <d_maybe_print_fold_expression+0x202>
200068ea:	f8d0 1100 	ldr.w	r1, [r0, #256]	@ 0x100
200068ee:	29ff      	cmp	r1, #255	@ 0xff
200068f0:	f000 80ab 	beq.w	20006a4a <d_maybe_print_fold_expression+0x246>
200068f4:	1c4b      	adds	r3, r1, #1
200068f6:	f8c7 3100 	str.w	r3, [r7, #256]	@ 0x100
200068fa:	2328      	movs	r3, #40	@ 0x28
200068fc:	4622      	mov	r2, r4
200068fe:	4638      	mov	r0, r7
20006900:	547b      	strb	r3, [r7, r1]
20006902:	2111      	movs	r1, #17
20006904:	f887 3104 	strb.w	r3, [r7, #260]	@ 0x104
20006908:	f04f 0900 	mov.w	r9, #0
2000690c:	4e5e      	ldr	r6, [pc, #376]	@ (20006a88 <d_maybe_print_fold_expression+0x284>)
2000690e:	f7ff feef 	bl	200066f0 <d_print_subexpr>
20006912:	4642      	mov	r2, r8
20006914:	2111      	movs	r1, #17
20006916:	4638      	mov	r0, r7
20006918:	f106 0a04 	add.w	sl, r6, #4
2000691c:	f7ff fcf6 	bl	2000630c <d_print_expr_op>
20006920:	f04f 0801 	mov.w	r8, #1
20006924:	f8d7 1100 	ldr.w	r1, [r7, #256]	@ 0x100
20006928:	e008      	b.n	2000693c <d_maybe_print_fold_expression+0x138>
2000692a:	4626      	mov	r6, r4
2000692c:	1c59      	adds	r1, r3, #1
2000692e:	45b2      	cmp	sl, r6
20006930:	f8c7 1100 	str.w	r1, [r7, #256]	@ 0x100
20006934:	54fd      	strb	r5, [r7, r3]
20006936:	f887 5104 	strb.w	r5, [r7, #260]	@ 0x104
2000693a:	d064      	beq.n	20006a06 <d_maybe_print_fold_expression+0x202>
2000693c:	4634      	mov	r4, r6
2000693e:	29ff      	cmp	r1, #255	@ 0xff
20006940:	460b      	mov	r3, r1
20006942:	f814 5b01 	ldrb.w	r5, [r4], #1
20006946:	d1f0      	bne.n	2000692a <d_maybe_print_fold_expression+0x126>
20006948:	4638      	mov	r0, r7
2000694a:	f887 90ff 	strb.w	r9, [r7, #255]	@ 0xff
2000694e:	3602      	adds	r6, #2
20006950:	e9d7 3242 	ldrd	r3, r2, [r7, #264]	@ 0x108
20006954:	4798      	blx	r3
20006956:	f8d7 3128 	ldr.w	r3, [r7, #296]	@ 0x128
2000695a:	45a2      	cmp	sl, r4
2000695c:	703d      	strb	r5, [r7, #0]
2000695e:	f103 0301 	add.w	r3, r3, #1
20006962:	f887 5104 	strb.w	r5, [r7, #260]	@ 0x104
20006966:	f8c7 8100 	str.w	r8, [r7, #256]	@ 0x100
2000696a:	f8c7 3128 	str.w	r3, [r7, #296]	@ 0x128
2000696e:	d04a      	beq.n	20006a06 <d_maybe_print_fold_expression+0x202>
20006970:	7825      	ldrb	r5, [r4, #0]
20006972:	2301      	movs	r3, #1
20006974:	e7da      	b.n	2000692c <d_maybe_print_fold_expression+0x128>
20006976:	4e45      	ldr	r6, [pc, #276]	@ (20006a8c <d_maybe_print_fold_expression+0x288>)
20006978:	f04f 0900 	mov.w	r9, #0
2000697c:	9401      	str	r4, [sp, #4]
2000697e:	f04f 0b01 	mov.w	fp, #1
20006982:	f8d0 1100 	ldr.w	r1, [r0, #256]	@ 0x100
20006986:	f106 0a04 	add.w	sl, r6, #4
2000698a:	4604      	mov	r4, r0
2000698c:	4637      	mov	r7, r6
2000698e:	e008      	b.n	200069a2 <d_maybe_print_fold_expression+0x19e>
20006990:	462f      	mov	r7, r5
20006992:	1c59      	adds	r1, r3, #1
20006994:	45ba      	cmp	sl, r7
20006996:	f8c4 1100 	str.w	r1, [r4, #256]	@ 0x100
2000699a:	54e6      	strb	r6, [r4, r3]
2000699c:	f884 6104 	strb.w	r6, [r4, #260]	@ 0x104
200069a0:	d039      	beq.n	20006a16 <d_maybe_print_fold_expression+0x212>
200069a2:	463d      	mov	r5, r7
200069a4:	29ff      	cmp	r1, #255	@ 0xff
200069a6:	460b      	mov	r3, r1
200069a8:	f815 6b01 	ldrb.w	r6, [r5], #1
200069ac:	d1f0      	bne.n	20006990 <d_maybe_print_fold_expression+0x18c>
200069ae:	4620      	mov	r0, r4
200069b0:	f884 90ff 	strb.w	r9, [r4, #255]	@ 0xff
200069b4:	3702      	adds	r7, #2
200069b6:	e9d4 3242 	ldrd	r3, r2, [r4, #264]	@ 0x108
200069ba:	4798      	blx	r3
200069bc:	f8d4 3128 	ldr.w	r3, [r4, #296]	@ 0x128
200069c0:	4555      	cmp	r5, sl
200069c2:	7026      	strb	r6, [r4, #0]
200069c4:	f103 0301 	add.w	r3, r3, #1
200069c8:	f884 6104 	strb.w	r6, [r4, #260]	@ 0x104
200069cc:	f8c4 b100 	str.w	fp, [r4, #256]	@ 0x100
200069d0:	f8c4 3128 	str.w	r3, [r4, #296]	@ 0x128
200069d4:	d01f      	beq.n	20006a16 <d_maybe_print_fold_expression+0x212>
200069d6:	782e      	ldrb	r6, [r5, #0]
200069d8:	2301      	movs	r3, #1
200069da:	e7da      	b.n	20006992 <d_maybe_print_fold_expression+0x18e>
200069dc:	4642      	mov	r2, r8
200069de:	2111      	movs	r1, #17
200069e0:	4638      	mov	r0, r7
200069e2:	f7ff fc93 	bl	2000630c <d_print_expr_op>
200069e6:	464a      	mov	r2, r9
200069e8:	2111      	movs	r1, #17
200069ea:	4638      	mov	r0, r7
200069ec:	f7ff fe80 	bl	200066f0 <d_print_subexpr>
200069f0:	f8d7 1100 	ldr.w	r1, [r7, #256]	@ 0x100
200069f4:	29ff      	cmp	r1, #255	@ 0xff
200069f6:	d017      	beq.n	20006a28 <d_maybe_print_fold_expression+0x224>
200069f8:	1c4a      	adds	r2, r1, #1
200069fa:	2329      	movs	r3, #41	@ 0x29
200069fc:	f8c7 2100 	str.w	r2, [r7, #256]	@ 0x100
20006a00:	547b      	strb	r3, [r7, r1]
20006a02:	f887 3104 	strb.w	r3, [r7, #260]	@ 0x104
20006a06:	2301      	movs	r3, #1
20006a08:	9a00      	ldr	r2, [sp, #0]
20006a0a:	4618      	mov	r0, r3
20006a0c:	f8c7 2124 	str.w	r2, [r7, #292]	@ 0x124
20006a10:	b003      	add	sp, #12
20006a12:	e8bd 8ff0 	ldmia.w	sp!, {r4, r5, r6, r7, r8, r9, sl, fp, pc}
20006a16:	4627      	mov	r7, r4
20006a18:	9c01      	ldr	r4, [sp, #4]
20006a1a:	4642      	mov	r2, r8
20006a1c:	2111      	movs	r1, #17
20006a1e:	4638      	mov	r0, r7
20006a20:	f7ff fc74 	bl	2000630c <d_print_expr_op>
20006a24:	4622      	mov	r2, r4
20006a26:	e7df      	b.n	200069e8 <d_maybe_print_fold_expression+0x1e4>
20006a28:	2400      	movs	r4, #0
20006a2a:	f8d7 3108 	ldr.w	r3, [r7, #264]	@ 0x108
20006a2e:	f8d7 210c 	ldr.w	r2, [r7, #268]	@ 0x10c
20006a32:	4638      	mov	r0, r7
20006a34:	f887 40ff 	strb.w	r4, [r7, #255]	@ 0xff
20006a38:	4798      	blx	r3
20006a3a:	f8d7 3128 	ldr.w	r3, [r7, #296]	@ 0x128
20006a3e:	2201      	movs	r2, #1
20006a40:	4621      	mov	r1, r4
20006a42:	4413      	add	r3, r2
20006a44:	f8c7 3128 	str.w	r3, [r7, #296]	@ 0x128
20006a48:	e7d7      	b.n	200069fa <d_maybe_print_fold_expression+0x1f6>
20006a4a:	2500      	movs	r5, #0
20006a4c:	e9d0 3242 	ldrd	r3, r2, [r0, #264]	@ 0x108
20006a50:	f880 50ff 	strb.w	r5, [r0, #255]	@ 0xff
20006a54:	4798      	blx	r3
20006a56:	f8d7 3128 	ldr.w	r3, [r7, #296]	@ 0x128
20006a5a:	4629      	mov	r1, r5
20006a5c:	3301      	adds	r3, #1
20006a5e:	f8c7 3128 	str.w	r3, [r7, #296]	@ 0x128
20006a62:	2301      	movs	r3, #1
20006a64:	e747      	b.n	200068f6 <d_maybe_print_fold_expression+0xf2>
20006a66:	2500      	movs	r5, #0
20006a68:	4638      	mov	r0, r7
20006a6a:	e9d7 3242 	ldrd	r3, r2, [r7, #264]	@ 0x108
20006a6e:	f887 50ff 	strb.w	r5, [r7, #255]	@ 0xff
20006a72:	4798      	blx	r3
20006a74:	f8d7 3128 	ldr.w	r3, [r7, #296]	@ 0x128
20006a78:	4629      	mov	r1, r5
20006a7a:	3301      	adds	r3, #1
20006a7c:	f8c7 3128 	str.w	r3, [r7, #296]	@ 0x128
20006a80:	2301      	movs	r3, #1
20006a82:	e6eb      	b.n	2000685c <d_maybe_print_fold_expression+0x58>
20006a84:	2000cda4 	.word	0x2000cda4
20006a88:	2000cebc 	.word	0x2000cebc
20006a8c:	2000ceb4 	.word	0x2000ceb4

20006a90 <d_maybe_print_designated_init>:
20006a90:	7813      	ldrb	r3, [r2, #0]
20006a92:	f003 03fd 	and.w	r3, r3, #253	@ 0xfd
20006a96:	2b38      	cmp	r3, #56	@ 0x38
20006a98:	d162      	bne.n	20006b60 <d_maybe_print_designated_init+0xd0>
20006a9a:	68d3      	ldr	r3, [r2, #12]
20006a9c:	68db      	ldr	r3, [r3, #12]
20006a9e:	e92d 4ff0 	stmdb	sp!, {r4, r5, r6, r7, r8, r9, sl, fp, lr}
20006aa2:	681f      	ldr	r7, [r3, #0]
20006aa4:	b083      	sub	sp, #12
20006aa6:	783b      	ldrb	r3, [r7, #0]
20006aa8:	2b64      	cmp	r3, #100	@ 0x64
20006aaa:	d003      	beq.n	20006ab4 <d_maybe_print_designated_init+0x24>
20006aac:	2000      	movs	r0, #0
20006aae:	b003      	add	sp, #12
20006ab0:	e8bd 8ff0 	ldmia.w	sp!, {r4, r5, r6, r7, r8, r9, sl, fp, pc}
20006ab4:	787e      	ldrb	r6, [r7, #1]
20006ab6:	4683      	mov	fp, r0
20006ab8:	f006 03df 	and.w	r3, r6, #223	@ 0xdf
20006abc:	2b58      	cmp	r3, #88	@ 0x58
20006abe:	d006      	beq.n	20006ace <d_maybe_print_designated_init+0x3e>
20006ac0:	f1a6 0069 	sub.w	r0, r6, #105	@ 0x69
20006ac4:	fab0 f080 	clz	r0, r0
20006ac8:	0940      	lsrs	r0, r0, #5
20006aca:	2800      	cmp	r0, #0
20006acc:	d0ef      	beq.n	20006aae <d_maybe_print_designated_init+0x1e>
20006ace:	6913      	ldr	r3, [r2, #16]
20006ad0:	2e69      	cmp	r6, #105	@ 0x69
20006ad2:	f8db 1100 	ldr.w	r1, [fp, #256]	@ 0x100
20006ad6:	e9d3 5403 	ldrd	r5, r4, [r3, #12]
20006ada:	d043      	beq.n	20006b64 <d_maybe_print_designated_init+0xd4>
20006adc:	29ff      	cmp	r1, #255	@ 0xff
20006ade:	f000 8096 	beq.w	20006c0e <d_maybe_print_designated_init+0x17e>
20006ae2:	1c4b      	adds	r3, r1, #1
20006ae4:	f8cb 3100 	str.w	r3, [fp, #256]	@ 0x100
20006ae8:	235b      	movs	r3, #91	@ 0x5b
20006aea:	f80b 3001 	strb.w	r3, [fp, r1]
20006aee:	f88b 3104 	strb.w	r3, [fp, #260]	@ 0x104
20006af2:	462a      	mov	r2, r5
20006af4:	2111      	movs	r1, #17
20006af6:	4658      	mov	r0, fp
20006af8:	f7fe fcf6 	bl	200054e8 <d_print_comp>
20006afc:	787b      	ldrb	r3, [r7, #1]
20006afe:	2b58      	cmp	r3, #88	@ 0x58
20006b00:	d047      	beq.n	20006b92 <d_maybe_print_designated_init+0x102>
20006b02:	2b69      	cmp	r3, #105	@ 0x69
20006b04:	d00c      	beq.n	20006b20 <d_maybe_print_designated_init+0x90>
20006b06:	f8db 1100 	ldr.w	r1, [fp, #256]	@ 0x100
20006b0a:	29ff      	cmp	r1, #255	@ 0xff
20006b0c:	f000 809f 	beq.w	20006c4e <d_maybe_print_designated_init+0x1be>
20006b10:	1c4a      	adds	r2, r1, #1
20006b12:	235d      	movs	r3, #93	@ 0x5d
20006b14:	f8cb 2100 	str.w	r2, [fp, #256]	@ 0x100
20006b18:	f80b 3001 	strb.w	r3, [fp, r1]
20006b1c:	f88b 3104 	strb.w	r3, [fp, #260]	@ 0x104
20006b20:	7823      	ldrb	r3, [r4, #0]
20006b22:	f003 03fd 	and.w	r3, r3, #253	@ 0xfd
20006b26:	2b38      	cmp	r3, #56	@ 0x38
20006b28:	d105      	bne.n	20006b36 <d_maybe_print_designated_init+0xa6>
20006b2a:	68e3      	ldr	r3, [r4, #12]
20006b2c:	68db      	ldr	r3, [r3, #12]
20006b2e:	681b      	ldr	r3, [r3, #0]
20006b30:	781a      	ldrb	r2, [r3, #0]
20006b32:	2a64      	cmp	r2, #100	@ 0x64
20006b34:	d020      	beq.n	20006b78 <d_maybe_print_designated_init+0xe8>
20006b36:	f8db 1100 	ldr.w	r1, [fp, #256]	@ 0x100
20006b3a:	29ff      	cmp	r1, #255	@ 0xff
20006b3c:	d076      	beq.n	20006c2c <d_maybe_print_designated_init+0x19c>
20006b3e:	1c4a      	adds	r2, r1, #1
20006b40:	233d      	movs	r3, #61	@ 0x3d
20006b42:	f8cb 2100 	str.w	r2, [fp, #256]	@ 0x100
20006b46:	4658      	mov	r0, fp
20006b48:	4622      	mov	r2, r4
20006b4a:	f80b 3001 	strb.w	r3, [fp, r1]
20006b4e:	2111      	movs	r1, #17
20006b50:	f88b 3104 	strb.w	r3, [fp, #260]	@ 0x104
20006b54:	f7ff fdcc 	bl	200066f0 <d_print_subexpr>
20006b58:	2001      	movs	r0, #1
20006b5a:	b003      	add	sp, #12
20006b5c:	e8bd 8ff0 	ldmia.w	sp!, {r4, r5, r6, r7, r8, r9, sl, fp, pc}
20006b60:	2000      	movs	r0, #0
20006b62:	4770      	bx	lr
20006b64:	29ff      	cmp	r1, #255	@ 0xff
20006b66:	f000 8083 	beq.w	20006c70 <d_maybe_print_designated_init+0x1e0>
20006b6a:	1c4b      	adds	r3, r1, #1
20006b6c:	f8cb 3100 	str.w	r3, [fp, #256]	@ 0x100
20006b70:	232e      	movs	r3, #46	@ 0x2e
20006b72:	f80b 3001 	strb.w	r3, [fp, r1]
20006b76:	e7ba      	b.n	20006aee <d_maybe_print_designated_init+0x5e>
20006b78:	785b      	ldrb	r3, [r3, #1]
20006b7a:	f003 02df 	and.w	r2, r3, #223	@ 0xdf
20006b7e:	2a58      	cmp	r2, #88	@ 0x58
20006b80:	d001      	beq.n	20006b86 <d_maybe_print_designated_init+0xf6>
20006b82:	2b69      	cmp	r3, #105	@ 0x69
20006b84:	d1d7      	bne.n	20006b36 <d_maybe_print_designated_init+0xa6>
20006b86:	4622      	mov	r2, r4
20006b88:	2111      	movs	r1, #17
20006b8a:	4658      	mov	r0, fp
20006b8c:	f7fe fcac 	bl	200054e8 <d_print_comp>
20006b90:	e7e2      	b.n	20006b58 <d_maybe_print_designated_init+0xc8>
20006b92:	4e3f      	ldr	r6, [pc, #252]	@ (20006c90 <d_maybe_print_designated_init+0x200>)
20006b94:	f04f 0900 	mov.w	r9, #0
20006b98:	f8db 1100 	ldr.w	r1, [fp, #256]	@ 0x100
20006b9c:	f04f 0801 	mov.w	r8, #1
20006ba0:	9401      	str	r4, [sp, #4]
20006ba2:	f106 0a05 	add.w	sl, r6, #5
20006ba6:	465c      	mov	r4, fp
20006ba8:	46b3      	mov	fp, r6
20006baa:	e008      	b.n	20006bbe <d_maybe_print_designated_init+0x12e>
20006bac:	46ab      	mov	fp, r5
20006bae:	1c59      	adds	r1, r3, #1
20006bb0:	45da      	cmp	sl, fp
20006bb2:	f8c4 1100 	str.w	r1, [r4, #256]	@ 0x100
20006bb6:	54e6      	strb	r6, [r4, r3]
20006bb8:	f884 6104 	strb.w	r6, [r4, #260]	@ 0x104
20006bbc:	d01d      	beq.n	20006bfa <d_maybe_print_designated_init+0x16a>
20006bbe:	465d      	mov	r5, fp
20006bc0:	29ff      	cmp	r1, #255	@ 0xff
20006bc2:	460b      	mov	r3, r1
20006bc4:	f815 6b01 	ldrb.w	r6, [r5], #1
20006bc8:	d1f0      	bne.n	20006bac <d_maybe_print_designated_init+0x11c>
20006bca:	4620      	mov	r0, r4
20006bcc:	f884 90ff 	strb.w	r9, [r4, #255]	@ 0xff
20006bd0:	f10b 0b02 	add.w	fp, fp, #2
20006bd4:	e9d4 3242 	ldrd	r3, r2, [r4, #264]	@ 0x108
20006bd8:	4798      	blx	r3
20006bda:	f8d4 3128 	ldr.w	r3, [r4, #296]	@ 0x128
20006bde:	45aa      	cmp	sl, r5
20006be0:	7026      	strb	r6, [r4, #0]
20006be2:	f103 0301 	add.w	r3, r3, #1
20006be6:	f884 6104 	strb.w	r6, [r4, #260]	@ 0x104
20006bea:	f8c4 8100 	str.w	r8, [r4, #256]	@ 0x100
20006bee:	f8c4 3128 	str.w	r3, [r4, #296]	@ 0x128
20006bf2:	d002      	beq.n	20006bfa <d_maybe_print_designated_init+0x16a>
20006bf4:	782e      	ldrb	r6, [r5, #0]
20006bf6:	2301      	movs	r3, #1
20006bf8:	e7d9      	b.n	20006bae <d_maybe_print_designated_init+0x11e>
20006bfa:	46a3      	mov	fp, r4
20006bfc:	9c01      	ldr	r4, [sp, #4]
20006bfe:	2111      	movs	r1, #17
20006c00:	68e2      	ldr	r2, [r4, #12]
20006c02:	4658      	mov	r0, fp
20006c04:	f7fe fc70 	bl	200054e8 <d_print_comp>
20006c08:	6924      	ldr	r4, [r4, #16]
20006c0a:	787b      	ldrb	r3, [r7, #1]
20006c0c:	e779      	b.n	20006b02 <d_maybe_print_designated_init+0x72>
20006c0e:	2600      	movs	r6, #0
20006c10:	4658      	mov	r0, fp
20006c12:	e9db 3242 	ldrd	r3, r2, [fp, #264]	@ 0x108
20006c16:	f88b 60ff 	strb.w	r6, [fp, #255]	@ 0xff
20006c1a:	4798      	blx	r3
20006c1c:	f8db 3128 	ldr.w	r3, [fp, #296]	@ 0x128
20006c20:	4631      	mov	r1, r6
20006c22:	3301      	adds	r3, #1
20006c24:	f8cb 3128 	str.w	r3, [fp, #296]	@ 0x128
20006c28:	2301      	movs	r3, #1
20006c2a:	e75b      	b.n	20006ae4 <d_maybe_print_designated_init+0x54>
20006c2c:	2500      	movs	r5, #0
20006c2e:	f8db 3108 	ldr.w	r3, [fp, #264]	@ 0x108
20006c32:	f8db 210c 	ldr.w	r2, [fp, #268]	@ 0x10c
20006c36:	4658      	mov	r0, fp
20006c38:	f88b 50ff 	strb.w	r5, [fp, #255]	@ 0xff
20006c3c:	4798      	blx	r3
20006c3e:	f8db 3128 	ldr.w	r3, [fp, #296]	@ 0x128
20006c42:	2201      	movs	r2, #1
20006c44:	4629      	mov	r1, r5
20006c46:	4413      	add	r3, r2
20006c48:	f8cb 3128 	str.w	r3, [fp, #296]	@ 0x128
20006c4c:	e778      	b.n	20006b40 <d_maybe_print_designated_init+0xb0>
20006c4e:	2500      	movs	r5, #0
20006c50:	f8db 3108 	ldr.w	r3, [fp, #264]	@ 0x108
20006c54:	f8db 210c 	ldr.w	r2, [fp, #268]	@ 0x10c
20006c58:	4658      	mov	r0, fp
20006c5a:	f88b 50ff 	strb.w	r5, [fp, #255]	@ 0xff
20006c5e:	4798      	blx	r3
20006c60:	f8db 3128 	ldr.w	r3, [fp, #296]	@ 0x128
20006c64:	2201      	movs	r2, #1
20006c66:	4629      	mov	r1, r5
20006c68:	4413      	add	r3, r2
20006c6a:	f8cb 3128 	str.w	r3, [fp, #296]	@ 0x128
20006c6e:	e750      	b.n	20006b12 <d_maybe_print_designated_init+0x82>
20006c70:	2600      	movs	r6, #0
20006c72:	4658      	mov	r0, fp
20006c74:	e9db 3242 	ldrd	r3, r2, [fp, #264]	@ 0x108
20006c78:	f88b 60ff 	strb.w	r6, [fp, #255]	@ 0xff
20006c7c:	4798      	blx	r3
20006c7e:	f8db 3128 	ldr.w	r3, [fp, #296]	@ 0x128
20006c82:	4631      	mov	r1, r6
20006c84:	3301      	adds	r3, #1
20006c86:	f8cb 3128 	str.w	r3, [fp, #296]	@ 0x128
20006c8a:	2301      	movs	r3, #1
20006c8c:	e76e      	b.n	20006b6c <d_maybe_print_designated_init+0xdc>
20006c8e:	bf00      	nop
20006c90:	2000cec4 	.word	0x2000cec4

20006c94 <__cxa_demangle>:
20006c94:	e92d 41f0 	stmdb	sp!, {r4, r5, r6, r7, r8, lr}
20006c98:	461d      	mov	r5, r3
20006c9a:	b084      	sub	sp, #16
20006c9c:	2800      	cmp	r0, #0
20006c9e:	d039      	beq.n	20006d14 <__cxa_demangle+0x80>
20006ca0:	460c      	mov	r4, r1
20006ca2:	4617      	mov	r7, r2
20006ca4:	b109      	cbz	r1, 20006caa <__cxa_demangle+0x16>
20006ca6:	2a00      	cmp	r2, #0
20006ca8:	d034      	beq.n	20006d14 <__cxa_demangle+0x80>
20006caa:	2300      	movs	r3, #0
20006cac:	466a      	mov	r2, sp
20006cae:	4928      	ldr	r1, [pc, #160]	@ (20006d50 <__cxa_demangle+0xbc>)
20006cb0:	e9cd 3300 	strd	r3, r3, [sp]
20006cb4:	e9cd 3302 	strd	r3, r3, [sp, #8]
20006cb8:	f7ff fb68 	bl	2000638c <d_demangle_callback.constprop.0>
20006cbc:	2800      	cmp	r0, #0
20006cbe:	d03b      	beq.n	20006d38 <__cxa_demangle+0xa4>
20006cc0:	9b03      	ldr	r3, [sp, #12]
20006cc2:	9e00      	ldr	r6, [sp, #0]
20006cc4:	b1d3      	cbz	r3, 20006cfc <__cxa_demangle+0x68>
20006cc6:	2e00      	cmp	r6, #0
20006cc8:	d03f      	beq.n	20006d4a <__cxa_demangle+0xb6>
20006cca:	f04f 0801 	mov.w	r8, #1
20006cce:	b384      	cbz	r4, 20006d32 <__cxa_demangle+0x9e>
20006cd0:	4630      	mov	r0, r6
20006cd2:	f004 ffcd 	bl	2000bc70 <__strlen_veneer>
20006cd6:	683b      	ldr	r3, [r7, #0]
20006cd8:	4298      	cmp	r0, r3
20006cda:	d224      	bcs.n	20006d26 <__cxa_demangle+0x92>
20006cdc:	1c42      	adds	r2, r0, #1
20006cde:	4631      	mov	r1, r6
20006ce0:	4620      	mov	r0, r4
20006ce2:	f004 ffad 	bl	2000bc40 <__memcpy_veneer>
20006ce6:	4630      	mov	r0, r6
20006ce8:	4626      	mov	r6, r4
20006cea:	f003 fd33 	bl	2000a754 <free>
20006cee:	b10d      	cbz	r5, 20006cf4 <__cxa_demangle+0x60>
20006cf0:	2300      	movs	r3, #0
20006cf2:	602b      	str	r3, [r5, #0]
20006cf4:	4630      	mov	r0, r6
20006cf6:	b004      	add	sp, #16
20006cf8:	e8bd 81f0 	ldmia.w	sp!, {r4, r5, r6, r7, r8, pc}
20006cfc:	f8dd 8008 	ldr.w	r8, [sp, #8]
20006d00:	2e00      	cmp	r6, #0
20006d02:	d1e4      	bne.n	20006cce <__cxa_demangle+0x3a>
20006d04:	b155      	cbz	r5, 20006d1c <__cxa_demangle+0x88>
20006d06:	f1b8 0f01 	cmp.w	r8, #1
20006d0a:	d11a      	bne.n	20006d42 <__cxa_demangle+0xae>
20006d0c:	f04f 33ff 	mov.w	r3, #4294967295
20006d10:	602b      	str	r3, [r5, #0]
20006d12:	e003      	b.n	20006d1c <__cxa_demangle+0x88>
20006d14:	b115      	cbz	r5, 20006d1c <__cxa_demangle+0x88>
20006d16:	f06f 0302 	mvn.w	r3, #2
20006d1a:	602b      	str	r3, [r5, #0]
20006d1c:	2600      	movs	r6, #0
20006d1e:	4630      	mov	r0, r6
20006d20:	b004      	add	sp, #16
20006d22:	e8bd 81f0 	ldmia.w	sp!, {r4, r5, r6, r7, r8, pc}
20006d26:	4620      	mov	r0, r4
20006d28:	f003 fd14 	bl	2000a754 <free>
20006d2c:	f8c7 8000 	str.w	r8, [r7]
20006d30:	e7dd      	b.n	20006cee <__cxa_demangle+0x5a>
20006d32:	2f00      	cmp	r7, #0
20006d34:	d1fa      	bne.n	20006d2c <__cxa_demangle+0x98>
20006d36:	e7da      	b.n	20006cee <__cxa_demangle+0x5a>
20006d38:	9800      	ldr	r0, [sp, #0]
20006d3a:	f003 fd0b 	bl	2000a754 <free>
20006d3e:	2d00      	cmp	r5, #0
20006d40:	d0ec      	beq.n	20006d1c <__cxa_demangle+0x88>
20006d42:	f06f 0301 	mvn.w	r3, #1
20006d46:	602b      	str	r3, [r5, #0]
20006d48:	e7e8      	b.n	20006d1c <__cxa_demangle+0x88>
20006d4a:	2d00      	cmp	r5, #0
20006d4c:	d1de      	bne.n	20006d0c <__cxa_demangle+0x78>
20006d4e:	e7e5      	b.n	20006d1c <__cxa_demangle+0x88>
20006d50:	20000405 	.word	0x20000405

20006d54 <__gcclibcxx_demangle_callback>:
20006d54:	b160      	cbz	r0, 20006d70 <__gcclibcxx_demangle_callback+0x1c>
20006d56:	b508      	push	{r3, lr}
20006d58:	b139      	cbz	r1, 20006d6a <__gcclibcxx_demangle_callback+0x16>
20006d5a:	f7ff fb17 	bl	2000638c <d_demangle_callback.constprop.0>
20006d5e:	2800      	cmp	r0, #0
20006d60:	bf0c      	ite	eq
20006d62:	f06f 0001 	mvneq.w	r0, #1
20006d66:	2000      	movne	r0, #0
20006d68:	bd08      	pop	{r3, pc}
20006d6a:	f06f 0002 	mvn.w	r0, #2
20006d6e:	bd08      	pop	{r3, pc}
20006d70:	f06f 0002 	mvn.w	r0, #2
20006d74:	4770      	bx	lr
20006d76:	bf00      	nop

20006d78 <selfrel_offset31>:
20006d78:	6803      	ldr	r3, [r0, #0]
20006d7a:	005a      	lsls	r2, r3, #1
20006d7c:	bf4c      	ite	mi
20006d7e:	f043 4300 	orrmi.w	r3, r3, #2147483648	@ 0x80000000
20006d82:	f023 4300 	bicpl.w	r3, r3, #2147483648	@ 0x80000000
20006d86:	4418      	add	r0, r3
20006d88:	4770      	bx	lr
20006d8a:	bf00      	nop

20006d8c <search_EIT_table>:
20006d8c:	e92d 47f0 	stmdb	sp!, {r4, r5, r6, r7, r8, r9, sl, lr}
20006d90:	b329      	cbz	r1, 20006dde <search_EIT_table+0x52>
20006d92:	f101 3aff 	add.w	sl, r1, #4294967295
20006d96:	4680      	mov	r8, r0
20006d98:	4691      	mov	r9, r2
20006d9a:	2500      	movs	r5, #0
20006d9c:	4656      	mov	r6, sl
20006d9e:	19a9      	adds	r1, r5, r6
20006da0:	bf48      	it	mi
20006da2:	3101      	addmi	r1, #1
20006da4:	1049      	asrs	r1, r1, #1
20006da6:	eb08 07c1 	add.w	r7, r8, r1, lsl #3
20006daa:	00cc      	lsls	r4, r1, #3
20006dac:	4638      	mov	r0, r7
20006dae:	f7ff ffe3 	bl	20006d78 <selfrel_offset31>
20006db2:	458a      	cmp	sl, r1
20006db4:	d00d      	beq.n	20006dd2 <search_EIT_table+0x46>
20006db6:	3408      	adds	r4, #8
20006db8:	4548      	cmp	r0, r9
20006dba:	eb08 0004 	add.w	r0, r8, r4
20006dbe:	d80a      	bhi.n	20006dd6 <search_EIT_table+0x4a>
20006dc0:	f7ff ffda 	bl	20006d78 <selfrel_offset31>
20006dc4:	3801      	subs	r0, #1
20006dc6:	1c4d      	adds	r5, r1, #1
20006dc8:	4548      	cmp	r0, r9
20006dca:	d3e8      	bcc.n	20006d9e <search_EIT_table+0x12>
20006dcc:	4638      	mov	r0, r7
20006dce:	e8bd 87f0 	ldmia.w	sp!, {r4, r5, r6, r7, r8, r9, sl, pc}
20006dd2:	4548      	cmp	r0, r9
20006dd4:	d9fa      	bls.n	20006dcc <search_EIT_table+0x40>
20006dd6:	428d      	cmp	r5, r1
20006dd8:	f101 36ff 	add.w	r6, r1, #4294967295
20006ddc:	d1df      	bne.n	20006d9e <search_EIT_table+0x12>
20006dde:	2700      	movs	r7, #0
20006de0:	4638      	mov	r0, r7
20006de2:	e8bd 87f0 	ldmia.w	sp!, {r4, r5, r6, r7, r8, r9, sl, pc}
20006de6:	bf00      	nop

20006de8 <__gnu_unwind_get_pr_addr>:
20006de8:	2801      	cmp	r0, #1
20006dea:	d009      	beq.n	20006e00 <__gnu_unwind_get_pr_addr+0x18>
20006dec:	2802      	cmp	r0, #2
20006dee:	d005      	beq.n	20006dfc <__gnu_unwind_get_pr_addr+0x14>
20006df0:	2800      	cmp	r0, #0
20006df2:	4b04      	ldr	r3, [pc, #16]	@ (20006e04 <__gnu_unwind_get_pr_addr+0x1c>)
20006df4:	bf14      	ite	ne
20006df6:	2000      	movne	r0, #0
20006df8:	4618      	moveq	r0, r3
20006dfa:	4770      	bx	lr
20006dfc:	4802      	ldr	r0, [pc, #8]	@ (20006e08 <__gnu_unwind_get_pr_addr+0x20>)
20006dfe:	4770      	bx	lr
20006e00:	4802      	ldr	r0, [pc, #8]	@ (20006e0c <__gnu_unwind_get_pr_addr+0x24>)
20006e02:	4770      	bx	lr
20006e04:	200074e5 	.word	0x200074e5
20006e08:	200074ed 	.word	0x200074ed
20006e0c:	200074e9 	.word	0x200074e9

20006e10 <get_eit_entry>:
20006e10:	4b22      	ldr	r3, [pc, #136]	@ (20006e9c <get_eit_entry+0x8c>)
20006e12:	b530      	push	{r4, r5, lr}
20006e14:	4604      	mov	r4, r0
20006e16:	b083      	sub	sp, #12
20006e18:	1e8d      	subs	r5, r1, #2
20006e1a:	b343      	cbz	r3, 20006e6e <get_eit_entry+0x5e>
20006e1c:	a901      	add	r1, sp, #4
20006e1e:	4628      	mov	r0, r5
20006e20:	f3af 8000 	nop.w
20006e24:	b1f0      	cbz	r0, 20006e64 <get_eit_entry+0x54>
20006e26:	9901      	ldr	r1, [sp, #4]
20006e28:	462a      	mov	r2, r5
20006e2a:	f7ff ffaf 	bl	20006d8c <search_EIT_table>
20006e2e:	4601      	mov	r1, r0
20006e30:	b1c0      	cbz	r0, 20006e64 <get_eit_entry+0x54>
20006e32:	f7ff ffa1 	bl	20006d78 <selfrel_offset31>
20006e36:	684b      	ldr	r3, [r1, #4]
20006e38:	64a0      	str	r0, [r4, #72]	@ 0x48
20006e3a:	2b01      	cmp	r3, #1
20006e3c:	d02a      	beq.n	20006e94 <get_eit_entry+0x84>
20006e3e:	2b00      	cmp	r3, #0
20006e40:	f101 0004 	add.w	r0, r1, #4
20006e44:	db24      	blt.n	20006e90 <get_eit_entry+0x80>
20006e46:	f7ff ff97 	bl	20006d78 <selfrel_offset31>
20006e4a:	2300      	movs	r3, #0
20006e4c:	6523      	str	r3, [r4, #80]	@ 0x50
20006e4e:	6803      	ldr	r3, [r0, #0]
20006e50:	64e0      	str	r0, [r4, #76]	@ 0x4c
20006e52:	2b00      	cmp	r3, #0
20006e54:	db11      	blt.n	20006e7a <get_eit_entry+0x6a>
20006e56:	f7ff ff8f 	bl	20006d78 <selfrel_offset31>
20006e5a:	4603      	mov	r3, r0
20006e5c:	2000      	movs	r0, #0
20006e5e:	6123      	str	r3, [r4, #16]
20006e60:	b003      	add	sp, #12
20006e62:	bd30      	pop	{r4, r5, pc}
20006e64:	2300      	movs	r3, #0
20006e66:	2009      	movs	r0, #9
20006e68:	6123      	str	r3, [r4, #16]
20006e6a:	b003      	add	sp, #12
20006e6c:	bd30      	pop	{r4, r5, pc}
20006e6e:	480c      	ldr	r0, [pc, #48]	@ (20006ea0 <get_eit_entry+0x90>)
20006e70:	490c      	ldr	r1, [pc, #48]	@ (20006ea4 <get_eit_entry+0x94>)
20006e72:	1a09      	subs	r1, r1, r0
20006e74:	10c9      	asrs	r1, r1, #3
20006e76:	9101      	str	r1, [sp, #4]
20006e78:	e7d6      	b.n	20006e28 <get_eit_entry+0x18>
20006e7a:	f3c3 6003 	ubfx	r0, r3, #24, #4
20006e7e:	f7ff ffb3 	bl	20006de8 <__gnu_unwind_get_pr_addr>
20006e82:	1e03      	subs	r3, r0, #0
20006e84:	bf0c      	ite	eq
20006e86:	2009      	moveq	r0, #9
20006e88:	2000      	movne	r0, #0
20006e8a:	6123      	str	r3, [r4, #16]
20006e8c:	b003      	add	sp, #12
20006e8e:	bd30      	pop	{r4, r5, pc}
20006e90:	2301      	movs	r3, #1
20006e92:	e7db      	b.n	20006e4c <get_eit_entry+0x3c>
20006e94:	2300      	movs	r3, #0
20006e96:	2005      	movs	r0, #5
20006e98:	e7e1      	b.n	20006e5e <get_eit_entry+0x4e>
20006e9a:	bf00      	nop
20006e9c:	00000000 	.word	0x00000000
20006ea0:	2000bdb8 	.word	0x2000bdb8
20006ea4:	2000be70 	.word	0x2000be70

20006ea8 <restore_non_core_regs>:
20006ea8:	6803      	ldr	r3, [r0, #0]
20006eaa:	07da      	lsls	r2, r3, #31
20006eac:	b510      	push	{r4, lr}
20006eae:	4604      	mov	r4, r0
20006eb0:	d406      	bmi.n	20006ec0 <restore_non_core_regs+0x18>
20006eb2:	079b      	lsls	r3, r3, #30
20006eb4:	f100 0050 	add.w	r0, r0, #80	@ 0x50
20006eb8:	d509      	bpl.n	20006ece <restore_non_core_regs+0x26>
20006eba:	f000 fca1 	bl	20007800 <__gnu_Unwind_Restore_VFP_D>
20006ebe:	6823      	ldr	r3, [r4, #0]
20006ec0:	0759      	lsls	r1, r3, #29
20006ec2:	d509      	bpl.n	20006ed8 <restore_non_core_regs+0x30>
20006ec4:	071a      	lsls	r2, r3, #28
20006ec6:	d50e      	bpl.n	20006ee6 <restore_non_core_regs+0x3e>
20006ec8:	06db      	lsls	r3, r3, #27
20006eca:	d513      	bpl.n	20006ef4 <restore_non_core_regs+0x4c>
20006ecc:	bd10      	pop	{r4, pc}
20006ece:	f000 fc8f 	bl	200077f0 <__gnu_Unwind_Restore_VFP>
20006ed2:	6823      	ldr	r3, [r4, #0]
20006ed4:	0759      	lsls	r1, r3, #29
20006ed6:	d4f5      	bmi.n	20006ec4 <restore_non_core_regs+0x1c>
20006ed8:	f104 00d8 	add.w	r0, r4, #216	@ 0xd8
20006edc:	f000 fc98 	bl	20007810 <__gnu_Unwind_Restore_VFP_D_16_to_31>
20006ee0:	6823      	ldr	r3, [r4, #0]
20006ee2:	071a      	lsls	r2, r3, #28
20006ee4:	d4f0      	bmi.n	20006ec8 <restore_non_core_regs+0x20>
20006ee6:	f504 70ac 	add.w	r0, r4, #344	@ 0x158
20006eea:	f000 fc99 	bl	20007820 <__gnu_Unwind_Restore_WMMXD>
20006eee:	6823      	ldr	r3, [r4, #0]
20006ef0:	06db      	lsls	r3, r3, #27
20006ef2:	d4eb      	bmi.n	20006ecc <restore_non_core_regs+0x24>
20006ef4:	f504 70ec 	add.w	r0, r4, #472	@ 0x1d8
20006ef8:	e8bd 4010 	ldmia.w	sp!, {r4, lr}
20006efc:	f000 bcd4 	b.w	200078a8 <__gnu_Unwind_Restore_WMMXC>

20006f00 <_Unwind_decode_typeinfo_ptr.constprop.0>:
20006f00:	4603      	mov	r3, r0
20006f02:	6800      	ldr	r0, [r0, #0]
20006f04:	b100      	cbz	r0, 20006f08 <_Unwind_decode_typeinfo_ptr.constprop.0+0x8>
20006f06:	4418      	add	r0, r3
20006f08:	4770      	bx	lr
20006f0a:	bf00      	nop

20006f0c <__gnu_unwind_24bit.isra.0>:
20006f0c:	2009      	movs	r0, #9
20006f0e:	4770      	bx	lr

20006f10 <_Unwind_DebugHook>:
20006f10:	4770      	bx	lr
20006f12:	bf00      	nop

20006f14 <unwind_phase2>:
20006f14:	b570      	push	{r4, r5, r6, lr}
20006f16:	4604      	mov	r4, r0
20006f18:	460e      	mov	r6, r1
20006f1a:	6c31      	ldr	r1, [r6, #64]	@ 0x40
20006f1c:	4620      	mov	r0, r4
20006f1e:	f7ff ff77 	bl	20006e10 <get_eit_entry>
20006f22:	4605      	mov	r5, r0
20006f24:	b998      	cbnz	r0, 20006f4e <unwind_phase2+0x3a>
20006f26:	f8d6 c040 	ldr.w	ip, [r6, #64]	@ 0x40
20006f2a:	4632      	mov	r2, r6
20006f2c:	6923      	ldr	r3, [r4, #16]
20006f2e:	4621      	mov	r1, r4
20006f30:	2001      	movs	r0, #1
20006f32:	f8c4 c014 	str.w	ip, [r4, #20]
20006f36:	4798      	blx	r3
20006f38:	2808      	cmp	r0, #8
20006f3a:	d0ee      	beq.n	20006f1a <unwind_phase2+0x6>
20006f3c:	2807      	cmp	r0, #7
20006f3e:	d106      	bne.n	20006f4e <unwind_phase2+0x3a>
20006f40:	4628      	mov	r0, r5
20006f42:	6c31      	ldr	r1, [r6, #64]	@ 0x40
20006f44:	f7ff ffe4 	bl	20006f10 <_Unwind_DebugHook>
20006f48:	1d30      	adds	r0, r6, #4
20006f4a:	f000 fc45 	bl	200077d8 <__restore_core_regs>
20006f4e:	f004 fe9b 	bl	2000bc88 <__abort_veneer>
20006f52:	bf00      	nop

20006f54 <unwind_phase2_forced>:
20006f54:	e92d 47f0 	stmdb	sp!, {r4, r5, r6, r7, r8, r9, sl, lr}
20006f58:	f101 0c04 	add.w	ip, r1, #4
20006f5c:	f5ad 7d78 	sub.w	sp, sp, #992	@ 0x3e0
20006f60:	68c7      	ldr	r7, [r0, #12]
20006f62:	4606      	mov	r6, r0
20006f64:	f8d0 8018 	ldr.w	r8, [r0, #24]
20006f68:	4614      	mov	r4, r2
20006f6a:	f10d 0e14 	add.w	lr, sp, #20
20006f6e:	ad04      	add	r5, sp, #16
20006f70:	f04f 0900 	mov.w	r9, #0
20006f74:	e8bc 000f 	ldmia.w	ip!, {r0, r1, r2, r3}
20006f78:	e8ae 000f 	stmia.w	lr!, {r0, r1, r2, r3}
20006f7c:	e8bc 000f 	ldmia.w	ip!, {r0, r1, r2, r3}
20006f80:	e8ae 000f 	stmia.w	lr!, {r0, r1, r2, r3}
20006f84:	e8bc 000f 	ldmia.w	ip!, {r0, r1, r2, r3}
20006f88:	e8ae 000f 	stmia.w	lr!, {r0, r1, r2, r3}
20006f8c:	e89c 000f 	ldmia.w	ip, {r0, r1, r2, r3}
20006f90:	f8c5 9000 	str.w	r9, [r5]
20006f94:	e88e 000f 	stmia.w	lr, {r0, r1, r2, r3}
20006f98:	e023      	b.n	20006fe2 <unwind_phase2_forced+0x8e>
20006f9a:	6c2b      	ldr	r3, [r5, #64]	@ 0x40
20006f9c:	f44f 72f4 	mov.w	r2, #488	@ 0x1e8
20006fa0:	4629      	mov	r1, r5
20006fa2:	a87e      	add	r0, sp, #504	@ 0x1f8
20006fa4:	6173      	str	r3, [r6, #20]
20006fa6:	f004 fe4b 	bl	2000bc40 <__memcpy_veneer>
20006faa:	6933      	ldr	r3, [r6, #16]
20006fac:	aa7e      	add	r2, sp, #504	@ 0x1f8
20006fae:	4631      	mov	r1, r6
20006fb0:	4650      	mov	r0, sl
20006fb2:	4798      	blx	r3
20006fb4:	9b8c      	ldr	r3, [sp, #560]	@ 0x230
20006fb6:	4621      	mov	r1, r4
20006fb8:	4681      	mov	r9, r0
20006fba:	9303      	str	r3, [sp, #12]
20006fbc:	4632      	mov	r2, r6
20006fbe:	9c03      	ldr	r4, [sp, #12]
20006fc0:	4633      	mov	r3, r6
20006fc2:	2001      	movs	r0, #1
20006fc4:	64ac      	str	r4, [r5, #72]	@ 0x48
20006fc6:	e9cd 5800 	strd	r5, r8, [sp]
20006fca:	47b8      	blx	r7
20006fcc:	4604      	mov	r4, r0
20006fce:	bb28      	cbnz	r0, 2000701c <unwind_phase2_forced+0xc8>
20006fd0:	f44f 72f4 	mov.w	r2, #488	@ 0x1e8
20006fd4:	a97e      	add	r1, sp, #504	@ 0x1f8
20006fd6:	4628      	mov	r0, r5
20006fd8:	f004 fe32 	bl	2000bc40 <__memcpy_veneer>
20006fdc:	f1b9 0f08 	cmp.w	r9, #8
20006fe0:	d119      	bne.n	20007016 <unwind_phase2_forced+0xc2>
20006fe2:	3409      	adds	r4, #9
20006fe4:	6c29      	ldr	r1, [r5, #64]	@ 0x40
20006fe6:	4630      	mov	r0, r6
20006fe8:	f7ff ff12 	bl	20006e10 <get_eit_entry>
20006fec:	4681      	mov	r9, r0
20006fee:	fa5f fa84 	uxtb.w	sl, r4
20006ff2:	2800      	cmp	r0, #0
20006ff4:	d0d1      	beq.n	20006f9a <unwind_phase2_forced+0x46>
20006ff6:	6bac      	ldr	r4, [r5, #56]	@ 0x38
20006ff8:	4633      	mov	r3, r6
20006ffa:	4632      	mov	r2, r6
20006ffc:	f04a 0110 	orr.w	r1, sl, #16
20007000:	64ac      	str	r4, [r5, #72]	@ 0x48
20007002:	2001      	movs	r0, #1
20007004:	e9cd 5800 	strd	r5, r8, [sp]
20007008:	47b8      	blx	r7
2000700a:	b938      	cbnz	r0, 2000701c <unwind_phase2_forced+0xc8>
2000700c:	4648      	mov	r0, r9
2000700e:	f50d 7d78 	add.w	sp, sp, #992	@ 0x3e0
20007012:	e8bd 87f0 	ldmia.w	sp!, {r4, r5, r6, r7, r8, r9, sl, pc}
20007016:	f1b9 0f07 	cmp.w	r9, #7
2000701a:	d006      	beq.n	2000702a <unwind_phase2_forced+0xd6>
2000701c:	f04f 0909 	mov.w	r9, #9
20007020:	4648      	mov	r0, r9
20007022:	f50d 7d78 	add.w	sp, sp, #992	@ 0x3e0
20007026:	e8bd 87f0 	ldmia.w	sp!, {r4, r5, r6, r7, r8, r9, sl, pc}
2000702a:	4620      	mov	r0, r4
2000702c:	6c29      	ldr	r1, [r5, #64]	@ 0x40
2000702e:	f7ff ff6f 	bl	20006f10 <_Unwind_DebugHook>
20007032:	a805      	add	r0, sp, #20
20007034:	f000 fbd0 	bl	200077d8 <__restore_core_regs>

20007038 <_Unwind_GetCFA>:
20007038:	6c80      	ldr	r0, [r0, #72]	@ 0x48
2000703a:	4770      	bx	lr

2000703c <__gnu_Unwind_RaiseException>:
2000703c:	b5f0      	push	{r4, r5, r6, r7, lr}
2000703e:	6bcb      	ldr	r3, [r1, #60]	@ 0x3c
20007040:	b0fb      	sub	sp, #492	@ 0x1ec
20007042:	f101 0c04 	add.w	ip, r1, #4
20007046:	460e      	mov	r6, r1
20007048:	640b      	str	r3, [r1, #64]	@ 0x40
2000704a:	ac01      	add	r4, sp, #4
2000704c:	4605      	mov	r5, r0
2000704e:	f04f 37ff 	mov.w	r7, #4294967295
20007052:	e8bc 000f 	ldmia.w	ip!, {r0, r1, r2, r3}
20007056:	c40f      	stmia	r4!, {r0, r1, r2, r3}
20007058:	e8bc 000f 	ldmia.w	ip!, {r0, r1, r2, r3}
2000705c:	c40f      	stmia	r4!, {r0, r1, r2, r3}
2000705e:	e8bc 000f 	ldmia.w	ip!, {r0, r1, r2, r3}
20007062:	c40f      	stmia	r4!, {r0, r1, r2, r3}
20007064:	e89c 000f 	ldmia.w	ip, {r0, r1, r2, r3}
20007068:	9700      	str	r7, [sp, #0]
2000706a:	e884 000f 	stmia.w	r4, {r0, r1, r2, r3}
2000706e:	e006      	b.n	2000707e <__gnu_Unwind_RaiseException+0x42>
20007070:	692b      	ldr	r3, [r5, #16]
20007072:	466a      	mov	r2, sp
20007074:	4629      	mov	r1, r5
20007076:	4798      	blx	r3
20007078:	2808      	cmp	r0, #8
2000707a:	4604      	mov	r4, r0
2000707c:	d108      	bne.n	20007090 <__gnu_Unwind_RaiseException+0x54>
2000707e:	9910      	ldr	r1, [sp, #64]	@ 0x40
20007080:	4628      	mov	r0, r5
20007082:	f7ff fec5 	bl	20006e10 <get_eit_entry>
20007086:	2800      	cmp	r0, #0
20007088:	d0f2      	beq.n	20007070 <__gnu_Unwind_RaiseException+0x34>
2000708a:	2009      	movs	r0, #9
2000708c:	b07b      	add	sp, #492	@ 0x1ec
2000708e:	bdf0      	pop	{r4, r5, r6, r7, pc}
20007090:	4668      	mov	r0, sp
20007092:	f7ff ff09 	bl	20006ea8 <restore_non_core_regs>
20007096:	2c06      	cmp	r4, #6
20007098:	d1f7      	bne.n	2000708a <__gnu_Unwind_RaiseException+0x4e>
2000709a:	4631      	mov	r1, r6
2000709c:	4628      	mov	r0, r5
2000709e:	f7ff ff39 	bl	20006f14 <unwind_phase2>
200070a2:	bf00      	nop

200070a4 <__gnu_Unwind_ForcedUnwind>:
200070a4:	b410      	push	{r4}
200070a6:	6bdc      	ldr	r4, [r3, #60]	@ 0x3c
200070a8:	60c1      	str	r1, [r0, #12]
200070aa:	4619      	mov	r1, r3
200070ac:	6182      	str	r2, [r0, #24]
200070ae:	2200      	movs	r2, #0
200070b0:	641c      	str	r4, [r3, #64]	@ 0x40
200070b2:	bc10      	pop	{r4}
200070b4:	e74e      	b.n	20006f54 <unwind_phase2_forced>
200070b6:	bf00      	nop

200070b8 <__gnu_Unwind_Resume>:
200070b8:	b570      	push	{r4, r5, r6, lr}
200070ba:	6943      	ldr	r3, [r0, #20]
200070bc:	68c6      	ldr	r6, [r0, #12]
200070be:	640b      	str	r3, [r1, #64]	@ 0x40
200070c0:	b9ae      	cbnz	r6, 200070ee <__gnu_Unwind_Resume+0x36>
200070c2:	6903      	ldr	r3, [r0, #16]
200070c4:	460a      	mov	r2, r1
200070c6:	4604      	mov	r4, r0
200070c8:	460d      	mov	r5, r1
200070ca:	4601      	mov	r1, r0
200070cc:	2002      	movs	r0, #2
200070ce:	4798      	blx	r3
200070d0:	2807      	cmp	r0, #7
200070d2:	d005      	beq.n	200070e0 <__gnu_Unwind_Resume+0x28>
200070d4:	2808      	cmp	r0, #8
200070d6:	d10f      	bne.n	200070f8 <__gnu_Unwind_Resume+0x40>
200070d8:	4629      	mov	r1, r5
200070da:	4620      	mov	r0, r4
200070dc:	f7ff ff1a 	bl	20006f14 <unwind_phase2>
200070e0:	4630      	mov	r0, r6
200070e2:	6c29      	ldr	r1, [r5, #64]	@ 0x40
200070e4:	f7ff ff14 	bl	20006f10 <_Unwind_DebugHook>
200070e8:	1d28      	adds	r0, r5, #4
200070ea:	f000 fb75 	bl	200077d8 <__restore_core_regs>
200070ee:	2201      	movs	r2, #1
200070f0:	f7ff ff30 	bl	20006f54 <unwind_phase2_forced>
200070f4:	f004 fdc8 	bl	2000bc88 <__abort_veneer>
200070f8:	f004 fdc6 	bl	2000bc88 <__abort_veneer>

200070fc <__gnu_Unwind_Resume_or_Rethrow>:
200070fc:	68c2      	ldr	r2, [r0, #12]
200070fe:	b12a      	cbz	r2, 2000710c <__gnu_Unwind_Resume_or_Rethrow+0x10>
20007100:	f8d1 c03c 	ldr.w	ip, [r1, #60]	@ 0x3c
20007104:	2200      	movs	r2, #0
20007106:	f8c1 c040 	str.w	ip, [r1, #64]	@ 0x40
2000710a:	e723      	b.n	20006f54 <unwind_phase2_forced>
2000710c:	e796      	b.n	2000703c <__gnu_Unwind_RaiseException>
2000710e:	bf00      	nop

20007110 <_Unwind_Complete>:
20007110:	4770      	bx	lr
20007112:	bf00      	nop

20007114 <_Unwind_DeleteException>:
20007114:	6883      	ldr	r3, [r0, #8]
20007116:	4601      	mov	r1, r0
20007118:	b10b      	cbz	r3, 2000711e <_Unwind_DeleteException+0xa>
2000711a:	2001      	movs	r0, #1
2000711c:	4718      	bx	r3
2000711e:	4770      	bx	lr

20007120 <_Unwind_VRS_Get>:
20007120:	2905      	cmp	r1, #5
20007122:	d815      	bhi.n	20007150 <_Unwind_VRS_Get+0x30>
20007124:	e8df f001 	tbb	[pc, r1]
20007128:	0314030a 	.word	0x0314030a
2000712c:	0503      	.short	0x0503
2000712e:	2001      	movs	r0, #1
20007130:	4770      	bx	lr
20007132:	6c43      	ldr	r3, [r0, #68]	@ 0x44
20007134:	2000      	movs	r0, #0
20007136:	9a00      	ldr	r2, [sp, #0]
20007138:	6013      	str	r3, [r2, #0]
2000713a:	4770      	bx	lr
2000713c:	b943      	cbnz	r3, 20007150 <_Unwind_VRS_Get+0x30>
2000713e:	2a0f      	cmp	r2, #15
20007140:	d806      	bhi.n	20007150 <_Unwind_VRS_Get+0x30>
20007142:	eb00 0282 	add.w	r2, r0, r2, lsl #2
20007146:	2000      	movs	r0, #0
20007148:	6853      	ldr	r3, [r2, #4]
2000714a:	9a00      	ldr	r2, [sp, #0]
2000714c:	6013      	str	r3, [r2, #0]
2000714e:	4770      	bx	lr
20007150:	2002      	movs	r0, #2
20007152:	4770      	bx	lr

20007154 <_Unwind_GetGR>:
20007154:	b510      	push	{r4, lr}
20007156:	b084      	sub	sp, #16
20007158:	2300      	movs	r3, #0
2000715a:	460a      	mov	r2, r1
2000715c:	ac03      	add	r4, sp, #12
2000715e:	4619      	mov	r1, r3
20007160:	9400      	str	r4, [sp, #0]
20007162:	f7ff ffdd 	bl	20007120 <_Unwind_VRS_Get>
20007166:	9803      	ldr	r0, [sp, #12]
20007168:	b004      	add	sp, #16
2000716a:	bd10      	pop	{r4, pc}

2000716c <_Unwind_VRS_Set>:
2000716c:	2905      	cmp	r1, #5
2000716e:	d815      	bhi.n	2000719c <_Unwind_VRS_Set+0x30>
20007170:	e8df f001 	tbb	[pc, r1]
20007174:	0314030a 	.word	0x0314030a
20007178:	0503      	.short	0x0503
2000717a:	2001      	movs	r0, #1
2000717c:	4770      	bx	lr
2000717e:	9b00      	ldr	r3, [sp, #0]
20007180:	681b      	ldr	r3, [r3, #0]
20007182:	6443      	str	r3, [r0, #68]	@ 0x44
20007184:	2000      	movs	r0, #0
20007186:	4770      	bx	lr
20007188:	b943      	cbnz	r3, 2000719c <_Unwind_VRS_Set+0x30>
2000718a:	2a0f      	cmp	r2, #15
2000718c:	d806      	bhi.n	2000719c <_Unwind_VRS_Set+0x30>
2000718e:	9b00      	ldr	r3, [sp, #0]
20007190:	eb00 0282 	add.w	r2, r0, r2, lsl #2
20007194:	2000      	movs	r0, #0
20007196:	681b      	ldr	r3, [r3, #0]
20007198:	6053      	str	r3, [r2, #4]
2000719a:	4770      	bx	lr
2000719c:	2002      	movs	r0, #2
2000719e:	4770      	bx	lr

200071a0 <_Unwind_SetGR>:
200071a0:	b510      	push	{r4, lr}
200071a2:	b084      	sub	sp, #16
200071a4:	2300      	movs	r3, #0
200071a6:	ac03      	add	r4, sp, #12
200071a8:	9203      	str	r2, [sp, #12]
200071aa:	460a      	mov	r2, r1
200071ac:	4619      	mov	r1, r3
200071ae:	9400      	str	r4, [sp, #0]
200071b0:	f7ff ffdc 	bl	2000716c <_Unwind_VRS_Set>
200071b4:	b004      	add	sp, #16
200071b6:	bd10      	pop	{r4, pc}

200071b8 <__gnu_Unwind_Backtrace>:
200071b8:	b5f0      	push	{r4, r5, r6, r7, lr}
200071ba:	6bd3      	ldr	r3, [r2, #60]	@ 0x3c
200071bc:	f5ad 7d11 	sub.w	sp, sp, #580	@ 0x244
200071c0:	1d14      	adds	r4, r2, #4
200071c2:	4606      	mov	r6, r0
200071c4:	6413      	str	r3, [r2, #64]	@ 0x40
200071c6:	f10d 0c5c 	add.w	ip, sp, #92	@ 0x5c
200071ca:	460d      	mov	r5, r1
200071cc:	f04f 37ff 	mov.w	r7, #4294967295
200071d0:	cc0f      	ldmia	r4!, {r0, r1, r2, r3}
200071d2:	e8ac 000f 	stmia.w	ip!, {r0, r1, r2, r3}
200071d6:	cc0f      	ldmia	r4!, {r0, r1, r2, r3}
200071d8:	e8ac 000f 	stmia.w	ip!, {r0, r1, r2, r3}
200071dc:	cc0f      	ldmia	r4!, {r0, r1, r2, r3}
200071de:	e8ac 000f 	stmia.w	ip!, {r0, r1, r2, r3}
200071e2:	e894 000f 	ldmia.w	r4, {r0, r1, r2, r3}
200071e6:	9716      	str	r7, [sp, #88]	@ 0x58
200071e8:	e88c 000f 	stmia.w	ip, {r0, r1, r2, r3}
200071ec:	e010      	b.n	20007210 <__gnu_Unwind_Backtrace+0x58>
200071ee:	f7ff ffd7 	bl	200071a0 <_Unwind_SetGR>
200071f2:	4629      	mov	r1, r5
200071f4:	a816      	add	r0, sp, #88	@ 0x58
200071f6:	47b0      	blx	r6
200071f8:	4603      	mov	r3, r0
200071fa:	aa16      	add	r2, sp, #88	@ 0x58
200071fc:	4669      	mov	r1, sp
200071fe:	2008      	movs	r0, #8
20007200:	b983      	cbnz	r3, 20007224 <__gnu_Unwind_Backtrace+0x6c>
20007202:	9b04      	ldr	r3, [sp, #16]
20007204:	4798      	blx	r3
20007206:	2805      	cmp	r0, #5
20007208:	4604      	mov	r4, r0
2000720a:	d00c      	beq.n	20007226 <__gnu_Unwind_Backtrace+0x6e>
2000720c:	2809      	cmp	r0, #9
2000720e:	d00a      	beq.n	20007226 <__gnu_Unwind_Backtrace+0x6e>
20007210:	9926      	ldr	r1, [sp, #152]	@ 0x98
20007212:	4668      	mov	r0, sp
20007214:	f7ff fdfc 	bl	20006e10 <get_eit_entry>
20007218:	4603      	mov	r3, r0
2000721a:	466a      	mov	r2, sp
2000721c:	210c      	movs	r1, #12
2000721e:	a816      	add	r0, sp, #88	@ 0x58
20007220:	2b00      	cmp	r3, #0
20007222:	d0e4      	beq.n	200071ee <__gnu_Unwind_Backtrace+0x36>
20007224:	2409      	movs	r4, #9
20007226:	a816      	add	r0, sp, #88	@ 0x58
20007228:	f7ff fe3e 	bl	20006ea8 <restore_non_core_regs>
2000722c:	4620      	mov	r0, r4
2000722e:	f50d 7d11 	add.w	sp, sp, #580	@ 0x244
20007232:	bdf0      	pop	{r4, r5, r6, r7, pc}

20007234 <__gnu_unwind_pr_common>:
20007234:	e92d 4ff0 	stmdb	sp!, {r4, r5, r6, r7, r8, r9, sl, fp, lr}
20007238:	4616      	mov	r6, r2
2000723a:	6cca      	ldr	r2, [r1, #76]	@ 0x4c
2000723c:	b089      	sub	sp, #36	@ 0x24
2000723e:	460d      	mov	r5, r1
20007240:	f852 1b04 	ldr.w	r1, [r2], #4
20007244:	f000 0c03 	and.w	ip, r0, #3
20007248:	9206      	str	r2, [sp, #24]
2000724a:	2b00      	cmp	r3, #0
2000724c:	d07c      	beq.n	20007348 <__gnu_unwind_pr_common+0x114>
2000724e:	0c0c      	lsrs	r4, r1, #16
20007250:	0409      	lsls	r1, r1, #16
20007252:	f88d 401d 	strb.w	r4, [sp, #29]
20007256:	b2e4      	uxtb	r4, r4
20007258:	9105      	str	r1, [sp, #20]
2000725a:	2102      	movs	r1, #2
2000725c:	eb02 0284 	add.w	r2, r2, r4, lsl #2
20007260:	f1bc 0f02 	cmp.w	ip, #2
20007264:	f88d 101c 	strb.w	r1, [sp, #28]
20007268:	6d29      	ldr	r1, [r5, #80]	@ 0x50
2000726a:	bf08      	it	eq
2000726c:	6baa      	ldreq	r2, [r5, #56]	@ 0x38
2000726e:	f011 0801 	ands.w	r8, r1, #1
20007272:	d009      	beq.n	20007288 <__gnu_unwind_pr_common+0x54>
20007274:	a905      	add	r1, sp, #20
20007276:	4630      	mov	r0, r6
20007278:	f000 fbb0 	bl	200079dc <__gnu_unwind_execute>
2000727c:	2800      	cmp	r0, #0
2000727e:	d15b      	bne.n	20007338 <__gnu_unwind_pr_common+0x104>
20007280:	2008      	movs	r0, #8
20007282:	b009      	add	sp, #36	@ 0x24
20007284:	e8bd 8ff0 	ldmia.w	sp!, {r4, r5, r6, r7, r8, r9, sl, fp, pc}
20007288:	6817      	ldr	r7, [r2, #0]
2000728a:	2f00      	cmp	r7, #0
2000728c:	d0f2      	beq.n	20007274 <__gnu_unwind_pr_common+0x40>
2000728e:	f000 0108 	and.w	r1, r0, #8
20007292:	46bb      	mov	fp, r7
20007294:	469a      	mov	sl, r3
20007296:	4667      	mov	r7, ip
20007298:	9101      	str	r1, [sp, #4]
2000729a:	f8cd 8008 	str.w	r8, [sp, #8]
2000729e:	f1ba 0f02 	cmp.w	sl, #2
200072a2:	d04d      	beq.n	20007340 <__gnu_unwind_pr_common+0x10c>
200072a4:	f8b2 b000 	ldrh.w	fp, [r2]
200072a8:	f102 0904 	add.w	r9, r2, #4
200072ac:	8854      	ldrh	r4, [r2, #2]
200072ae:	f024 0201 	bic.w	r2, r4, #1
200072b2:	6cab      	ldr	r3, [r5, #72]	@ 0x48
200072b4:	0064      	lsls	r4, r4, #1
200072b6:	210f      	movs	r1, #15
200072b8:	eb02 0803 	add.w	r8, r2, r3
200072bc:	4630      	mov	r0, r6
200072be:	f7ff ff49 	bl	20007154 <_Unwind_GetGR>
200072c2:	f004 0402 	and.w	r4, r4, #2
200072c6:	f00b 0301 	and.w	r3, fp, #1
200072ca:	4580      	cmp	r8, r0
200072cc:	ea43 0304 	orr.w	r3, r3, r4
200072d0:	d82c      	bhi.n	2000732c <__gnu_unwind_pr_common+0xf8>
200072d2:	f02b 0b01 	bic.w	fp, fp, #1
200072d6:	2b01      	cmp	r3, #1
200072d8:	44c3      	add	fp, r8
200072da:	d072      	beq.n	200073c2 <__gnu_unwind_pr_common+0x18e>
200072dc:	2b02      	cmp	r3, #2
200072de:	d039      	beq.n	20007354 <__gnu_unwind_pr_common+0x120>
200072e0:	bb53      	cbnz	r3, 20007338 <__gnu_unwind_pr_common+0x104>
200072e2:	b117      	cbz	r7, 200072ea <__gnu_unwind_pr_common+0xb6>
200072e4:	4583      	cmp	fp, r0
200072e6:	f200 80c8 	bhi.w	2000747a <__gnu_unwind_pr_common+0x246>
200072ea:	f109 0204 	add.w	r2, r9, #4
200072ee:	f8d2 b000 	ldr.w	fp, [r2]
200072f2:	f1bb 0f00 	cmp.w	fp, #0
200072f6:	d1d2      	bne.n	2000729e <__gnu_unwind_pr_common+0x6a>
200072f8:	a905      	add	r1, sp, #20
200072fa:	4630      	mov	r0, r6
200072fc:	f8dd 8008 	ldr.w	r8, [sp, #8]
20007300:	f000 fb6c 	bl	200079dc <__gnu_unwind_execute>
20007304:	b9c0      	cbnz	r0, 20007338 <__gnu_unwind_pr_common+0x104>
20007306:	f1b8 0f00 	cmp.w	r8, #0
2000730a:	d0b9      	beq.n	20007280 <__gnu_unwind_pr_common+0x4c>
2000730c:	210f      	movs	r1, #15
2000730e:	4630      	mov	r0, r6
20007310:	f7ff ff20 	bl	20007154 <_Unwind_GetGR>
20007314:	210e      	movs	r1, #14
20007316:	4602      	mov	r2, r0
20007318:	4630      	mov	r0, r6
2000731a:	f7ff ff41 	bl	200071a0 <_Unwind_SetGR>
2000731e:	4a70      	ldr	r2, [pc, #448]	@ (200074e0 <__gnu_unwind_pr_common+0x2ac>)
20007320:	210f      	movs	r1, #15
20007322:	4630      	mov	r0, r6
20007324:	f7ff ff3c 	bl	200071a0 <_Unwind_SetGR>
20007328:	2007      	movs	r0, #7
2000732a:	e006      	b.n	2000733a <__gnu_unwind_pr_common+0x106>
2000732c:	2b01      	cmp	r3, #1
2000732e:	d066      	beq.n	200073fe <__gnu_unwind_pr_common+0x1ca>
20007330:	2b02      	cmp	r3, #2
20007332:	d025      	beq.n	20007380 <__gnu_unwind_pr_common+0x14c>
20007334:	2b00      	cmp	r3, #0
20007336:	d0d8      	beq.n	200072ea <__gnu_unwind_pr_common+0xb6>
20007338:	2009      	movs	r0, #9
2000733a:	b009      	add	sp, #36	@ 0x24
2000733c:	e8bd 8ff0 	ldmia.w	sp!, {r4, r5, r6, r7, r8, r9, sl, fp, pc}
20007340:	6854      	ldr	r4, [r2, #4]
20007342:	f102 0908 	add.w	r9, r2, #8
20007346:	e7b2      	b.n	200072ae <__gnu_unwind_pr_common+0x7a>
20007348:	0209      	lsls	r1, r1, #8
2000734a:	f88d 301d 	strb.w	r3, [sp, #29]
2000734e:	9105      	str	r1, [sp, #20]
20007350:	2103      	movs	r1, #3
20007352:	e785      	b.n	20007260 <__gnu_unwind_pr_common+0x2c>
20007354:	f8d9 4000 	ldr.w	r4, [r9]
20007358:	f024 4800 	bic.w	r8, r4, #2147483648	@ 0x80000000
2000735c:	b9b7      	cbnz	r7, 2000738c <__gnu_unwind_pr_common+0x158>
2000735e:	4583      	cmp	fp, r0
20007360:	d905      	bls.n	2000736e <__gnu_unwind_pr_common+0x13a>
20007362:	9b01      	ldr	r3, [sp, #4]
20007364:	2b00      	cmp	r3, #0
20007366:	d064      	beq.n	20007432 <__gnu_unwind_pr_common+0x1fe>
20007368:	f1b8 0f00 	cmp.w	r8, #0
2000736c:	d061      	beq.n	20007432 <__gnu_unwind_pr_common+0x1fe>
2000736e:	2c00      	cmp	r4, #0
20007370:	da01      	bge.n	20007376 <__gnu_unwind_pr_common+0x142>
20007372:	f109 0904 	add.w	r9, r9, #4
20007376:	f108 0301 	add.w	r3, r8, #1
2000737a:	eb09 0283 	add.w	r2, r9, r3, lsl #2
2000737e:	e7b6      	b.n	200072ee <__gnu_unwind_pr_common+0xba>
20007380:	f8d9 4000 	ldr.w	r4, [r9]
20007384:	f024 4800 	bic.w	r8, r4, #2147483648	@ 0x80000000
20007388:	2f00      	cmp	r7, #0
2000738a:	d0f0      	beq.n	2000736e <__gnu_unwind_pr_common+0x13a>
2000738c:	f8d5 b020 	ldr.w	fp, [r5, #32]
20007390:	210d      	movs	r1, #13
20007392:	4630      	mov	r0, r6
20007394:	f7ff fede 	bl	20007154 <_Unwind_GetGR>
20007398:	4583      	cmp	fp, r0
2000739a:	d1e8      	bne.n	2000736e <__gnu_unwind_pr_common+0x13a>
2000739c:	6aaa      	ldr	r2, [r5, #40]	@ 0x28
2000739e:	4591      	cmp	r9, r2
200073a0:	d1e5      	bne.n	2000736e <__gnu_unwind_pr_common+0x13a>
200073a2:	2400      	movs	r4, #0
200073a4:	2204      	movs	r2, #4
200073a6:	f8c5 8028 	str.w	r8, [r5, #40]	@ 0x28
200073aa:	e9c5 420b 	strd	r4, r2, [r5, #44]	@ 0x2c
200073ae:	444a      	add	r2, r9
200073b0:	636a      	str	r2, [r5, #52]	@ 0x34
200073b2:	f8d9 2000 	ldr.w	r2, [r9]
200073b6:	42a2      	cmp	r2, r4
200073b8:	f2c0 808d 	blt.w	200074d6 <__gnu_unwind_pr_common+0x2a2>
200073bc:	2301      	movs	r3, #1
200073be:	9302      	str	r3, [sp, #8]
200073c0:	e7d9      	b.n	20007376 <__gnu_unwind_pr_common+0x142>
200073c2:	b9f7      	cbnz	r7, 20007402 <__gnu_unwind_pr_common+0x1ce>
200073c4:	4583      	cmp	fp, r0
200073c6:	d917      	bls.n	200073f8 <__gnu_unwind_pr_common+0x1c4>
200073c8:	f8d9 3004 	ldr.w	r3, [r9, #4]
200073cc:	f8d9 2000 	ldr.w	r2, [r9]
200073d0:	1c99      	adds	r1, r3, #2
200073d2:	ea4f 72d2 	mov.w	r2, r2, lsr #31
200073d6:	d0af      	beq.n	20007338 <__gnu_unwind_pr_common+0x104>
200073d8:	f105 0458 	add.w	r4, r5, #88	@ 0x58
200073dc:	3301      	adds	r3, #1
200073de:	9404      	str	r4, [sp, #16]
200073e0:	d072      	beq.n	200074c8 <__gnu_unwind_pr_common+0x294>
200073e2:	f109 0004 	add.w	r0, r9, #4
200073e6:	f7ff fd8b 	bl	20006f00 <_Unwind_decode_typeinfo_ptr.constprop.0>
200073ea:	ab04      	add	r3, sp, #16
200073ec:	4601      	mov	r1, r0
200073ee:	4628      	mov	r0, r5
200073f0:	f003 fcde 	bl	2000adb0 <__cxa_type_match>
200073f4:	2800      	cmp	r0, #0
200073f6:	d153      	bne.n	200074a0 <__gnu_unwind_pr_common+0x26c>
200073f8:	f109 0208 	add.w	r2, r9, #8
200073fc:	e777      	b.n	200072ee <__gnu_unwind_pr_common+0xba>
200073fe:	2f00      	cmp	r7, #0
20007400:	d0fa      	beq.n	200073f8 <__gnu_unwind_pr_common+0x1c4>
20007402:	6a2c      	ldr	r4, [r5, #32]
20007404:	210d      	movs	r1, #13
20007406:	4630      	mov	r0, r6
20007408:	f7ff fea4 	bl	20007154 <_Unwind_GetGR>
2000740c:	4284      	cmp	r4, r0
2000740e:	d1f3      	bne.n	200073f8 <__gnu_unwind_pr_common+0x1c4>
20007410:	6aab      	ldr	r3, [r5, #40]	@ 0x28
20007412:	4599      	cmp	r9, r3
20007414:	d1f0      	bne.n	200073f8 <__gnu_unwind_pr_common+0x1c4>
20007416:	4648      	mov	r0, r9
20007418:	f7ff fcae 	bl	20006d78 <selfrel_offset31>
2000741c:	210f      	movs	r1, #15
2000741e:	4602      	mov	r2, r0
20007420:	4630      	mov	r0, r6
20007422:	f7ff febd 	bl	200071a0 <_Unwind_SetGR>
20007426:	462a      	mov	r2, r5
20007428:	2100      	movs	r1, #0
2000742a:	4630      	mov	r0, r6
2000742c:	f7ff feb8 	bl	200071a0 <_Unwind_SetGR>
20007430:	e77a      	b.n	20007328 <__gnu_unwind_pr_common+0xf4>
20007432:	f105 0358 	add.w	r3, r5, #88	@ 0x58
20007436:	9703      	str	r7, [sp, #12]
20007438:	f109 0b04 	add.w	fp, r9, #4
2000743c:	2400      	movs	r4, #0
2000743e:	461f      	mov	r7, r3
20007440:	e00c      	b.n	2000745c <__gnu_unwind_pr_common+0x228>
20007442:	4658      	mov	r0, fp
20007444:	2200      	movs	r2, #0
20007446:	9704      	str	r7, [sp, #16]
20007448:	f7ff fd5a 	bl	20006f00 <_Unwind_decode_typeinfo_ptr.constprop.0>
2000744c:	ab04      	add	r3, sp, #16
2000744e:	4601      	mov	r1, r0
20007450:	4628      	mov	r0, r5
20007452:	f10b 0b04 	add.w	fp, fp, #4
20007456:	f003 fcab 	bl	2000adb0 <__cxa_type_match>
2000745a:	bb88      	cbnz	r0, 200074c0 <__gnu_unwind_pr_common+0x28c>
2000745c:	4544      	cmp	r4, r8
2000745e:	f104 0401 	add.w	r4, r4, #1
20007462:	d1ee      	bne.n	20007442 <__gnu_unwind_pr_common+0x20e>
20007464:	210d      	movs	r1, #13
20007466:	4630      	mov	r0, r6
20007468:	f7ff fe74 	bl	20007154 <_Unwind_GetGR>
2000746c:	9b04      	ldr	r3, [sp, #16]
2000746e:	4602      	mov	r2, r0
20007470:	2006      	movs	r0, #6
20007472:	622a      	str	r2, [r5, #32]
20007474:	e9c5 3909 	strd	r3, r9, [r5, #36]	@ 0x24
20007478:	e75f      	b.n	2000733a <__gnu_unwind_pr_common+0x106>
2000747a:	4648      	mov	r0, r9
2000747c:	f7ff fc7c 	bl	20006d78 <selfrel_offset31>
20007480:	f109 0204 	add.w	r2, r9, #4
20007484:	4604      	mov	r4, r0
20007486:	4628      	mov	r0, r5
20007488:	63aa      	str	r2, [r5, #56]	@ 0x38
2000748a:	f003 fce9 	bl	2000ae60 <__cxa_begin_cleanup>
2000748e:	2800      	cmp	r0, #0
20007490:	f43f af52 	beq.w	20007338 <__gnu_unwind_pr_common+0x104>
20007494:	4622      	mov	r2, r4
20007496:	210f      	movs	r1, #15
20007498:	4630      	mov	r0, r6
2000749a:	f7ff fe81 	bl	200071a0 <_Unwind_SetGR>
2000749e:	e743      	b.n	20007328 <__gnu_unwind_pr_common+0xf4>
200074a0:	4604      	mov	r4, r0
200074a2:	210d      	movs	r1, #13
200074a4:	4630      	mov	r0, r6
200074a6:	9e04      	ldr	r6, [sp, #16]
200074a8:	f7ff fe54 	bl	20007154 <_Unwind_GetGR>
200074ac:	2c02      	cmp	r4, #2
200074ae:	6228      	str	r0, [r5, #32]
200074b0:	d102      	bne.n	200074b8 <__gnu_unwind_pr_common+0x284>
200074b2:	62ee      	str	r6, [r5, #44]	@ 0x2c
200074b4:	f105 062c 	add.w	r6, r5, #44	@ 0x2c
200074b8:	2006      	movs	r0, #6
200074ba:	e9c5 6909 	strd	r6, r9, [r5, #36]	@ 0x24
200074be:	e73c      	b.n	2000733a <__gnu_unwind_pr_common+0x106>
200074c0:	9f03      	ldr	r7, [sp, #12]
200074c2:	f8d9 4000 	ldr.w	r4, [r9]
200074c6:	e752      	b.n	2000736e <__gnu_unwind_pr_common+0x13a>
200074c8:	4630      	mov	r0, r6
200074ca:	210d      	movs	r1, #13
200074cc:	f7ff fe42 	bl	20007154 <_Unwind_GetGR>
200074d0:	4626      	mov	r6, r4
200074d2:	6228      	str	r0, [r5, #32]
200074d4:	e7f0      	b.n	200074b8 <__gnu_unwind_pr_common+0x284>
200074d6:	f108 0201 	add.w	r2, r8, #1
200074da:	eb09 0082 	add.w	r0, r9, r2, lsl #2
200074de:	e79b      	b.n	20007418 <__gnu_unwind_pr_common+0x1e4>
200074e0:	2000b971 	.word	0x2000b971

200074e4 <__aeabi_unwind_cpp_pr0>:
200074e4:	2300      	movs	r3, #0
200074e6:	e6a5      	b.n	20007234 <__gnu_unwind_pr_common>

200074e8 <__aeabi_unwind_cpp_pr1>:
200074e8:	2301      	movs	r3, #1
200074ea:	e6a3      	b.n	20007234 <__gnu_unwind_pr_common>

200074ec <__aeabi_unwind_cpp_pr2>:
200074ec:	2302      	movs	r3, #2
200074ee:	e6a1      	b.n	20007234 <__gnu_unwind_pr_common>

200074f0 <_Unwind_VRS_Pop>:
200074f0:	e92d 41f0 	stmdb	sp!, {r4, r5, r6, r7, r8, lr}
200074f4:	4605      	mov	r5, r0
200074f6:	b0c4      	sub	sp, #272	@ 0x110
200074f8:	4614      	mov	r4, r2
200074fa:	2905      	cmp	r1, #5
200074fc:	f200 80ad 	bhi.w	2000765a <_Unwind_VRS_Pop+0x16a>
20007500:	e8df f001 	tbb	[pc, r1]
20007504:	63ab290f 	.word	0x63ab290f
20007508:	0389      	.short	0x0389
2000750a:	6b83      	ldr	r3, [r0, #56]	@ 0x38
2000750c:	2c00      	cmp	r4, #0
2000750e:	f040 80a4 	bne.w	2000765a <_Unwind_VRS_Pop+0x16a>
20007512:	f853 2b04 	ldr.w	r2, [r3], #4
20007516:	6442      	str	r2, [r0, #68]	@ 0x44
20007518:	6383      	str	r3, [r0, #56]	@ 0x38
2000751a:	2000      	movs	r0, #0
2000751c:	b044      	add	sp, #272	@ 0x110
2000751e:	e8bd 81f0 	ldmia.w	sp!, {r4, r5, r6, r7, r8, pc}
20007522:	2b00      	cmp	r3, #0
20007524:	f040 8099 	bne.w	2000765a <_Unwind_VRS_Pop+0x16a>
20007528:	fa1f fc84 	uxth.w	ip, r4
2000752c:	6b80      	ldr	r0, [r0, #56]	@ 0x38
2000752e:	2601      	movs	r6, #1
20007530:	1d2f      	adds	r7, r5, #4
20007532:	fa06 f103 	lsl.w	r1, r6, r3
20007536:	4602      	mov	r2, r0
20007538:	ea11 0f0c 	tst.w	r1, ip
2000753c:	d004      	beq.n	20007548 <_Unwind_VRS_Pop+0x58>
2000753e:	f852 1b04 	ldr.w	r1, [r2], #4
20007542:	4610      	mov	r0, r2
20007544:	f847 1023 	str.w	r1, [r7, r3, lsl #2]
20007548:	3301      	adds	r3, #1
2000754a:	2b10      	cmp	r3, #16
2000754c:	d1f1      	bne.n	20007532 <_Unwind_VRS_Pop+0x42>
2000754e:	04a4      	lsls	r4, r4, #18
20007550:	d4e3      	bmi.n	2000751a <_Unwind_VRS_Pop+0x2a>
20007552:	63a8      	str	r0, [r5, #56]	@ 0x38
20007554:	e7e1      	b.n	2000751a <_Unwind_VRS_Pop+0x2a>
20007556:	f003 02fb 	and.w	r2, r3, #251	@ 0xfb
2000755a:	0c26      	lsrs	r6, r4, #16
2000755c:	b2a4      	uxth	r4, r4
2000755e:	2a01      	cmp	r2, #1
20007560:	d17b      	bne.n	2000765a <_Unwind_VRS_Pop+0x16a>
20007562:	2b01      	cmp	r3, #1
20007564:	eb06 0804 	add.w	r8, r6, r4
20007568:	f000 80b0 	beq.w	200076cc <_Unwind_VRS_Pop+0x1dc>
2000756c:	f1b8 0f20 	cmp.w	r8, #32
20007570:	d873      	bhi.n	2000765a <_Unwind_VRS_Pop+0x16a>
20007572:	2e0f      	cmp	r6, #15
20007574:	d973      	bls.n	2000765e <_Unwind_VRS_Pop+0x16e>
20007576:	2c00      	cmp	r4, #0
20007578:	d0cf      	beq.n	2000751a <_Unwind_VRS_Pop+0x2a>
2000757a:	6802      	ldr	r2, [r0, #0]
2000757c:	0750      	lsls	r0, r2, #29
2000757e:	f100 8101 	bmi.w	20007784 <_Unwind_VRS_Pop+0x294>
20007582:	9301      	str	r3, [sp, #4]
20007584:	af02      	add	r7, sp, #8
20007586:	0064      	lsls	r4, r4, #1
20007588:	4638      	mov	r0, r7
2000758a:	f000 f945 	bl	20007818 <__gnu_Unwind_Save_VFP_D_16_to_31>
2000758e:	f1a6 0110 	sub.w	r1, r6, #16
20007592:	6baa      	ldr	r2, [r5, #56]	@ 0x38
20007594:	f104 3cff 	add.w	ip, r4, #4294967295
20007598:	9b01      	ldr	r3, [sp, #4]
2000759a:	eb07 01c1 	add.w	r1, r7, r1, lsl #3
2000759e:	f10c 0c01 	add.w	ip, ip, #1
200075a2:	1f08      	subs	r0, r1, #4
200075a4:	eb02 018c 	add.w	r1, r2, ip, lsl #2
200075a8:	f852 4b04 	ldr.w	r4, [r2], #4
200075ac:	428a      	cmp	r2, r1
200075ae:	f840 4f04 	str.w	r4, [r0, #4]!
200075b2:	d1f9      	bne.n	200075a8 <_Unwind_VRS_Pop+0xb8>
200075b4:	2b01      	cmp	r3, #1
200075b6:	f000 80c2 	beq.w	2000773e <_Unwind_VRS_Pop+0x24e>
200075ba:	2e0f      	cmp	r6, #15
200075bc:	63aa      	str	r2, [r5, #56]	@ 0x38
200075be:	f240 80c5 	bls.w	2000774c <_Unwind_VRS_Pop+0x25c>
200075c2:	4638      	mov	r0, r7
200075c4:	f000 f924 	bl	20007810 <__gnu_Unwind_Restore_VFP_D_16_to_31>
200075c8:	e7a7      	b.n	2000751a <_Unwind_VRS_Pop+0x2a>
200075ca:	2b03      	cmp	r3, #3
200075cc:	d145      	bne.n	2000765a <_Unwind_VRS_Pop+0x16a>
200075ce:	fa1f f884 	uxth.w	r8, r4
200075d2:	0c26      	lsrs	r6, r4, #16
200075d4:	eb08 4414 	add.w	r4, r8, r4, lsr #16
200075d8:	2c10      	cmp	r4, #16
200075da:	d83e      	bhi.n	2000765a <_Unwind_VRS_Pop+0x16a>
200075dc:	6803      	ldr	r3, [r0, #0]
200075de:	071f      	lsls	r7, r3, #28
200075e0:	f100 809b 	bmi.w	2000771a <_Unwind_VRS_Pop+0x22a>
200075e4:	af22      	add	r7, sp, #136	@ 0x88
200075e6:	4638      	mov	r0, r7
200075e8:	f000 f93c 	bl	20007864 <__gnu_Unwind_Save_WMMXD>
200075ec:	6bac      	ldr	r4, [r5, #56]	@ 0x38
200075ee:	ea4f 0148 	mov.w	r1, r8, lsl #1
200075f2:	eb07 03c6 	add.w	r3, r7, r6, lsl #3
200075f6:	1e4a      	subs	r2, r1, #1
200075f8:	b141      	cbz	r1, 2000760c <_Unwind_VRS_Pop+0x11c>
200075fa:	1ae0      	subs	r0, r4, r3
200075fc:	3a01      	subs	r2, #1
200075fe:	5819      	ldr	r1, [r3, r0]
20007600:	1c56      	adds	r6, r2, #1
20007602:	f843 1b04 	str.w	r1, [r3], #4
20007606:	d1f9      	bne.n	200075fc <_Unwind_VRS_Pop+0x10c>
20007608:	eb04 04c8 	add.w	r4, r4, r8, lsl #3
2000760c:	4638      	mov	r0, r7
2000760e:	63ac      	str	r4, [r5, #56]	@ 0x38
20007610:	f000 f906 	bl	20007820 <__gnu_Unwind_Restore_WMMXD>
20007614:	e781      	b.n	2000751a <_Unwind_VRS_Pop+0x2a>
20007616:	bb03      	cbnz	r3, 2000765a <_Unwind_VRS_Pop+0x16a>
20007618:	2c10      	cmp	r4, #16
2000761a:	d81e      	bhi.n	2000765a <_Unwind_VRS_Pop+0x16a>
2000761c:	6803      	ldr	r3, [r0, #0]
2000761e:	06d8      	lsls	r0, r3, #27
20007620:	d473      	bmi.n	2000770a <_Unwind_VRS_Pop+0x21a>
20007622:	af22      	add	r7, sp, #136	@ 0x88
20007624:	4638      	mov	r0, r7
20007626:	f000 f949 	bl	200078bc <__gnu_Unwind_Save_WMMXC>
2000762a:	6bae      	ldr	r6, [r5, #56]	@ 0x38
2000762c:	4639      	mov	r1, r7
2000762e:	2300      	movs	r3, #0
20007630:	f04f 0c01 	mov.w	ip, #1
20007634:	fa0c f203 	lsl.w	r2, ip, r3
20007638:	4630      	mov	r0, r6
2000763a:	3301      	adds	r3, #1
2000763c:	4222      	tst	r2, r4
2000763e:	d003      	beq.n	20007648 <_Unwind_VRS_Pop+0x158>
20007640:	f850 2b04 	ldr.w	r2, [r0], #4
20007644:	4606      	mov	r6, r0
20007646:	600a      	str	r2, [r1, #0]
20007648:	2b04      	cmp	r3, #4
2000764a:	f101 0104 	add.w	r1, r1, #4
2000764e:	d1f1      	bne.n	20007634 <_Unwind_VRS_Pop+0x144>
20007650:	4638      	mov	r0, r7
20007652:	63ae      	str	r6, [r5, #56]	@ 0x38
20007654:	f000 f928 	bl	200078a8 <__gnu_Unwind_Restore_WMMXC>
20007658:	e75f      	b.n	2000751a <_Unwind_VRS_Pop+0x2a>
2000765a:	2002      	movs	r0, #2
2000765c:	e75e      	b.n	2000751c <_Unwind_VRS_Pop+0x2c>
2000765e:	6802      	ldr	r2, [r0, #0]
20007660:	f1b8 0f10 	cmp.w	r8, #16
20007664:	f002 0101 	and.w	r1, r2, #1
20007668:	f240 8095 	bls.w	20007796 <_Unwind_VRS_Pop+0x2a6>
2000766c:	2900      	cmp	r1, #0
2000766e:	d171      	bne.n	20007754 <_Unwind_VRS_Pop+0x264>
20007670:	0751      	lsls	r1, r2, #29
20007672:	d47e      	bmi.n	20007772 <_Unwind_VRS_Pop+0x282>
20007674:	9301      	str	r3, [sp, #4]
20007676:	af22      	add	r7, sp, #136	@ 0x88
20007678:	4638      	mov	r0, r7
2000767a:	f000 f8c5 	bl	20007808 <__gnu_Unwind_Save_VFP_D>
2000767e:	a802      	add	r0, sp, #8
20007680:	f000 f8ca 	bl	20007818 <__gnu_Unwind_Save_VFP_D_16_to_31>
20007684:	f1c6 0210 	rsb	r2, r6, #16
20007688:	6ba9      	ldr	r1, [r5, #56]	@ 0x38
2000768a:	f1a8 0c10 	sub.w	ip, r8, #16
2000768e:	0052      	lsls	r2, r2, #1
20007690:	9b01      	ldr	r3, [sp, #4]
20007692:	eb07 00c6 	add.w	r0, r7, r6, lsl #3
20007696:	3a01      	subs	r2, #1
20007698:	3201      	adds	r2, #1
2000769a:	3804      	subs	r0, #4
2000769c:	eb01 0282 	add.w	r2, r1, r2, lsl #2
200076a0:	f851 4b04 	ldr.w	r4, [r1], #4
200076a4:	428a      	cmp	r2, r1
200076a6:	f840 4f04 	str.w	r4, [r0, #4]!
200076aa:	d1f9      	bne.n	200076a0 <_Unwind_VRS_Pop+0x1b0>
200076ac:	f1bc 0f00 	cmp.w	ip, #0
200076b0:	d03b      	beq.n	2000772a <_Unwind_VRS_Pop+0x23a>
200076b2:	2e10      	cmp	r6, #16
200076b4:	4631      	mov	r1, r6
200076b6:	ea4f 0c4c 	mov.w	ip, ip, lsl #1
200076ba:	af02      	add	r7, sp, #8
200076bc:	bf38      	it	cc
200076be:	2110      	movcc	r1, #16
200076c0:	f10c 3cff 	add.w	ip, ip, #4294967295
200076c4:	3910      	subs	r1, #16
200076c6:	eb07 01c1 	add.w	r1, r7, r1, lsl #3
200076ca:	e768      	b.n	2000759e <_Unwind_VRS_Pop+0xae>
200076cc:	f1b8 0f10 	cmp.w	r8, #16
200076d0:	d8c3      	bhi.n	2000765a <_Unwind_VRS_Pop+0x16a>
200076d2:	2e10      	cmp	r6, #16
200076d4:	d0c1      	beq.n	2000765a <_Unwind_VRS_Pop+0x16a>
200076d6:	6802      	ldr	r2, [r0, #0]
200076d8:	07d1      	lsls	r1, r2, #31
200076da:	d507      	bpl.n	200076ec <_Unwind_VRS_Pop+0x1fc>
200076dc:	f022 0203 	bic.w	r2, r2, #3
200076e0:	9301      	str	r3, [sp, #4]
200076e2:	f840 2b50 	str.w	r2, [r0], #80
200076e6:	f000 f887 	bl	200077f8 <__gnu_Unwind_Save_VFP>
200076ea:	9b01      	ldr	r3, [sp, #4]
200076ec:	af22      	add	r7, sp, #136	@ 0x88
200076ee:	9301      	str	r3, [sp, #4]
200076f0:	4638      	mov	r0, r7
200076f2:	f000 f881 	bl	200077f8 <__gnu_Unwind_Save_VFP>
200076f6:	6ba9      	ldr	r1, [r5, #56]	@ 0x38
200076f8:	9b01      	ldr	r3, [sp, #4]
200076fa:	b30c      	cbz	r4, 20007740 <_Unwind_VRS_Pop+0x250>
200076fc:	0062      	lsls	r2, r4, #1
200076fe:	f04f 0c00 	mov.w	ip, #0
20007702:	eb07 00c6 	add.w	r0, r7, r6, lsl #3
20007706:	3a01      	subs	r2, #1
20007708:	e7c6      	b.n	20007698 <_Unwind_VRS_Pop+0x1a8>
2000770a:	f023 0310 	bic.w	r3, r3, #16
2000770e:	f505 70ec 	add.w	r0, r5, #472	@ 0x1d8
20007712:	602b      	str	r3, [r5, #0]
20007714:	f000 f8d2 	bl	200078bc <__gnu_Unwind_Save_WMMXC>
20007718:	e783      	b.n	20007622 <_Unwind_VRS_Pop+0x132>
2000771a:	f023 0308 	bic.w	r3, r3, #8
2000771e:	f500 70ac 	add.w	r0, r0, #344	@ 0x158
20007722:	602b      	str	r3, [r5, #0]
20007724:	f000 f89e 	bl	20007864 <__gnu_Unwind_Save_WMMXD>
20007728:	e75c      	b.n	200075e4 <_Unwind_VRS_Pop+0xf4>
2000772a:	2b01      	cmp	r3, #1
2000772c:	d008      	beq.n	20007740 <_Unwind_VRS_Pop+0x250>
2000772e:	2e0f      	cmp	r6, #15
20007730:	63aa      	str	r2, [r5, #56]	@ 0x38
20007732:	f63f aef2 	bhi.w	2000751a <_Unwind_VRS_Pop+0x2a>
20007736:	4638      	mov	r0, r7
20007738:	f000 f862 	bl	20007800 <__gnu_Unwind_Restore_VFP_D>
2000773c:	e6ed      	b.n	2000751a <_Unwind_VRS_Pop+0x2a>
2000773e:	af22      	add	r7, sp, #136	@ 0x88
20007740:	3104      	adds	r1, #4
20007742:	4638      	mov	r0, r7
20007744:	63a9      	str	r1, [r5, #56]	@ 0x38
20007746:	f000 f853 	bl	200077f0 <__gnu_Unwind_Restore_VFP>
2000774a:	e6e6      	b.n	2000751a <_Unwind_VRS_Pop+0x2a>
2000774c:	a822      	add	r0, sp, #136	@ 0x88
2000774e:	f000 f857 	bl	20007800 <__gnu_Unwind_Restore_VFP_D>
20007752:	e736      	b.n	200075c2 <_Unwind_VRS_Pop+0xd2>
20007754:	f022 0201 	bic.w	r2, r2, #1
20007758:	4628      	mov	r0, r5
2000775a:	9301      	str	r3, [sp, #4]
2000775c:	f042 0202 	orr.w	r2, r2, #2
20007760:	f840 2b50 	str.w	r2, [r0], #80
20007764:	f000 f850 	bl	20007808 <__gnu_Unwind_Save_VFP_D>
20007768:	682a      	ldr	r2, [r5, #0]
2000776a:	9b01      	ldr	r3, [sp, #4]
2000776c:	f012 0f04 	tst.w	r2, #4
20007770:	d080      	beq.n	20007674 <_Unwind_VRS_Pop+0x184>
20007772:	f022 0204 	bic.w	r2, r2, #4
20007776:	4628      	mov	r0, r5
20007778:	9301      	str	r3, [sp, #4]
2000777a:	f840 2bd8 	str.w	r2, [r0], #216
2000777e:	f000 f84b 	bl	20007818 <__gnu_Unwind_Save_VFP_D_16_to_31>
20007782:	e778      	b.n	20007676 <_Unwind_VRS_Pop+0x186>
20007784:	f022 0204 	bic.w	r2, r2, #4
20007788:	4628      	mov	r0, r5
2000778a:	9301      	str	r3, [sp, #4]
2000778c:	f840 2bd8 	str.w	r2, [r0], #216
20007790:	f000 f842 	bl	20007818 <__gnu_Unwind_Save_VFP_D_16_to_31>
20007794:	e6f6      	b.n	20007584 <_Unwind_VRS_Pop+0x94>
20007796:	b161      	cbz	r1, 200077b2 <_Unwind_VRS_Pop+0x2c2>
20007798:	2b05      	cmp	r3, #5
2000779a:	9301      	str	r3, [sp, #4]
2000779c:	d113      	bne.n	200077c6 <_Unwind_VRS_Pop+0x2d6>
2000779e:	f022 0201 	bic.w	r2, r2, #1
200077a2:	4628      	mov	r0, r5
200077a4:	f042 0202 	orr.w	r2, r2, #2
200077a8:	f840 2b50 	str.w	r2, [r0], #80
200077ac:	f000 f82c 	bl	20007808 <__gnu_Unwind_Save_VFP_D>
200077b0:	9b01      	ldr	r3, [sp, #4]
200077b2:	af22      	add	r7, sp, #136	@ 0x88
200077b4:	9301      	str	r3, [sp, #4]
200077b6:	4638      	mov	r0, r7
200077b8:	f000 f826 	bl	20007808 <__gnu_Unwind_Save_VFP_D>
200077bc:	6ba9      	ldr	r1, [r5, #56]	@ 0x38
200077be:	2c00      	cmp	r4, #0
200077c0:	d0b9      	beq.n	20007736 <_Unwind_VRS_Pop+0x246>
200077c2:	9b01      	ldr	r3, [sp, #4]
200077c4:	e79a      	b.n	200076fc <_Unwind_VRS_Pop+0x20c>
200077c6:	f022 0203 	bic.w	r2, r2, #3
200077ca:	4628      	mov	r0, r5
200077cc:	f840 2b50 	str.w	r2, [r0], #80
200077d0:	f000 f812 	bl	200077f8 <__gnu_Unwind_Save_VFP>
200077d4:	9b01      	ldr	r3, [sp, #4]
200077d6:	e7ec      	b.n	200077b2 <_Unwind_VRS_Pop+0x2c2>

200077d8 <__restore_core_regs>:
200077d8:	f100 0134 	add.w	r1, r0, #52	@ 0x34
200077dc:	e891 0038 	ldmia.w	r1, {r3, r4, r5}
200077e0:	469c      	mov	ip, r3
200077e2:	46a6      	mov	lr, r4
200077e4:	f84c 5d04 	str.w	r5, [ip, #-4]!
200077e8:	e890 0fff 	ldmia.w	r0, {r0, r1, r2, r3, r4, r5, r6, r7, r8, r9, sl, fp}
200077ec:	46e5      	mov	sp, ip
200077ee:	bd00      	pop	{pc}

200077f0 <__gnu_Unwind_Restore_VFP>:
200077f0:	ec90 0b21 	fldmiax	r0, {d0-d15}	@ Deprecated
200077f4:	4770      	bx	lr
200077f6:	bf00      	nop

200077f8 <__gnu_Unwind_Save_VFP>:
200077f8:	ec80 0b21 	fstmiax	r0, {d0-d15}	@ Deprecated
200077fc:	4770      	bx	lr
200077fe:	bf00      	nop

20007800 <__gnu_Unwind_Restore_VFP_D>:
20007800:	ec90 0b20 	vldmia	r0, {d0-d15}
20007804:	4770      	bx	lr
20007806:	bf00      	nop

20007808 <__gnu_Unwind_Save_VFP_D>:
20007808:	ec80 0b20 	vstmia	r0, {d0-d15}
2000780c:	4770      	bx	lr
2000780e:	bf00      	nop

20007810 <__gnu_Unwind_Restore_VFP_D_16_to_31>:
20007810:	ecd0 0b20 	vldmia	r0, {d16-d31}
20007814:	4770      	bx	lr
20007816:	bf00      	nop

20007818 <__gnu_Unwind_Save_VFP_D_16_to_31>:
20007818:	ecc0 0b20 	vstmia	r0, {d16-d31}
2000781c:	4770      	bx	lr
2000781e:	bf00      	nop

20007820 <__gnu_Unwind_Restore_WMMXD>:
20007820:	ecf0 0102 	ldfe	f0, [r0], #8
20007824:	ecf0 1102 	ldfe	f1, [r0], #8
20007828:	ecf0 2102 	ldfe	f2, [r0], #8
2000782c:	ecf0 3102 	ldfe	f3, [r0], #8
20007830:	ecf0 4102 	ldfe	f4, [r0], #8
20007834:	ecf0 5102 	ldfe	f5, [r0], #8
20007838:	ecf0 6102 	ldfe	f6, [r0], #8
2000783c:	ecf0 7102 	ldfe	f7, [r0], #8
20007840:	ecf0 8102 	ldfp	f0, [r0], #8
20007844:	ecf0 9102 	ldfp	f1, [r0], #8
20007848:	ecf0 a102 	ldfp	f2, [r0], #8
2000784c:	ecf0 b102 	ldfp	f3, [r0], #8
20007850:	ecf0 c102 	ldfp	f4, [r0], #8
20007854:	ecf0 d102 	ldfp	f5, [r0], #8
20007858:	ecf0 e102 	ldfp	f6, [r0], #8
2000785c:	ecf0 f102 	ldfp	f7, [r0], #8
20007860:	4770      	bx	lr
20007862:	bf00      	nop

20007864 <__gnu_Unwind_Save_WMMXD>:
20007864:	ece0 0102 	stfe	f0, [r0], #8
20007868:	ece0 1102 	stfe	f1, [r0], #8
2000786c:	ece0 2102 	stfe	f2, [r0], #8
20007870:	ece0 3102 	stfe	f3, [r0], #8
20007874:	ece0 4102 	stfe	f4, [r0], #8
20007878:	ece0 5102 	stfe	f5, [r0], #8
2000787c:	ece0 6102 	stfe	f6, [r0], #8
20007880:	ece0 7102 	stfe	f7, [r0], #8
20007884:	ece0 8102 	stfp	f0, [r0], #8
20007888:	ece0 9102 	stfp	f1, [r0], #8
2000788c:	ece0 a102 	stfp	f2, [r0], #8
20007890:	ece0 b102 	stfp	f3, [r0], #8
20007894:	ece0 c102 	stfp	f4, [r0], #8
20007898:	ece0 d102 	stfp	f5, [r0], #8
2000789c:	ece0 e102 	stfp	f6, [r0], #8
200078a0:	ece0 f102 	stfp	f7, [r0], #8
200078a4:	4770      	bx	lr
200078a6:	bf00      	nop

200078a8 <__gnu_Unwind_Restore_WMMXC>:
200078a8:	fcb0 8101 	ldc2	1, cr8, [r0], #4
200078ac:	fcb0 9101 	ldc2	1, cr9, [r0], #4
200078b0:	fcb0 a101 	ldc2	1, cr10, [r0], #4
200078b4:	fcb0 b101 	ldc2	1, cr11, [r0], #4
200078b8:	4770      	bx	lr
200078ba:	bf00      	nop

200078bc <__gnu_Unwind_Save_WMMXC>:
200078bc:	fca0 8101 	stc2	1, cr8, [r0], #4
200078c0:	fca0 9101 	stc2	1, cr9, [r0], #4
200078c4:	fca0 a101 	stc2	1, cr10, [r0], #4
200078c8:	fca0 b101 	stc2	1, cr11, [r0], #4
200078cc:	4770      	bx	lr
200078ce:	bf00      	nop

200078d0 <_Unwind_RaiseException>:
200078d0:	46ec      	mov	ip, sp
200078d2:	b500      	push	{lr}
200078d4:	e92d 5000 	stmdb	sp!, {ip, lr}
200078d8:	e92d 1fff 	stmdb	sp!, {r0, r1, r2, r3, r4, r5, r6, r7, r8, r9, sl, fp, ip}
200078dc:	f04f 0300 	mov.w	r3, #0
200078e0:	e92d 000c 	stmdb	sp!, {r2, r3}
200078e4:	a901      	add	r1, sp, #4
200078e6:	f7ff fba9 	bl	2000703c <__gnu_Unwind_RaiseException>
200078ea:	f8dd e040 	ldr.w	lr, [sp, #64]	@ 0x40
200078ee:	b012      	add	sp, #72	@ 0x48
200078f0:	4770      	bx	lr
200078f2:	bf00      	nop

200078f4 <_Unwind_Resume>:
200078f4:	46ec      	mov	ip, sp
200078f6:	b500      	push	{lr}
200078f8:	e92d 5000 	stmdb	sp!, {ip, lr}
200078fc:	e92d 1fff 	stmdb	sp!, {r0, r1, r2, r3, r4, r5, r6, r7, r8, r9, sl, fp, ip}
20007900:	f04f 0300 	mov.w	r3, #0
20007904:	e92d 000c 	stmdb	sp!, {r2, r3}
20007908:	a901      	add	r1, sp, #4
2000790a:	f7ff fbd5 	bl	200070b8 <__gnu_Unwind_Resume>
2000790e:	f8dd e040 	ldr.w	lr, [sp, #64]	@ 0x40
20007912:	b012      	add	sp, #72	@ 0x48
20007914:	4770      	bx	lr
20007916:	bf00      	nop

20007918 <_Unwind_Resume_or_Rethrow>:
20007918:	46ec      	mov	ip, sp
2000791a:	b500      	push	{lr}
2000791c:	e92d 5000 	stmdb	sp!, {ip, lr}
20007920:	e92d 1fff 	stmdb	sp!, {r0, r1, r2, r3, r4, r5, r6, r7, r8, r9, sl, fp, ip}
20007924:	f04f 0300 	mov.w	r3, #0
20007928:	e92d 000c 	stmdb	sp!, {r2, r3}
2000792c:	a901      	add	r1, sp, #4
2000792e:	f7ff fbe5 	bl	200070fc <__gnu_Unwind_Resume_or_Rethrow>
20007932:	f8dd e040 	ldr.w	lr, [sp, #64]	@ 0x40
20007936:	b012      	add	sp, #72	@ 0x48
20007938:	4770      	bx	lr
2000793a:	bf00      	nop

2000793c <_Unwind_ForcedUnwind>:
2000793c:	46ec      	mov	ip, sp
2000793e:	b500      	push	{lr}
20007940:	e92d 5000 	stmdb	sp!, {ip, lr}
20007944:	e92d 1fff 	stmdb	sp!, {r0, r1, r2, r3, r4, r5, r6, r7, r8, r9, sl, fp, ip}
20007948:	f04f 0300 	mov.w	r3, #0
2000794c:	e92d 000c 	stmdb	sp!, {r2, r3}
20007950:	ab01      	add	r3, sp, #4
20007952:	f7ff fba7 	bl	200070a4 <__gnu_Unwind_ForcedUnwind>
20007956:	f8dd e040 	ldr.w	lr, [sp, #64]	@ 0x40
2000795a:	b012      	add	sp, #72	@ 0x48
2000795c:	4770      	bx	lr
2000795e:	bf00      	nop

20007960 <_Unwind_Backtrace>:
20007960:	46ec      	mov	ip, sp
20007962:	b500      	push	{lr}
20007964:	e92d 5000 	stmdb	sp!, {ip, lr}
20007968:	e92d 1fff 	stmdb	sp!, {r0, r1, r2, r3, r4, r5, r6, r7, r8, r9, sl, fp, ip}
2000796c:	f04f 0300 	mov.w	r3, #0
20007970:	e92d 000c 	stmdb	sp!, {r2, r3}
20007974:	aa01      	add	r2, sp, #4
20007976:	f7ff fc1f 	bl	200071b8 <__gnu_Unwind_Backtrace>
2000797a:	f8dd e040 	ldr.w	lr, [sp, #64]	@ 0x40
2000797e:	b012      	add	sp, #72	@ 0x48
20007980:	4770      	bx	lr
20007982:	bf00      	nop

20007984 <next_unwind_byte>:
20007984:	7a02      	ldrb	r2, [r0, #8]
20007986:	4603      	mov	r3, r0
20007988:	b98a      	cbnz	r2, 200079ae <next_unwind_byte+0x2a>
2000798a:	7a42      	ldrb	r2, [r0, #9]
2000798c:	b1b2      	cbz	r2, 200079bc <next_unwind_byte+0x38>
2000798e:	6841      	ldr	r1, [r0, #4]
20007990:	3a01      	subs	r2, #1
20007992:	f04f 0c03 	mov.w	ip, #3
20007996:	b410      	push	{r4}
20007998:	7242      	strb	r2, [r0, #9]
2000799a:	1d0c      	adds	r4, r1, #4
2000799c:	6808      	ldr	r0, [r1, #0]
2000799e:	f883 c008 	strb.w	ip, [r3, #8]
200079a2:	0202      	lsls	r2, r0, #8
200079a4:	605c      	str	r4, [r3, #4]
200079a6:	0e00      	lsrs	r0, r0, #24
200079a8:	bc10      	pop	{r4}
200079aa:	601a      	str	r2, [r3, #0]
200079ac:	4770      	bx	lr
200079ae:	6800      	ldr	r0, [r0, #0]
200079b0:	3a01      	subs	r2, #1
200079b2:	721a      	strb	r2, [r3, #8]
200079b4:	0202      	lsls	r2, r0, #8
200079b6:	0e00      	lsrs	r0, r0, #24
200079b8:	601a      	str	r2, [r3, #0]
200079ba:	4770      	bx	lr
200079bc:	20b0      	movs	r0, #176	@ 0xb0
200079be:	4770      	bx	lr

200079c0 <_Unwind_GetGR.constprop.0>:
200079c0:	b510      	push	{r4, lr}
200079c2:	b084      	sub	sp, #16
200079c4:	2300      	movs	r3, #0
200079c6:	220c      	movs	r2, #12
200079c8:	ac03      	add	r4, sp, #12
200079ca:	4619      	mov	r1, r3
200079cc:	9400      	str	r4, [sp, #0]
200079ce:	f7ff fba7 	bl	20007120 <_Unwind_VRS_Get>
200079d2:	9803      	ldr	r0, [sp, #12]
200079d4:	b004      	add	sp, #16
200079d6:	bd10      	pop	{r4, pc}

200079d8 <unwind_UCB_from_context>:
200079d8:	e7f2      	b.n	200079c0 <_Unwind_GetGR.constprop.0>
200079da:	bf00      	nop

200079dc <__gnu_unwind_execute>:
200079dc:	e92d 43f0 	stmdb	sp!, {r4, r5, r6, r7, r8, r9, lr}
200079e0:	f04f 0800 	mov.w	r8, #0
200079e4:	b085      	sub	sp, #20
200079e6:	4606      	mov	r6, r0
200079e8:	460d      	mov	r5, r1
200079ea:	4628      	mov	r0, r5
200079ec:	f7ff ffca 	bl	20007984 <next_unwind_byte>
200079f0:	28b0      	cmp	r0, #176	@ 0xb0
200079f2:	4604      	mov	r4, r0
200079f4:	f000 811e 	beq.w	20007c34 <__gnu_unwind_execute+0x258>
200079f8:	0607      	lsls	r7, r0, #24
200079fa:	d538      	bpl.n	20007a6e <__gnu_unwind_execute+0x92>
200079fc:	f000 03f0 	and.w	r3, r0, #240	@ 0xf0
20007a00:	2ba0      	cmp	r3, #160	@ 0xa0
20007a02:	f000 8083 	beq.w	20007b0c <__gnu_unwind_execute+0x130>
20007a06:	d80c      	bhi.n	20007a22 <__gnu_unwind_execute+0x46>
20007a08:	2b80      	cmp	r3, #128	@ 0x80
20007a0a:	d05e      	beq.n	20007aca <__gnu_unwind_execute+0xee>
20007a0c:	2b90      	cmp	r3, #144	@ 0x90
20007a0e:	d104      	bne.n	20007a1a <__gnu_unwind_execute+0x3e>
20007a10:	f000 030d 	and.w	r3, r0, #13
20007a14:	2b0d      	cmp	r3, #13
20007a16:	f040 808f 	bne.w	20007b38 <__gnu_unwind_execute+0x15c>
20007a1a:	2009      	movs	r0, #9
20007a1c:	b005      	add	sp, #20
20007a1e:	e8bd 83f0 	ldmia.w	sp!, {r4, r5, r6, r7, r8, r9, pc}
20007a22:	2bb0      	cmp	r3, #176	@ 0xb0
20007a24:	d068      	beq.n	20007af8 <__gnu_unwind_execute+0x11c>
20007a26:	2bc0      	cmp	r3, #192	@ 0xc0
20007a28:	d13e      	bne.n	20007aa8 <__gnu_unwind_execute+0xcc>
20007a2a:	28c6      	cmp	r0, #198	@ 0xc6
20007a2c:	f000 80ef 	beq.w	20007c0e <__gnu_unwind_execute+0x232>
20007a30:	28c7      	cmp	r0, #199	@ 0xc7
20007a32:	f000 8104 	beq.w	20007c3e <__gnu_unwind_execute+0x262>
20007a36:	f000 03f8 	and.w	r3, r0, #248	@ 0xf8
20007a3a:	2bc0      	cmp	r3, #192	@ 0xc0
20007a3c:	f000 8111 	beq.w	20007c62 <__gnu_unwind_execute+0x286>
20007a40:	28c8      	cmp	r0, #200	@ 0xc8
20007a42:	f000 811c 	beq.w	20007c7e <__gnu_unwind_execute+0x2a2>
20007a46:	28c9      	cmp	r0, #201	@ 0xc9
20007a48:	d1e7      	bne.n	20007a1a <__gnu_unwind_execute+0x3e>
20007a4a:	4628      	mov	r0, r5
20007a4c:	f7ff ff9a 	bl	20007984 <next_unwind_byte>
20007a50:	0302      	lsls	r2, r0, #12
20007a52:	f000 000f 	and.w	r0, r0, #15
20007a56:	f402 2270 	and.w	r2, r2, #983040	@ 0xf0000
20007a5a:	3001      	adds	r0, #1
20007a5c:	4302      	orrs	r2, r0
20007a5e:	2101      	movs	r1, #1
20007a60:	2305      	movs	r3, #5
20007a62:	4630      	mov	r0, r6
20007a64:	f7ff fd44 	bl	200074f0 <_Unwind_VRS_Pop>
20007a68:	2800      	cmp	r0, #0
20007a6a:	d0be      	beq.n	200079ea <__gnu_unwind_execute+0xe>
20007a6c:	e7d5      	b.n	20007a1a <__gnu_unwind_execute+0x3e>
20007a6e:	0083      	lsls	r3, r0, #2
20007a70:	f10d 0908 	add.w	r9, sp, #8
20007a74:	220d      	movs	r2, #13
20007a76:	4630      	mov	r0, r6
20007a78:	b2db      	uxtb	r3, r3
20007a7a:	f8cd 9000 	str.w	r9, [sp]
20007a7e:	1d1f      	adds	r7, r3, #4
20007a80:	2300      	movs	r3, #0
20007a82:	4619      	mov	r1, r3
20007a84:	f7ff fb4c 	bl	20007120 <_Unwind_VRS_Get>
20007a88:	9b02      	ldr	r3, [sp, #8]
20007a8a:	0660      	lsls	r0, r4, #25
20007a8c:	f04f 020d 	mov.w	r2, #13
20007a90:	4630      	mov	r0, r6
20007a92:	f8cd 9000 	str.w	r9, [sp]
20007a96:	bf4c      	ite	mi
20007a98:	1bdf      	submi	r7, r3, r7
20007a9a:	18ff      	addpl	r7, r7, r3
20007a9c:	2300      	movs	r3, #0
20007a9e:	9702      	str	r7, [sp, #8]
20007aa0:	4619      	mov	r1, r3
20007aa2:	f7ff fb63 	bl	2000716c <_Unwind_VRS_Set>
20007aa6:	e7a0      	b.n	200079ea <__gnu_unwind_execute+0xe>
20007aa8:	f000 03f8 	and.w	r3, r0, #248	@ 0xf8
20007aac:	2bd0      	cmp	r3, #208	@ 0xd0
20007aae:	d1b4      	bne.n	20007a1a <__gnu_unwind_execute+0x3e>
20007ab0:	f000 0207 	and.w	r2, r0, #7
20007ab4:	2305      	movs	r3, #5
20007ab6:	2101      	movs	r1, #1
20007ab8:	4630      	mov	r0, r6
20007aba:	3201      	adds	r2, #1
20007abc:	f442 2200 	orr.w	r2, r2, #524288	@ 0x80000
20007ac0:	f7ff fd16 	bl	200074f0 <_Unwind_VRS_Pop>
20007ac4:	2800      	cmp	r0, #0
20007ac6:	d090      	beq.n	200079ea <__gnu_unwind_execute+0xe>
20007ac8:	e7a7      	b.n	20007a1a <__gnu_unwind_execute+0x3e>
20007aca:	0224      	lsls	r4, r4, #8
20007acc:	4628      	mov	r0, r5
20007ace:	f7ff ff59 	bl	20007984 <next_unwind_byte>
20007ad2:	4320      	orrs	r0, r4
20007ad4:	f5b0 4f00 	cmp.w	r0, #32768	@ 0x8000
20007ad8:	d09f      	beq.n	20007a1a <__gnu_unwind_execute+0x3e>
20007ada:	0104      	lsls	r4, r0, #4
20007adc:	2300      	movs	r3, #0
20007ade:	4630      	mov	r0, r6
20007ae0:	b2a2      	uxth	r2, r4
20007ae2:	4619      	mov	r1, r3
20007ae4:	f7ff fd04 	bl	200074f0 <_Unwind_VRS_Pop>
20007ae8:	2800      	cmp	r0, #0
20007aea:	d196      	bne.n	20007a1a <__gnu_unwind_execute+0x3e>
20007aec:	f414 4f00 	tst.w	r4, #32768	@ 0x8000
20007af0:	bf18      	it	ne
20007af2:	f04f 0801 	movne.w	r8, #1
20007af6:	e778      	b.n	200079ea <__gnu_unwind_execute+0xe>
20007af8:	f1a0 03b1 	sub.w	r3, r0, #177	@ 0xb1
20007afc:	2b04      	cmp	r3, #4
20007afe:	f200 80da 	bhi.w	20007cb6 <__gnu_unwind_execute+0x2da>
20007b02:	e8df f003 	tbb	[pc, r3]
20007b06:	507b      	.short	0x507b
20007b08:	333d      	.short	0x333d
20007b0a:	2a          	.byte	0x2a
20007b0b:	00          	.byte	0x00
20007b0c:	43c3      	mvns	r3, r0
20007b0e:	f44f 627f 	mov.w	r2, #4080	@ 0xff0
20007b12:	0701      	lsls	r1, r0, #28
20007b14:	f003 0307 	and.w	r3, r3, #7
20007b18:	fa42 f203 	asr.w	r2, r2, r3
20007b1c:	f402 627f 	and.w	r2, r2, #4080	@ 0xff0
20007b20:	d501      	bpl.n	20007b26 <__gnu_unwind_execute+0x14a>
20007b22:	f442 4280 	orr.w	r2, r2, #16384	@ 0x4000
20007b26:	2300      	movs	r3, #0
20007b28:	4630      	mov	r0, r6
20007b2a:	4619      	mov	r1, r3
20007b2c:	f7ff fce0 	bl	200074f0 <_Unwind_VRS_Pop>
20007b30:	2800      	cmp	r0, #0
20007b32:	f43f af5a 	beq.w	200079ea <__gnu_unwind_execute+0xe>
20007b36:	e770      	b.n	20007a1a <__gnu_unwind_execute+0x3e>
20007b38:	af02      	add	r7, sp, #8
20007b3a:	2300      	movs	r3, #0
20007b3c:	f000 020f 	and.w	r2, r0, #15
20007b40:	4630      	mov	r0, r6
20007b42:	4619      	mov	r1, r3
20007b44:	9700      	str	r7, [sp, #0]
20007b46:	f7ff faeb 	bl	20007120 <_Unwind_VRS_Get>
20007b4a:	2300      	movs	r3, #0
20007b4c:	220d      	movs	r2, #13
20007b4e:	4630      	mov	r0, r6
20007b50:	4619      	mov	r1, r3
20007b52:	9700      	str	r7, [sp, #0]
20007b54:	f7ff fb0a 	bl	2000716c <_Unwind_VRS_Set>
20007b58:	e747      	b.n	200079ea <__gnu_unwind_execute+0xe>
20007b5a:	aa03      	add	r2, sp, #12
20007b5c:	2300      	movs	r3, #0
20007b5e:	4630      	mov	r0, r6
20007b60:	9200      	str	r2, [sp, #0]
20007b62:	4619      	mov	r1, r3
20007b64:	220d      	movs	r2, #13
20007b66:	f7ff fadb 	bl	20007120 <_Unwind_VRS_Get>
20007b6a:	e73e      	b.n	200079ea <__gnu_unwind_execute+0xe>
20007b6c:	2300      	movs	r3, #0
20007b6e:	2105      	movs	r1, #5
20007b70:	4630      	mov	r0, r6
20007b72:	461a      	mov	r2, r3
20007b74:	f7ff fcbc 	bl	200074f0 <_Unwind_VRS_Pop>
20007b78:	2800      	cmp	r0, #0
20007b7a:	f43f af36 	beq.w	200079ea <__gnu_unwind_execute+0xe>
20007b7e:	e74c      	b.n	20007a1a <__gnu_unwind_execute+0x3e>
20007b80:	4628      	mov	r0, r5
20007b82:	f7ff feff 	bl	20007984 <next_unwind_byte>
20007b86:	2301      	movs	r3, #1
20007b88:	0302      	lsls	r2, r0, #12
20007b8a:	f000 000f 	and.w	r0, r0, #15
20007b8e:	4619      	mov	r1, r3
20007b90:	3001      	adds	r0, #1
20007b92:	f402 2270 	and.w	r2, r2, #983040	@ 0xf0000
20007b96:	4302      	orrs	r2, r0
20007b98:	4630      	mov	r0, r6
20007b9a:	f7ff fca9 	bl	200074f0 <_Unwind_VRS_Pop>
20007b9e:	2800      	cmp	r0, #0
20007ba0:	f43f af23 	beq.w	200079ea <__gnu_unwind_execute+0xe>
20007ba4:	e739      	b.n	20007a1a <__gnu_unwind_execute+0x3e>
20007ba6:	2300      	movs	r3, #0
20007ba8:	f10d 0908 	add.w	r9, sp, #8
20007bac:	220d      	movs	r2, #13
20007bae:	4630      	mov	r0, r6
20007bb0:	4619      	mov	r1, r3
20007bb2:	f8cd 9000 	str.w	r9, [sp]
20007bb6:	f7ff fab3 	bl	20007120 <_Unwind_VRS_Get>
20007bba:	4628      	mov	r0, r5
20007bbc:	f7ff fee2 	bl	20007984 <next_unwind_byte>
20007bc0:	0602      	lsls	r2, r0, #24
20007bc2:	9c02      	ldr	r4, [sp, #8]
20007bc4:	f04f 0702 	mov.w	r7, #2
20007bc8:	d50a      	bpl.n	20007be0 <__gnu_unwind_execute+0x204>
20007bca:	f000 007f 	and.w	r0, r0, #127	@ 0x7f
20007bce:	40b8      	lsls	r0, r7
20007bd0:	3707      	adds	r7, #7
20007bd2:	4404      	add	r4, r0
20007bd4:	4628      	mov	r0, r5
20007bd6:	9402      	str	r4, [sp, #8]
20007bd8:	f7ff fed4 	bl	20007984 <next_unwind_byte>
20007bdc:	0603      	lsls	r3, r0, #24
20007bde:	d4f4      	bmi.n	20007bca <__gnu_unwind_execute+0x1ee>
20007be0:	40b8      	lsls	r0, r7
20007be2:	f504 7401 	add.w	r4, r4, #516	@ 0x204
20007be6:	2300      	movs	r3, #0
20007be8:	220d      	movs	r2, #13
20007bea:	4420      	add	r0, r4
20007bec:	f8cd 9000 	str.w	r9, [sp]
20007bf0:	4619      	mov	r1, r3
20007bf2:	9002      	str	r0, [sp, #8]
20007bf4:	4630      	mov	r0, r6
20007bf6:	f7ff fab9 	bl	2000716c <_Unwind_VRS_Set>
20007bfa:	e6f6      	b.n	200079ea <__gnu_unwind_execute+0xe>
20007bfc:	4628      	mov	r0, r5
20007bfe:	f7ff fec1 	bl	20007984 <next_unwind_byte>
20007c02:	1e43      	subs	r3, r0, #1
20007c04:	4602      	mov	r2, r0
20007c06:	b2db      	uxtb	r3, r3
20007c08:	2b0e      	cmp	r3, #14
20007c0a:	d98c      	bls.n	20007b26 <__gnu_unwind_execute+0x14a>
20007c0c:	e705      	b.n	20007a1a <__gnu_unwind_execute+0x3e>
20007c0e:	4628      	mov	r0, r5
20007c10:	f7ff feb8 	bl	20007984 <next_unwind_byte>
20007c14:	2303      	movs	r3, #3
20007c16:	0302      	lsls	r2, r0, #12
20007c18:	f000 000f 	and.w	r0, r0, #15
20007c1c:	4619      	mov	r1, r3
20007c1e:	3001      	adds	r0, #1
20007c20:	f402 2270 	and.w	r2, r2, #983040	@ 0xf0000
20007c24:	4302      	orrs	r2, r0
20007c26:	4630      	mov	r0, r6
20007c28:	f7ff fc62 	bl	200074f0 <_Unwind_VRS_Pop>
20007c2c:	2800      	cmp	r0, #0
20007c2e:	f43f aedc 	beq.w	200079ea <__gnu_unwind_execute+0xe>
20007c32:	e6f2      	b.n	20007a1a <__gnu_unwind_execute+0x3e>
20007c34:	f1b8 0f00 	cmp.w	r8, #0
20007c38:	d02d      	beq.n	20007c96 <__gnu_unwind_execute+0x2ba>
20007c3a:	2000      	movs	r0, #0
20007c3c:	e6ee      	b.n	20007a1c <__gnu_unwind_execute+0x40>
20007c3e:	4628      	mov	r0, r5
20007c40:	f7ff fea0 	bl	20007984 <next_unwind_byte>
20007c44:	1e43      	subs	r3, r0, #1
20007c46:	4602      	mov	r2, r0
20007c48:	b2db      	uxtb	r3, r3
20007c4a:	2b0e      	cmp	r3, #14
20007c4c:	f63f aee5 	bhi.w	20007a1a <__gnu_unwind_execute+0x3e>
20007c50:	2300      	movs	r3, #0
20007c52:	2104      	movs	r1, #4
20007c54:	4630      	mov	r0, r6
20007c56:	f7ff fc4b 	bl	200074f0 <_Unwind_VRS_Pop>
20007c5a:	2800      	cmp	r0, #0
20007c5c:	f43f aec5 	beq.w	200079ea <__gnu_unwind_execute+0xe>
20007c60:	e6db      	b.n	20007a1a <__gnu_unwind_execute+0x3e>
20007c62:	f000 020f 	and.w	r2, r0, #15
20007c66:	2303      	movs	r3, #3
20007c68:	4630      	mov	r0, r6
20007c6a:	3201      	adds	r2, #1
20007c6c:	4619      	mov	r1, r3
20007c6e:	f442 2220 	orr.w	r2, r2, #655360	@ 0xa0000
20007c72:	f7ff fc3d 	bl	200074f0 <_Unwind_VRS_Pop>
20007c76:	2800      	cmp	r0, #0
20007c78:	f43f aeb7 	beq.w	200079ea <__gnu_unwind_execute+0xe>
20007c7c:	e6cd      	b.n	20007a1a <__gnu_unwind_execute+0x3e>
20007c7e:	4628      	mov	r0, r5
20007c80:	f7ff fe80 	bl	20007984 <next_unwind_byte>
20007c84:	f000 02f0 	and.w	r2, r0, #240	@ 0xf0
20007c88:	f000 030f 	and.w	r3, r0, #15
20007c8c:	3210      	adds	r2, #16
20007c8e:	3301      	adds	r3, #1
20007c90:	ea43 3202 	orr.w	r2, r3, r2, lsl #12
20007c94:	e6e3      	b.n	20007a5e <__gnu_unwind_execute+0x82>
20007c96:	ac02      	add	r4, sp, #8
20007c98:	4643      	mov	r3, r8
20007c9a:	4641      	mov	r1, r8
20007c9c:	220e      	movs	r2, #14
20007c9e:	4630      	mov	r0, r6
20007ca0:	9400      	str	r4, [sp, #0]
20007ca2:	f7ff fa3d 	bl	20007120 <_Unwind_VRS_Get>
20007ca6:	220f      	movs	r2, #15
20007ca8:	4643      	mov	r3, r8
20007caa:	4641      	mov	r1, r8
20007cac:	4630      	mov	r0, r6
20007cae:	9400      	str	r4, [sp, #0]
20007cb0:	f7ff fa5c 	bl	2000716c <_Unwind_VRS_Set>
20007cb4:	e7c1      	b.n	20007c3a <__gnu_unwind_execute+0x25e>
20007cb6:	f000 03fc 	and.w	r3, r0, #252	@ 0xfc
20007cba:	2bb4      	cmp	r3, #180	@ 0xb4
20007cbc:	f43f aead 	beq.w	20007a1a <__gnu_unwind_execute+0x3e>
20007cc0:	f000 0207 	and.w	r2, r0, #7
20007cc4:	2301      	movs	r3, #1
20007cc6:	4630      	mov	r0, r6
20007cc8:	441a      	add	r2, r3
20007cca:	4619      	mov	r1, r3
20007ccc:	f442 2200 	orr.w	r2, r2, #524288	@ 0x80000
20007cd0:	f7ff fc0e 	bl	200074f0 <_Unwind_VRS_Pop>
20007cd4:	2800      	cmp	r0, #0
20007cd6:	f43f ae88 	beq.w	200079ea <__gnu_unwind_execute+0xe>
20007cda:	e69e      	b.n	20007a1a <__gnu_unwind_execute+0x3e>

20007cdc <__gnu_unwind_frame>:
20007cdc:	4602      	mov	r2, r0
20007cde:	2303      	movs	r3, #3
20007ce0:	4608      	mov	r0, r1
20007ce2:	6cd2      	ldr	r2, [r2, #76]	@ 0x4c
20007ce4:	b510      	push	{r4, lr}
20007ce6:	b084      	sub	sp, #16
20007ce8:	3208      	adds	r2, #8
20007cea:	f88d 300c 	strb.w	r3, [sp, #12]
20007cee:	a901      	add	r1, sp, #4
20007cf0:	f852 3c04 	ldr.w	r3, [r2, #-4]
20007cf4:	021c      	lsls	r4, r3, #8
20007cf6:	0e1b      	lsrs	r3, r3, #24
20007cf8:	e9cd 4201 	strd	r4, r2, [sp, #4]
20007cfc:	f88d 300d 	strb.w	r3, [sp, #13]
20007d00:	f7ff fe6c 	bl	200079dc <__gnu_unwind_execute>
20007d04:	b004      	add	sp, #16
20007d06:	bd10      	pop	{r4, pc}

20007d08 <_Unwind_GetRegionStart>:
20007d08:	b508      	push	{r3, lr}
20007d0a:	f7ff fe65 	bl	200079d8 <unwind_UCB_from_context>
20007d0e:	6c80      	ldr	r0, [r0, #72]	@ 0x48
20007d10:	bd08      	pop	{r3, pc}
20007d12:	bf00      	nop

20007d14 <_Unwind_GetLanguageSpecificData>:
20007d14:	b508      	push	{r3, lr}
20007d16:	f7ff fe5f 	bl	200079d8 <unwind_UCB_from_context>
20007d1a:	6cc0      	ldr	r0, [r0, #76]	@ 0x4c
20007d1c:	79c3      	ldrb	r3, [r0, #7]
20007d1e:	eb00 0083 	add.w	r0, r0, r3, lsl #2
20007d22:	3008      	adds	r0, #8
20007d24:	bd08      	pop	{r3, pc}
20007d26:	bf00      	nop

20007d28 <_ZSt26__throw_bad_variant_accessPKc>:
  };

  // Must only be called with a string literal
  inline void
  __throw_bad_variant_access(const char* __what)
  { _GLIBCXX_THROW_OR_ABORT(bad_variant_access(__what)); }
20007d28:	b580      	push	{r7, lr}
20007d2a:	b082      	sub	sp, #8
20007d2c:	af00      	add	r7, sp, #0
20007d2e:	6078      	str	r0, [r7, #4]
20007d30:	f003 ffaa 	bl	2000bc88 <__abort_veneer>

20007d34 <_ZN9IGUIModelC1Ev>:
    virtual void handleEvent(const S2GEvent::DailyHealth& event) = 0;
};

class IGUIModel {
public:
    IGUIModel() : mGUIHandler()
20007d34:	b480      	push	{r7}
20007d36:	b083      	sub	sp, #12
20007d38:	af00      	add	r7, sp, #0
20007d3a:	6078      	str	r0, [r7, #4]
20007d3c:	4a08      	ldr	r2, [pc, #32]	@ (20007d60 <_ZN9IGUIModelC1Ev+0x2c>)
20007d3e:	447a      	add	r2, pc
20007d40:	4b08      	ldr	r3, [pc, #32]	@ (20007d64 <_ZN9IGUIModelC1Ev+0x30>)
20007d42:	58d3      	ldr	r3, [r2, r3]
20007d44:	f103 0208 	add.w	r2, r3, #8
20007d48:	687b      	ldr	r3, [r7, #4]
20007d4a:	601a      	str	r2, [r3, #0]
20007d4c:	687b      	ldr	r3, [r7, #4]
20007d4e:	2200      	movs	r2, #0
20007d50:	605a      	str	r2, [r3, #4]
    {}
20007d52:	687b      	ldr	r3, [r7, #4]
20007d54:	4618      	mov	r0, r3
20007d56:	370c      	adds	r7, #12
20007d58:	46bd      	mov	sp, r7
20007d5a:	f85d 7b04 	ldr.w	r7, [sp], #4
20007d5e:	4770      	bx	lr
20007d60:	00005bc2 	.word	0x00005bc2
20007d64:	00000050 	.word	0x00000050

20007d68 <_ZNSt16_Sp_counted_baseILN9__gnu_cxx12_Lock_policyE0EE10_M_releaseEv>:
    { ++_M_use_count; }

  template<>
    inline void
    _Sp_counted_base<_S_single>::_M_release() noexcept
    {
20007d68:	b580      	push	{r7, lr}
20007d6a:	b082      	sub	sp, #8
20007d6c:	af00      	add	r7, sp, #0
20007d6e:	6078      	str	r0, [r7, #4]
      if (--_M_use_count == 0)
20007d70:	687b      	ldr	r3, [r7, #4]
20007d72:	685b      	ldr	r3, [r3, #4]
20007d74:	1e5a      	subs	r2, r3, #1
20007d76:	687b      	ldr	r3, [r7, #4]
20007d78:	605a      	str	r2, [r3, #4]
20007d7a:	687b      	ldr	r3, [r7, #4]
20007d7c:	685b      	ldr	r3, [r3, #4]
20007d7e:	2b00      	cmp	r3, #0
20007d80:	bf0c      	ite	eq
20007d82:	2301      	moveq	r3, #1
20007d84:	2300      	movne	r3, #0
20007d86:	b2db      	uxtb	r3, r3
20007d88:	2b00      	cmp	r3, #0
20007d8a:	d019      	beq.n	20007dc0 <_ZNSt16_Sp_counted_baseILN9__gnu_cxx12_Lock_policyE0EE10_M_releaseEv+0x58>
        {
          _M_dispose();
20007d8c:	687b      	ldr	r3, [r7, #4]
20007d8e:	681b      	ldr	r3, [r3, #0]
20007d90:	3308      	adds	r3, #8
20007d92:	681b      	ldr	r3, [r3, #0]
20007d94:	6878      	ldr	r0, [r7, #4]
20007d96:	4798      	blx	r3
          if (--_M_weak_count == 0)
20007d98:	687b      	ldr	r3, [r7, #4]
20007d9a:	689b      	ldr	r3, [r3, #8]
20007d9c:	1e5a      	subs	r2, r3, #1
20007d9e:	687b      	ldr	r3, [r7, #4]
20007da0:	609a      	str	r2, [r3, #8]
20007da2:	687b      	ldr	r3, [r7, #4]
20007da4:	689b      	ldr	r3, [r3, #8]
20007da6:	2b00      	cmp	r3, #0
20007da8:	bf0c      	ite	eq
20007daa:	2301      	moveq	r3, #1
20007dac:	2300      	movne	r3, #0
20007dae:	b2db      	uxtb	r3, r3
20007db0:	2b00      	cmp	r3, #0
20007db2:	d005      	beq.n	20007dc0 <_ZNSt16_Sp_counted_baseILN9__gnu_cxx12_Lock_policyE0EE10_M_releaseEv+0x58>
            _M_destroy();
20007db4:	687b      	ldr	r3, [r7, #4]
20007db6:	681b      	ldr	r3, [r3, #0]
20007db8:	330c      	adds	r3, #12
20007dba:	681b      	ldr	r3, [r3, #0]
20007dbc:	6878      	ldr	r0, [r7, #4]
20007dbe:	4798      	blx	r3
        }
    }
20007dc0:	bf00      	nop
20007dc2:	3708      	adds	r7, #8
20007dc4:	46bd      	mov	sp, r7
20007dc6:	bd80      	pop	{r7, pc}

20007dc8 <_ZNSt12__shared_ptrIN9Interface6IMutexELN9__gnu_cxx12_Lock_policyE0EED1Ev>:
	  __r._M_ptr = nullptr;
	}

      __shared_ptr(const __shared_ptr&) noexcept = default;
      __shared_ptr& operator=(const __shared_ptr&) noexcept = default;
      ~__shared_ptr() = default;
20007dc8:	b580      	push	{r7, lr}
20007dca:	b082      	sub	sp, #8
20007dcc:	af00      	add	r7, sp, #0
20007dce:	6078      	str	r0, [r7, #4]
20007dd0:	687b      	ldr	r3, [r7, #4]
20007dd2:	3304      	adds	r3, #4
20007dd4:	4618      	mov	r0, r3
20007dd6:	f000 fa79 	bl	200082cc <_ZNSt14__shared_countILN9__gnu_cxx12_Lock_policyE0EED1Ev>
20007dda:	687b      	ldr	r3, [r7, #4]
20007ddc:	4618      	mov	r0, r3
20007dde:	3708      	adds	r7, #8
20007de0:	46bd      	mov	sp, r7
20007de2:	bd80      	pop	{r7, pc}

20007de4 <_ZNSt10shared_ptrIN9Interface6IMutexEED1Ev>:
   * the stored pointer returned by `get()`, not the owned pointer.
   * To test whether two `shared_ptr` objects share ownership of the same
   * pointer see `std::shared_ptr::owner_before` and `std::owner_less`.
  */
  template<typename _Tp>
    class shared_ptr : public __shared_ptr<_Tp>
20007de4:	b580      	push	{r7, lr}
20007de6:	b082      	sub	sp, #8
20007de8:	af00      	add	r7, sp, #0
20007dea:	6078      	str	r0, [r7, #4]
20007dec:	687b      	ldr	r3, [r7, #4]
20007dee:	4618      	mov	r0, r3
20007df0:	f7ff ffea 	bl	20007dc8 <_ZNSt12__shared_ptrIN9Interface6IMutexELN9__gnu_cxx12_Lock_policyE0EED1Ev>
20007df4:	687b      	ldr	r3, [r7, #4]
20007df6:	4618      	mov	r0, r3
20007df8:	3708      	adds	r7, #8
20007dfa:	46bd      	mov	sp, r7
20007dfc:	bd80      	pop	{r7, pc}
	...

20007e00 <_ZN9IGUIModelD1Ev>:

    virtual ~IGUIModel() = default;
20007e00:	b480      	push	{r7}
20007e02:	b083      	sub	sp, #12
20007e04:	af00      	add	r7, sp, #0
20007e06:	6078      	str	r0, [r7, #4]
20007e08:	4a07      	ldr	r2, [pc, #28]	@ (20007e28 <_ZN9IGUIModelD1Ev+0x28>)
20007e0a:	447a      	add	r2, pc
20007e0c:	4b07      	ldr	r3, [pc, #28]	@ (20007e2c <_ZN9IGUIModelD1Ev+0x2c>)
20007e0e:	58d3      	ldr	r3, [r2, r3]
20007e10:	f103 0208 	add.w	r2, r3, #8
20007e14:	687b      	ldr	r3, [r7, #4]
20007e16:	601a      	str	r2, [r3, #0]
20007e18:	687b      	ldr	r3, [r7, #4]
20007e1a:	4618      	mov	r0, r3
20007e1c:	370c      	adds	r7, #12
20007e1e:	46bd      	mov	sp, r7
20007e20:	f85d 7b04 	ldr.w	r7, [sp], #4
20007e24:	4770      	bx	lr
20007e26:	bf00      	nop
20007e28:	00005af6 	.word	0x00005af6
20007e2c:	00000050 	.word	0x00000050

20007e30 <_ZN9IGUIModelD0Ev>:
20007e30:	b580      	push	{r7, lr}
20007e32:	b082      	sub	sp, #8
20007e34:	af00      	add	r7, sp, #0
20007e36:	6078      	str	r0, [r7, #4]
20007e38:	6878      	ldr	r0, [r7, #4]
20007e3a:	f7ff ffe1 	bl	20007e00 <_ZN9IGUIModelD1Ev>
20007e3e:	2108      	movs	r1, #8
20007e40:	6878      	ldr	r0, [r7, #4]
20007e42:	f002 fd7c 	bl	2000a93e <_ZdlPvj>
20007e46:	687b      	ldr	r3, [r7, #4]
20007e48:	4618      	mov	r0, r3
20007e4a:	3708      	adds	r7, #8
20007e4c:	46bd      	mov	sp, r7
20007e4e:	bd80      	pop	{r7, pc}

20007e50 <_ZN5ModelC1ERK7IKernelR20IServiceModelHandler>:
#include "../Inc/Model.hpp"

#include <assert.h>

Model::Model(const IKernel& kernel, IServiceModelHandler& handler)
20007e50:	b590      	push	{r4, r7, lr}
20007e52:	b085      	sub	sp, #20
20007e54:	af00      	add	r7, sp, #0
20007e56:	60f8      	str	r0, [r7, #12]
20007e58:	60b9      	str	r1, [r7, #8]
20007e5a:	607a      	str	r2, [r7, #4]
20007e5c:	4c16      	ldr	r4, [pc, #88]	@ (20007eb8 <_ZN5ModelC1ERK7IKernelR20IServiceModelHandler+0x68>)
20007e5e:	447c      	add	r4, pc
    : mS2GQueue(kernel)
    , mG2SQueue(kernel)
    , mServiceHandler(handler)
20007e60:	68fb      	ldr	r3, [r7, #12]
20007e62:	4618      	mov	r0, r3
20007e64:	f7ff ff66 	bl	20007d34 <_ZN9IGUIModelC1Ev>
20007e68:	4b14      	ldr	r3, [pc, #80]	@ (20007ebc <_ZN5ModelC1ERK7IKernelR20IServiceModelHandler+0x6c>)
20007e6a:	58e3      	ldr	r3, [r4, r3]
20007e6c:	f103 0208 	add.w	r2, r3, #8
20007e70:	68fb      	ldr	r3, [r7, #12]
20007e72:	601a      	str	r2, [r3, #0]
    : mS2GQueue(kernel)
20007e74:	68fb      	ldr	r3, [r7, #12]
20007e76:	3308      	adds	r3, #8
20007e78:	68b9      	ldr	r1, [r7, #8]
20007e7a:	4618      	mov	r0, r3
20007e7c:	f000 fa5e 	bl	2000833c <_ZN14CircularBufferISt7variantIJN8S2GEvent11DailyHealthEEELj20EEC1ERK7IKernel>
    , mG2SQueue(kernel)
20007e80:	68fb      	ldr	r3, [r7, #12]
20007e82:	f503 7304 	add.w	r3, r3, #528	@ 0x210
20007e86:	68b9      	ldr	r1, [r7, #8]
20007e88:	4618      	mov	r0, r3
20007e8a:	f000 fac9 	bl	20008420 <_ZN14CircularBufferISt7variantIJN8G2SEvent7IsReadyENS1_4QuitEEELj20EEC1ERK7IKernel>
    , mServiceHandler(handler)
20007e8e:	68fb      	ldr	r3, [r7, #12]
20007e90:	687a      	ldr	r2, [r7, #4]
20007e92:	f8c3 2260 	str.w	r2, [r3, #608]	@ 0x260
{
    mS2GQueue.init();
20007e96:	68fb      	ldr	r3, [r7, #12]
20007e98:	3308      	adds	r3, #8
20007e9a:	4618      	mov	r0, r3
20007e9c:	f000 fb2e 	bl	200084fc <_ZN14CircularBufferISt7variantIJN8S2GEvent11DailyHealthEEELj20EE4initEv>
    mG2SQueue.init();
20007ea0:	68fb      	ldr	r3, [r7, #12]
20007ea2:	f503 7304 	add.w	r3, r3, #528	@ 0x210
20007ea6:	4618      	mov	r0, r3
20007ea8:	f000 fba2 	bl	200085f0 <_ZN14CircularBufferISt7variantIJN8G2SEvent7IsReadyENS1_4QuitEEELj20EE4initEv>
}
20007eac:	68fb      	ldr	r3, [r7, #12]
20007eae:	4618      	mov	r0, r3
20007eb0:	3714      	adds	r7, #20
20007eb2:	46bd      	mov	sp, r7
20007eb4:	bd90      	pop	{r4, r7, pc}
20007eb6:	bf00      	nop
20007eb8:	00005aa2 	.word	0x00005aa2
20007ebc:	00000048 	.word	0x00000048

20007ec0 <_ZN5ModelD1Ev>:

Model::~Model()
20007ec0:	b580      	push	{r7, lr}
20007ec2:	b082      	sub	sp, #8
20007ec4:	af00      	add	r7, sp, #0
20007ec6:	6078      	str	r0, [r7, #4]
20007ec8:	4a0d      	ldr	r2, [pc, #52]	@ (20007f00 <_ZN5ModelD1Ev+0x40>)
20007eca:	447a      	add	r2, pc
20007ecc:	4b0d      	ldr	r3, [pc, #52]	@ (20007f04 <_ZN5ModelD1Ev+0x44>)
20007ece:	58d3      	ldr	r3, [r2, r3]
20007ed0:	f103 0208 	add.w	r2, r3, #8
20007ed4:	687b      	ldr	r3, [r7, #4]
20007ed6:	601a      	str	r2, [r3, #0]
{
}
20007ed8:	687b      	ldr	r3, [r7, #4]
20007eda:	f503 7304 	add.w	r3, r3, #528	@ 0x210
20007ede:	4618      	mov	r0, r3
20007ee0:	f000 fad4 	bl	2000848c <_ZN14CircularBufferISt7variantIJN8G2SEvent7IsReadyENS1_4QuitEEELj20EED1Ev>
20007ee4:	687b      	ldr	r3, [r7, #4]
20007ee6:	3308      	adds	r3, #8
20007ee8:	4618      	mov	r0, r3
20007eea:	f000 fa5f 	bl	200083ac <_ZN14CircularBufferISt7variantIJN8S2GEvent11DailyHealthEEELj20EED1Ev>
20007eee:	687b      	ldr	r3, [r7, #4]
20007ef0:	4618      	mov	r0, r3
20007ef2:	f7ff ff85 	bl	20007e00 <_ZN9IGUIModelD1Ev>
20007ef6:	687b      	ldr	r3, [r7, #4]
20007ef8:	4618      	mov	r0, r3
20007efa:	3708      	adds	r7, #8
20007efc:	46bd      	mov	sp, r7
20007efe:	bd80      	pop	{r7, pc}
20007f00:	00005a36 	.word	0x00005a36
20007f04:	00000048 	.word	0x00000048

20007f08 <_ZN5ModelD0Ev>:
Model::~Model()
20007f08:	b580      	push	{r7, lr}
20007f0a:	b082      	sub	sp, #8
20007f0c:	af00      	add	r7, sp, #0
20007f0e:	6078      	str	r0, [r7, #4]
}
20007f10:	6878      	ldr	r0, [r7, #4]
20007f12:	f7ff ffd5 	bl	20007ec0 <_ZN5ModelD1Ev>
20007f16:	f44f 7119 	mov.w	r1, #612	@ 0x264
20007f1a:	6878      	ldr	r0, [r7, #4]
20007f1c:	f002 fd0f 	bl	2000a93e <_ZdlPvj>
20007f20:	687b      	ldr	r3, [r7, #4]
20007f22:	4618      	mov	r0, r3
20007f24:	3708      	adds	r7, #8
20007f26:	46bd      	mov	sp, r7
20007f28:	bd80      	pop	{r7, pc}

20007f2a <_ZNSt7variantIJN8S2GEvent11DailyHealthEEEC1Ev>:
      template<typename _Tp>
	static constexpr bool __not_in_place_tag
	  = !__is_in_place_tag<__remove_cvref_t<_Tp>>::value;

    public:
      variant() = default;
20007f2a:	b580      	push	{r7, lr}
20007f2c:	b082      	sub	sp, #8
20007f2e:	af00      	add	r7, sp, #0
20007f30:	6078      	str	r0, [r7, #4]
20007f32:	687b      	ldr	r3, [r7, #4]
20007f34:	4618      	mov	r0, r3
20007f36:	f000 f805 	bl	20007f44 <_ZNSt8__detail9__variant13_Variant_baseIJN8S2GEvent11DailyHealthEEEC2Ev>
20007f3a:	687b      	ldr	r3, [r7, #4]
20007f3c:	4618      	mov	r0, r3
20007f3e:	3708      	adds	r7, #8
20007f40:	46bd      	mov	sp, r7
20007f42:	bd80      	pop	{r7, pc}

20007f44 <_ZNSt8__detail9__variant13_Variant_baseIJN8S2GEvent11DailyHealthEEEC2Ev>:
      _Variant_base() noexcept(_Traits<_Types...>::_S_nothrow_default_ctor)
20007f44:	b580      	push	{r7, lr}
20007f46:	b082      	sub	sp, #8
20007f48:	af00      	add	r7, sp, #0
20007f4a:	6078      	str	r0, [r7, #4]
      : _Variant_base(in_place_index<0>) { }
20007f4c:	4619      	mov	r1, r3
20007f4e:	6878      	ldr	r0, [r7, #4]
20007f50:	f000 f841 	bl	20007fd6 <_ZNSt8__detail9__variant13_Variant_baseIJN8S2GEvent11DailyHealthEEEC1ILj0EJEEESt16in_place_index_tIXT_EEDpOT0_>
20007f54:	687b      	ldr	r3, [r7, #4]
20007f56:	4618      	mov	r0, r3
20007f58:	3708      	adds	r7, #8
20007f5a:	46bd      	mov	sp, r7
20007f5c:	bd80      	pop	{r7, pc}

20007f5e <_ZNSt8__detail9__variant15_Copy_ctor_baseILb1EJN8S2GEvent11DailyHealthEEECI1NS0_16_Variant_storageILb1EJS3_EEEILj0EJEEESt16in_place_index_tIXT_EEDpOT0_>:
      using _Base::_Base;
20007f5e:	b580      	push	{r7, lr}
20007f60:	b082      	sub	sp, #8
20007f62:	af00      	add	r7, sp, #0
20007f64:	6078      	str	r0, [r7, #4]
20007f66:	7039      	strb	r1, [r7, #0]
20007f68:	687b      	ldr	r3, [r7, #4]
20007f6a:	4611      	mov	r1, r2
20007f6c:	4618      	mov	r0, r3
20007f6e:	f000 f841 	bl	20007ff4 <_ZNSt8__detail9__variant16_Variant_storageILb1EJN8S2GEvent11DailyHealthEEEC2ILj0EJEEESt16in_place_index_tIXT_EEDpOT0_>
20007f72:	687b      	ldr	r3, [r7, #4]
20007f74:	4618      	mov	r0, r3
20007f76:	3708      	adds	r7, #8
20007f78:	46bd      	mov	sp, r7
20007f7a:	bd80      	pop	{r7, pc}

20007f7c <_ZNSt8__detail9__variant15_Move_ctor_baseILb1EJN8S2GEvent11DailyHealthEEECI1NS0_16_Variant_storageILb1EJS3_EEEILj0EJEEESt16in_place_index_tIXT_EEDpOT0_>:
      using _Base::_Base;
20007f7c:	b580      	push	{r7, lr}
20007f7e:	b082      	sub	sp, #8
20007f80:	af00      	add	r7, sp, #0
20007f82:	6078      	str	r0, [r7, #4]
20007f84:	7039      	strb	r1, [r7, #0]
20007f86:	687b      	ldr	r3, [r7, #4]
20007f88:	4611      	mov	r1, r2
20007f8a:	4618      	mov	r0, r3
20007f8c:	f7ff ffe7 	bl	20007f5e <_ZNSt8__detail9__variant15_Copy_ctor_baseILb1EJN8S2GEvent11DailyHealthEEECI1NS0_16_Variant_storageILb1EJS3_EEEILj0EJEEESt16in_place_index_tIXT_EEDpOT0_>
20007f90:	687b      	ldr	r3, [r7, #4]
20007f92:	4618      	mov	r0, r3
20007f94:	3708      	adds	r7, #8
20007f96:	46bd      	mov	sp, r7
20007f98:	bd80      	pop	{r7, pc}

20007f9a <_ZNSt8__detail9__variant17_Copy_assign_baseILb1EJN8S2GEvent11DailyHealthEEECI1NS0_16_Variant_storageILb1EJS3_EEEILj0EJEEESt16in_place_index_tIXT_EEDpOT0_>:
      using _Base::_Base;
20007f9a:	b580      	push	{r7, lr}
20007f9c:	b082      	sub	sp, #8
20007f9e:	af00      	add	r7, sp, #0
20007fa0:	6078      	str	r0, [r7, #4]
20007fa2:	7039      	strb	r1, [r7, #0]
20007fa4:	687b      	ldr	r3, [r7, #4]
20007fa6:	4611      	mov	r1, r2
20007fa8:	4618      	mov	r0, r3
20007faa:	f7ff ffe7 	bl	20007f7c <_ZNSt8__detail9__variant15_Move_ctor_baseILb1EJN8S2GEvent11DailyHealthEEECI1NS0_16_Variant_storageILb1EJS3_EEEILj0EJEEESt16in_place_index_tIXT_EEDpOT0_>
20007fae:	687b      	ldr	r3, [r7, #4]
20007fb0:	4618      	mov	r0, r3
20007fb2:	3708      	adds	r7, #8
20007fb4:	46bd      	mov	sp, r7
20007fb6:	bd80      	pop	{r7, pc}

20007fb8 <_ZNSt8__detail9__variant17_Move_assign_baseILb1EJN8S2GEvent11DailyHealthEEECI1NS0_16_Variant_storageILb1EJS3_EEEILj0EJEEESt16in_place_index_tIXT_EEDpOT0_>:
      using _Base::_Base;
20007fb8:	b580      	push	{r7, lr}
20007fba:	b082      	sub	sp, #8
20007fbc:	af00      	add	r7, sp, #0
20007fbe:	6078      	str	r0, [r7, #4]
20007fc0:	7039      	strb	r1, [r7, #0]
20007fc2:	687b      	ldr	r3, [r7, #4]
20007fc4:	4611      	mov	r1, r2
20007fc6:	4618      	mov	r0, r3
20007fc8:	f7ff ffe7 	bl	20007f9a <_ZNSt8__detail9__variant17_Copy_assign_baseILb1EJN8S2GEvent11DailyHealthEEECI1NS0_16_Variant_storageILb1EJS3_EEEILj0EJEEESt16in_place_index_tIXT_EEDpOT0_>
20007fcc:	687b      	ldr	r3, [r7, #4]
20007fce:	4618      	mov	r0, r3
20007fd0:	3708      	adds	r7, #8
20007fd2:	46bd      	mov	sp, r7
20007fd4:	bd80      	pop	{r7, pc}

20007fd6 <_ZNSt8__detail9__variant13_Variant_baseIJN8S2GEvent11DailyHealthEEEC1ILj0EJEEESt16in_place_index_tIXT_EEDpOT0_>:
	_Variant_base(in_place_index_t<_Np> __i, _Args&&... __args)
20007fd6:	b580      	push	{r7, lr}
20007fd8:	b082      	sub	sp, #8
20007fda:	af00      	add	r7, sp, #0
20007fdc:	6078      	str	r0, [r7, #4]
20007fde:	7039      	strb	r1, [r7, #0]
	: _Base(__i, std::forward<_Args>(__args)...)
20007fe0:	687b      	ldr	r3, [r7, #4]
20007fe2:	4611      	mov	r1, r2
20007fe4:	4618      	mov	r0, r3
20007fe6:	f7ff ffe7 	bl	20007fb8 <_ZNSt8__detail9__variant17_Move_assign_baseILb1EJN8S2GEvent11DailyHealthEEECI1NS0_16_Variant_storageILb1EJS3_EEEILj0EJEEESt16in_place_index_tIXT_EEDpOT0_>
	{ }
20007fea:	687b      	ldr	r3, [r7, #4]
20007fec:	4618      	mov	r0, r3
20007fee:	3708      	adds	r7, #8
20007ff0:	46bd      	mov	sp, r7
20007ff2:	bd80      	pop	{r7, pc}

20007ff4 <_ZNSt8__detail9__variant16_Variant_storageILb1EJN8S2GEvent11DailyHealthEEEC2ILj0EJEEESt16in_place_index_tIXT_EEDpOT0_>:
	_Variant_storage(in_place_index_t<_Np>, _Args&&... __args)
20007ff4:	b580      	push	{r7, lr}
20007ff6:	b082      	sub	sp, #8
20007ff8:	af00      	add	r7, sp, #0
20007ffa:	6078      	str	r0, [r7, #4]
20007ffc:	7039      	strb	r1, [r7, #0]
	: _M_u(in_place_index<_Np>, std::forward<_Args>(__args)...),
20007ffe:	687b      	ldr	r3, [r7, #4]
20008000:	4611      	mov	r1, r2
20008002:	4618      	mov	r0, r3
20008004:	f000 f808 	bl	20008018 <_ZNSt8__detail9__variant15_Variadic_unionIJN8S2GEvent11DailyHealthEEEC1IJEEESt16in_place_index_tILj0EEDpOT_>
	_M_index{_Np}
20008008:	687b      	ldr	r3, [r7, #4]
2000800a:	2200      	movs	r2, #0
2000800c:	751a      	strb	r2, [r3, #20]
	{ }
2000800e:	687b      	ldr	r3, [r7, #4]
20008010:	4618      	mov	r0, r3
20008012:	3708      	adds	r7, #8
20008014:	46bd      	mov	sp, r7
20008016:	bd80      	pop	{r7, pc}

20008018 <_ZNSt8__detail9__variant15_Variadic_unionIJN8S2GEvent11DailyHealthEEEC1IJEEESt16in_place_index_tILj0EEDpOT_>:
	_Variadic_union(in_place_index_t<0>, _Args&&... __args)
20008018:	b580      	push	{r7, lr}
2000801a:	b082      	sub	sp, #8
2000801c:	af00      	add	r7, sp, #0
2000801e:	6078      	str	r0, [r7, #4]
20008020:	7039      	strb	r1, [r7, #0]
	: _M_first(in_place_index<0>, std::forward<_Args>(__args)...)
20008022:	687b      	ldr	r3, [r7, #4]
20008024:	4611      	mov	r1, r2
20008026:	4618      	mov	r0, r3
20008028:	f000 f805 	bl	20008036 <_ZNSt8__detail9__variant14_UninitializedIN8S2GEvent11DailyHealthELb1EEC1IJEEESt16in_place_index_tILj0EEDpOT_>
	{ }
2000802c:	687b      	ldr	r3, [r7, #4]
2000802e:	4618      	mov	r0, r3
20008030:	3708      	adds	r7, #8
20008032:	46bd      	mov	sp, r7
20008034:	bd80      	pop	{r7, pc}

20008036 <_ZNSt8__detail9__variant14_UninitializedIN8S2GEvent11DailyHealthELb1EEC1IJEEESt16in_place_index_tILj0EEDpOT_>:
	_Uninitialized(in_place_index_t<0>, _Args&&... __args)
20008036:	b480      	push	{r7}
20008038:	b083      	sub	sp, #12
2000803a:	af00      	add	r7, sp, #0
2000803c:	6078      	str	r0, [r7, #4]
2000803e:	7039      	strb	r1, [r7, #0]
	: _M_storage(std::forward<_Args>(__args)...)
20008040:	687b      	ldr	r3, [r7, #4]
20008042:	461a      	mov	r2, r3
20008044:	2300      	movs	r3, #0
20008046:	6013      	str	r3, [r2, #0]
20008048:	6053      	str	r3, [r2, #4]
2000804a:	6093      	str	r3, [r2, #8]
2000804c:	60d3      	str	r3, [r2, #12]
2000804e:	6113      	str	r3, [r2, #16]
	{ }
20008050:	687b      	ldr	r3, [r7, #4]
20008052:	4618      	mov	r0, r3
20008054:	370c      	adds	r7, #12
20008056:	46bd      	mov	sp, r7
20008058:	f85d 7b04 	ldr.w	r7, [sp], #4
2000805c:	4770      	bx	lr

2000805e <_ZZN5Model14checkS2GEventsEvENKUlRKT_E_clIN8S2GEvent11DailyHealthEEEDaS2_>:
    if (!mS2GQueue.pop(data, 1000)) {
        return;
    }

    if (mGUIHandler) {
        std::visit([this](const auto &event) {
2000805e:	b580      	push	{r7, lr}
20008060:	b082      	sub	sp, #8
20008062:	af00      	add	r7, sp, #0
20008064:	6078      	str	r0, [r7, #4]
20008066:	6039      	str	r1, [r7, #0]
            mGUIHandler->handleEvent(event);
20008068:	687b      	ldr	r3, [r7, #4]
2000806a:	681b      	ldr	r3, [r3, #0]
2000806c:	685b      	ldr	r3, [r3, #4]
2000806e:	681b      	ldr	r3, [r3, #0]
20008070:	3308      	adds	r3, #8
20008072:	681b      	ldr	r3, [r3, #0]
20008074:	687a      	ldr	r2, [r7, #4]
20008076:	6812      	ldr	r2, [r2, #0]
20008078:	6852      	ldr	r2, [r2, #4]
2000807a:	6839      	ldr	r1, [r7, #0]
2000807c:	4610      	mov	r0, r2
2000807e:	4798      	blx	r3
        }, data);
20008080:	bf00      	nop
20008082:	3708      	adds	r7, #8
20008084:	46bd      	mov	sp, r7
20008086:	bd80      	pop	{r7, pc}

20008088 <_ZN5Model14checkS2GEventsEv>:
{
20008088:	b580      	push	{r7, lr}
2000808a:	b08a      	sub	sp, #40	@ 0x28
2000808c:	af00      	add	r7, sp, #0
2000808e:	6078      	str	r0, [r7, #4]
    S2GEvent::Data data {};
20008090:	f107 030c 	add.w	r3, r7, #12
20008094:	2200      	movs	r2, #0
20008096:	601a      	str	r2, [r3, #0]
20008098:	605a      	str	r2, [r3, #4]
2000809a:	609a      	str	r2, [r3, #8]
2000809c:	60da      	str	r2, [r3, #12]
2000809e:	611a      	str	r2, [r3, #16]
200080a0:	615a      	str	r2, [r3, #20]
    if (!mS2GQueue.pop(data, 1000)) {
200080a2:	687b      	ldr	r3, [r7, #4]
200080a4:	3308      	adds	r3, #8
200080a6:	f107 010c 	add.w	r1, r7, #12
200080aa:	f44f 727a 	mov.w	r2, #1000	@ 0x3e8
200080ae:	4618      	mov	r0, r3
200080b0:	f000 fb18 	bl	200086e4 <_ZN14CircularBufferISt7variantIJN8S2GEvent11DailyHealthEEELj20EE3popERS3_m>
200080b4:	4603      	mov	r3, r0
200080b6:	f083 0301 	eor.w	r3, r3, #1
200080ba:	b2db      	uxtb	r3, r3
200080bc:	2b00      	cmp	r3, #0
200080be:	d10e      	bne.n	200080de <_ZN5Model14checkS2GEventsEv+0x56>
    if (mGUIHandler) {
200080c0:	687b      	ldr	r3, [r7, #4]
200080c2:	685b      	ldr	r3, [r3, #4]
200080c4:	2b00      	cmp	r3, #0
200080c6:	d00b      	beq.n	200080e0 <_ZN5Model14checkS2GEventsEv+0x58>
        std::visit([this](const auto &event) {
200080c8:	687b      	ldr	r3, [r7, #4]
200080ca:	627b      	str	r3, [r7, #36]	@ 0x24
200080cc:	f107 020c 	add.w	r2, r7, #12
200080d0:	f107 0324 	add.w	r3, r7, #36	@ 0x24
200080d4:	4611      	mov	r1, r2
200080d6:	4618      	mov	r0, r3
200080d8:	f000 fc1a 	bl	20008910 <_ZSt5visitIZN5Model14checkS2GEventsEvEUlRKT_E_JRSt7variantIJN8S2GEvent11DailyHealthEEEEENSt13invoke_resultIS1_JDpNSt13__conditionalIX21is_lvalue_reference_vIT0_EEE4typeIRNSt19variant_alternativeILj0ENSt16remove_referenceIDTcl4__ascl7declvalISC_EEEEE4typeEE4typeEOSL_EEEE4typeEOS1_DpOSC_>
200080dc:	e000      	b.n	200080e0 <_ZN5Model14checkS2GEventsEv+0x58>
        return;
200080de:	bf00      	nop
    }
}
200080e0:	3728      	adds	r7, #40	@ 0x28
200080e2:	46bd      	mov	sp, r7
200080e4:	bd80      	pop	{r7, pc}

200080e6 <_ZN5Model13sendToServiceERKSt7variantIJN8G2SEvent7IsReadyENS1_4QuitEEE>:

bool Model::sendToService(const G2SEvent::Data& data)
{
200080e6:	b580      	push	{r7, lr}
200080e8:	b082      	sub	sp, #8
200080ea:	af00      	add	r7, sp, #0
200080ec:	6078      	str	r0, [r7, #4]
200080ee:	6039      	str	r1, [r7, #0]
    return mG2SQueue.push(data);
200080f0:	687b      	ldr	r3, [r7, #4]
200080f2:	f503 7304 	add.w	r3, r3, #528	@ 0x210
200080f6:	f04f 32ff 	mov.w	r2, #4294967295
200080fa:	6839      	ldr	r1, [r7, #0]
200080fc:	4618      	mov	r0, r3
200080fe:	f000 fc2b 	bl	20008958 <_ZN14CircularBufferISt7variantIJN8G2SEvent7IsReadyENS1_4QuitEEELj20EE4pushERKS4_m>
20008102:	4603      	mov	r3, r0
}
20008104:	4618      	mov	r0, r3
20008106:	3708      	adds	r7, #8
20008108:	46bd      	mov	sp, r7
2000810a:	bd80      	pop	{r7, pc}

2000810c <_ZNSt7variantIJN8G2SEvent7IsReadyENS0_4QuitEEEC1Ev>:
      variant() = default;
2000810c:	b580      	push	{r7, lr}
2000810e:	b082      	sub	sp, #8
20008110:	af00      	add	r7, sp, #0
20008112:	6078      	str	r0, [r7, #4]
20008114:	687b      	ldr	r3, [r7, #4]
20008116:	4618      	mov	r0, r3
20008118:	f000 f805 	bl	20008126 <_ZNSt8__detail9__variant13_Variant_baseIJN8G2SEvent7IsReadyENS2_4QuitEEEC2Ev>
2000811c:	687b      	ldr	r3, [r7, #4]
2000811e:	4618      	mov	r0, r3
20008120:	3708      	adds	r7, #8
20008122:	46bd      	mov	sp, r7
20008124:	bd80      	pop	{r7, pc}

20008126 <_ZNSt8__detail9__variant13_Variant_baseIJN8G2SEvent7IsReadyENS2_4QuitEEEC2Ev>:
      _Variant_base() noexcept(_Traits<_Types...>::_S_nothrow_default_ctor)
20008126:	b580      	push	{r7, lr}
20008128:	b082      	sub	sp, #8
2000812a:	af00      	add	r7, sp, #0
2000812c:	6078      	str	r0, [r7, #4]
      : _Variant_base(in_place_index<0>) { }
2000812e:	4619      	mov	r1, r3
20008130:	6878      	ldr	r0, [r7, #4]
20008132:	f000 f841 	bl	200081b8 <_ZNSt8__detail9__variant13_Variant_baseIJN8G2SEvent7IsReadyENS2_4QuitEEEC1ILj0EJEEESt16in_place_index_tIXT_EEDpOT0_>
20008136:	687b      	ldr	r3, [r7, #4]
20008138:	4618      	mov	r0, r3
2000813a:	3708      	adds	r7, #8
2000813c:	46bd      	mov	sp, r7
2000813e:	bd80      	pop	{r7, pc}

20008140 <_ZNSt8__detail9__variant15_Copy_ctor_baseILb1EJN8G2SEvent7IsReadyENS2_4QuitEEECI1NS0_16_Variant_storageILb1EJS3_S4_EEEILj0EJEEESt16in_place_index_tIXT_EEDpOT0_>:
      using _Base::_Base;
20008140:	b580      	push	{r7, lr}
20008142:	b082      	sub	sp, #8
20008144:	af00      	add	r7, sp, #0
20008146:	6078      	str	r0, [r7, #4]
20008148:	7039      	strb	r1, [r7, #0]
2000814a:	687b      	ldr	r3, [r7, #4]
2000814c:	4611      	mov	r1, r2
2000814e:	4618      	mov	r0, r3
20008150:	f000 f841 	bl	200081d6 <_ZNSt8__detail9__variant16_Variant_storageILb1EJN8G2SEvent7IsReadyENS2_4QuitEEEC2ILj0EJEEESt16in_place_index_tIXT_EEDpOT0_>
20008154:	687b      	ldr	r3, [r7, #4]
20008156:	4618      	mov	r0, r3
20008158:	3708      	adds	r7, #8
2000815a:	46bd      	mov	sp, r7
2000815c:	bd80      	pop	{r7, pc}

2000815e <_ZNSt8__detail9__variant15_Move_ctor_baseILb1EJN8G2SEvent7IsReadyENS2_4QuitEEECI1NS0_16_Variant_storageILb1EJS3_S4_EEEILj0EJEEESt16in_place_index_tIXT_EEDpOT0_>:
      using _Base::_Base;
2000815e:	b580      	push	{r7, lr}
20008160:	b082      	sub	sp, #8
20008162:	af00      	add	r7, sp, #0
20008164:	6078      	str	r0, [r7, #4]
20008166:	7039      	strb	r1, [r7, #0]
20008168:	687b      	ldr	r3, [r7, #4]
2000816a:	4611      	mov	r1, r2
2000816c:	4618      	mov	r0, r3
2000816e:	f7ff ffe7 	bl	20008140 <_ZNSt8__detail9__variant15_Copy_ctor_baseILb1EJN8G2SEvent7IsReadyENS2_4QuitEEECI1NS0_16_Variant_storageILb1EJS3_S4_EEEILj0EJEEESt16in_place_index_tIXT_EEDpOT0_>
20008172:	687b      	ldr	r3, [r7, #4]
20008174:	4618      	mov	r0, r3
20008176:	3708      	adds	r7, #8
20008178:	46bd      	mov	sp, r7
2000817a:	bd80      	pop	{r7, pc}

2000817c <_ZNSt8__detail9__variant17_Copy_assign_baseILb1EJN8G2SEvent7IsReadyENS2_4QuitEEECI1NS0_16_Variant_storageILb1EJS3_S4_EEEILj0EJEEESt16in_place_index_tIXT_EEDpOT0_>:
      using _Base::_Base;
2000817c:	b580      	push	{r7, lr}
2000817e:	b082      	sub	sp, #8
20008180:	af00      	add	r7, sp, #0
20008182:	6078      	str	r0, [r7, #4]
20008184:	7039      	strb	r1, [r7, #0]
20008186:	687b      	ldr	r3, [r7, #4]
20008188:	4611      	mov	r1, r2
2000818a:	4618      	mov	r0, r3
2000818c:	f7ff ffe7 	bl	2000815e <_ZNSt8__detail9__variant15_Move_ctor_baseILb1EJN8G2SEvent7IsReadyENS2_4QuitEEECI1NS0_16_Variant_storageILb1EJS3_S4_EEEILj0EJEEESt16in_place_index_tIXT_EEDpOT0_>
20008190:	687b      	ldr	r3, [r7, #4]
20008192:	4618      	mov	r0, r3
20008194:	3708      	adds	r7, #8
20008196:	46bd      	mov	sp, r7
20008198:	bd80      	pop	{r7, pc}

2000819a <_ZNSt8__detail9__variant17_Move_assign_baseILb1EJN8G2SEvent7IsReadyENS2_4QuitEEECI1NS0_16_Variant_storageILb1EJS3_S4_EEEILj0EJEEESt16in_place_index_tIXT_EEDpOT0_>:
      using _Base::_Base;
2000819a:	b580      	push	{r7, lr}
2000819c:	b082      	sub	sp, #8
2000819e:	af00      	add	r7, sp, #0
200081a0:	6078      	str	r0, [r7, #4]
200081a2:	7039      	strb	r1, [r7, #0]
200081a4:	687b      	ldr	r3, [r7, #4]
200081a6:	4611      	mov	r1, r2
200081a8:	4618      	mov	r0, r3
200081aa:	f7ff ffe7 	bl	2000817c <_ZNSt8__detail9__variant17_Copy_assign_baseILb1EJN8G2SEvent7IsReadyENS2_4QuitEEECI1NS0_16_Variant_storageILb1EJS3_S4_EEEILj0EJEEESt16in_place_index_tIXT_EEDpOT0_>
200081ae:	687b      	ldr	r3, [r7, #4]
200081b0:	4618      	mov	r0, r3
200081b2:	3708      	adds	r7, #8
200081b4:	46bd      	mov	sp, r7
200081b6:	bd80      	pop	{r7, pc}

200081b8 <_ZNSt8__detail9__variant13_Variant_baseIJN8G2SEvent7IsReadyENS2_4QuitEEEC1ILj0EJEEESt16in_place_index_tIXT_EEDpOT0_>:
	_Variant_base(in_place_index_t<_Np> __i, _Args&&... __args)
200081b8:	b580      	push	{r7, lr}
200081ba:	b082      	sub	sp, #8
200081bc:	af00      	add	r7, sp, #0
200081be:	6078      	str	r0, [r7, #4]
200081c0:	7039      	strb	r1, [r7, #0]
	: _Base(__i, std::forward<_Args>(__args)...)
200081c2:	687b      	ldr	r3, [r7, #4]
200081c4:	4611      	mov	r1, r2
200081c6:	4618      	mov	r0, r3
200081c8:	f7ff ffe7 	bl	2000819a <_ZNSt8__detail9__variant17_Move_assign_baseILb1EJN8G2SEvent7IsReadyENS2_4QuitEEECI1NS0_16_Variant_storageILb1EJS3_S4_EEEILj0EJEEESt16in_place_index_tIXT_EEDpOT0_>
	{ }
200081cc:	687b      	ldr	r3, [r7, #4]
200081ce:	4618      	mov	r0, r3
200081d0:	3708      	adds	r7, #8
200081d2:	46bd      	mov	sp, r7
200081d4:	bd80      	pop	{r7, pc}

200081d6 <_ZNSt8__detail9__variant16_Variant_storageILb1EJN8G2SEvent7IsReadyENS2_4QuitEEEC2ILj0EJEEESt16in_place_index_tIXT_EEDpOT0_>:
	_Variant_storage(in_place_index_t<_Np>, _Args&&... __args)
200081d6:	b580      	push	{r7, lr}
200081d8:	b082      	sub	sp, #8
200081da:	af00      	add	r7, sp, #0
200081dc:	6078      	str	r0, [r7, #4]
200081de:	7039      	strb	r1, [r7, #0]
	: _M_u(in_place_index<_Np>, std::forward<_Args>(__args)...),
200081e0:	687b      	ldr	r3, [r7, #4]
200081e2:	4611      	mov	r1, r2
200081e4:	4618      	mov	r0, r3
200081e6:	f000 f808 	bl	200081fa <_ZNSt8__detail9__variant15_Variadic_unionIJN8G2SEvent7IsReadyENS2_4QuitEEEC1IJEEESt16in_place_index_tILj0EEDpOT_>
	_M_index{_Np}
200081ea:	687b      	ldr	r3, [r7, #4]
200081ec:	2200      	movs	r2, #0
200081ee:	705a      	strb	r2, [r3, #1]
	{ }
200081f0:	687b      	ldr	r3, [r7, #4]
200081f2:	4618      	mov	r0, r3
200081f4:	3708      	adds	r7, #8
200081f6:	46bd      	mov	sp, r7
200081f8:	bd80      	pop	{r7, pc}

200081fa <_ZNSt8__detail9__variant15_Variadic_unionIJN8G2SEvent7IsReadyENS2_4QuitEEEC1IJEEESt16in_place_index_tILj0EEDpOT_>:
	_Variadic_union(in_place_index_t<0>, _Args&&... __args)
200081fa:	b580      	push	{r7, lr}
200081fc:	b082      	sub	sp, #8
200081fe:	af00      	add	r7, sp, #0
20008200:	6078      	str	r0, [r7, #4]
20008202:	7039      	strb	r1, [r7, #0]
	: _M_first(in_place_index<0>, std::forward<_Args>(__args)...)
20008204:	687b      	ldr	r3, [r7, #4]
20008206:	4611      	mov	r1, r2
20008208:	4618      	mov	r0, r3
2000820a:	f000 f805 	bl	20008218 <_ZNSt8__detail9__variant14_UninitializedIN8G2SEvent7IsReadyELb1EEC1IJEEESt16in_place_index_tILj0EEDpOT_>
	{ }
2000820e:	687b      	ldr	r3, [r7, #4]
20008210:	4618      	mov	r0, r3
20008212:	3708      	adds	r7, #8
20008214:	46bd      	mov	sp, r7
20008216:	bd80      	pop	{r7, pc}

20008218 <_ZNSt8__detail9__variant14_UninitializedIN8G2SEvent7IsReadyELb1EEC1IJEEESt16in_place_index_tILj0EEDpOT_>:
	_Uninitialized(in_place_index_t<0>, _Args&&... __args)
20008218:	b480      	push	{r7}
2000821a:	b083      	sub	sp, #12
2000821c:	af00      	add	r7, sp, #0
2000821e:	6078      	str	r0, [r7, #4]
20008220:	7039      	strb	r1, [r7, #0]
	{ }
20008222:	687b      	ldr	r3, [r7, #4]
20008224:	4618      	mov	r0, r3
20008226:	370c      	adds	r7, #12
20008228:	46bd      	mov	sp, r7
2000822a:	f85d 7b04 	ldr.w	r7, [sp], #4
2000822e:	4770      	bx	lr

20008230 <_ZZN5Model14checkG2SEventsEvENKUlRKT_E_clIN8G2SEvent7IsReadyEEEDaS2_>:
    G2SEvent::Data data {};
    if (!mG2SQueue.pop(data, 1000)) {
        return;
    }

    std::visit([this](const auto &event) {
20008230:	b580      	push	{r7, lr}
20008232:	b082      	sub	sp, #8
20008234:	af00      	add	r7, sp, #0
20008236:	6078      	str	r0, [r7, #4]
20008238:	6039      	str	r1, [r7, #0]
        mServiceHandler.handleEvent(event);
2000823a:	687b      	ldr	r3, [r7, #4]
2000823c:	681b      	ldr	r3, [r3, #0]
2000823e:	f8d3 3260 	ldr.w	r3, [r3, #608]	@ 0x260
20008242:	681b      	ldr	r3, [r3, #0]
20008244:	3308      	adds	r3, #8
20008246:	681b      	ldr	r3, [r3, #0]
20008248:	687a      	ldr	r2, [r7, #4]
2000824a:	6812      	ldr	r2, [r2, #0]
2000824c:	f8d2 2260 	ldr.w	r2, [r2, #608]	@ 0x260
20008250:	6839      	ldr	r1, [r7, #0]
20008252:	4610      	mov	r0, r2
20008254:	4798      	blx	r3
    }, data);
20008256:	bf00      	nop
20008258:	3708      	adds	r7, #8
2000825a:	46bd      	mov	sp, r7
2000825c:	bd80      	pop	{r7, pc}

2000825e <_ZN5Model14checkG2SEventsEv>:
{
2000825e:	b580      	push	{r7, lr}
20008260:	b084      	sub	sp, #16
20008262:	af00      	add	r7, sp, #0
20008264:	6078      	str	r0, [r7, #4]
    G2SEvent::Data data {};
20008266:	2300      	movs	r3, #0
20008268:	813b      	strh	r3, [r7, #8]
    if (!mG2SQueue.pop(data, 1000)) {
2000826a:	687b      	ldr	r3, [r7, #4]
2000826c:	f503 7304 	add.w	r3, r3, #528	@ 0x210
20008270:	f107 0108 	add.w	r1, r7, #8
20008274:	f44f 727a 	mov.w	r2, #1000	@ 0x3e8
20008278:	4618      	mov	r0, r3
2000827a:	f000 fbcd 	bl	20008a18 <_ZN14CircularBufferISt7variantIJN8G2SEvent7IsReadyENS1_4QuitEEELj20EE3popERS4_m>
2000827e:	4603      	mov	r3, r0
20008280:	f083 0301 	eor.w	r3, r3, #1
20008284:	b2db      	uxtb	r3, r3
20008286:	2b00      	cmp	r3, #0
20008288:	d10a      	bne.n	200082a0 <_ZN5Model14checkG2SEventsEv+0x42>
    std::visit([this](const auto &event) {
2000828a:	687b      	ldr	r3, [r7, #4]
2000828c:	60fb      	str	r3, [r7, #12]
2000828e:	f107 0208 	add.w	r2, r7, #8
20008292:	f107 030c 	add.w	r3, r7, #12
20008296:	4611      	mov	r1, r2
20008298:	4618      	mov	r0, r3
2000829a:	f000 fd25 	bl	20008ce8 <_ZSt5visitIZN5Model14checkG2SEventsEvEUlRKT_E_JRSt7variantIJN8G2SEvent7IsReadyENS6_4QuitEEEEENSt13invoke_resultIS1_JDpNSt13__conditionalIX21is_lvalue_reference_vIT0_EEE4typeIRNSt19variant_alternativeILj0ENSt16remove_referenceIDTcl4__ascl7declvalISD_EEEEE4typeEE4typeEOSM_EEEE4typeEOS1_DpOSD_>
2000829e:	e000      	b.n	200082a2 <_ZN5Model14checkG2SEventsEv+0x44>
        return;
200082a0:	bf00      	nop
}
200082a2:	3710      	adds	r7, #16
200082a4:	46bd      	mov	sp, r7
200082a6:	bd80      	pop	{r7, pc}

200082a8 <_ZN5Model9sendToGUIERKSt7variantIJN8S2GEvent11DailyHealthEEE>:

bool Model::sendToGUI(const S2GEvent::Data& data)
{
200082a8:	b580      	push	{r7, lr}
200082aa:	b082      	sub	sp, #8
200082ac:	af00      	add	r7, sp, #0
200082ae:	6078      	str	r0, [r7, #4]
200082b0:	6039      	str	r1, [r7, #0]
    return mS2GQueue.push(data);
200082b2:	687b      	ldr	r3, [r7, #4]
200082b4:	3308      	adds	r3, #8
200082b6:	f04f 32ff 	mov.w	r2, #4294967295
200082ba:	6839      	ldr	r1, [r7, #0]
200082bc:	4618      	mov	r0, r3
200082be:	f000 fd37 	bl	20008d30 <_ZN14CircularBufferISt7variantIJN8S2GEvent11DailyHealthEEELj20EE4pushERKS3_m>
200082c2:	4603      	mov	r3, r0
}
200082c4:	4618      	mov	r0, r3
200082c6:	3708      	adds	r7, #8
200082c8:	46bd      	mov	sp, r7
200082ca:	bd80      	pop	{r7, pc}

200082cc <_ZNSt14__shared_countILN9__gnu_cxx12_Lock_policyE0EED1Ev>:
      ~__shared_count() noexcept
200082cc:	b580      	push	{r7, lr}
200082ce:	b082      	sub	sp, #8
200082d0:	af00      	add	r7, sp, #0
200082d2:	6078      	str	r0, [r7, #4]
	if (_M_pi != nullptr)
200082d4:	687b      	ldr	r3, [r7, #4]
200082d6:	681b      	ldr	r3, [r3, #0]
200082d8:	2b00      	cmp	r3, #0
200082da:	d004      	beq.n	200082e6 <_ZNSt14__shared_countILN9__gnu_cxx12_Lock_policyE0EED1Ev+0x1a>
	  _M_pi->_M_release();
200082dc:	687b      	ldr	r3, [r7, #4]
200082de:	681b      	ldr	r3, [r3, #0]
200082e0:	4618      	mov	r0, r3
200082e2:	f7ff fd41 	bl	20007d68 <_ZNSt16_Sp_counted_baseILN9__gnu_cxx12_Lock_policyE0EE10_M_releaseEv>
      }
200082e6:	687b      	ldr	r3, [r7, #4]
200082e8:	4618      	mov	r0, r3
200082ea:	3708      	adds	r7, #8
200082ec:	46bd      	mov	sp, r7
200082ee:	bd80      	pop	{r7, pc}

200082f0 <_ZSt4moveIRSt10shared_ptrIN9Interface6IMutexEEEONSt16remove_referenceIT_E4typeEOS6_>:
   *  @return The parameter cast to an rvalue-reference to allow moving it.
  */
  template<typename _Tp>
    _GLIBCXX_NODISCARD
    constexpr typename std::remove_reference<_Tp>::type&&
    move(_Tp&& __t) noexcept
200082f0:	b480      	push	{r7}
200082f2:	b083      	sub	sp, #12
200082f4:	af00      	add	r7, sp, #0
200082f6:	6078      	str	r0, [r7, #4]
    { return static_cast<typename std::remove_reference<_Tp>::type&&>(__t); }
200082f8:	687b      	ldr	r3, [r7, #4]
200082fa:	4618      	mov	r0, r3
200082fc:	370c      	adds	r7, #12
200082fe:	46bd      	mov	sp, r7
20008300:	f85d 7b04 	ldr.w	r7, [sp], #4
20008304:	4770      	bx	lr

20008306 <_ZNSt12__shared_ptrIN9Interface10ISemaphoreELN9__gnu_cxx12_Lock_policyE0EED1Ev>:
      ~__shared_ptr() = default;
20008306:	b580      	push	{r7, lr}
20008308:	b082      	sub	sp, #8
2000830a:	af00      	add	r7, sp, #0
2000830c:	6078      	str	r0, [r7, #4]
2000830e:	687b      	ldr	r3, [r7, #4]
20008310:	3304      	adds	r3, #4
20008312:	4618      	mov	r0, r3
20008314:	f7ff ffda 	bl	200082cc <_ZNSt14__shared_countILN9__gnu_cxx12_Lock_policyE0EED1Ev>
20008318:	687b      	ldr	r3, [r7, #4]
2000831a:	4618      	mov	r0, r3
2000831c:	3708      	adds	r7, #8
2000831e:	46bd      	mov	sp, r7
20008320:	bd80      	pop	{r7, pc}

20008322 <_ZNSt10shared_ptrIN9Interface10ISemaphoreEED1Ev>:
20008322:	b580      	push	{r7, lr}
20008324:	b082      	sub	sp, #8
20008326:	af00      	add	r7, sp, #0
20008328:	6078      	str	r0, [r7, #4]
2000832a:	687b      	ldr	r3, [r7, #4]
2000832c:	4618      	mov	r0, r3
2000832e:	f7ff ffea 	bl	20008306 <_ZNSt12__shared_ptrIN9Interface10ISemaphoreELN9__gnu_cxx12_Lock_policyE0EED1Ev>
20008332:	687b      	ldr	r3, [r7, #4]
20008334:	4618      	mov	r0, r3
20008336:	3708      	adds	r7, #8
20008338:	46bd      	mov	sp, r7
2000833a:	bd80      	pop	{r7, pc}

2000833c <_ZN14CircularBufferISt7variantIJN8S2GEvent11DailyHealthEEELj20EEC1ERK7IKernel>:
template<typename T, size_t N>
class CircularBuffer {
public:
    using ValueType = T;

    CircularBuffer(const IKernel& kernel)
2000833c:	b580      	push	{r7, lr}
2000833e:	b082      	sub	sp, #8
20008340:	af00      	add	r7, sp, #0
20008342:	6078      	str	r0, [r7, #4]
20008344:	6039      	str	r1, [r7, #0]
20008346:	4a17      	ldr	r2, [pc, #92]	@ (200083a4 <_ZN14CircularBufferISt7variantIJN8S2GEvent11DailyHealthEEELj20EEC1ERK7IKernel+0x68>)
20008348:	447a      	add	r2, pc
        , mMutex{}
        , mNotEmpty{}
        , mNotFull{}
        , mBuffer{}
        , mHead(0)
        , mSize(0)
2000834a:	4b17      	ldr	r3, [pc, #92]	@ (200083a8 <_ZN14CircularBufferISt7variantIJN8S2GEvent11DailyHealthEEELj20EEC1ERK7IKernel+0x6c>)
2000834c:	58d3      	ldr	r3, [r2, r3]
2000834e:	f103 0208 	add.w	r2, r3, #8
20008352:	687b      	ldr	r3, [r7, #4]
20008354:	601a      	str	r2, [r3, #0]
        : mKernel(kernel)
20008356:	687b      	ldr	r3, [r7, #4]
20008358:	683a      	ldr	r2, [r7, #0]
2000835a:	605a      	str	r2, [r3, #4]
        , mMutex{}
2000835c:	687b      	ldr	r3, [r7, #4]
2000835e:	3308      	adds	r3, #8
20008360:	4618      	mov	r0, r3
20008362:	f000 fd7d 	bl	20008e60 <_ZNSt10shared_ptrIN9Interface6IMutexEEC1Ev>
        , mNotEmpty{}
20008366:	687b      	ldr	r3, [r7, #4]
20008368:	3310      	adds	r3, #16
2000836a:	4618      	mov	r0, r3
2000836c:	f000 fd85 	bl	20008e7a <_ZNSt10shared_ptrIN9Interface10ISemaphoreEEC1Ev>
        , mNotFull{}
20008370:	687b      	ldr	r3, [r7, #4]
20008372:	3318      	adds	r3, #24
20008374:	4618      	mov	r0, r3
20008376:	f000 fd80 	bl	20008e7a <_ZNSt10shared_ptrIN9Interface10ISemaphoreEEC1Ev>
        , mBuffer{}
2000837a:	687b      	ldr	r3, [r7, #4]
2000837c:	3320      	adds	r3, #32
2000837e:	f44f 72f0 	mov.w	r2, #480	@ 0x1e0
20008382:	2100      	movs	r1, #0
20008384:	4618      	mov	r0, r3
20008386:	f003 fc6b 	bl	2000bc60 <__memset_veneer>
        , mHead(0)
2000838a:	687b      	ldr	r3, [r7, #4]
2000838c:	2200      	movs	r2, #0
2000838e:	f8c3 2200 	str.w	r2, [r3, #512]	@ 0x200
        , mSize(0)
20008392:	687b      	ldr	r3, [r7, #4]
20008394:	2200      	movs	r2, #0
20008396:	f8c3 2204 	str.w	r2, [r3, #516]	@ 0x204
    {}
2000839a:	687b      	ldr	r3, [r7, #4]
2000839c:	4618      	mov	r0, r3
2000839e:	3708      	adds	r7, #8
200083a0:	46bd      	mov	sp, r7
200083a2:	bd80      	pop	{r7, pc}
200083a4:	000055b8 	.word	0x000055b8
200083a8:	0000001c 	.word	0x0000001c

200083ac <_ZN14CircularBufferISt7variantIJN8S2GEvent11DailyHealthEEELj20EED1Ev>:

    virtual ~CircularBuffer()
200083ac:	b580      	push	{r7, lr}
200083ae:	b082      	sub	sp, #8
200083b0:	af00      	add	r7, sp, #0
200083b2:	6078      	str	r0, [r7, #4]
200083b4:	4a0f      	ldr	r2, [pc, #60]	@ (200083f4 <_ZN14CircularBufferISt7variantIJN8S2GEvent11DailyHealthEEELj20EED1Ev+0x48>)
200083b6:	447a      	add	r2, pc
    {
        deinit();
    }
200083b8:	4b0f      	ldr	r3, [pc, #60]	@ (200083f8 <_ZN14CircularBufferISt7variantIJN8S2GEvent11DailyHealthEEELj20EED1Ev+0x4c>)
200083ba:	58d3      	ldr	r3, [r2, r3]
200083bc:	f103 0208 	add.w	r2, r3, #8
200083c0:	687b      	ldr	r3, [r7, #4]
200083c2:	601a      	str	r2, [r3, #0]
        deinit();
200083c4:	6878      	ldr	r0, [r7, #4]
200083c6:	f000 fd65 	bl	20008e94 <_ZN14CircularBufferISt7variantIJN8S2GEvent11DailyHealthEEELj20EE6deinitEv>
    }
200083ca:	687b      	ldr	r3, [r7, #4]
200083cc:	3318      	adds	r3, #24
200083ce:	4618      	mov	r0, r3
200083d0:	f7ff ffa7 	bl	20008322 <_ZNSt10shared_ptrIN9Interface10ISemaphoreEED1Ev>
200083d4:	687b      	ldr	r3, [r7, #4]
200083d6:	3310      	adds	r3, #16
200083d8:	4618      	mov	r0, r3
200083da:	f7ff ffa2 	bl	20008322 <_ZNSt10shared_ptrIN9Interface10ISemaphoreEED1Ev>
200083de:	687b      	ldr	r3, [r7, #4]
200083e0:	3308      	adds	r3, #8
200083e2:	4618      	mov	r0, r3
200083e4:	f7ff fcfe 	bl	20007de4 <_ZNSt10shared_ptrIN9Interface6IMutexEED1Ev>
200083e8:	687b      	ldr	r3, [r7, #4]
200083ea:	4618      	mov	r0, r3
200083ec:	3708      	adds	r7, #8
200083ee:	46bd      	mov	sp, r7
200083f0:	bd80      	pop	{r7, pc}
200083f2:	bf00      	nop
200083f4:	0000554a 	.word	0x0000554a
200083f8:	0000001c 	.word	0x0000001c

200083fc <_ZN14CircularBufferISt7variantIJN8S2GEvent11DailyHealthEEELj20EED0Ev>:
    virtual ~CircularBuffer()
200083fc:	b580      	push	{r7, lr}
200083fe:	b082      	sub	sp, #8
20008400:	af00      	add	r7, sp, #0
20008402:	6078      	str	r0, [r7, #4]
    }
20008404:	6878      	ldr	r0, [r7, #4]
20008406:	f7ff ffd1 	bl	200083ac <_ZN14CircularBufferISt7variantIJN8S2GEvent11DailyHealthEEELj20EED1Ev>
2000840a:	f44f 7102 	mov.w	r1, #520	@ 0x208
2000840e:	6878      	ldr	r0, [r7, #4]
20008410:	f002 fa95 	bl	2000a93e <_ZdlPvj>
20008414:	687b      	ldr	r3, [r7, #4]
20008416:	4618      	mov	r0, r3
20008418:	3708      	adds	r7, #8
2000841a:	46bd      	mov	sp, r7
2000841c:	bd80      	pop	{r7, pc}
	...

20008420 <_ZN14CircularBufferISt7variantIJN8G2SEvent7IsReadyENS1_4QuitEEELj20EEC1ERK7IKernel>:
    CircularBuffer(const IKernel& kernel)
20008420:	b580      	push	{r7, lr}
20008422:	b082      	sub	sp, #8
20008424:	af00      	add	r7, sp, #0
20008426:	6078      	str	r0, [r7, #4]
20008428:	6039      	str	r1, [r7, #0]
2000842a:	4a16      	ldr	r2, [pc, #88]	@ (20008484 <_ZN14CircularBufferISt7variantIJN8G2SEvent7IsReadyENS1_4QuitEEELj20EEC1ERK7IKernel+0x64>)
2000842c:	447a      	add	r2, pc
        , mSize(0)
2000842e:	4b16      	ldr	r3, [pc, #88]	@ (20008488 <_ZN14CircularBufferISt7variantIJN8G2SEvent7IsReadyENS1_4QuitEEELj20EEC1ERK7IKernel+0x68>)
20008430:	58d3      	ldr	r3, [r2, r3]
20008432:	f103 0208 	add.w	r2, r3, #8
20008436:	687b      	ldr	r3, [r7, #4]
20008438:	601a      	str	r2, [r3, #0]
        : mKernel(kernel)
2000843a:	687b      	ldr	r3, [r7, #4]
2000843c:	683a      	ldr	r2, [r7, #0]
2000843e:	605a      	str	r2, [r3, #4]
        , mMutex{}
20008440:	687b      	ldr	r3, [r7, #4]
20008442:	3308      	adds	r3, #8
20008444:	4618      	mov	r0, r3
20008446:	f000 fd0b 	bl	20008e60 <_ZNSt10shared_ptrIN9Interface6IMutexEEC1Ev>
        , mNotEmpty{}
2000844a:	687b      	ldr	r3, [r7, #4]
2000844c:	3310      	adds	r3, #16
2000844e:	4618      	mov	r0, r3
20008450:	f000 fd13 	bl	20008e7a <_ZNSt10shared_ptrIN9Interface10ISemaphoreEEC1Ev>
        , mNotFull{}
20008454:	687b      	ldr	r3, [r7, #4]
20008456:	3318      	adds	r3, #24
20008458:	4618      	mov	r0, r3
2000845a:	f000 fd0e 	bl	20008e7a <_ZNSt10shared_ptrIN9Interface10ISemaphoreEEC1Ev>
        , mBuffer{}
2000845e:	687b      	ldr	r3, [r7, #4]
20008460:	3320      	adds	r3, #32
20008462:	2228      	movs	r2, #40	@ 0x28
20008464:	2100      	movs	r1, #0
20008466:	4618      	mov	r0, r3
20008468:	f003 fbfa 	bl	2000bc60 <__memset_veneer>
        , mHead(0)
2000846c:	687b      	ldr	r3, [r7, #4]
2000846e:	2200      	movs	r2, #0
20008470:	649a      	str	r2, [r3, #72]	@ 0x48
        , mSize(0)
20008472:	687b      	ldr	r3, [r7, #4]
20008474:	2200      	movs	r2, #0
20008476:	64da      	str	r2, [r3, #76]	@ 0x4c
    {}
20008478:	687b      	ldr	r3, [r7, #4]
2000847a:	4618      	mov	r0, r3
2000847c:	3708      	adds	r7, #8
2000847e:	46bd      	mov	sp, r7
20008480:	bd80      	pop	{r7, pc}
20008482:	bf00      	nop
20008484:	000054d4 	.word	0x000054d4
20008488:	00000014 	.word	0x00000014

2000848c <_ZN14CircularBufferISt7variantIJN8G2SEvent7IsReadyENS1_4QuitEEELj20EED1Ev>:
    virtual ~CircularBuffer()
2000848c:	b580      	push	{r7, lr}
2000848e:	b082      	sub	sp, #8
20008490:	af00      	add	r7, sp, #0
20008492:	6078      	str	r0, [r7, #4]
20008494:	4a0f      	ldr	r2, [pc, #60]	@ (200084d4 <_ZN14CircularBufferISt7variantIJN8G2SEvent7IsReadyENS1_4QuitEEELj20EED1Ev+0x48>)
20008496:	447a      	add	r2, pc
    }
20008498:	4b0f      	ldr	r3, [pc, #60]	@ (200084d8 <_ZN14CircularBufferISt7variantIJN8G2SEvent7IsReadyENS1_4QuitEEELj20EED1Ev+0x4c>)
2000849a:	58d3      	ldr	r3, [r2, r3]
2000849c:	f103 0208 	add.w	r2, r3, #8
200084a0:	687b      	ldr	r3, [r7, #4]
200084a2:	601a      	str	r2, [r3, #0]
        deinit();
200084a4:	6878      	ldr	r0, [r7, #4]
200084a6:	f000 fd13 	bl	20008ed0 <_ZN14CircularBufferISt7variantIJN8G2SEvent7IsReadyENS1_4QuitEEELj20EE6deinitEv>
    }
200084aa:	687b      	ldr	r3, [r7, #4]
200084ac:	3318      	adds	r3, #24
200084ae:	4618      	mov	r0, r3
200084b0:	f7ff ff37 	bl	20008322 <_ZNSt10shared_ptrIN9Interface10ISemaphoreEED1Ev>
200084b4:	687b      	ldr	r3, [r7, #4]
200084b6:	3310      	adds	r3, #16
200084b8:	4618      	mov	r0, r3
200084ba:	f7ff ff32 	bl	20008322 <_ZNSt10shared_ptrIN9Interface10ISemaphoreEED1Ev>
200084be:	687b      	ldr	r3, [r7, #4]
200084c0:	3308      	adds	r3, #8
200084c2:	4618      	mov	r0, r3
200084c4:	f7ff fc8e 	bl	20007de4 <_ZNSt10shared_ptrIN9Interface6IMutexEED1Ev>
200084c8:	687b      	ldr	r3, [r7, #4]
200084ca:	4618      	mov	r0, r3
200084cc:	3708      	adds	r7, #8
200084ce:	46bd      	mov	sp, r7
200084d0:	bd80      	pop	{r7, pc}
200084d2:	bf00      	nop
200084d4:	0000546a 	.word	0x0000546a
200084d8:	00000014 	.word	0x00000014

200084dc <_ZN14CircularBufferISt7variantIJN8G2SEvent7IsReadyENS1_4QuitEEELj20EED0Ev>:
    virtual ~CircularBuffer()
200084dc:	b580      	push	{r7, lr}
200084de:	b082      	sub	sp, #8
200084e0:	af00      	add	r7, sp, #0
200084e2:	6078      	str	r0, [r7, #4]
    }
200084e4:	6878      	ldr	r0, [r7, #4]
200084e6:	f7ff ffd1 	bl	2000848c <_ZN14CircularBufferISt7variantIJN8G2SEvent7IsReadyENS1_4QuitEEELj20EED1Ev>
200084ea:	2150      	movs	r1, #80	@ 0x50
200084ec:	6878      	ldr	r0, [r7, #4]
200084ee:	f002 fa26 	bl	2000a93e <_ZdlPvj>
200084f2:	687b      	ldr	r3, [r7, #4]
200084f4:	4618      	mov	r0, r3
200084f6:	3708      	adds	r7, #8
200084f8:	46bd      	mov	sp, r7
200084fa:	bd80      	pop	{r7, pc}

200084fc <_ZN14CircularBufferISt7variantIJN8S2GEvent11DailyHealthEEELj20EE4initEv>:

    bool init()
200084fc:	b590      	push	{r4, r7, lr}
200084fe:	b089      	sub	sp, #36	@ 0x24
20008500:	af00      	add	r7, sp, #0
20008502:	6078      	str	r0, [r7, #4]
    {
        printf("queue init\n");
20008504:	4b39      	ldr	r3, [pc, #228]	@ (200085ec <_ZN14CircularBufferISt7variantIJN8S2GEvent11DailyHealthEEELj20EE4initEv+0xf0>)
20008506:	447b      	add	r3, pc
20008508:	4618      	mov	r0, r3
2000850a:	f003 fbc1 	bl	2000bc90 <__puts_veneer>
        mMutex    = mKernel.synchManager.createMutex();
2000850e:	687b      	ldr	r3, [r7, #4]
20008510:	685b      	ldr	r3, [r3, #4]
20008512:	69db      	ldr	r3, [r3, #28]
20008514:	681b      	ldr	r3, [r3, #0]
20008516:	3308      	adds	r3, #8
20008518:	681b      	ldr	r3, [r3, #0]
2000851a:	687a      	ldr	r2, [r7, #4]
2000851c:	6852      	ldr	r2, [r2, #4]
2000851e:	69d1      	ldr	r1, [r2, #28]
20008520:	f107 0208 	add.w	r2, r7, #8
20008524:	4610      	mov	r0, r2
20008526:	4798      	blx	r3
20008528:	687b      	ldr	r3, [r7, #4]
2000852a:	3308      	adds	r3, #8
2000852c:	f107 0208 	add.w	r2, r7, #8
20008530:	4611      	mov	r1, r2
20008532:	4618      	mov	r0, r3
20008534:	f000 fcea 	bl	20008f0c <_ZNSt10shared_ptrIN9Interface6IMutexEEaSEOS2_>
20008538:	f107 0308 	add.w	r3, r7, #8
2000853c:	4618      	mov	r0, r3
2000853e:	f7ff fc51 	bl	20007de4 <_ZNSt10shared_ptrIN9Interface6IMutexEED1Ev>
        mNotEmpty = mKernel.synchManager.createSemaphore(N, 0);
20008542:	687b      	ldr	r3, [r7, #4]
20008544:	685b      	ldr	r3, [r3, #4]
20008546:	69db      	ldr	r3, [r3, #28]
20008548:	681b      	ldr	r3, [r3, #0]
2000854a:	330c      	adds	r3, #12
2000854c:	681c      	ldr	r4, [r3, #0]
2000854e:	687b      	ldr	r3, [r7, #4]
20008550:	685b      	ldr	r3, [r3, #4]
20008552:	69d9      	ldr	r1, [r3, #28]
20008554:	f107 0010 	add.w	r0, r7, #16
20008558:	2300      	movs	r3, #0
2000855a:	2214      	movs	r2, #20
2000855c:	47a0      	blx	r4
2000855e:	687b      	ldr	r3, [r7, #4]
20008560:	3310      	adds	r3, #16
20008562:	f107 0210 	add.w	r2, r7, #16
20008566:	4611      	mov	r1, r2
20008568:	4618      	mov	r0, r3
2000856a:	f000 fce2 	bl	20008f32 <_ZNSt10shared_ptrIN9Interface10ISemaphoreEEaSEOS2_>
2000856e:	f107 0310 	add.w	r3, r7, #16
20008572:	4618      	mov	r0, r3
20008574:	f7ff fed5 	bl	20008322 <_ZNSt10shared_ptrIN9Interface10ISemaphoreEED1Ev>
        mNotFull  = mKernel.synchManager.createSemaphore(N, N);
20008578:	687b      	ldr	r3, [r7, #4]
2000857a:	685b      	ldr	r3, [r3, #4]
2000857c:	69db      	ldr	r3, [r3, #28]
2000857e:	681b      	ldr	r3, [r3, #0]
20008580:	330c      	adds	r3, #12
20008582:	681c      	ldr	r4, [r3, #0]
20008584:	687b      	ldr	r3, [r7, #4]
20008586:	685b      	ldr	r3, [r3, #4]
20008588:	69d9      	ldr	r1, [r3, #28]
2000858a:	f107 0018 	add.w	r0, r7, #24
2000858e:	2314      	movs	r3, #20
20008590:	2214      	movs	r2, #20
20008592:	47a0      	blx	r4
20008594:	687b      	ldr	r3, [r7, #4]
20008596:	3318      	adds	r3, #24
20008598:	f107 0218 	add.w	r2, r7, #24
2000859c:	4611      	mov	r1, r2
2000859e:	4618      	mov	r0, r3
200085a0:	f000 fcc7 	bl	20008f32 <_ZNSt10shared_ptrIN9Interface10ISemaphoreEEaSEOS2_>
200085a4:	f107 0318 	add.w	r3, r7, #24
200085a8:	4618      	mov	r0, r3
200085aa:	f7ff feba 	bl	20008322 <_ZNSt10shared_ptrIN9Interface10ISemaphoreEED1Ev>

        return mMutex && mNotEmpty && mNotFull;
200085ae:	687b      	ldr	r3, [r7, #4]
200085b0:	3308      	adds	r3, #8
200085b2:	4618      	mov	r0, r3
200085b4:	f000 fcd0 	bl	20008f58 <_ZNKSt12__shared_ptrIN9Interface6IMutexELN9__gnu_cxx12_Lock_policyE0EEcvbEv>
200085b8:	4603      	mov	r3, r0
200085ba:	2b00      	cmp	r3, #0
200085bc:	d011      	beq.n	200085e2 <_ZN14CircularBufferISt7variantIJN8S2GEvent11DailyHealthEEELj20EE4initEv+0xe6>
200085be:	687b      	ldr	r3, [r7, #4]
200085c0:	3310      	adds	r3, #16
200085c2:	4618      	mov	r0, r3
200085c4:	f000 fcd9 	bl	20008f7a <_ZNKSt12__shared_ptrIN9Interface10ISemaphoreELN9__gnu_cxx12_Lock_policyE0EEcvbEv>
200085c8:	4603      	mov	r3, r0
200085ca:	2b00      	cmp	r3, #0
200085cc:	d009      	beq.n	200085e2 <_ZN14CircularBufferISt7variantIJN8S2GEvent11DailyHealthEEELj20EE4initEv+0xe6>
200085ce:	687b      	ldr	r3, [r7, #4]
200085d0:	3318      	adds	r3, #24
200085d2:	4618      	mov	r0, r3
200085d4:	f000 fcd1 	bl	20008f7a <_ZNKSt12__shared_ptrIN9Interface10ISemaphoreELN9__gnu_cxx12_Lock_policyE0EEcvbEv>
200085d8:	4603      	mov	r3, r0
200085da:	2b00      	cmp	r3, #0
200085dc:	d001      	beq.n	200085e2 <_ZN14CircularBufferISt7variantIJN8S2GEvent11DailyHealthEEELj20EE4initEv+0xe6>
200085de:	2301      	movs	r3, #1
200085e0:	e000      	b.n	200085e4 <_ZN14CircularBufferISt7variantIJN8S2GEvent11DailyHealthEEELj20EE4initEv+0xe8>
200085e2:	2300      	movs	r3, #0
    }
200085e4:	4618      	mov	r0, r3
200085e6:	3724      	adds	r7, #36	@ 0x24
200085e8:	46bd      	mov	sp, r7
200085ea:	bd90      	pop	{r4, r7, pc}
200085ec:	00003966 	.word	0x00003966

200085f0 <_ZN14CircularBufferISt7variantIJN8G2SEvent7IsReadyENS1_4QuitEEELj20EE4initEv>:
    bool init()
200085f0:	b590      	push	{r4, r7, lr}
200085f2:	b089      	sub	sp, #36	@ 0x24
200085f4:	af00      	add	r7, sp, #0
200085f6:	6078      	str	r0, [r7, #4]
        printf("queue init\n");
200085f8:	4b39      	ldr	r3, [pc, #228]	@ (200086e0 <_ZN14CircularBufferISt7variantIJN8G2SEvent7IsReadyENS1_4QuitEEELj20EE4initEv+0xf0>)
200085fa:	447b      	add	r3, pc
200085fc:	4618      	mov	r0, r3
200085fe:	f003 fb47 	bl	2000bc90 <__puts_veneer>
        mMutex    = mKernel.synchManager.createMutex();
20008602:	687b      	ldr	r3, [r7, #4]
20008604:	685b      	ldr	r3, [r3, #4]
20008606:	69db      	ldr	r3, [r3, #28]
20008608:	681b      	ldr	r3, [r3, #0]
2000860a:	3308      	adds	r3, #8
2000860c:	681b      	ldr	r3, [r3, #0]
2000860e:	687a      	ldr	r2, [r7, #4]
20008610:	6852      	ldr	r2, [r2, #4]
20008612:	69d1      	ldr	r1, [r2, #28]
20008614:	f107 0208 	add.w	r2, r7, #8
20008618:	4610      	mov	r0, r2
2000861a:	4798      	blx	r3
2000861c:	687b      	ldr	r3, [r7, #4]
2000861e:	3308      	adds	r3, #8
20008620:	f107 0208 	add.w	r2, r7, #8
20008624:	4611      	mov	r1, r2
20008626:	4618      	mov	r0, r3
20008628:	f000 fc70 	bl	20008f0c <_ZNSt10shared_ptrIN9Interface6IMutexEEaSEOS2_>
2000862c:	f107 0308 	add.w	r3, r7, #8
20008630:	4618      	mov	r0, r3
20008632:	f7ff fbd7 	bl	20007de4 <_ZNSt10shared_ptrIN9Interface6IMutexEED1Ev>
        mNotEmpty = mKernel.synchManager.createSemaphore(N, 0);
20008636:	687b      	ldr	r3, [r7, #4]
20008638:	685b      	ldr	r3, [r3, #4]
2000863a:	69db      	ldr	r3, [r3, #28]
2000863c:	681b      	ldr	r3, [r3, #0]
2000863e:	330c      	adds	r3, #12
20008640:	681c      	ldr	r4, [r3, #0]
20008642:	687b      	ldr	r3, [r7, #4]
20008644:	685b      	ldr	r3, [r3, #4]
20008646:	69d9      	ldr	r1, [r3, #28]
20008648:	f107 0010 	add.w	r0, r7, #16
2000864c:	2300      	movs	r3, #0
2000864e:	2214      	movs	r2, #20
20008650:	47a0      	blx	r4
20008652:	687b      	ldr	r3, [r7, #4]
20008654:	3310      	adds	r3, #16
20008656:	f107 0210 	add.w	r2, r7, #16
2000865a:	4611      	mov	r1, r2
2000865c:	4618      	mov	r0, r3
2000865e:	f000 fc68 	bl	20008f32 <_ZNSt10shared_ptrIN9Interface10ISemaphoreEEaSEOS2_>
20008662:	f107 0310 	add.w	r3, r7, #16
20008666:	4618      	mov	r0, r3
20008668:	f7ff fe5b 	bl	20008322 <_ZNSt10shared_ptrIN9Interface10ISemaphoreEED1Ev>
        mNotFull  = mKernel.synchManager.createSemaphore(N, N);
2000866c:	687b      	ldr	r3, [r7, #4]
2000866e:	685b      	ldr	r3, [r3, #4]
20008670:	69db      	ldr	r3, [r3, #28]
20008672:	681b      	ldr	r3, [r3, #0]
20008674:	330c      	adds	r3, #12
20008676:	681c      	ldr	r4, [r3, #0]
20008678:	687b      	ldr	r3, [r7, #4]
2000867a:	685b      	ldr	r3, [r3, #4]
2000867c:	69d9      	ldr	r1, [r3, #28]
2000867e:	f107 0018 	add.w	r0, r7, #24
20008682:	2314      	movs	r3, #20
20008684:	2214      	movs	r2, #20
20008686:	47a0      	blx	r4
20008688:	687b      	ldr	r3, [r7, #4]
2000868a:	3318      	adds	r3, #24
2000868c:	f107 0218 	add.w	r2, r7, #24
20008690:	4611      	mov	r1, r2
20008692:	4618      	mov	r0, r3
20008694:	f000 fc4d 	bl	20008f32 <_ZNSt10shared_ptrIN9Interface10ISemaphoreEEaSEOS2_>
20008698:	f107 0318 	add.w	r3, r7, #24
2000869c:	4618      	mov	r0, r3
2000869e:	f7ff fe40 	bl	20008322 <_ZNSt10shared_ptrIN9Interface10ISemaphoreEED1Ev>
        return mMutex && mNotEmpty && mNotFull;
200086a2:	687b      	ldr	r3, [r7, #4]
200086a4:	3308      	adds	r3, #8
200086a6:	4618      	mov	r0, r3
200086a8:	f000 fc56 	bl	20008f58 <_ZNKSt12__shared_ptrIN9Interface6IMutexELN9__gnu_cxx12_Lock_policyE0EEcvbEv>
200086ac:	4603      	mov	r3, r0
200086ae:	2b00      	cmp	r3, #0
200086b0:	d011      	beq.n	200086d6 <_ZN14CircularBufferISt7variantIJN8G2SEvent7IsReadyENS1_4QuitEEELj20EE4initEv+0xe6>
200086b2:	687b      	ldr	r3, [r7, #4]
200086b4:	3310      	adds	r3, #16
200086b6:	4618      	mov	r0, r3
200086b8:	f000 fc5f 	bl	20008f7a <_ZNKSt12__shared_ptrIN9Interface10ISemaphoreELN9__gnu_cxx12_Lock_policyE0EEcvbEv>
200086bc:	4603      	mov	r3, r0
200086be:	2b00      	cmp	r3, #0
200086c0:	d009      	beq.n	200086d6 <_ZN14CircularBufferISt7variantIJN8G2SEvent7IsReadyENS1_4QuitEEELj20EE4initEv+0xe6>
200086c2:	687b      	ldr	r3, [r7, #4]
200086c4:	3318      	adds	r3, #24
200086c6:	4618      	mov	r0, r3
200086c8:	f000 fc57 	bl	20008f7a <_ZNKSt12__shared_ptrIN9Interface10ISemaphoreELN9__gnu_cxx12_Lock_policyE0EEcvbEv>
200086cc:	4603      	mov	r3, r0
200086ce:	2b00      	cmp	r3, #0
200086d0:	d001      	beq.n	200086d6 <_ZN14CircularBufferISt7variantIJN8G2SEvent7IsReadyENS1_4QuitEEELj20EE4initEv+0xe6>
200086d2:	2301      	movs	r3, #1
200086d4:	e000      	b.n	200086d8 <_ZN14CircularBufferISt7variantIJN8G2SEvent7IsReadyENS1_4QuitEEELj20EE4initEv+0xe8>
200086d6:	2300      	movs	r3, #0
    }
200086d8:	4618      	mov	r0, r3
200086da:	3724      	adds	r7, #36	@ 0x24
200086dc:	46bd      	mov	sp, r7
200086de:	bd90      	pop	{r4, r7, pc}
200086e0:	00003872 	.word	0x00003872

200086e4 <_ZN14CircularBufferISt7variantIJN8S2GEvent11DailyHealthEEELj20EE3popERS3_m>:
        mNotEmpty->give();

        return true;
    }

    bool pop(T &item, uint32_t timeout = 0xFFFFFFFF)
200086e4:	b5b0      	push	{r4, r5, r7, lr}
200086e6:	b08a      	sub	sp, #40	@ 0x28
200086e8:	af00      	add	r7, sp, #0
200086ea:	60f8      	str	r0, [r7, #12]
200086ec:	60b9      	str	r1, [r7, #8]
200086ee:	607a      	str	r2, [r7, #4]
    {
        if (!mNotEmpty->take(timeout)) {
200086f0:	68fb      	ldr	r3, [r7, #12]
200086f2:	3310      	adds	r3, #16
200086f4:	4618      	mov	r0, r3
200086f6:	f000 fc51 	bl	20008f9c <_ZNKSt19__shared_ptr_accessIN9Interface10ISemaphoreELN9__gnu_cxx12_Lock_policyE0ELb0ELb0EEptEv>
200086fa:	4603      	mov	r3, r0
200086fc:	681a      	ldr	r2, [r3, #0]
200086fe:	3208      	adds	r2, #8
20008700:	6812      	ldr	r2, [r2, #0]
20008702:	6879      	ldr	r1, [r7, #4]
20008704:	4618      	mov	r0, r3
20008706:	4790      	blx	r2
20008708:	4603      	mov	r3, r0
2000870a:	f083 0301 	eor.w	r3, r3, #1
2000870e:	b2db      	uxtb	r3, r3
20008710:	2b00      	cmp	r3, #0
20008712:	d001      	beq.n	20008718 <_ZN14CircularBufferISt7variantIJN8S2GEvent11DailyHealthEEELj20EE3popERS3_m+0x34>
            return false;
20008714:	2300      	movs	r3, #0
20008716:	e079      	b.n	2000880c <_ZN14CircularBufferISt7variantIJN8S2GEvent11DailyHealthEEELj20EE3popERS3_m+0x128>
        }

        mMutex->lock();
20008718:	68fb      	ldr	r3, [r7, #12]
2000871a:	3308      	adds	r3, #8
2000871c:	4618      	mov	r0, r3
2000871e:	f000 fc49 	bl	20008fb4 <_ZNKSt19__shared_ptr_accessIN9Interface6IMutexELN9__gnu_cxx12_Lock_policyE0ELb0ELb0EEptEv>
20008722:	4603      	mov	r3, r0
20008724:	681a      	ldr	r2, [r3, #0]
20008726:	3208      	adds	r2, #8
20008728:	6812      	ldr	r2, [r2, #0]
2000872a:	4618      	mov	r0, r3
2000872c:	4790      	blx	r2
        item = std::move(mBuffer[mHead]);
2000872e:	68fb      	ldr	r3, [r7, #12]
20008730:	f103 0220 	add.w	r2, r3, #32
20008734:	68fb      	ldr	r3, [r7, #12]
20008736:	f8d3 3200 	ldr.w	r3, [r3, #512]	@ 0x200
2000873a:	4619      	mov	r1, r3
2000873c:	4610      	mov	r0, r2
2000873e:	f000 fc45 	bl	20008fcc <_ZNSt5arrayISt7variantIJN8S2GEvent11DailyHealthEEELj20EEixEj>
20008742:	4603      	mov	r3, r0
20008744:	4618      	mov	r0, r3
20008746:	f000 fc53 	bl	20008ff0 <_ZSt4moveIRSt7variantIJN8S2GEvent11DailyHealthEEEEONSt16remove_referenceIT_E4typeEOS6_>
2000874a:	4602      	mov	r2, r0
2000874c:	68bb      	ldr	r3, [r7, #8]
2000874e:	6811      	ldr	r1, [r2, #0]
20008750:	6855      	ldr	r5, [r2, #4]
20008752:	6894      	ldr	r4, [r2, #8]
20008754:	68d0      	ldr	r0, [r2, #12]
20008756:	6019      	str	r1, [r3, #0]
20008758:	605d      	str	r5, [r3, #4]
2000875a:	609c      	str	r4, [r3, #8]
2000875c:	60d8      	str	r0, [r3, #12]
2000875e:	6911      	ldr	r1, [r2, #16]
20008760:	6119      	str	r1, [r3, #16]
20008762:	7d12      	ldrb	r2, [r2, #20]
20008764:	751a      	strb	r2, [r3, #20]
        mBuffer[mHead] = T {};
20008766:	f107 0310 	add.w	r3, r7, #16
2000876a:	2200      	movs	r2, #0
2000876c:	601a      	str	r2, [r3, #0]
2000876e:	605a      	str	r2, [r3, #4]
20008770:	609a      	str	r2, [r3, #8]
20008772:	60da      	str	r2, [r3, #12]
20008774:	611a      	str	r2, [r3, #16]
20008776:	615a      	str	r2, [r3, #20]
20008778:	f107 0310 	add.w	r3, r7, #16
2000877c:	4618      	mov	r0, r3
2000877e:	f7ff fbd4 	bl	20007f2a <_ZNSt7variantIJN8S2GEvent11DailyHealthEEEC1Ev>
20008782:	68fb      	ldr	r3, [r7, #12]
20008784:	f103 0220 	add.w	r2, r3, #32
20008788:	68fb      	ldr	r3, [r7, #12]
2000878a:	f8d3 3200 	ldr.w	r3, [r3, #512]	@ 0x200
2000878e:	4619      	mov	r1, r3
20008790:	4610      	mov	r0, r2
20008792:	f000 fc1b 	bl	20008fcc <_ZNSt5arrayISt7variantIJN8S2GEvent11DailyHealthEEELj20EEixEj>
20008796:	4603      	mov	r3, r0
20008798:	461d      	mov	r5, r3
2000879a:	f107 0410 	add.w	r4, r7, #16
2000879e:	cc0f      	ldmia	r4!, {r0, r1, r2, r3}
200087a0:	6028      	str	r0, [r5, #0]
200087a2:	6069      	str	r1, [r5, #4]
200087a4:	60aa      	str	r2, [r5, #8]
200087a6:	60eb      	str	r3, [r5, #12]
200087a8:	6820      	ldr	r0, [r4, #0]
200087aa:	6128      	str	r0, [r5, #16]
200087ac:	7923      	ldrb	r3, [r4, #4]
200087ae:	752b      	strb	r3, [r5, #20]
        mHead = (mHead + 1) % N;
200087b0:	68fb      	ldr	r3, [r7, #12]
200087b2:	f8d3 3200 	ldr.w	r3, [r3, #512]	@ 0x200
200087b6:	1c59      	adds	r1, r3, #1
200087b8:	4b16      	ldr	r3, [pc, #88]	@ (20008814 <_ZN14CircularBufferISt7variantIJN8S2GEvent11DailyHealthEEELj20EE3popERS3_m+0x130>)
200087ba:	fba3 2301 	umull	r2, r3, r3, r1
200087be:	091a      	lsrs	r2, r3, #4
200087c0:	4613      	mov	r3, r2
200087c2:	009b      	lsls	r3, r3, #2
200087c4:	4413      	add	r3, r2
200087c6:	009b      	lsls	r3, r3, #2
200087c8:	1aca      	subs	r2, r1, r3
200087ca:	68fb      	ldr	r3, [r7, #12]
200087cc:	f8c3 2200 	str.w	r2, [r3, #512]	@ 0x200
        --mSize;
200087d0:	68fb      	ldr	r3, [r7, #12]
200087d2:	f8d3 3204 	ldr.w	r3, [r3, #516]	@ 0x204
200087d6:	1e5a      	subs	r2, r3, #1
200087d8:	68fb      	ldr	r3, [r7, #12]
200087da:	f8c3 2204 	str.w	r2, [r3, #516]	@ 0x204

        mMutex->unLock();
200087de:	68fb      	ldr	r3, [r7, #12]
200087e0:	3308      	adds	r3, #8
200087e2:	4618      	mov	r0, r3
200087e4:	f000 fbe6 	bl	20008fb4 <_ZNKSt19__shared_ptr_accessIN9Interface6IMutexELN9__gnu_cxx12_Lock_policyE0ELb0ELb0EEptEv>
200087e8:	4603      	mov	r3, r0
200087ea:	681a      	ldr	r2, [r3, #0]
200087ec:	320c      	adds	r2, #12
200087ee:	6812      	ldr	r2, [r2, #0]
200087f0:	4618      	mov	r0, r3
200087f2:	4790      	blx	r2
        mNotFull->give();
200087f4:	68fb      	ldr	r3, [r7, #12]
200087f6:	3318      	adds	r3, #24
200087f8:	4618      	mov	r0, r3
200087fa:	f000 fbcf 	bl	20008f9c <_ZNKSt19__shared_ptr_accessIN9Interface10ISemaphoreELN9__gnu_cxx12_Lock_policyE0ELb0ELb0EEptEv>
200087fe:	4603      	mov	r3, r0
20008800:	681a      	ldr	r2, [r3, #0]
20008802:	320c      	adds	r2, #12
20008804:	6812      	ldr	r2, [r2, #0]
20008806:	4618      	mov	r0, r3
20008808:	4790      	blx	r2

        return true;
2000880a:	2301      	movs	r3, #1
    }
2000880c:	4618      	mov	r0, r3
2000880e:	3728      	adds	r7, #40	@ 0x28
20008810:	46bd      	mov	sp, r7
20008812:	bdb0      	pop	{r4, r5, r7, pc}
20008814:	cccccccd 	.word	0xcccccccd

20008818 <_ZZSt10__do_visitINSt8__detail9__variant21__deduce_visit_resultIvEEZN5Model14checkS2GEventsEvEUlRKT_E_JRSt7variantIJN8S2GEvent11DailyHealthEEEEEDcOT0_DpOT1_ENKUlSD_zE_clESD_z>:
	    }
	  else // We have a single variant with a small number of alternatives.
	    {
	      // A name for the first variant in the pack.
	      _V0& __v0
		= [](_V0& __v, ...) -> _V0& { return __v; }(__variants...);
20008818:	b40e      	push	{r1, r2, r3}
2000881a:	b480      	push	{r7}
2000881c:	b082      	sub	sp, #8
2000881e:	af00      	add	r7, sp, #0
20008820:	6078      	str	r0, [r7, #4]
20008822:	68fb      	ldr	r3, [r7, #12]
20008824:	4618      	mov	r0, r3
20008826:	3708      	adds	r7, #8
20008828:	46bd      	mov	sp, r7
2000882a:	f85d 7b04 	ldr.w	r7, [sp], #4
2000882e:	b003      	add	sp, #12
20008830:	4770      	bx	lr

20008832 <_ZNSt8__detail9__variant7__get_nILj0ERNS0_15_Variadic_unionIJN8S2GEvent11DailyHealthEEEEEEDcOT0_>:
    __get_n(_Union&& __u) noexcept
20008832:	b580      	push	{r7, lr}
20008834:	b082      	sub	sp, #8
20008836:	af00      	add	r7, sp, #0
20008838:	6078      	str	r0, [r7, #4]
	return std::forward<_Union>(__u)._M_first._M_get();
2000883a:	6878      	ldr	r0, [r7, #4]
2000883c:	f000 fc2b 	bl	20009096 <_ZSt7forwardIRNSt8__detail9__variant15_Variadic_unionIJN8S2GEvent11DailyHealthEEEEEOT_RNSt16remove_referenceIS7_E4typeE>
20008840:	4603      	mov	r3, r0
20008842:	4618      	mov	r0, r3
20008844:	f000 fc32 	bl	200090ac <_ZNRSt8__detail9__variant14_UninitializedIN8S2GEvent11DailyHealthELb1EE6_M_getEv>
20008848:	4603      	mov	r3, r0
    }
2000884a:	4618      	mov	r0, r3
2000884c:	3708      	adds	r7, #8
2000884e:	46bd      	mov	sp, r7
20008850:	bd80      	pop	{r7, pc}

20008852 <_ZNSt8__detail9__variant5__getILj0ERSt7variantIJN8S2GEvent11DailyHealthEEEEEDcOT0_>:
    __get(_Variant&& __v) noexcept
20008852:	b580      	push	{r7, lr}
20008854:	b082      	sub	sp, #8
20008856:	af00      	add	r7, sp, #0
20008858:	6078      	str	r0, [r7, #4]
    { return __variant::__get_n<_Np>(std::forward<_Variant>(__v)._M_u); }
2000885a:	6878      	ldr	r0, [r7, #4]
2000885c:	f000 fc05 	bl	2000906a <_ZSt7forwardIRSt7variantIJN8S2GEvent11DailyHealthEEEEOT_RNSt16remove_referenceIS5_E4typeE>
20008860:	4603      	mov	r3, r0
20008862:	4618      	mov	r0, r3
20008864:	f7ff ffe5 	bl	20008832 <_ZNSt8__detail9__variant7__get_nILj0ERNS0_15_Variadic_unionIJN8S2GEvent11DailyHealthEEEEEEDcOT0_>
20008868:	4603      	mov	r3, r0
2000886a:	4618      	mov	r0, r3
2000886c:	3708      	adds	r7, #8
2000886e:	46bd      	mov	sp, r7
20008870:	bd80      	pop	{r7, pc}

20008872 <_ZNSt8__detail9__variant17__gen_vtable_implINS0_12_Multi_arrayIPFNS0_21__deduce_visit_resultIvEEOZN5Model14checkS2GEventsEvEUlRKT_E_RSt7variantIJN8S2GEvent11DailyHealthEEEEJEEESt16integer_sequenceIjJLj0EEEE28__element_by_index_or_cookieILj0ESF_EEDcOT0_>:
	__element_by_index_or_cookie(_Variant&& __var) noexcept
20008872:	b580      	push	{r7, lr}
20008874:	b082      	sub	sp, #8
20008876:	af00      	add	r7, sp, #0
20008878:	6078      	str	r0, [r7, #4]
	    return __variant::__get<__index>(std::forward<_Variant>(__var));
2000887a:	6878      	ldr	r0, [r7, #4]
2000887c:	f000 fbf5 	bl	2000906a <_ZSt7forwardIRSt7variantIJN8S2GEvent11DailyHealthEEEEOT_RNSt16remove_referenceIS5_E4typeE>
20008880:	4603      	mov	r3, r0
20008882:	4618      	mov	r0, r3
20008884:	f7ff ffe5 	bl	20008852 <_ZNSt8__detail9__variant5__getILj0ERSt7variantIJN8S2GEvent11DailyHealthEEEEEDcOT0_>
20008888:	4603      	mov	r3, r0
	}
2000888a:	4618      	mov	r0, r3
2000888c:	3708      	adds	r7, #8
2000888e:	46bd      	mov	sp, r7
20008890:	bd80      	pop	{r7, pc}

20008892 <_ZNSt8__detail9__variant17__gen_vtable_implINS0_12_Multi_arrayIPFNS0_21__deduce_visit_resultIvEEOZN5Model14checkS2GEventsEvEUlRKT_E_RSt7variantIJN8S2GEvent11DailyHealthEEEEJEEESt16integer_sequenceIjJLj0EEEE14__visit_invokeESA_SF_>:
      __visit_invoke(_Visitor&& __visitor, _Variants... __vars)
20008892:	b590      	push	{r4, r7, lr}
20008894:	b083      	sub	sp, #12
20008896:	af00      	add	r7, sp, #0
20008898:	6078      	str	r0, [r7, #4]
2000889a:	6039      	str	r1, [r7, #0]
	  return std::__invoke(std::forward<_Visitor>(__visitor),
2000889c:	6878      	ldr	r0, [r7, #4]
2000889e:	f000 fbef 	bl	20009080 <_ZSt7forwardIOZN5Model14checkS2GEventsEvEUlRKT_E_EOS1_RNSt16remove_referenceIS1_E4typeE>
200088a2:	4604      	mov	r4, r0
200088a4:	6838      	ldr	r0, [r7, #0]
200088a6:	f000 fbe0 	bl	2000906a <_ZSt7forwardIRSt7variantIJN8S2GEvent11DailyHealthEEEEOT_RNSt16remove_referenceIS5_E4typeE>
200088aa:	4603      	mov	r3, r0
200088ac:	4618      	mov	r0, r3
200088ae:	f7ff ffe0 	bl	20008872 <_ZNSt8__detail9__variant17__gen_vtable_implINS0_12_Multi_arrayIPFNS0_21__deduce_visit_resultIvEEOZN5Model14checkS2GEventsEvEUlRKT_E_RSt7variantIJN8S2GEvent11DailyHealthEEEEJEEESt16integer_sequenceIjJLj0EEEE28__element_by_index_or_cookieILj0ESF_EEDcOT0_>
200088b2:	4603      	mov	r3, r0
200088b4:	4619      	mov	r1, r3
200088b6:	4620      	mov	r0, r4
200088b8:	f000 fc03 	bl	200090c2 <_ZSt8__invokeIZN5Model14checkS2GEventsEvEUlRKT_E_JRN8S2GEvent11DailyHealthEEENSt15__invoke_resultIS1_JDpT0_EE4typeEOS1_DpOS9_>
		std::forward<_Variants>(__vars))...);
200088bc:	bf00      	nop
      }
200088be:	370c      	adds	r7, #12
200088c0:	46bd      	mov	sp, r7
200088c2:	bd90      	pop	{r4, r7, pc}

200088c4 <_ZSt10__do_visitINSt8__detail9__variant21__deduce_visit_resultIvEEZN5Model14checkS2GEventsEvEUlRKT_E_JRSt7variantIJN8S2GEvent11DailyHealthEEEEEDcOT0_DpOT1_>:
    __do_visit(_Visitor&& __visitor, _Variants&&... __variants)
200088c4:	b590      	push	{r4, r7, lr}
200088c6:	b087      	sub	sp, #28
200088c8:	af00      	add	r7, sp, #0
200088ca:	6078      	str	r0, [r7, #4]
200088cc:	6039      	str	r1, [r7, #0]
	  constexpr size_t __max = 11; // "These go to eleven."
200088ce:	230b      	movs	r3, #11
200088d0:	617b      	str	r3, [r7, #20]
	  constexpr auto __n = variant_size_v<remove_reference_t<_V0>>;
200088d2:	2301      	movs	r3, #1
200088d4:	613b      	str	r3, [r7, #16]
		= [](_V0& __v, ...) -> _V0& { return __v; }(__variants...);
200088d6:	f107 0308 	add.w	r3, r7, #8
200088da:	6839      	ldr	r1, [r7, #0]
200088dc:	4618      	mov	r0, r3
200088de:	f7ff ff9b 	bl	20008818 <_ZZSt10__do_visitINSt8__detail9__variant21__deduce_visit_resultIvEEZN5Model14checkS2GEventsEvEUlRKT_E_JRSt7variantIJN8S2GEvent11DailyHealthEEEEEDcOT0_DpOT1_ENKUlSD_zE_clESD_z>
200088e2:	60f8      	str	r0, [r7, #12]
			 std::forward<_V0>(__v0));		\
      }									\
    else _GLIBCXX_VISIT_UNREACHABLE();					\
  }

	      switch (__v0.index())
200088e4:	68f8      	ldr	r0, [r7, #12]
200088e6:	f000 fbb4 	bl	20009052 <_ZNKSt7variantIJN8S2GEvent11DailyHealthEEE5indexEv>
200088ea:	4603      	mov	r3, r0
200088ec:	2b00      	cmp	r3, #0
200088ee:	d10c      	bne.n	2000890a <_ZSt10__do_visitINSt8__detail9__variant21__deduce_visit_resultIvEEZN5Model14checkS2GEventsEvEUlRKT_E_JRSt7variantIJN8S2GEvent11DailyHealthEEEEEDcOT0_DpOT1_+0x46>
		{
		  _GLIBCXX_VISIT_CASE(0)
200088f0:	6878      	ldr	r0, [r7, #4]
200088f2:	f000 fba3 	bl	2000903c <_ZSt7forwardIZN5Model14checkS2GEventsEvEUlRKT_E_EOS1_RNSt16remove_referenceIS1_E4typeE>
200088f6:	4604      	mov	r4, r0
200088f8:	68f8      	ldr	r0, [r7, #12]
200088fa:	f000 fbb6 	bl	2000906a <_ZSt7forwardIRSt7variantIJN8S2GEvent11DailyHealthEEEEOT_RNSt16remove_referenceIS5_E4typeE>
200088fe:	4603      	mov	r3, r0
20008900:	4619      	mov	r1, r3
20008902:	4620      	mov	r0, r4
20008904:	f7ff ffc5 	bl	20008892 <_ZNSt8__detail9__variant17__gen_vtable_implINS0_12_Multi_arrayIPFNS0_21__deduce_visit_resultIvEEOZN5Model14checkS2GEventsEvEUlRKT_E_RSt7variantIJN8S2GEvent11DailyHealthEEEEJEEESt16integer_sequenceIjJLj0EEEE14__visit_invokeESA_SF_>
20008908:	e7ff      	b.n	2000890a <_ZSt10__do_visitINSt8__detail9__variant21__deduce_visit_resultIvEEZN5Model14checkS2GEventsEvEUlRKT_E_JRSt7variantIJN8S2GEvent11DailyHealthEEEEEDcOT0_DpOT1_+0x46>
		}
#undef _GLIBCXX_VISIT_CASE
#undef _GLIBCXX_VISIT_UNREACHABLE
	    }
	}
    }
2000890a:	371c      	adds	r7, #28
2000890c:	46bd      	mov	sp, r7
2000890e:	bd90      	pop	{r4, r7, pc}

20008910 <_ZSt5visitIZN5Model14checkS2GEventsEvEUlRKT_E_JRSt7variantIJN8S2GEvent11DailyHealthEEEEENSt13invoke_resultIS1_JDpNSt13__conditionalIX21is_lvalue_reference_vIT0_EEE4typeIRNSt19variant_alternativeILj0ENSt16remove_referenceIDTcl4__ascl7declvalISC_EEEEE4typeEE4typeEOSL_EEEE4typeEOS1_DpOSC_>:
  /// @endcond

  template<typename _Visitor, typename... _Variants>
    constexpr __detail::__variant::__visit_result_t<_Visitor, _Variants...>
    visit(_Visitor&& __visitor, _Variants&&... __variants)
20008910:	b580      	push	{r7, lr}
20008912:	b084      	sub	sp, #16
20008914:	af00      	add	r7, sp, #0
20008916:	6078      	str	r0, [r7, #4]
20008918:	6039      	str	r1, [r7, #0]
    {
      namespace __variant = std::__detail::__variant;

      if ((__variant::__as(__variants).valueless_by_exception() || ...))
2000891a:	6838      	ldr	r0, [r7, #0]
2000891c:	f000 fb73 	bl	20009006 <_ZNSt8__detail9__variant4__asIJN8S2GEvent11DailyHealthEEEERSt7variantIJDpT_EES8_>
20008920:	4603      	mov	r3, r0
20008922:	4618      	mov	r0, r3
20008924:	f000 fb7a 	bl	2000901c <_ZNKSt7variantIJN8S2GEvent11DailyHealthEEE22valueless_by_exceptionEv>
20008928:	4603      	mov	r3, r0
2000892a:	2b00      	cmp	r3, #0
2000892c:	d004      	beq.n	20008938 <_ZSt5visitIZN5Model14checkS2GEventsEvEUlRKT_E_JRSt7variantIJN8S2GEvent11DailyHealthEEEEENSt13invoke_resultIS1_JDpNSt13__conditionalIX21is_lvalue_reference_vIT0_EEE4typeIRNSt19variant_alternativeILj0ENSt16remove_referenceIDTcl4__ascl7declvalISC_EEEEE4typeEE4typeEOSL_EEEE4typeEOS1_DpOSC_+0x28>
	__throw_bad_variant_access("std::visit: variant is valueless");
2000892e:	4b09      	ldr	r3, [pc, #36]	@ (20008954 <_ZSt5visitIZN5Model14checkS2GEventsEvEUlRKT_E_JRSt7variantIJN8S2GEvent11DailyHealthEEEEENSt13invoke_resultIS1_JDpNSt13__conditionalIX21is_lvalue_reference_vIT0_EEE4typeIRNSt19variant_alternativeILj0ENSt16remove_referenceIDTcl4__ascl7declvalISC_EEEEE4typeEE4typeEOSL_EEEE4typeEOS1_DpOSC_+0x44>)
20008930:	447b      	add	r3, pc
20008932:	4618      	mov	r0, r3
20008934:	f7ff f9f8 	bl	20007d28 <_ZSt26__throw_bad_variant_accessPKc>

      if constexpr (sizeof...(_Variants) == 1)
	{
	  using _Vp = decltype(__variant::__as(std::declval<_Variants>()...));

	  constexpr bool __visit_rettypes_match = __detail::__variant::
20008938:	2301      	movs	r3, #1
2000893a:	73fb      	strb	r3, [r7, #15]
			  "std::visit requires the visitor to have the same "
			  "return type for all alternatives of a variant");
	      return;
	    }
	  else
	    return std::__do_visit<_Tag>(
2000893c:	6878      	ldr	r0, [r7, #4]
2000893e:	f000 fb7d 	bl	2000903c <_ZSt7forwardIZN5Model14checkS2GEventsEvEUlRKT_E_EOS1_RNSt16remove_referenceIS1_E4typeE>
20008942:	4603      	mov	r3, r0
20008944:	6839      	ldr	r1, [r7, #0]
20008946:	4618      	mov	r0, r3
20008948:	f7ff ffbc 	bl	200088c4 <_ZSt10__do_visitINSt8__detail9__variant21__deduce_visit_resultIvEEZN5Model14checkS2GEventsEvEUlRKT_E_JRSt7variantIJN8S2GEvent11DailyHealthEEEEEDcOT0_DpOT1_>
	      std::forward<_Visitor>(__visitor),
	      static_cast<_Vp>(__variants)...);
2000894c:	bf00      	nop
	}
      else
	return std::__do_visit<_Tag>(
	  std::forward<_Visitor>(__visitor),
	  __variant::__as(std::forward<_Variants>(__variants))...);
    }
2000894e:	3710      	adds	r7, #16
20008950:	46bd      	mov	sp, r7
20008952:	bd80      	pop	{r7, pc}
20008954:	00003548 	.word	0x00003548

20008958 <_ZN14CircularBufferISt7variantIJN8G2SEvent7IsReadyENS1_4QuitEEELj20EE4pushERKS4_m>:
    bool push(const T &item, uint32_t timeout = 0xFFFFFFFF)
20008958:	b580      	push	{r7, lr}
2000895a:	b086      	sub	sp, #24
2000895c:	af00      	add	r7, sp, #0
2000895e:	60f8      	str	r0, [r7, #12]
20008960:	60b9      	str	r1, [r7, #8]
20008962:	607a      	str	r2, [r7, #4]
        if (!mNotFull->take(timeout)) {
20008964:	68fb      	ldr	r3, [r7, #12]
20008966:	3318      	adds	r3, #24
20008968:	4618      	mov	r0, r3
2000896a:	f000 fb17 	bl	20008f9c <_ZNKSt19__shared_ptr_accessIN9Interface10ISemaphoreELN9__gnu_cxx12_Lock_policyE0ELb0ELb0EEptEv>
2000896e:	4603      	mov	r3, r0
20008970:	681a      	ldr	r2, [r3, #0]
20008972:	3208      	adds	r2, #8
20008974:	6812      	ldr	r2, [r2, #0]
20008976:	6879      	ldr	r1, [r7, #4]
20008978:	4618      	mov	r0, r3
2000897a:	4790      	blx	r2
2000897c:	4603      	mov	r3, r0
2000897e:	f083 0301 	eor.w	r3, r3, #1
20008982:	b2db      	uxtb	r3, r3
20008984:	2b00      	cmp	r3, #0
20008986:	d001      	beq.n	2000898c <_ZN14CircularBufferISt7variantIJN8G2SEvent7IsReadyENS1_4QuitEEELj20EE4pushERKS4_m+0x34>
            return false;
20008988:	2300      	movs	r3, #0
2000898a:	e03f      	b.n	20008a0c <_ZN14CircularBufferISt7variantIJN8G2SEvent7IsReadyENS1_4QuitEEELj20EE4pushERKS4_m+0xb4>
        mMutex->lock();
2000898c:	68fb      	ldr	r3, [r7, #12]
2000898e:	3308      	adds	r3, #8
20008990:	4618      	mov	r0, r3
20008992:	f000 fb0f 	bl	20008fb4 <_ZNKSt19__shared_ptr_accessIN9Interface6IMutexELN9__gnu_cxx12_Lock_policyE0ELb0ELb0EEptEv>
20008996:	4603      	mov	r3, r0
20008998:	681a      	ldr	r2, [r3, #0]
2000899a:	3208      	adds	r2, #8
2000899c:	6812      	ldr	r2, [r2, #0]
2000899e:	4618      	mov	r0, r3
200089a0:	4790      	blx	r2
        size_t tail = (mHead + mSize) % N;
200089a2:	68fb      	ldr	r3, [r7, #12]
200089a4:	6c9a      	ldr	r2, [r3, #72]	@ 0x48
200089a6:	68fb      	ldr	r3, [r7, #12]
200089a8:	6cdb      	ldr	r3, [r3, #76]	@ 0x4c
200089aa:	441a      	add	r2, r3
200089ac:	4b19      	ldr	r3, [pc, #100]	@ (20008a14 <_ZN14CircularBufferISt7variantIJN8G2SEvent7IsReadyENS1_4QuitEEELj20EE4pushERKS4_m+0xbc>)
200089ae:	fba3 1302 	umull	r1, r3, r3, r2
200089b2:	0919      	lsrs	r1, r3, #4
200089b4:	460b      	mov	r3, r1
200089b6:	009b      	lsls	r3, r3, #2
200089b8:	440b      	add	r3, r1
200089ba:	009b      	lsls	r3, r3, #2
200089bc:	1ad3      	subs	r3, r2, r3
200089be:	617b      	str	r3, [r7, #20]
        mBuffer[tail] = item;
200089c0:	68fb      	ldr	r3, [r7, #12]
200089c2:	3320      	adds	r3, #32
200089c4:	6979      	ldr	r1, [r7, #20]
200089c6:	4618      	mov	r0, r3
200089c8:	f000 fb91 	bl	200090ee <_ZNSt5arrayISt7variantIJN8G2SEvent7IsReadyENS1_4QuitEEELj20EEixEj>
200089cc:	4602      	mov	r2, r0
200089ce:	68bb      	ldr	r3, [r7, #8]
200089d0:	881b      	ldrh	r3, [r3, #0]
200089d2:	8013      	strh	r3, [r2, #0]
        ++mSize;
200089d4:	68fb      	ldr	r3, [r7, #12]
200089d6:	6cdb      	ldr	r3, [r3, #76]	@ 0x4c
200089d8:	1c5a      	adds	r2, r3, #1
200089da:	68fb      	ldr	r3, [r7, #12]
200089dc:	64da      	str	r2, [r3, #76]	@ 0x4c
        mMutex->unLock();
200089de:	68fb      	ldr	r3, [r7, #12]
200089e0:	3308      	adds	r3, #8
200089e2:	4618      	mov	r0, r3
200089e4:	f000 fae6 	bl	20008fb4 <_ZNKSt19__shared_ptr_accessIN9Interface6IMutexELN9__gnu_cxx12_Lock_policyE0ELb0ELb0EEptEv>
200089e8:	4603      	mov	r3, r0
200089ea:	681a      	ldr	r2, [r3, #0]
200089ec:	320c      	adds	r2, #12
200089ee:	6812      	ldr	r2, [r2, #0]
200089f0:	4618      	mov	r0, r3
200089f2:	4790      	blx	r2
        mNotEmpty->give();
200089f4:	68fb      	ldr	r3, [r7, #12]
200089f6:	3310      	adds	r3, #16
200089f8:	4618      	mov	r0, r3
200089fa:	f000 facf 	bl	20008f9c <_ZNKSt19__shared_ptr_accessIN9Interface10ISemaphoreELN9__gnu_cxx12_Lock_policyE0ELb0ELb0EEptEv>
200089fe:	4603      	mov	r3, r0
20008a00:	681a      	ldr	r2, [r3, #0]
20008a02:	320c      	adds	r2, #12
20008a04:	6812      	ldr	r2, [r2, #0]
20008a06:	4618      	mov	r0, r3
20008a08:	4790      	blx	r2
        return true;
20008a0a:	2301      	movs	r3, #1
    }
20008a0c:	4618      	mov	r0, r3
20008a0e:	3718      	adds	r7, #24
20008a10:	46bd      	mov	sp, r7
20008a12:	bd80      	pop	{r7, pc}
20008a14:	cccccccd 	.word	0xcccccccd

20008a18 <_ZN14CircularBufferISt7variantIJN8G2SEvent7IsReadyENS1_4QuitEEELj20EE3popERS4_m>:
    bool pop(T &item, uint32_t timeout = 0xFFFFFFFF)
20008a18:	b580      	push	{r7, lr}
20008a1a:	b086      	sub	sp, #24
20008a1c:	af00      	add	r7, sp, #0
20008a1e:	60f8      	str	r0, [r7, #12]
20008a20:	60b9      	str	r1, [r7, #8]
20008a22:	607a      	str	r2, [r7, #4]
        if (!mNotEmpty->take(timeout)) {
20008a24:	68fb      	ldr	r3, [r7, #12]
20008a26:	3310      	adds	r3, #16
20008a28:	4618      	mov	r0, r3
20008a2a:	f000 fab7 	bl	20008f9c <_ZNKSt19__shared_ptr_accessIN9Interface10ISemaphoreELN9__gnu_cxx12_Lock_policyE0ELb0ELb0EEptEv>
20008a2e:	4603      	mov	r3, r0
20008a30:	681a      	ldr	r2, [r3, #0]
20008a32:	3208      	adds	r2, #8
20008a34:	6812      	ldr	r2, [r2, #0]
20008a36:	6879      	ldr	r1, [r7, #4]
20008a38:	4618      	mov	r0, r3
20008a3a:	4790      	blx	r2
20008a3c:	4603      	mov	r3, r0
20008a3e:	f083 0301 	eor.w	r3, r3, #1
20008a42:	b2db      	uxtb	r3, r3
20008a44:	2b00      	cmp	r3, #0
20008a46:	d001      	beq.n	20008a4c <_ZN14CircularBufferISt7variantIJN8G2SEvent7IsReadyENS1_4QuitEEELj20EE3popERS4_m+0x34>
            return false;
20008a48:	2300      	movs	r3, #0
20008a4a:	e05d      	b.n	20008b08 <_ZN14CircularBufferISt7variantIJN8G2SEvent7IsReadyENS1_4QuitEEELj20EE3popERS4_m+0xf0>
        mMutex->lock();
20008a4c:	68fb      	ldr	r3, [r7, #12]
20008a4e:	3308      	adds	r3, #8
20008a50:	4618      	mov	r0, r3
20008a52:	f000 faaf 	bl	20008fb4 <_ZNKSt19__shared_ptr_accessIN9Interface6IMutexELN9__gnu_cxx12_Lock_policyE0ELb0ELb0EEptEv>
20008a56:	4603      	mov	r3, r0
20008a58:	681a      	ldr	r2, [r3, #0]
20008a5a:	3208      	adds	r2, #8
20008a5c:	6812      	ldr	r2, [r2, #0]
20008a5e:	4618      	mov	r0, r3
20008a60:	4790      	blx	r2
        item = std::move(mBuffer[mHead]);
20008a62:	68fb      	ldr	r3, [r7, #12]
20008a64:	f103 0220 	add.w	r2, r3, #32
20008a68:	68fb      	ldr	r3, [r7, #12]
20008a6a:	6c9b      	ldr	r3, [r3, #72]	@ 0x48
20008a6c:	4619      	mov	r1, r3
20008a6e:	4610      	mov	r0, r2
20008a70:	f000 fb3d 	bl	200090ee <_ZNSt5arrayISt7variantIJN8G2SEvent7IsReadyENS1_4QuitEEELj20EEixEj>
20008a74:	4603      	mov	r3, r0
20008a76:	4618      	mov	r0, r3
20008a78:	f000 fb48 	bl	2000910c <_ZSt4moveIRSt7variantIJN8G2SEvent7IsReadyENS1_4QuitEEEEONSt16remove_referenceIT_E4typeEOS7_>
20008a7c:	4601      	mov	r1, r0
20008a7e:	68bb      	ldr	r3, [r7, #8]
20008a80:	461a      	mov	r2, r3
20008a82:	460b      	mov	r3, r1
20008a84:	881b      	ldrh	r3, [r3, #0]
20008a86:	8013      	strh	r3, [r2, #0]
        mBuffer[mHead] = T {};
20008a88:	2300      	movs	r3, #0
20008a8a:	757b      	strb	r3, [r7, #21]
20008a8c:	f107 0314 	add.w	r3, r7, #20
20008a90:	4618      	mov	r0, r3
20008a92:	f7ff fb3b 	bl	2000810c <_ZNSt7variantIJN8G2SEvent7IsReadyENS0_4QuitEEEC1Ev>
20008a96:	68fb      	ldr	r3, [r7, #12]
20008a98:	f103 0220 	add.w	r2, r3, #32
20008a9c:	68fb      	ldr	r3, [r7, #12]
20008a9e:	6c9b      	ldr	r3, [r3, #72]	@ 0x48
20008aa0:	4619      	mov	r1, r3
20008aa2:	4610      	mov	r0, r2
20008aa4:	f000 fb23 	bl	200090ee <_ZNSt5arrayISt7variantIJN8G2SEvent7IsReadyENS1_4QuitEEELj20EEixEj>
20008aa8:	4603      	mov	r3, r0
20008aaa:	461a      	mov	r2, r3
20008aac:	f107 0314 	add.w	r3, r7, #20
20008ab0:	881b      	ldrh	r3, [r3, #0]
20008ab2:	8013      	strh	r3, [r2, #0]
        mHead = (mHead + 1) % N;
20008ab4:	68fb      	ldr	r3, [r7, #12]
20008ab6:	6c9b      	ldr	r3, [r3, #72]	@ 0x48
20008ab8:	1c59      	adds	r1, r3, #1
20008aba:	4b15      	ldr	r3, [pc, #84]	@ (20008b10 <_ZN14CircularBufferISt7variantIJN8G2SEvent7IsReadyENS1_4QuitEEELj20EE3popERS4_m+0xf8>)
20008abc:	fba3 2301 	umull	r2, r3, r3, r1
20008ac0:	091a      	lsrs	r2, r3, #4
20008ac2:	4613      	mov	r3, r2
20008ac4:	009b      	lsls	r3, r3, #2
20008ac6:	4413      	add	r3, r2
20008ac8:	009b      	lsls	r3, r3, #2
20008aca:	1aca      	subs	r2, r1, r3
20008acc:	68fb      	ldr	r3, [r7, #12]
20008ace:	649a      	str	r2, [r3, #72]	@ 0x48
        --mSize;
20008ad0:	68fb      	ldr	r3, [r7, #12]
20008ad2:	6cdb      	ldr	r3, [r3, #76]	@ 0x4c
20008ad4:	1e5a      	subs	r2, r3, #1
20008ad6:	68fb      	ldr	r3, [r7, #12]
20008ad8:	64da      	str	r2, [r3, #76]	@ 0x4c
        mMutex->unLock();
20008ada:	68fb      	ldr	r3, [r7, #12]
20008adc:	3308      	adds	r3, #8
20008ade:	4618      	mov	r0, r3
20008ae0:	f000 fa68 	bl	20008fb4 <_ZNKSt19__shared_ptr_accessIN9Interface6IMutexELN9__gnu_cxx12_Lock_policyE0ELb0ELb0EEptEv>
20008ae4:	4603      	mov	r3, r0
20008ae6:	681a      	ldr	r2, [r3, #0]
20008ae8:	320c      	adds	r2, #12
20008aea:	6812      	ldr	r2, [r2, #0]
20008aec:	4618      	mov	r0, r3
20008aee:	4790      	blx	r2
        mNotFull->give();
20008af0:	68fb      	ldr	r3, [r7, #12]
20008af2:	3318      	adds	r3, #24
20008af4:	4618      	mov	r0, r3
20008af6:	f000 fa51 	bl	20008f9c <_ZNKSt19__shared_ptr_accessIN9Interface10ISemaphoreELN9__gnu_cxx12_Lock_policyE0ELb0ELb0EEptEv>
20008afa:	4603      	mov	r3, r0
20008afc:	681a      	ldr	r2, [r3, #0]
20008afe:	320c      	adds	r2, #12
20008b00:	6812      	ldr	r2, [r2, #0]
20008b02:	4618      	mov	r0, r3
20008b04:	4790      	blx	r2
        return true;
20008b06:	2301      	movs	r3, #1
    }
20008b08:	4618      	mov	r0, r3
20008b0a:	3718      	adds	r7, #24
20008b0c:	46bd      	mov	sp, r7
20008b0e:	bd80      	pop	{r7, pc}
20008b10:	cccccccd 	.word	0xcccccccd

20008b14 <_ZZN5Model14checkG2SEventsEvENKUlRKT_E_clIN8G2SEvent4QuitEEEDaS2_>:
    std::visit([this](const auto &event) {
20008b14:	b580      	push	{r7, lr}
20008b16:	b082      	sub	sp, #8
20008b18:	af00      	add	r7, sp, #0
20008b1a:	6078      	str	r0, [r7, #4]
20008b1c:	6039      	str	r1, [r7, #0]
        mServiceHandler.handleEvent(event);
20008b1e:	687b      	ldr	r3, [r7, #4]
20008b20:	681b      	ldr	r3, [r3, #0]
20008b22:	f8d3 3260 	ldr.w	r3, [r3, #608]	@ 0x260
20008b26:	681b      	ldr	r3, [r3, #0]
20008b28:	330c      	adds	r3, #12
20008b2a:	681b      	ldr	r3, [r3, #0]
20008b2c:	687a      	ldr	r2, [r7, #4]
20008b2e:	6812      	ldr	r2, [r2, #0]
20008b30:	f8d2 2260 	ldr.w	r2, [r2, #608]	@ 0x260
20008b34:	6839      	ldr	r1, [r7, #0]
20008b36:	4610      	mov	r0, r2
20008b38:	4798      	blx	r3
    }, data);
20008b3a:	bf00      	nop
20008b3c:	3708      	adds	r7, #8
20008b3e:	46bd      	mov	sp, r7
20008b40:	bd80      	pop	{r7, pc}

20008b42 <_ZZSt10__do_visitINSt8__detail9__variant21__deduce_visit_resultIvEEZN5Model14checkG2SEventsEvEUlRKT_E_JRSt7variantIJN8G2SEvent7IsReadyENSA_4QuitEEEEEDcOT0_DpOT1_ENKUlSE_zE_clESE_z>:
		= [](_V0& __v, ...) -> _V0& { return __v; }(__variants...);
20008b42:	b40e      	push	{r1, r2, r3}
20008b44:	b480      	push	{r7}
20008b46:	b082      	sub	sp, #8
20008b48:	af00      	add	r7, sp, #0
20008b4a:	6078      	str	r0, [r7, #4]
20008b4c:	68fb      	ldr	r3, [r7, #12]
20008b4e:	4618      	mov	r0, r3
20008b50:	3708      	adds	r7, #8
20008b52:	46bd      	mov	sp, r7
20008b54:	f85d 7b04 	ldr.w	r7, [sp], #4
20008b58:	b003      	add	sp, #12
20008b5a:	4770      	bx	lr

20008b5c <_ZNSt8__detail9__variant7__get_nILj0ERNS0_15_Variadic_unionIJN8G2SEvent7IsReadyENS3_4QuitEEEEEEDcOT0_>:
    __get_n(_Union&& __u) noexcept
20008b5c:	b580      	push	{r7, lr}
20008b5e:	b082      	sub	sp, #8
20008b60:	af00      	add	r7, sp, #0
20008b62:	6078      	str	r0, [r7, #4]
	return std::forward<_Union>(__u)._M_first._M_get();
20008b64:	6878      	ldr	r0, [r7, #4]
20008b66:	f000 fb24 	bl	200091b2 <_ZSt7forwardIRNSt8__detail9__variant15_Variadic_unionIJN8G2SEvent7IsReadyENS3_4QuitEEEEEOT_RNSt16remove_referenceIS8_E4typeE>
20008b6a:	4603      	mov	r3, r0
20008b6c:	4618      	mov	r0, r3
20008b6e:	f000 fb2b 	bl	200091c8 <_ZNRSt8__detail9__variant14_UninitializedIN8G2SEvent7IsReadyELb1EE6_M_getEv>
20008b72:	4603      	mov	r3, r0
    }
20008b74:	4618      	mov	r0, r3
20008b76:	3708      	adds	r7, #8
20008b78:	46bd      	mov	sp, r7
20008b7a:	bd80      	pop	{r7, pc}

20008b7c <_ZNSt8__detail9__variant5__getILj0ERSt7variantIJN8G2SEvent7IsReadyENS3_4QuitEEEEEDcOT0_>:
    __get(_Variant&& __v) noexcept
20008b7c:	b580      	push	{r7, lr}
20008b7e:	b082      	sub	sp, #8
20008b80:	af00      	add	r7, sp, #0
20008b82:	6078      	str	r0, [r7, #4]
    { return __variant::__get_n<_Np>(std::forward<_Variant>(__v)._M_u); }
20008b84:	6878      	ldr	r0, [r7, #4]
20008b86:	f000 fafe 	bl	20009186 <_ZSt7forwardIRSt7variantIJN8G2SEvent7IsReadyENS1_4QuitEEEEOT_RNSt16remove_referenceIS6_E4typeE>
20008b8a:	4603      	mov	r3, r0
20008b8c:	4618      	mov	r0, r3
20008b8e:	f7ff ffe5 	bl	20008b5c <_ZNSt8__detail9__variant7__get_nILj0ERNS0_15_Variadic_unionIJN8G2SEvent7IsReadyENS3_4QuitEEEEEEDcOT0_>
20008b92:	4603      	mov	r3, r0
20008b94:	4618      	mov	r0, r3
20008b96:	3708      	adds	r7, #8
20008b98:	46bd      	mov	sp, r7
20008b9a:	bd80      	pop	{r7, pc}

20008b9c <_ZNSt8__detail9__variant17__gen_vtable_implINS0_12_Multi_arrayIPFNS0_21__deduce_visit_resultIvEEOZN5Model14checkG2SEventsEvEUlRKT_E_RSt7variantIJN8G2SEvent7IsReadyENSC_4QuitEEEEJEEESt16integer_sequenceIjJLj0EEEE28__element_by_index_or_cookieILj0ESG_EEDcOT0_>:
	__element_by_index_or_cookie(_Variant&& __var) noexcept
20008b9c:	b580      	push	{r7, lr}
20008b9e:	b082      	sub	sp, #8
20008ba0:	af00      	add	r7, sp, #0
20008ba2:	6078      	str	r0, [r7, #4]
	    return __variant::__get<__index>(std::forward<_Variant>(__var));
20008ba4:	6878      	ldr	r0, [r7, #4]
20008ba6:	f000 faee 	bl	20009186 <_ZSt7forwardIRSt7variantIJN8G2SEvent7IsReadyENS1_4QuitEEEEOT_RNSt16remove_referenceIS6_E4typeE>
20008baa:	4603      	mov	r3, r0
20008bac:	4618      	mov	r0, r3
20008bae:	f7ff ffe5 	bl	20008b7c <_ZNSt8__detail9__variant5__getILj0ERSt7variantIJN8G2SEvent7IsReadyENS3_4QuitEEEEEDcOT0_>
20008bb2:	4603      	mov	r3, r0
	}
20008bb4:	4618      	mov	r0, r3
20008bb6:	3708      	adds	r7, #8
20008bb8:	46bd      	mov	sp, r7
20008bba:	bd80      	pop	{r7, pc}

20008bbc <_ZNSt8__detail9__variant17__gen_vtable_implINS0_12_Multi_arrayIPFNS0_21__deduce_visit_resultIvEEOZN5Model14checkG2SEventsEvEUlRKT_E_RSt7variantIJN8G2SEvent7IsReadyENSC_4QuitEEEEJEEESt16integer_sequenceIjJLj0EEEE14__visit_invokeESA_SG_>:
      __visit_invoke(_Visitor&& __visitor, _Variants... __vars)
20008bbc:	b590      	push	{r4, r7, lr}
20008bbe:	b083      	sub	sp, #12
20008bc0:	af00      	add	r7, sp, #0
20008bc2:	6078      	str	r0, [r7, #4]
20008bc4:	6039      	str	r1, [r7, #0]
	  return std::__invoke(std::forward<_Visitor>(__visitor),
20008bc6:	6878      	ldr	r0, [r7, #4]
20008bc8:	f000 fae8 	bl	2000919c <_ZSt7forwardIOZN5Model14checkG2SEventsEvEUlRKT_E_EOS1_RNSt16remove_referenceIS1_E4typeE>
20008bcc:	4604      	mov	r4, r0
20008bce:	6838      	ldr	r0, [r7, #0]
20008bd0:	f000 fad9 	bl	20009186 <_ZSt7forwardIRSt7variantIJN8G2SEvent7IsReadyENS1_4QuitEEEEOT_RNSt16remove_referenceIS6_E4typeE>
20008bd4:	4603      	mov	r3, r0
20008bd6:	4618      	mov	r0, r3
20008bd8:	f7ff ffe0 	bl	20008b9c <_ZNSt8__detail9__variant17__gen_vtable_implINS0_12_Multi_arrayIPFNS0_21__deduce_visit_resultIvEEOZN5Model14checkG2SEventsEvEUlRKT_E_RSt7variantIJN8G2SEvent7IsReadyENSC_4QuitEEEEJEEESt16integer_sequenceIjJLj0EEEE28__element_by_index_or_cookieILj0ESG_EEDcOT0_>
20008bdc:	4603      	mov	r3, r0
20008bde:	4619      	mov	r1, r3
20008be0:	4620      	mov	r0, r4
20008be2:	f000 fafc 	bl	200091de <_ZSt8__invokeIZN5Model14checkG2SEventsEvEUlRKT_E_JRN8G2SEvent7IsReadyEEENSt15__invoke_resultIS1_JDpT0_EE4typeEOS1_DpOS9_>
		std::forward<_Variants>(__vars))...);
20008be6:	bf00      	nop
      }
20008be8:	370c      	adds	r7, #12
20008bea:	46bd      	mov	sp, r7
20008bec:	bd90      	pop	{r4, r7, pc}

20008bee <_ZNSt8__detail9__variant7__get_nILj1ERNS0_15_Variadic_unionIJN8G2SEvent7IsReadyENS3_4QuitEEEEEEDcOT0_>:
    __get_n(_Union&& __u) noexcept
20008bee:	b580      	push	{r7, lr}
20008bf0:	b082      	sub	sp, #8
20008bf2:	af00      	add	r7, sp, #0
20008bf4:	6078      	str	r0, [r7, #4]
	return std::forward<_Union>(__u)._M_rest._M_first._M_get();
20008bf6:	6878      	ldr	r0, [r7, #4]
20008bf8:	f000 fadb 	bl	200091b2 <_ZSt7forwardIRNSt8__detail9__variant15_Variadic_unionIJN8G2SEvent7IsReadyENS3_4QuitEEEEEOT_RNSt16remove_referenceIS8_E4typeE>
20008bfc:	4603      	mov	r3, r0
20008bfe:	4618      	mov	r0, r3
20008c00:	f000 fb03 	bl	2000920a <_ZNRSt8__detail9__variant14_UninitializedIN8G2SEvent4QuitELb1EE6_M_getEv>
20008c04:	4603      	mov	r3, r0
    }
20008c06:	4618      	mov	r0, r3
20008c08:	3708      	adds	r7, #8
20008c0a:	46bd      	mov	sp, r7
20008c0c:	bd80      	pop	{r7, pc}

20008c0e <_ZNSt8__detail9__variant5__getILj1ERSt7variantIJN8G2SEvent7IsReadyENS3_4QuitEEEEEDcOT0_>:
    __get(_Variant&& __v) noexcept
20008c0e:	b580      	push	{r7, lr}
20008c10:	b082      	sub	sp, #8
20008c12:	af00      	add	r7, sp, #0
20008c14:	6078      	str	r0, [r7, #4]
    { return __variant::__get_n<_Np>(std::forward<_Variant>(__v)._M_u); }
20008c16:	6878      	ldr	r0, [r7, #4]
20008c18:	f000 fab5 	bl	20009186 <_ZSt7forwardIRSt7variantIJN8G2SEvent7IsReadyENS1_4QuitEEEEOT_RNSt16remove_referenceIS6_E4typeE>
20008c1c:	4603      	mov	r3, r0
20008c1e:	4618      	mov	r0, r3
20008c20:	f7ff ffe5 	bl	20008bee <_ZNSt8__detail9__variant7__get_nILj1ERNS0_15_Variadic_unionIJN8G2SEvent7IsReadyENS3_4QuitEEEEEEDcOT0_>
20008c24:	4603      	mov	r3, r0
20008c26:	4618      	mov	r0, r3
20008c28:	3708      	adds	r7, #8
20008c2a:	46bd      	mov	sp, r7
20008c2c:	bd80      	pop	{r7, pc}

20008c2e <_ZNSt8__detail9__variant17__gen_vtable_implINS0_12_Multi_arrayIPFNS0_21__deduce_visit_resultIvEEOZN5Model14checkG2SEventsEvEUlRKT_E_RSt7variantIJN8G2SEvent7IsReadyENSC_4QuitEEEEJEEESt16integer_sequenceIjJLj1EEEE28__element_by_index_or_cookieILj1ESG_EEDcOT0_>:
	__element_by_index_or_cookie(_Variant&& __var) noexcept
20008c2e:	b580      	push	{r7, lr}
20008c30:	b082      	sub	sp, #8
20008c32:	af00      	add	r7, sp, #0
20008c34:	6078      	str	r0, [r7, #4]
	    return __variant::__get<__index>(std::forward<_Variant>(__var));
20008c36:	6878      	ldr	r0, [r7, #4]
20008c38:	f000 faa5 	bl	20009186 <_ZSt7forwardIRSt7variantIJN8G2SEvent7IsReadyENS1_4QuitEEEEOT_RNSt16remove_referenceIS6_E4typeE>
20008c3c:	4603      	mov	r3, r0
20008c3e:	4618      	mov	r0, r3
20008c40:	f7ff ffe5 	bl	20008c0e <_ZNSt8__detail9__variant5__getILj1ERSt7variantIJN8G2SEvent7IsReadyENS3_4QuitEEEEEDcOT0_>
20008c44:	4603      	mov	r3, r0
	}
20008c46:	4618      	mov	r0, r3
20008c48:	3708      	adds	r7, #8
20008c4a:	46bd      	mov	sp, r7
20008c4c:	bd80      	pop	{r7, pc}

20008c4e <_ZNSt8__detail9__variant17__gen_vtable_implINS0_12_Multi_arrayIPFNS0_21__deduce_visit_resultIvEEOZN5Model14checkG2SEventsEvEUlRKT_E_RSt7variantIJN8G2SEvent7IsReadyENSC_4QuitEEEEJEEESt16integer_sequenceIjJLj1EEEE14__visit_invokeESA_SG_>:
      __visit_invoke(_Visitor&& __visitor, _Variants... __vars)
20008c4e:	b590      	push	{r4, r7, lr}
20008c50:	b083      	sub	sp, #12
20008c52:	af00      	add	r7, sp, #0
20008c54:	6078      	str	r0, [r7, #4]
20008c56:	6039      	str	r1, [r7, #0]
	  return std::__invoke(std::forward<_Visitor>(__visitor),
20008c58:	6878      	ldr	r0, [r7, #4]
20008c5a:	f000 fa9f 	bl	2000919c <_ZSt7forwardIOZN5Model14checkG2SEventsEvEUlRKT_E_EOS1_RNSt16remove_referenceIS1_E4typeE>
20008c5e:	4604      	mov	r4, r0
20008c60:	6838      	ldr	r0, [r7, #0]
20008c62:	f000 fa90 	bl	20009186 <_ZSt7forwardIRSt7variantIJN8G2SEvent7IsReadyENS1_4QuitEEEEOT_RNSt16remove_referenceIS6_E4typeE>
20008c66:	4603      	mov	r3, r0
20008c68:	4618      	mov	r0, r3
20008c6a:	f7ff ffe0 	bl	20008c2e <_ZNSt8__detail9__variant17__gen_vtable_implINS0_12_Multi_arrayIPFNS0_21__deduce_visit_resultIvEEOZN5Model14checkG2SEventsEvEUlRKT_E_RSt7variantIJN8G2SEvent7IsReadyENSC_4QuitEEEEJEEESt16integer_sequenceIjJLj1EEEE28__element_by_index_or_cookieILj1ESG_EEDcOT0_>
20008c6e:	4603      	mov	r3, r0
20008c70:	4619      	mov	r1, r3
20008c72:	4620      	mov	r0, r4
20008c74:	f000 fad4 	bl	20009220 <_ZSt8__invokeIZN5Model14checkG2SEventsEvEUlRKT_E_JRN8G2SEvent4QuitEEENSt15__invoke_resultIS1_JDpT0_EE4typeEOS1_DpOS9_>
		std::forward<_Variants>(__vars))...);
20008c78:	bf00      	nop
      }
20008c7a:	370c      	adds	r7, #12
20008c7c:	46bd      	mov	sp, r7
20008c7e:	bd90      	pop	{r4, r7, pc}

20008c80 <_ZSt10__do_visitINSt8__detail9__variant21__deduce_visit_resultIvEEZN5Model14checkG2SEventsEvEUlRKT_E_JRSt7variantIJN8G2SEvent7IsReadyENSA_4QuitEEEEEDcOT0_DpOT1_>:
    __do_visit(_Visitor&& __visitor, _Variants&&... __variants)
20008c80:	b590      	push	{r4, r7, lr}
20008c82:	b087      	sub	sp, #28
20008c84:	af00      	add	r7, sp, #0
20008c86:	6078      	str	r0, [r7, #4]
20008c88:	6039      	str	r1, [r7, #0]
	  constexpr size_t __max = 11; // "These go to eleven."
20008c8a:	230b      	movs	r3, #11
20008c8c:	617b      	str	r3, [r7, #20]
	  constexpr auto __n = variant_size_v<remove_reference_t<_V0>>;
20008c8e:	2302      	movs	r3, #2
20008c90:	613b      	str	r3, [r7, #16]
		= [](_V0& __v, ...) -> _V0& { return __v; }(__variants...);
20008c92:	f107 0308 	add.w	r3, r7, #8
20008c96:	6839      	ldr	r1, [r7, #0]
20008c98:	4618      	mov	r0, r3
20008c9a:	f7ff ff52 	bl	20008b42 <_ZZSt10__do_visitINSt8__detail9__variant21__deduce_visit_resultIvEEZN5Model14checkG2SEventsEvEUlRKT_E_JRSt7variantIJN8G2SEvent7IsReadyENSA_4QuitEEEEEDcOT0_DpOT1_ENKUlSE_zE_clESE_z>
20008c9e:	60f8      	str	r0, [r7, #12]
	      switch (__v0.index())
20008ca0:	68f8      	ldr	r0, [r7, #12]
20008ca2:	f000 fa64 	bl	2000916e <_ZNKSt7variantIJN8G2SEvent7IsReadyENS0_4QuitEEE5indexEv>
20008ca6:	4603      	mov	r3, r0
20008ca8:	2b00      	cmp	r3, #0
20008caa:	d00d      	beq.n	20008cc8 <_ZSt10__do_visitINSt8__detail9__variant21__deduce_visit_resultIvEEZN5Model14checkG2SEventsEvEUlRKT_E_JRSt7variantIJN8G2SEvent7IsReadyENSA_4QuitEEEEEDcOT0_DpOT1_+0x48>
20008cac:	2b01      	cmp	r3, #1
		  _GLIBCXX_VISIT_CASE(1)
20008cae:	6878      	ldr	r0, [r7, #4]
20008cb0:	f000 fa52 	bl	20009158 <_ZSt7forwardIZN5Model14checkG2SEventsEvEUlRKT_E_EOS1_RNSt16remove_referenceIS1_E4typeE>
20008cb4:	4604      	mov	r4, r0
20008cb6:	68f8      	ldr	r0, [r7, #12]
20008cb8:	f000 fa65 	bl	20009186 <_ZSt7forwardIRSt7variantIJN8G2SEvent7IsReadyENS1_4QuitEEEEOT_RNSt16remove_referenceIS6_E4typeE>
20008cbc:	4603      	mov	r3, r0
20008cbe:	4619      	mov	r1, r3
20008cc0:	4620      	mov	r0, r4
20008cc2:	f7ff ffc4 	bl	20008c4e <_ZNSt8__detail9__variant17__gen_vtable_implINS0_12_Multi_arrayIPFNS0_21__deduce_visit_resultIvEEOZN5Model14checkG2SEventsEvEUlRKT_E_RSt7variantIJN8G2SEvent7IsReadyENSC_4QuitEEEEJEEESt16integer_sequenceIjJLj1EEEE14__visit_invokeESA_SG_>
20008cc6:	e00b      	b.n	20008ce0 <_ZSt10__do_visitINSt8__detail9__variant21__deduce_visit_resultIvEEZN5Model14checkG2SEventsEvEUlRKT_E_JRSt7variantIJN8G2SEvent7IsReadyENSA_4QuitEEEEEDcOT0_DpOT1_+0x60>
		  _GLIBCXX_VISIT_CASE(0)
20008cc8:	6878      	ldr	r0, [r7, #4]
20008cca:	f000 fa45 	bl	20009158 <_ZSt7forwardIZN5Model14checkG2SEventsEvEUlRKT_E_EOS1_RNSt16remove_referenceIS1_E4typeE>
20008cce:	4604      	mov	r4, r0
20008cd0:	68f8      	ldr	r0, [r7, #12]
20008cd2:	f000 fa58 	bl	20009186 <_ZSt7forwardIRSt7variantIJN8G2SEvent7IsReadyENS1_4QuitEEEEOT_RNSt16remove_referenceIS6_E4typeE>
20008cd6:	4603      	mov	r3, r0
20008cd8:	4619      	mov	r1, r3
20008cda:	4620      	mov	r0, r4
20008cdc:	f7ff ff6e 	bl	20008bbc <_ZNSt8__detail9__variant17__gen_vtable_implINS0_12_Multi_arrayIPFNS0_21__deduce_visit_resultIvEEOZN5Model14checkG2SEventsEvEUlRKT_E_RSt7variantIJN8G2SEvent7IsReadyENSC_4QuitEEEEJEEESt16integer_sequenceIjJLj0EEEE14__visit_invokeESA_SG_>
    }
20008ce0:	371c      	adds	r7, #28
20008ce2:	46bd      	mov	sp, r7
20008ce4:	bd90      	pop	{r4, r7, pc}
	...

20008ce8 <_ZSt5visitIZN5Model14checkG2SEventsEvEUlRKT_E_JRSt7variantIJN8G2SEvent7IsReadyENS6_4QuitEEEEENSt13invoke_resultIS1_JDpNSt13__conditionalIX21is_lvalue_reference_vIT0_EEE4typeIRNSt19variant_alternativeILj0ENSt16remove_referenceIDTcl4__ascl7declvalISD_EEEEE4typeEE4typeEOSM_EEEE4typeEOS1_DpOSD_>:
    visit(_Visitor&& __visitor, _Variants&&... __variants)
20008ce8:	b580      	push	{r7, lr}
20008cea:	b084      	sub	sp, #16
20008cec:	af00      	add	r7, sp, #0
20008cee:	6078      	str	r0, [r7, #4]
20008cf0:	6039      	str	r1, [r7, #0]
      if ((__variant::__as(__variants).valueless_by_exception() || ...))
20008cf2:	6838      	ldr	r0, [r7, #0]
20008cf4:	f000 fa15 	bl	20009122 <_ZNSt8__detail9__variant4__asIJN8G2SEvent7IsReadyENS2_4QuitEEEERSt7variantIJDpT_EES9_>
20008cf8:	4603      	mov	r3, r0
20008cfa:	4618      	mov	r0, r3
20008cfc:	f000 fa1c 	bl	20009138 <_ZNKSt7variantIJN8G2SEvent7IsReadyENS0_4QuitEEE22valueless_by_exceptionEv>
20008d00:	4603      	mov	r3, r0
20008d02:	2b00      	cmp	r3, #0
20008d04:	d004      	beq.n	20008d10 <_ZSt5visitIZN5Model14checkG2SEventsEvEUlRKT_E_JRSt7variantIJN8G2SEvent7IsReadyENS6_4QuitEEEEENSt13invoke_resultIS1_JDpNSt13__conditionalIX21is_lvalue_reference_vIT0_EEE4typeIRNSt19variant_alternativeILj0ENSt16remove_referenceIDTcl4__ascl7declvalISD_EEEEE4typeEE4typeEOSM_EEEE4typeEOS1_DpOSD_+0x28>
	__throw_bad_variant_access("std::visit: variant is valueless");
20008d06:	4b09      	ldr	r3, [pc, #36]	@ (20008d2c <_ZSt5visitIZN5Model14checkG2SEventsEvEUlRKT_E_JRSt7variantIJN8G2SEvent7IsReadyENS6_4QuitEEEEENSt13invoke_resultIS1_JDpNSt13__conditionalIX21is_lvalue_reference_vIT0_EEE4typeIRNSt19variant_alternativeILj0ENSt16remove_referenceIDTcl4__ascl7declvalISD_EEEEE4typeEE4typeEOSM_EEEE4typeEOS1_DpOSD_+0x44>)
20008d08:	447b      	add	r3, pc
20008d0a:	4618      	mov	r0, r3
20008d0c:	f7ff f80c 	bl	20007d28 <_ZSt26__throw_bad_variant_accessPKc>
	  constexpr bool __visit_rettypes_match = __detail::__variant::
20008d10:	2301      	movs	r3, #1
20008d12:	73fb      	strb	r3, [r7, #15]
	    return std::__do_visit<_Tag>(
20008d14:	6878      	ldr	r0, [r7, #4]
20008d16:	f000 fa1f 	bl	20009158 <_ZSt7forwardIZN5Model14checkG2SEventsEvEUlRKT_E_EOS1_RNSt16remove_referenceIS1_E4typeE>
20008d1a:	4603      	mov	r3, r0
20008d1c:	6839      	ldr	r1, [r7, #0]
20008d1e:	4618      	mov	r0, r3
20008d20:	f7ff ffae 	bl	20008c80 <_ZSt10__do_visitINSt8__detail9__variant21__deduce_visit_resultIvEEZN5Model14checkG2SEventsEvEUlRKT_E_JRSt7variantIJN8G2SEvent7IsReadyENSA_4QuitEEEEEDcOT0_DpOT1_>
	      static_cast<_Vp>(__variants)...);
20008d24:	bf00      	nop
    }
20008d26:	3710      	adds	r7, #16
20008d28:	46bd      	mov	sp, r7
20008d2a:	bd80      	pop	{r7, pc}
20008d2c:	00003170 	.word	0x00003170

20008d30 <_ZN14CircularBufferISt7variantIJN8S2GEvent11DailyHealthEEELj20EE4pushERKS3_m>:
    bool push(const T &item, uint32_t timeout = 0xFFFFFFFF)
20008d30:	b5b0      	push	{r4, r5, r7, lr}
20008d32:	b086      	sub	sp, #24
20008d34:	af00      	add	r7, sp, #0
20008d36:	60f8      	str	r0, [r7, #12]
20008d38:	60b9      	str	r1, [r7, #8]
20008d3a:	607a      	str	r2, [r7, #4]
        if (!mNotFull->take(timeout)) {
20008d3c:	68fb      	ldr	r3, [r7, #12]
20008d3e:	3318      	adds	r3, #24
20008d40:	4618      	mov	r0, r3
20008d42:	f000 f92b 	bl	20008f9c <_ZNKSt19__shared_ptr_accessIN9Interface10ISemaphoreELN9__gnu_cxx12_Lock_policyE0ELb0ELb0EEptEv>
20008d46:	4603      	mov	r3, r0
20008d48:	681a      	ldr	r2, [r3, #0]
20008d4a:	3208      	adds	r2, #8
20008d4c:	6812      	ldr	r2, [r2, #0]
20008d4e:	6879      	ldr	r1, [r7, #4]
20008d50:	4618      	mov	r0, r3
20008d52:	4790      	blx	r2
20008d54:	4603      	mov	r3, r0
20008d56:	f083 0301 	eor.w	r3, r3, #1
20008d5a:	b2db      	uxtb	r3, r3
20008d5c:	2b00      	cmp	r3, #0
20008d5e:	d001      	beq.n	20008d64 <_ZN14CircularBufferISt7variantIJN8S2GEvent11DailyHealthEEELj20EE4pushERKS3_m+0x34>
            return false;
20008d60:	2300      	movs	r3, #0
20008d62:	e04d      	b.n	20008e00 <_ZN14CircularBufferISt7variantIJN8S2GEvent11DailyHealthEEELj20EE4pushERKS3_m+0xd0>
        mMutex->lock();
20008d64:	68fb      	ldr	r3, [r7, #12]
20008d66:	3308      	adds	r3, #8
20008d68:	4618      	mov	r0, r3
20008d6a:	f000 f923 	bl	20008fb4 <_ZNKSt19__shared_ptr_accessIN9Interface6IMutexELN9__gnu_cxx12_Lock_policyE0ELb0ELb0EEptEv>
20008d6e:	4603      	mov	r3, r0
20008d70:	681a      	ldr	r2, [r3, #0]
20008d72:	3208      	adds	r2, #8
20008d74:	6812      	ldr	r2, [r2, #0]
20008d76:	4618      	mov	r0, r3
20008d78:	4790      	blx	r2
        size_t tail = (mHead + mSize) % N;
20008d7a:	68fb      	ldr	r3, [r7, #12]
20008d7c:	f8d3 2200 	ldr.w	r2, [r3, #512]	@ 0x200
20008d80:	68fb      	ldr	r3, [r7, #12]
20008d82:	f8d3 3204 	ldr.w	r3, [r3, #516]	@ 0x204
20008d86:	441a      	add	r2, r3
20008d88:	4b1f      	ldr	r3, [pc, #124]	@ (20008e08 <_ZN14CircularBufferISt7variantIJN8S2GEvent11DailyHealthEEELj20EE4pushERKS3_m+0xd8>)
20008d8a:	fba3 1302 	umull	r1, r3, r3, r2
20008d8e:	0919      	lsrs	r1, r3, #4
20008d90:	460b      	mov	r3, r1
20008d92:	009b      	lsls	r3, r3, #2
20008d94:	440b      	add	r3, r1
20008d96:	009b      	lsls	r3, r3, #2
20008d98:	1ad3      	subs	r3, r2, r3
20008d9a:	617b      	str	r3, [r7, #20]
        mBuffer[tail] = item;
20008d9c:	68fb      	ldr	r3, [r7, #12]
20008d9e:	3320      	adds	r3, #32
20008da0:	6979      	ldr	r1, [r7, #20]
20008da2:	4618      	mov	r0, r3
20008da4:	f000 f912 	bl	20008fcc <_ZNSt5arrayISt7variantIJN8S2GEvent11DailyHealthEEELj20EEixEj>
20008da8:	4603      	mov	r3, r0
20008daa:	68ba      	ldr	r2, [r7, #8]
20008dac:	6811      	ldr	r1, [r2, #0]
20008dae:	6855      	ldr	r5, [r2, #4]
20008db0:	6894      	ldr	r4, [r2, #8]
20008db2:	68d0      	ldr	r0, [r2, #12]
20008db4:	6019      	str	r1, [r3, #0]
20008db6:	605d      	str	r5, [r3, #4]
20008db8:	609c      	str	r4, [r3, #8]
20008dba:	60d8      	str	r0, [r3, #12]
20008dbc:	6911      	ldr	r1, [r2, #16]
20008dbe:	6119      	str	r1, [r3, #16]
20008dc0:	7d12      	ldrb	r2, [r2, #20]
20008dc2:	751a      	strb	r2, [r3, #20]
        ++mSize;
20008dc4:	68fb      	ldr	r3, [r7, #12]
20008dc6:	f8d3 3204 	ldr.w	r3, [r3, #516]	@ 0x204
20008dca:	1c5a      	adds	r2, r3, #1
20008dcc:	68fb      	ldr	r3, [r7, #12]
20008dce:	f8c3 2204 	str.w	r2, [r3, #516]	@ 0x204
        mMutex->unLock();
20008dd2:	68fb      	ldr	r3, [r7, #12]
20008dd4:	3308      	adds	r3, #8
20008dd6:	4618      	mov	r0, r3
20008dd8:	f000 f8ec 	bl	20008fb4 <_ZNKSt19__shared_ptr_accessIN9Interface6IMutexELN9__gnu_cxx12_Lock_policyE0ELb0ELb0EEptEv>
20008ddc:	4603      	mov	r3, r0
20008dde:	681a      	ldr	r2, [r3, #0]
20008de0:	320c      	adds	r2, #12
20008de2:	6812      	ldr	r2, [r2, #0]
20008de4:	4618      	mov	r0, r3
20008de6:	4790      	blx	r2
        mNotEmpty->give();
20008de8:	68fb      	ldr	r3, [r7, #12]
20008dea:	3310      	adds	r3, #16
20008dec:	4618      	mov	r0, r3
20008dee:	f000 f8d5 	bl	20008f9c <_ZNKSt19__shared_ptr_accessIN9Interface10ISemaphoreELN9__gnu_cxx12_Lock_policyE0ELb0ELb0EEptEv>
20008df2:	4603      	mov	r3, r0
20008df4:	681a      	ldr	r2, [r3, #0]
20008df6:	320c      	adds	r2, #12
20008df8:	6812      	ldr	r2, [r2, #0]
20008dfa:	4618      	mov	r0, r3
20008dfc:	4790      	blx	r2
        return true;
20008dfe:	2301      	movs	r3, #1
    }
20008e00:	4618      	mov	r0, r3
20008e02:	3718      	adds	r7, #24
20008e04:	46bd      	mov	sp, r7
20008e06:	bdb0      	pop	{r4, r5, r7, pc}
20008e08:	cccccccd 	.word	0xcccccccd

20008e0c <_ZNKSt19__shared_ptr_accessIN9Interface6IMutexELN9__gnu_cxx12_Lock_policyE0ELb0ELb0EE6_M_getEv>:
      _M_get() const noexcept
20008e0c:	b580      	push	{r7, lr}
20008e0e:	b082      	sub	sp, #8
20008e10:	af00      	add	r7, sp, #0
20008e12:	6078      	str	r0, [r7, #4]
      { return static_cast<const __shared_ptr<_Tp, _Lp>*>(this)->get(); }
20008e14:	6878      	ldr	r0, [r7, #4]
20008e16:	f000 fa19 	bl	2000924c <_ZNKSt12__shared_ptrIN9Interface6IMutexELN9__gnu_cxx12_Lock_policyE0EE3getEv>
20008e1a:	4603      	mov	r3, r0
20008e1c:	4618      	mov	r0, r3
20008e1e:	3708      	adds	r7, #8
20008e20:	46bd      	mov	sp, r7
20008e22:	bd80      	pop	{r7, pc}

20008e24 <_ZNSt12__shared_ptrIN9Interface6IMutexELN9__gnu_cxx12_Lock_policyE0EEC1EOS4_>:
      template<typename _Yp, typename = _Compatible<_Yp>>
	__shared_ptr(const __shared_ptr<_Yp, _Lp>& __r) noexcept
	: _M_ptr(__r._M_ptr), _M_refcount(__r._M_refcount)
	{ }

      __shared_ptr(__shared_ptr&& __r) noexcept
20008e24:	b580      	push	{r7, lr}
20008e26:	b082      	sub	sp, #8
20008e28:	af00      	add	r7, sp, #0
20008e2a:	6078      	str	r0, [r7, #4]
20008e2c:	6039      	str	r1, [r7, #0]
      : _M_ptr(__r._M_ptr), _M_refcount()
20008e2e:	683b      	ldr	r3, [r7, #0]
20008e30:	681a      	ldr	r2, [r3, #0]
20008e32:	687b      	ldr	r3, [r7, #4]
20008e34:	601a      	str	r2, [r3, #0]
20008e36:	687b      	ldr	r3, [r7, #4]
20008e38:	3304      	adds	r3, #4
20008e3a:	4618      	mov	r0, r3
20008e3c:	f000 fa12 	bl	20009264 <_ZNSt14__shared_countILN9__gnu_cxx12_Lock_policyE0EEC1Ev>
      {
	_M_refcount._M_swap(__r._M_refcount);
20008e40:	687b      	ldr	r3, [r7, #4]
20008e42:	1d1a      	adds	r2, r3, #4
20008e44:	683b      	ldr	r3, [r7, #0]
20008e46:	3304      	adds	r3, #4
20008e48:	4619      	mov	r1, r3
20008e4a:	4610      	mov	r0, r2
20008e4c:	f000 fa18 	bl	20009280 <_ZNSt14__shared_countILN9__gnu_cxx12_Lock_policyE0EE7_M_swapERS2_>
	__r._M_ptr = nullptr;
20008e50:	683b      	ldr	r3, [r7, #0]
20008e52:	2200      	movs	r2, #0
20008e54:	601a      	str	r2, [r3, #0]
      }
20008e56:	687b      	ldr	r3, [r7, #4]
20008e58:	4618      	mov	r0, r3
20008e5a:	3708      	adds	r7, #8
20008e5c:	46bd      	mov	sp, r7
20008e5e:	bd80      	pop	{r7, pc}

20008e60 <_ZNSt10shared_ptrIN9Interface6IMutexEEC1Ev>:
#endif
      /**
       *  @brief  Construct an empty %shared_ptr.
       *  @post   use_count()==0 && get()==0
       */
      constexpr shared_ptr() noexcept : __shared_ptr<_Tp>() { }
20008e60:	b580      	push	{r7, lr}
20008e62:	b082      	sub	sp, #8
20008e64:	af00      	add	r7, sp, #0
20008e66:	6078      	str	r0, [r7, #4]
20008e68:	687b      	ldr	r3, [r7, #4]
20008e6a:	4618      	mov	r0, r3
20008e6c:	f000 fa1d 	bl	200092aa <_ZNSt12__shared_ptrIN9Interface6IMutexELN9__gnu_cxx12_Lock_policyE0EEC1Ev>
20008e70:	687b      	ldr	r3, [r7, #4]
20008e72:	4618      	mov	r0, r3
20008e74:	3708      	adds	r7, #8
20008e76:	46bd      	mov	sp, r7
20008e78:	bd80      	pop	{r7, pc}

20008e7a <_ZNSt10shared_ptrIN9Interface10ISemaphoreEEC1Ev>:
20008e7a:	b580      	push	{r7, lr}
20008e7c:	b082      	sub	sp, #8
20008e7e:	af00      	add	r7, sp, #0
20008e80:	6078      	str	r0, [r7, #4]
20008e82:	687b      	ldr	r3, [r7, #4]
20008e84:	4618      	mov	r0, r3
20008e86:	f000 fa21 	bl	200092cc <_ZNSt12__shared_ptrIN9Interface10ISemaphoreELN9__gnu_cxx12_Lock_policyE0EEC1Ev>
20008e8a:	687b      	ldr	r3, [r7, #4]
20008e8c:	4618      	mov	r0, r3
20008e8e:	3708      	adds	r7, #8
20008e90:	46bd      	mov	sp, r7
20008e92:	bd80      	pop	{r7, pc}

20008e94 <_ZN14CircularBufferISt7variantIJN8S2GEvent11DailyHealthEEELj20EE6deinitEv>:
    void deinit()
20008e94:	b580      	push	{r7, lr}
20008e96:	b082      	sub	sp, #8
20008e98:	af00      	add	r7, sp, #0
20008e9a:	6078      	str	r0, [r7, #4]
        printf("queue deinit\n");
20008e9c:	4b0b      	ldr	r3, [pc, #44]	@ (20008ecc <_ZN14CircularBufferISt7variantIJN8S2GEvent11DailyHealthEEELj20EE6deinitEv+0x38>)
20008e9e:	447b      	add	r3, pc
20008ea0:	4618      	mov	r0, r3
20008ea2:	f002 fef5 	bl	2000bc90 <__puts_veneer>
        mMutex.reset();
20008ea6:	687b      	ldr	r3, [r7, #4]
20008ea8:	3308      	adds	r3, #8
20008eaa:	4618      	mov	r0, r3
20008eac:	f000 fa1f 	bl	200092ee <_ZNSt12__shared_ptrIN9Interface6IMutexELN9__gnu_cxx12_Lock_policyE0EE5resetEv>
        mNotEmpty.reset();
20008eb0:	687b      	ldr	r3, [r7, #4]
20008eb2:	3310      	adds	r3, #16
20008eb4:	4618      	mov	r0, r3
20008eb6:	f000 fa32 	bl	2000931e <_ZNSt12__shared_ptrIN9Interface10ISemaphoreELN9__gnu_cxx12_Lock_policyE0EE5resetEv>
        mNotFull.reset();
20008eba:	687b      	ldr	r3, [r7, #4]
20008ebc:	3318      	adds	r3, #24
20008ebe:	4618      	mov	r0, r3
20008ec0:	f000 fa2d 	bl	2000931e <_ZNSt12__shared_ptrIN9Interface10ISemaphoreELN9__gnu_cxx12_Lock_policyE0EE5resetEv>
    }
20008ec4:	bf00      	nop
20008ec6:	3708      	adds	r7, #8
20008ec8:	46bd      	mov	sp, r7
20008eca:	bd80      	pop	{r7, pc}
20008ecc:	00002ffe 	.word	0x00002ffe

20008ed0 <_ZN14CircularBufferISt7variantIJN8G2SEvent7IsReadyENS1_4QuitEEELj20EE6deinitEv>:
    void deinit()
20008ed0:	b580      	push	{r7, lr}
20008ed2:	b082      	sub	sp, #8
20008ed4:	af00      	add	r7, sp, #0
20008ed6:	6078      	str	r0, [r7, #4]
        printf("queue deinit\n");
20008ed8:	4b0b      	ldr	r3, [pc, #44]	@ (20008f08 <_ZN14CircularBufferISt7variantIJN8G2SEvent7IsReadyENS1_4QuitEEELj20EE6deinitEv+0x38>)
20008eda:	447b      	add	r3, pc
20008edc:	4618      	mov	r0, r3
20008ede:	f002 fed7 	bl	2000bc90 <__puts_veneer>
        mMutex.reset();
20008ee2:	687b      	ldr	r3, [r7, #4]
20008ee4:	3308      	adds	r3, #8
20008ee6:	4618      	mov	r0, r3
20008ee8:	f000 fa01 	bl	200092ee <_ZNSt12__shared_ptrIN9Interface6IMutexELN9__gnu_cxx12_Lock_policyE0EE5resetEv>
        mNotEmpty.reset();
20008eec:	687b      	ldr	r3, [r7, #4]
20008eee:	3310      	adds	r3, #16
20008ef0:	4618      	mov	r0, r3
20008ef2:	f000 fa14 	bl	2000931e <_ZNSt12__shared_ptrIN9Interface10ISemaphoreELN9__gnu_cxx12_Lock_policyE0EE5resetEv>
        mNotFull.reset();
20008ef6:	687b      	ldr	r3, [r7, #4]
20008ef8:	3318      	adds	r3, #24
20008efa:	4618      	mov	r0, r3
20008efc:	f000 fa0f 	bl	2000931e <_ZNSt12__shared_ptrIN9Interface10ISemaphoreELN9__gnu_cxx12_Lock_policyE0EE5resetEv>
    }
20008f00:	bf00      	nop
20008f02:	3708      	adds	r7, #8
20008f04:	46bd      	mov	sp, r7
20008f06:	bd80      	pop	{r7, pc}
20008f08:	00002fc2 	.word	0x00002fc2

20008f0c <_ZNSt10shared_ptrIN9Interface6IMutexEEaSEOS2_>:
	}
#pragma GCC diagnostic pop
#endif

      shared_ptr&
      operator=(shared_ptr&& __r) noexcept
20008f0c:	b590      	push	{r4, r7, lr}
20008f0e:	b083      	sub	sp, #12
20008f10:	af00      	add	r7, sp, #0
20008f12:	6078      	str	r0, [r7, #4]
20008f14:	6039      	str	r1, [r7, #0]
      {
	this->__shared_ptr<_Tp>::operator=(std::move(__r));
20008f16:	687c      	ldr	r4, [r7, #4]
20008f18:	6838      	ldr	r0, [r7, #0]
20008f1a:	f7ff f9e9 	bl	200082f0 <_ZSt4moveIRSt10shared_ptrIN9Interface6IMutexEEEONSt16remove_referenceIT_E4typeEOS6_>
20008f1e:	4603      	mov	r3, r0
20008f20:	4619      	mov	r1, r3
20008f22:	4620      	mov	r0, r4
20008f24:	f000 fa13 	bl	2000934e <_ZNSt12__shared_ptrIN9Interface6IMutexELN9__gnu_cxx12_Lock_policyE0EEaSEOS4_>
	return *this;
20008f28:	687b      	ldr	r3, [r7, #4]
      }
20008f2a:	4618      	mov	r0, r3
20008f2c:	370c      	adds	r7, #12
20008f2e:	46bd      	mov	sp, r7
20008f30:	bd90      	pop	{r4, r7, pc}

20008f32 <_ZNSt10shared_ptrIN9Interface10ISemaphoreEEaSEOS2_>:
      operator=(shared_ptr&& __r) noexcept
20008f32:	b590      	push	{r4, r7, lr}
20008f34:	b083      	sub	sp, #12
20008f36:	af00      	add	r7, sp, #0
20008f38:	6078      	str	r0, [r7, #4]
20008f3a:	6039      	str	r1, [r7, #0]
	this->__shared_ptr<_Tp>::operator=(std::move(__r));
20008f3c:	687c      	ldr	r4, [r7, #4]
20008f3e:	6838      	ldr	r0, [r7, #0]
20008f40:	f000 fa24 	bl	2000938c <_ZSt4moveIRSt10shared_ptrIN9Interface10ISemaphoreEEEONSt16remove_referenceIT_E4typeEOS6_>
20008f44:	4603      	mov	r3, r0
20008f46:	4619      	mov	r1, r3
20008f48:	4620      	mov	r0, r4
20008f4a:	f000 fa2a 	bl	200093a2 <_ZNSt12__shared_ptrIN9Interface10ISemaphoreELN9__gnu_cxx12_Lock_policyE0EEaSEOS4_>
	return *this;
20008f4e:	687b      	ldr	r3, [r7, #4]
      }
20008f50:	4618      	mov	r0, r3
20008f52:	370c      	adds	r7, #12
20008f54:	46bd      	mov	sp, r7
20008f56:	bd90      	pop	{r4, r7, pc}

20008f58 <_ZNKSt12__shared_ptrIN9Interface6IMutexELN9__gnu_cxx12_Lock_policyE0EEcvbEv>:
      element_type*
      get() const noexcept
      { return _M_ptr; }

      /// Return true if the stored pointer is not null.
      explicit operator bool() const noexcept
20008f58:	b480      	push	{r7}
20008f5a:	b083      	sub	sp, #12
20008f5c:	af00      	add	r7, sp, #0
20008f5e:	6078      	str	r0, [r7, #4]
      { return _M_ptr != nullptr; }
20008f60:	687b      	ldr	r3, [r7, #4]
20008f62:	681b      	ldr	r3, [r3, #0]
20008f64:	2b00      	cmp	r3, #0
20008f66:	bf14      	ite	ne
20008f68:	2301      	movne	r3, #1
20008f6a:	2300      	moveq	r3, #0
20008f6c:	b2db      	uxtb	r3, r3
20008f6e:	4618      	mov	r0, r3
20008f70:	370c      	adds	r7, #12
20008f72:	46bd      	mov	sp, r7
20008f74:	f85d 7b04 	ldr.w	r7, [sp], #4
20008f78:	4770      	bx	lr

20008f7a <_ZNKSt12__shared_ptrIN9Interface10ISemaphoreELN9__gnu_cxx12_Lock_policyE0EEcvbEv>:
      explicit operator bool() const noexcept
20008f7a:	b480      	push	{r7}
20008f7c:	b083      	sub	sp, #12
20008f7e:	af00      	add	r7, sp, #0
20008f80:	6078      	str	r0, [r7, #4]
      { return _M_ptr != nullptr; }
20008f82:	687b      	ldr	r3, [r7, #4]
20008f84:	681b      	ldr	r3, [r3, #0]
20008f86:	2b00      	cmp	r3, #0
20008f88:	bf14      	ite	ne
20008f8a:	2301      	movne	r3, #1
20008f8c:	2300      	moveq	r3, #0
20008f8e:	b2db      	uxtb	r3, r3
20008f90:	4618      	mov	r0, r3
20008f92:	370c      	adds	r7, #12
20008f94:	46bd      	mov	sp, r7
20008f96:	f85d 7b04 	ldr.w	r7, [sp], #4
20008f9a:	4770      	bx	lr

20008f9c <_ZNKSt19__shared_ptr_accessIN9Interface10ISemaphoreELN9__gnu_cxx12_Lock_policyE0ELb0ELb0EEptEv>:
      operator->() const noexcept
20008f9c:	b580      	push	{r7, lr}
20008f9e:	b082      	sub	sp, #8
20008fa0:	af00      	add	r7, sp, #0
20008fa2:	6078      	str	r0, [r7, #4]
	return _M_get();
20008fa4:	6878      	ldr	r0, [r7, #4]
20008fa6:	f000 fa1b 	bl	200093e0 <_ZNKSt19__shared_ptr_accessIN9Interface10ISemaphoreELN9__gnu_cxx12_Lock_policyE0ELb0ELb0EE6_M_getEv>
20008faa:	4603      	mov	r3, r0
      }
20008fac:	4618      	mov	r0, r3
20008fae:	3708      	adds	r7, #8
20008fb0:	46bd      	mov	sp, r7
20008fb2:	bd80      	pop	{r7, pc}

20008fb4 <_ZNKSt19__shared_ptr_accessIN9Interface6IMutexELN9__gnu_cxx12_Lock_policyE0ELb0ELb0EEptEv>:
      operator->() const noexcept
20008fb4:	b580      	push	{r7, lr}
20008fb6:	b082      	sub	sp, #8
20008fb8:	af00      	add	r7, sp, #0
20008fba:	6078      	str	r0, [r7, #4]
	return _M_get();
20008fbc:	6878      	ldr	r0, [r7, #4]
20008fbe:	f7ff ff25 	bl	20008e0c <_ZNKSt19__shared_ptr_accessIN9Interface6IMutexELN9__gnu_cxx12_Lock_policyE0ELb0ELb0EE6_M_getEv>
20008fc2:	4603      	mov	r3, r0
      }
20008fc4:	4618      	mov	r0, r3
20008fc6:	3708      	adds	r7, #8
20008fc8:	46bd      	mov	sp, r7
20008fca:	bd80      	pop	{r7, pc}

20008fcc <_ZNSt5arrayISt7variantIJN8S2GEvent11DailyHealthEEELj20EEixEj>:
      empty() const noexcept { return size() == 0; }

      // Element access.
      [[__nodiscard__]]
      _GLIBCXX17_CONSTEXPR reference
      operator[](size_type __n) noexcept
20008fcc:	b480      	push	{r7}
20008fce:	b083      	sub	sp, #12
20008fd0:	af00      	add	r7, sp, #0
20008fd2:	6078      	str	r0, [r7, #4]
20008fd4:	6039      	str	r1, [r7, #0]
      {
	__glibcxx_requires_subscript(__n);
	return _M_elems[__n];
20008fd6:	683a      	ldr	r2, [r7, #0]
20008fd8:	4613      	mov	r3, r2
20008fda:	005b      	lsls	r3, r3, #1
20008fdc:	4413      	add	r3, r2
20008fde:	00db      	lsls	r3, r3, #3
20008fe0:	687a      	ldr	r2, [r7, #4]
20008fe2:	4413      	add	r3, r2
      }
20008fe4:	4618      	mov	r0, r3
20008fe6:	370c      	adds	r7, #12
20008fe8:	46bd      	mov	sp, r7
20008fea:	f85d 7b04 	ldr.w	r7, [sp], #4
20008fee:	4770      	bx	lr

20008ff0 <_ZSt4moveIRSt7variantIJN8S2GEvent11DailyHealthEEEEONSt16remove_referenceIT_E4typeEOS6_>:
    move(_Tp&& __t) noexcept
20008ff0:	b480      	push	{r7}
20008ff2:	b083      	sub	sp, #12
20008ff4:	af00      	add	r7, sp, #0
20008ff6:	6078      	str	r0, [r7, #4]
    { return static_cast<typename std::remove_reference<_Tp>::type&&>(__t); }
20008ff8:	687b      	ldr	r3, [r7, #4]
20008ffa:	4618      	mov	r0, r3
20008ffc:	370c      	adds	r7, #12
20008ffe:	46bd      	mov	sp, r7
20009000:	f85d 7b04 	ldr.w	r7, [sp], #4
20009004:	4770      	bx	lr

20009006 <_ZNSt8__detail9__variant4__asIJN8S2GEvent11DailyHealthEEEERSt7variantIJDpT_EES8_>:
    __as(std::variant<_Types...>& __v) noexcept
20009006:	b480      	push	{r7}
20009008:	b083      	sub	sp, #12
2000900a:	af00      	add	r7, sp, #0
2000900c:	6078      	str	r0, [r7, #4]
    { return __v; }
2000900e:	687b      	ldr	r3, [r7, #4]
20009010:	4618      	mov	r0, r3
20009012:	370c      	adds	r7, #12
20009014:	46bd      	mov	sp, r7
20009016:	f85d 7b04 	ldr.w	r7, [sp], #4
2000901a:	4770      	bx	lr

2000901c <_ZNKSt7variantIJN8S2GEvent11DailyHealthEEE22valueless_by_exceptionEv>:
      constexpr bool valueless_by_exception() const noexcept
2000901c:	b580      	push	{r7, lr}
2000901e:	b082      	sub	sp, #8
20009020:	af00      	add	r7, sp, #0
20009022:	6078      	str	r0, [r7, #4]
      { return !this->_M_valid(); }
20009024:	687b      	ldr	r3, [r7, #4]
20009026:	4618      	mov	r0, r3
20009028:	f000 f9e6 	bl	200093f8 <_ZNKSt8__detail9__variant16_Variant_storageILb1EJN8S2GEvent11DailyHealthEEE8_M_validEv>
2000902c:	4603      	mov	r3, r0
2000902e:	f083 0301 	eor.w	r3, r3, #1
20009032:	b2db      	uxtb	r3, r3
20009034:	4618      	mov	r0, r3
20009036:	3708      	adds	r7, #8
20009038:	46bd      	mov	sp, r7
2000903a:	bd80      	pop	{r7, pc}

2000903c <_ZSt7forwardIZN5Model14checkS2GEventsEvEUlRKT_E_EOS1_RNSt16remove_referenceIS1_E4typeE>:
    forward(typename std::remove_reference<_Tp>::type& __t) noexcept
2000903c:	b480      	push	{r7}
2000903e:	b083      	sub	sp, #12
20009040:	af00      	add	r7, sp, #0
20009042:	6078      	str	r0, [r7, #4]
    { return static_cast<_Tp&&>(__t); }
20009044:	687b      	ldr	r3, [r7, #4]
20009046:	4618      	mov	r0, r3
20009048:	370c      	adds	r7, #12
2000904a:	46bd      	mov	sp, r7
2000904c:	f85d 7b04 	ldr.w	r7, [sp], #4
20009050:	4770      	bx	lr

20009052 <_ZNKSt7variantIJN8S2GEvent11DailyHealthEEE5indexEv>:
      constexpr size_t index() const noexcept
20009052:	b480      	push	{r7}
20009054:	b083      	sub	sp, #12
20009056:	af00      	add	r7, sp, #0
20009058:	6078      	str	r0, [r7, #4]
	  return this->_M_index;
2000905a:	687b      	ldr	r3, [r7, #4]
2000905c:	7d1b      	ldrb	r3, [r3, #20]
      }
2000905e:	4618      	mov	r0, r3
20009060:	370c      	adds	r7, #12
20009062:	46bd      	mov	sp, r7
20009064:	f85d 7b04 	ldr.w	r7, [sp], #4
20009068:	4770      	bx	lr

2000906a <_ZSt7forwardIRSt7variantIJN8S2GEvent11DailyHealthEEEEOT_RNSt16remove_referenceIS5_E4typeE>:
    forward(typename std::remove_reference<_Tp>::type& __t) noexcept
2000906a:	b480      	push	{r7}
2000906c:	b083      	sub	sp, #12
2000906e:	af00      	add	r7, sp, #0
20009070:	6078      	str	r0, [r7, #4]
    { return static_cast<_Tp&&>(__t); }
20009072:	687b      	ldr	r3, [r7, #4]
20009074:	4618      	mov	r0, r3
20009076:	370c      	adds	r7, #12
20009078:	46bd      	mov	sp, r7
2000907a:	f85d 7b04 	ldr.w	r7, [sp], #4
2000907e:	4770      	bx	lr

20009080 <_ZSt7forwardIOZN5Model14checkS2GEventsEvEUlRKT_E_EOS1_RNSt16remove_referenceIS1_E4typeE>:
    forward(typename std::remove_reference<_Tp>::type& __t) noexcept
20009080:	b480      	push	{r7}
20009082:	b083      	sub	sp, #12
20009084:	af00      	add	r7, sp, #0
20009086:	6078      	str	r0, [r7, #4]
    { return static_cast<_Tp&&>(__t); }
20009088:	687b      	ldr	r3, [r7, #4]
2000908a:	4618      	mov	r0, r3
2000908c:	370c      	adds	r7, #12
2000908e:	46bd      	mov	sp, r7
20009090:	f85d 7b04 	ldr.w	r7, [sp], #4
20009094:	4770      	bx	lr

20009096 <_ZSt7forwardIRNSt8__detail9__variant15_Variadic_unionIJN8S2GEvent11DailyHealthEEEEEOT_RNSt16remove_referenceIS7_E4typeE>:
    forward(typename std::remove_reference<_Tp>::type& __t) noexcept
20009096:	b480      	push	{r7}
20009098:	b083      	sub	sp, #12
2000909a:	af00      	add	r7, sp, #0
2000909c:	6078      	str	r0, [r7, #4]
    { return static_cast<_Tp&&>(__t); }
2000909e:	687b      	ldr	r3, [r7, #4]
200090a0:	4618      	mov	r0, r3
200090a2:	370c      	adds	r7, #12
200090a4:	46bd      	mov	sp, r7
200090a6:	f85d 7b04 	ldr.w	r7, [sp], #4
200090aa:	4770      	bx	lr

200090ac <_ZNRSt8__detail9__variant14_UninitializedIN8S2GEvent11DailyHealthELb1EE6_M_getEv>:
      constexpr _Type& _M_get() & noexcept
200090ac:	b480      	push	{r7}
200090ae:	b083      	sub	sp, #12
200090b0:	af00      	add	r7, sp, #0
200090b2:	6078      	str	r0, [r7, #4]
      { return _M_storage; }
200090b4:	687b      	ldr	r3, [r7, #4]
200090b6:	4618      	mov	r0, r3
200090b8:	370c      	adds	r7, #12
200090ba:	46bd      	mov	sp, r7
200090bc:	f85d 7b04 	ldr.w	r7, [sp], #4
200090c0:	4770      	bx	lr

200090c2 <_ZSt8__invokeIZN5Model14checkS2GEventsEvEUlRKT_E_JRN8S2GEvent11DailyHealthEEENSt15__invoke_resultIS1_JDpT0_EE4typeEOS1_DpOS9_>:
    { return (*std::forward<_Tp>(__t)).*__f; }

  /// Invoke a callable object.
  template<typename _Callable, typename... _Args>
    constexpr typename __invoke_result<_Callable, _Args...>::type
    __invoke(_Callable&& __fn, _Args&&... __args)
200090c2:	b5b0      	push	{r4, r5, r7, lr}
200090c4:	b082      	sub	sp, #8
200090c6:	af00      	add	r7, sp, #0
200090c8:	6078      	str	r0, [r7, #4]
200090ca:	6039      	str	r1, [r7, #0]
    noexcept(__is_nothrow_invocable<_Callable, _Args...>::value)
    {
      using __result = __invoke_result<_Callable, _Args...>;
      using __type = typename __result::type;
      using __tag = typename __result::__invoke_type;
      return std::__invoke_impl<__type>(__tag{}, std::forward<_Callable>(__fn),
200090cc:	6878      	ldr	r0, [r7, #4]
200090ce:	f7ff ffb5 	bl	2000903c <_ZSt7forwardIZN5Model14checkS2GEventsEvEUlRKT_E_EOS1_RNSt16remove_referenceIS1_E4typeE>
200090d2:	4604      	mov	r4, r0
200090d4:	6838      	ldr	r0, [r7, #0]
200090d6:	f000 f99a 	bl	2000940e <_ZSt7forwardIRN8S2GEvent11DailyHealthEEOT_RNSt16remove_referenceIS3_E4typeE>
200090da:	4603      	mov	r3, r0
200090dc:	461a      	mov	r2, r3
200090de:	4621      	mov	r1, r4
200090e0:	4628      	mov	r0, r5
200090e2:	f000 f99f 	bl	20009424 <_ZSt13__invoke_implIvZN5Model14checkS2GEventsEvEUlRKT_E_JRN8S2GEvent11DailyHealthEEES1_St14__invoke_otherOT0_DpOT1_>
					std::forward<_Args>(__args)...);
200090e6:	bf00      	nop
    }
200090e8:	3708      	adds	r7, #8
200090ea:	46bd      	mov	sp, r7
200090ec:	bdb0      	pop	{r4, r5, r7, pc}

200090ee <_ZNSt5arrayISt7variantIJN8G2SEvent7IsReadyENS1_4QuitEEELj20EEixEj>:
      operator[](size_type __n) noexcept
200090ee:	b480      	push	{r7}
200090f0:	b083      	sub	sp, #12
200090f2:	af00      	add	r7, sp, #0
200090f4:	6078      	str	r0, [r7, #4]
200090f6:	6039      	str	r1, [r7, #0]
	return _M_elems[__n];
200090f8:	683b      	ldr	r3, [r7, #0]
200090fa:	005b      	lsls	r3, r3, #1
200090fc:	687a      	ldr	r2, [r7, #4]
200090fe:	4413      	add	r3, r2
      }
20009100:	4618      	mov	r0, r3
20009102:	370c      	adds	r7, #12
20009104:	46bd      	mov	sp, r7
20009106:	f85d 7b04 	ldr.w	r7, [sp], #4
2000910a:	4770      	bx	lr

2000910c <_ZSt4moveIRSt7variantIJN8G2SEvent7IsReadyENS1_4QuitEEEEONSt16remove_referenceIT_E4typeEOS7_>:
    move(_Tp&& __t) noexcept
2000910c:	b480      	push	{r7}
2000910e:	b083      	sub	sp, #12
20009110:	af00      	add	r7, sp, #0
20009112:	6078      	str	r0, [r7, #4]
    { return static_cast<typename std::remove_reference<_Tp>::type&&>(__t); }
20009114:	687b      	ldr	r3, [r7, #4]
20009116:	4618      	mov	r0, r3
20009118:	370c      	adds	r7, #12
2000911a:	46bd      	mov	sp, r7
2000911c:	f85d 7b04 	ldr.w	r7, [sp], #4
20009120:	4770      	bx	lr

20009122 <_ZNSt8__detail9__variant4__asIJN8G2SEvent7IsReadyENS2_4QuitEEEERSt7variantIJDpT_EES9_>:
    __as(std::variant<_Types...>& __v) noexcept
20009122:	b480      	push	{r7}
20009124:	b083      	sub	sp, #12
20009126:	af00      	add	r7, sp, #0
20009128:	6078      	str	r0, [r7, #4]
    { return __v; }
2000912a:	687b      	ldr	r3, [r7, #4]
2000912c:	4618      	mov	r0, r3
2000912e:	370c      	adds	r7, #12
20009130:	46bd      	mov	sp, r7
20009132:	f85d 7b04 	ldr.w	r7, [sp], #4
20009136:	4770      	bx	lr

20009138 <_ZNKSt7variantIJN8G2SEvent7IsReadyENS0_4QuitEEE22valueless_by_exceptionEv>:
      constexpr bool valueless_by_exception() const noexcept
20009138:	b580      	push	{r7, lr}
2000913a:	b082      	sub	sp, #8
2000913c:	af00      	add	r7, sp, #0
2000913e:	6078      	str	r0, [r7, #4]
      { return !this->_M_valid(); }
20009140:	687b      	ldr	r3, [r7, #4]
20009142:	4618      	mov	r0, r3
20009144:	f000 f984 	bl	20009450 <_ZNKSt8__detail9__variant16_Variant_storageILb1EJN8G2SEvent7IsReadyENS2_4QuitEEE8_M_validEv>
20009148:	4603      	mov	r3, r0
2000914a:	f083 0301 	eor.w	r3, r3, #1
2000914e:	b2db      	uxtb	r3, r3
20009150:	4618      	mov	r0, r3
20009152:	3708      	adds	r7, #8
20009154:	46bd      	mov	sp, r7
20009156:	bd80      	pop	{r7, pc}

20009158 <_ZSt7forwardIZN5Model14checkG2SEventsEvEUlRKT_E_EOS1_RNSt16remove_referenceIS1_E4typeE>:
    forward(typename std::remove_reference<_Tp>::type& __t) noexcept
20009158:	b480      	push	{r7}
2000915a:	b083      	sub	sp, #12
2000915c:	af00      	add	r7, sp, #0
2000915e:	6078      	str	r0, [r7, #4]
    { return static_cast<_Tp&&>(__t); }
20009160:	687b      	ldr	r3, [r7, #4]
20009162:	4618      	mov	r0, r3
20009164:	370c      	adds	r7, #12
20009166:	46bd      	mov	sp, r7
20009168:	f85d 7b04 	ldr.w	r7, [sp], #4
2000916c:	4770      	bx	lr

2000916e <_ZNKSt7variantIJN8G2SEvent7IsReadyENS0_4QuitEEE5indexEv>:
      constexpr size_t index() const noexcept
2000916e:	b480      	push	{r7}
20009170:	b083      	sub	sp, #12
20009172:	af00      	add	r7, sp, #0
20009174:	6078      	str	r0, [r7, #4]
	  return this->_M_index;
20009176:	687b      	ldr	r3, [r7, #4]
20009178:	785b      	ldrb	r3, [r3, #1]
      }
2000917a:	4618      	mov	r0, r3
2000917c:	370c      	adds	r7, #12
2000917e:	46bd      	mov	sp, r7
20009180:	f85d 7b04 	ldr.w	r7, [sp], #4
20009184:	4770      	bx	lr

20009186 <_ZSt7forwardIRSt7variantIJN8G2SEvent7IsReadyENS1_4QuitEEEEOT_RNSt16remove_referenceIS6_E4typeE>:
    forward(typename std::remove_reference<_Tp>::type& __t) noexcept
20009186:	b480      	push	{r7}
20009188:	b083      	sub	sp, #12
2000918a:	af00      	add	r7, sp, #0
2000918c:	6078      	str	r0, [r7, #4]
    { return static_cast<_Tp&&>(__t); }
2000918e:	687b      	ldr	r3, [r7, #4]
20009190:	4618      	mov	r0, r3
20009192:	370c      	adds	r7, #12
20009194:	46bd      	mov	sp, r7
20009196:	f85d 7b04 	ldr.w	r7, [sp], #4
2000919a:	4770      	bx	lr

2000919c <_ZSt7forwardIOZN5Model14checkG2SEventsEvEUlRKT_E_EOS1_RNSt16remove_referenceIS1_E4typeE>:
    forward(typename std::remove_reference<_Tp>::type& __t) noexcept
2000919c:	b480      	push	{r7}
2000919e:	b083      	sub	sp, #12
200091a0:	af00      	add	r7, sp, #0
200091a2:	6078      	str	r0, [r7, #4]
    { return static_cast<_Tp&&>(__t); }
200091a4:	687b      	ldr	r3, [r7, #4]
200091a6:	4618      	mov	r0, r3
200091a8:	370c      	adds	r7, #12
200091aa:	46bd      	mov	sp, r7
200091ac:	f85d 7b04 	ldr.w	r7, [sp], #4
200091b0:	4770      	bx	lr

200091b2 <_ZSt7forwardIRNSt8__detail9__variant15_Variadic_unionIJN8G2SEvent7IsReadyENS3_4QuitEEEEEOT_RNSt16remove_referenceIS8_E4typeE>:
    forward(typename std::remove_reference<_Tp>::type& __t) noexcept
200091b2:	b480      	push	{r7}
200091b4:	b083      	sub	sp, #12
200091b6:	af00      	add	r7, sp, #0
200091b8:	6078      	str	r0, [r7, #4]
    { return static_cast<_Tp&&>(__t); }
200091ba:	687b      	ldr	r3, [r7, #4]
200091bc:	4618      	mov	r0, r3
200091be:	370c      	adds	r7, #12
200091c0:	46bd      	mov	sp, r7
200091c2:	f85d 7b04 	ldr.w	r7, [sp], #4
200091c6:	4770      	bx	lr

200091c8 <_ZNRSt8__detail9__variant14_UninitializedIN8G2SEvent7IsReadyELb1EE6_M_getEv>:
      constexpr _Type& _M_get() & noexcept
200091c8:	b480      	push	{r7}
200091ca:	b083      	sub	sp, #12
200091cc:	af00      	add	r7, sp, #0
200091ce:	6078      	str	r0, [r7, #4]
      { return _M_storage; }
200091d0:	687b      	ldr	r3, [r7, #4]
200091d2:	4618      	mov	r0, r3
200091d4:	370c      	adds	r7, #12
200091d6:	46bd      	mov	sp, r7
200091d8:	f85d 7b04 	ldr.w	r7, [sp], #4
200091dc:	4770      	bx	lr

200091de <_ZSt8__invokeIZN5Model14checkG2SEventsEvEUlRKT_E_JRN8G2SEvent7IsReadyEEENSt15__invoke_resultIS1_JDpT0_EE4typeEOS1_DpOS9_>:
    __invoke(_Callable&& __fn, _Args&&... __args)
200091de:	b5b0      	push	{r4, r5, r7, lr}
200091e0:	b082      	sub	sp, #8
200091e2:	af00      	add	r7, sp, #0
200091e4:	6078      	str	r0, [r7, #4]
200091e6:	6039      	str	r1, [r7, #0]
      return std::__invoke_impl<__type>(__tag{}, std::forward<_Callable>(__fn),
200091e8:	6878      	ldr	r0, [r7, #4]
200091ea:	f7ff ffb5 	bl	20009158 <_ZSt7forwardIZN5Model14checkG2SEventsEvEUlRKT_E_EOS1_RNSt16remove_referenceIS1_E4typeE>
200091ee:	4604      	mov	r4, r0
200091f0:	6838      	ldr	r0, [r7, #0]
200091f2:	f000 f938 	bl	20009466 <_ZSt7forwardIRN8G2SEvent7IsReadyEEOT_RNSt16remove_referenceIS3_E4typeE>
200091f6:	4603      	mov	r3, r0
200091f8:	461a      	mov	r2, r3
200091fa:	4621      	mov	r1, r4
200091fc:	4628      	mov	r0, r5
200091fe:	f000 f93d 	bl	2000947c <_ZSt13__invoke_implIvZN5Model14checkG2SEventsEvEUlRKT_E_JRN8G2SEvent7IsReadyEEES1_St14__invoke_otherOT0_DpOT1_>
					std::forward<_Args>(__args)...);
20009202:	bf00      	nop
    }
20009204:	3708      	adds	r7, #8
20009206:	46bd      	mov	sp, r7
20009208:	bdb0      	pop	{r4, r5, r7, pc}

2000920a <_ZNRSt8__detail9__variant14_UninitializedIN8G2SEvent4QuitELb1EE6_M_getEv>:
      constexpr _Type& _M_get() & noexcept
2000920a:	b480      	push	{r7}
2000920c:	b083      	sub	sp, #12
2000920e:	af00      	add	r7, sp, #0
20009210:	6078      	str	r0, [r7, #4]
      { return _M_storage; }
20009212:	687b      	ldr	r3, [r7, #4]
20009214:	4618      	mov	r0, r3
20009216:	370c      	adds	r7, #12
20009218:	46bd      	mov	sp, r7
2000921a:	f85d 7b04 	ldr.w	r7, [sp], #4
2000921e:	4770      	bx	lr

20009220 <_ZSt8__invokeIZN5Model14checkG2SEventsEvEUlRKT_E_JRN8G2SEvent4QuitEEENSt15__invoke_resultIS1_JDpT0_EE4typeEOS1_DpOS9_>:
    __invoke(_Callable&& __fn, _Args&&... __args)
20009220:	b5b0      	push	{r4, r5, r7, lr}
20009222:	b082      	sub	sp, #8
20009224:	af00      	add	r7, sp, #0
20009226:	6078      	str	r0, [r7, #4]
20009228:	6039      	str	r1, [r7, #0]
      return std::__invoke_impl<__type>(__tag{}, std::forward<_Callable>(__fn),
2000922a:	6878      	ldr	r0, [r7, #4]
2000922c:	f7ff ff94 	bl	20009158 <_ZSt7forwardIZN5Model14checkG2SEventsEvEUlRKT_E_EOS1_RNSt16remove_referenceIS1_E4typeE>
20009230:	4604      	mov	r4, r0
20009232:	6838      	ldr	r0, [r7, #0]
20009234:	f000 f938 	bl	200094a8 <_ZSt7forwardIRN8G2SEvent4QuitEEOT_RNSt16remove_referenceIS3_E4typeE>
20009238:	4603      	mov	r3, r0
2000923a:	461a      	mov	r2, r3
2000923c:	4621      	mov	r1, r4
2000923e:	4628      	mov	r0, r5
20009240:	f000 f93d 	bl	200094be <_ZSt13__invoke_implIvZN5Model14checkG2SEventsEvEUlRKT_E_JRN8G2SEvent4QuitEEES1_St14__invoke_otherOT0_DpOT1_>
					std::forward<_Args>(__args)...);
20009244:	bf00      	nop
    }
20009246:	3708      	adds	r7, #8
20009248:	46bd      	mov	sp, r7
2000924a:	bdb0      	pop	{r4, r5, r7, pc}

2000924c <_ZNKSt12__shared_ptrIN9Interface6IMutexELN9__gnu_cxx12_Lock_policyE0EE3getEv>:
      get() const noexcept
2000924c:	b480      	push	{r7}
2000924e:	b083      	sub	sp, #12
20009250:	af00      	add	r7, sp, #0
20009252:	6078      	str	r0, [r7, #4]
      { return _M_ptr; }
20009254:	687b      	ldr	r3, [r7, #4]
20009256:	681b      	ldr	r3, [r3, #0]
20009258:	4618      	mov	r0, r3
2000925a:	370c      	adds	r7, #12
2000925c:	46bd      	mov	sp, r7
2000925e:	f85d 7b04 	ldr.w	r7, [sp], #4
20009262:	4770      	bx	lr

20009264 <_ZNSt14__shared_countILN9__gnu_cxx12_Lock_policyE0EEC1Ev>:
      constexpr __shared_count() noexcept : _M_pi(0)
20009264:	b480      	push	{r7}
20009266:	b083      	sub	sp, #12
20009268:	af00      	add	r7, sp, #0
2000926a:	6078      	str	r0, [r7, #4]
2000926c:	687b      	ldr	r3, [r7, #4]
2000926e:	2200      	movs	r2, #0
20009270:	601a      	str	r2, [r3, #0]
      { }
20009272:	687b      	ldr	r3, [r7, #4]
20009274:	4618      	mov	r0, r3
20009276:	370c      	adds	r7, #12
20009278:	46bd      	mov	sp, r7
2000927a:	f85d 7b04 	ldr.w	r7, [sp], #4
2000927e:	4770      	bx	lr

20009280 <_ZNSt14__shared_countILN9__gnu_cxx12_Lock_policyE0EE7_M_swapERS2_>:
      _M_swap(__shared_count& __r) noexcept
20009280:	b480      	push	{r7}
20009282:	b085      	sub	sp, #20
20009284:	af00      	add	r7, sp, #0
20009286:	6078      	str	r0, [r7, #4]
20009288:	6039      	str	r1, [r7, #0]
	_Sp_counted_base<_Lp>* __tmp = __r._M_pi;
2000928a:	683b      	ldr	r3, [r7, #0]
2000928c:	681b      	ldr	r3, [r3, #0]
2000928e:	60fb      	str	r3, [r7, #12]
	__r._M_pi = _M_pi;
20009290:	687b      	ldr	r3, [r7, #4]
20009292:	681a      	ldr	r2, [r3, #0]
20009294:	683b      	ldr	r3, [r7, #0]
20009296:	601a      	str	r2, [r3, #0]
	_M_pi = __tmp;
20009298:	687b      	ldr	r3, [r7, #4]
2000929a:	68fa      	ldr	r2, [r7, #12]
2000929c:	601a      	str	r2, [r3, #0]
      }
2000929e:	bf00      	nop
200092a0:	3714      	adds	r7, #20
200092a2:	46bd      	mov	sp, r7
200092a4:	f85d 7b04 	ldr.w	r7, [sp], #4
200092a8:	4770      	bx	lr

200092aa <_ZNSt12__shared_ptrIN9Interface6IMutexELN9__gnu_cxx12_Lock_policyE0EEC1Ev>:
      constexpr __shared_ptr() noexcept
200092aa:	b580      	push	{r7, lr}
200092ac:	b082      	sub	sp, #8
200092ae:	af00      	add	r7, sp, #0
200092b0:	6078      	str	r0, [r7, #4]
      : _M_ptr(0), _M_refcount()
200092b2:	687b      	ldr	r3, [r7, #4]
200092b4:	2200      	movs	r2, #0
200092b6:	601a      	str	r2, [r3, #0]
200092b8:	687b      	ldr	r3, [r7, #4]
200092ba:	3304      	adds	r3, #4
200092bc:	4618      	mov	r0, r3
200092be:	f7ff ffd1 	bl	20009264 <_ZNSt14__shared_countILN9__gnu_cxx12_Lock_policyE0EEC1Ev>
      { }
200092c2:	687b      	ldr	r3, [r7, #4]
200092c4:	4618      	mov	r0, r3
200092c6:	3708      	adds	r7, #8
200092c8:	46bd      	mov	sp, r7
200092ca:	bd80      	pop	{r7, pc}

200092cc <_ZNSt12__shared_ptrIN9Interface10ISemaphoreELN9__gnu_cxx12_Lock_policyE0EEC1Ev>:
      constexpr __shared_ptr() noexcept
200092cc:	b580      	push	{r7, lr}
200092ce:	b082      	sub	sp, #8
200092d0:	af00      	add	r7, sp, #0
200092d2:	6078      	str	r0, [r7, #4]
      : _M_ptr(0), _M_refcount()
200092d4:	687b      	ldr	r3, [r7, #4]
200092d6:	2200      	movs	r2, #0
200092d8:	601a      	str	r2, [r3, #0]
200092da:	687b      	ldr	r3, [r7, #4]
200092dc:	3304      	adds	r3, #4
200092de:	4618      	mov	r0, r3
200092e0:	f7ff ffc0 	bl	20009264 <_ZNSt14__shared_countILN9__gnu_cxx12_Lock_policyE0EEC1Ev>
      { }
200092e4:	687b      	ldr	r3, [r7, #4]
200092e6:	4618      	mov	r0, r3
200092e8:	3708      	adds	r7, #8
200092ea:	46bd      	mov	sp, r7
200092ec:	bd80      	pop	{r7, pc}

200092ee <_ZNSt12__shared_ptrIN9Interface6IMutexELN9__gnu_cxx12_Lock_policyE0EE5resetEv>:
      reset() noexcept
200092ee:	b580      	push	{r7, lr}
200092f0:	b084      	sub	sp, #16
200092f2:	af00      	add	r7, sp, #0
200092f4:	6078      	str	r0, [r7, #4]
      { __shared_ptr().swap(*this); }
200092f6:	f107 0308 	add.w	r3, r7, #8
200092fa:	4618      	mov	r0, r3
200092fc:	f7ff ffd5 	bl	200092aa <_ZNSt12__shared_ptrIN9Interface6IMutexELN9__gnu_cxx12_Lock_policyE0EEC1Ev>
20009300:	f107 0308 	add.w	r3, r7, #8
20009304:	6879      	ldr	r1, [r7, #4]
20009306:	4618      	mov	r0, r3
20009308:	f000 f8ef 	bl	200094ea <_ZNSt12__shared_ptrIN9Interface6IMutexELN9__gnu_cxx12_Lock_policyE0EE4swapERS4_>
2000930c:	f107 0308 	add.w	r3, r7, #8
20009310:	4618      	mov	r0, r3
20009312:	f7fe fd59 	bl	20007dc8 <_ZNSt12__shared_ptrIN9Interface6IMutexELN9__gnu_cxx12_Lock_policyE0EED1Ev>
20009316:	bf00      	nop
20009318:	3710      	adds	r7, #16
2000931a:	46bd      	mov	sp, r7
2000931c:	bd80      	pop	{r7, pc}

2000931e <_ZNSt12__shared_ptrIN9Interface10ISemaphoreELN9__gnu_cxx12_Lock_policyE0EE5resetEv>:
      reset() noexcept
2000931e:	b580      	push	{r7, lr}
20009320:	b084      	sub	sp, #16
20009322:	af00      	add	r7, sp, #0
20009324:	6078      	str	r0, [r7, #4]
      { __shared_ptr().swap(*this); }
20009326:	f107 0308 	add.w	r3, r7, #8
2000932a:	4618      	mov	r0, r3
2000932c:	f7ff ffce 	bl	200092cc <_ZNSt12__shared_ptrIN9Interface10ISemaphoreELN9__gnu_cxx12_Lock_policyE0EEC1Ev>
20009330:	f107 0308 	add.w	r3, r7, #8
20009334:	6879      	ldr	r1, [r7, #4]
20009336:	4618      	mov	r0, r3
20009338:	f000 f8ee 	bl	20009518 <_ZNSt12__shared_ptrIN9Interface10ISemaphoreELN9__gnu_cxx12_Lock_policyE0EE4swapERS4_>
2000933c:	f107 0308 	add.w	r3, r7, #8
20009340:	4618      	mov	r0, r3
20009342:	f7fe ffe0 	bl	20008306 <_ZNSt12__shared_ptrIN9Interface10ISemaphoreELN9__gnu_cxx12_Lock_policyE0EED1Ev>
20009346:	bf00      	nop
20009348:	3710      	adds	r7, #16
2000934a:	46bd      	mov	sp, r7
2000934c:	bd80      	pop	{r7, pc}

2000934e <_ZNSt12__shared_ptrIN9Interface6IMutexELN9__gnu_cxx12_Lock_policyE0EEaSEOS4_>:
      operator=(__shared_ptr&& __r) noexcept
2000934e:	b580      	push	{r7, lr}
20009350:	b084      	sub	sp, #16
20009352:	af00      	add	r7, sp, #0
20009354:	6078      	str	r0, [r7, #4]
20009356:	6039      	str	r1, [r7, #0]
	__shared_ptr(std::move(__r)).swap(*this);
20009358:	6838      	ldr	r0, [r7, #0]
2000935a:	f000 f8f4 	bl	20009546 <_ZSt4moveIRSt12__shared_ptrIN9Interface6IMutexELN9__gnu_cxx12_Lock_policyE0EEEONSt16remove_referenceIT_E4typeEOS8_>
2000935e:	4602      	mov	r2, r0
20009360:	f107 0308 	add.w	r3, r7, #8
20009364:	4611      	mov	r1, r2
20009366:	4618      	mov	r0, r3
20009368:	f7ff fd5c 	bl	20008e24 <_ZNSt12__shared_ptrIN9Interface6IMutexELN9__gnu_cxx12_Lock_policyE0EEC1EOS4_>
2000936c:	f107 0308 	add.w	r3, r7, #8
20009370:	6879      	ldr	r1, [r7, #4]
20009372:	4618      	mov	r0, r3
20009374:	f000 f8b9 	bl	200094ea <_ZNSt12__shared_ptrIN9Interface6IMutexELN9__gnu_cxx12_Lock_policyE0EE4swapERS4_>
20009378:	f107 0308 	add.w	r3, r7, #8
2000937c:	4618      	mov	r0, r3
2000937e:	f7fe fd23 	bl	20007dc8 <_ZNSt12__shared_ptrIN9Interface6IMutexELN9__gnu_cxx12_Lock_policyE0EED1Ev>
	return *this;
20009382:	687b      	ldr	r3, [r7, #4]
      }
20009384:	4618      	mov	r0, r3
20009386:	3710      	adds	r7, #16
20009388:	46bd      	mov	sp, r7
2000938a:	bd80      	pop	{r7, pc}

2000938c <_ZSt4moveIRSt10shared_ptrIN9Interface10ISemaphoreEEEONSt16remove_referenceIT_E4typeEOS6_>:
    move(_Tp&& __t) noexcept
2000938c:	b480      	push	{r7}
2000938e:	b083      	sub	sp, #12
20009390:	af00      	add	r7, sp, #0
20009392:	6078      	str	r0, [r7, #4]
    { return static_cast<typename std::remove_reference<_Tp>::type&&>(__t); }
20009394:	687b      	ldr	r3, [r7, #4]
20009396:	4618      	mov	r0, r3
20009398:	370c      	adds	r7, #12
2000939a:	46bd      	mov	sp, r7
2000939c:	f85d 7b04 	ldr.w	r7, [sp], #4
200093a0:	4770      	bx	lr

200093a2 <_ZNSt12__shared_ptrIN9Interface10ISemaphoreELN9__gnu_cxx12_Lock_policyE0EEaSEOS4_>:
      operator=(__shared_ptr&& __r) noexcept
200093a2:	b580      	push	{r7, lr}
200093a4:	b084      	sub	sp, #16
200093a6:	af00      	add	r7, sp, #0
200093a8:	6078      	str	r0, [r7, #4]
200093aa:	6039      	str	r1, [r7, #0]
	__shared_ptr(std::move(__r)).swap(*this);
200093ac:	6838      	ldr	r0, [r7, #0]
200093ae:	f000 f8d5 	bl	2000955c <_ZSt4moveIRSt12__shared_ptrIN9Interface10ISemaphoreELN9__gnu_cxx12_Lock_policyE0EEEONSt16remove_referenceIT_E4typeEOS8_>
200093b2:	4602      	mov	r2, r0
200093b4:	f107 0308 	add.w	r3, r7, #8
200093b8:	4611      	mov	r1, r2
200093ba:	4618      	mov	r0, r3
200093bc:	f000 f8d9 	bl	20009572 <_ZNSt12__shared_ptrIN9Interface10ISemaphoreELN9__gnu_cxx12_Lock_policyE0EEC1EOS4_>
200093c0:	f107 0308 	add.w	r3, r7, #8
200093c4:	6879      	ldr	r1, [r7, #4]
200093c6:	4618      	mov	r0, r3
200093c8:	f000 f8a6 	bl	20009518 <_ZNSt12__shared_ptrIN9Interface10ISemaphoreELN9__gnu_cxx12_Lock_policyE0EE4swapERS4_>
200093cc:	f107 0308 	add.w	r3, r7, #8
200093d0:	4618      	mov	r0, r3
200093d2:	f7fe ff98 	bl	20008306 <_ZNSt12__shared_ptrIN9Interface10ISemaphoreELN9__gnu_cxx12_Lock_policyE0EED1Ev>
	return *this;
200093d6:	687b      	ldr	r3, [r7, #4]
      }
200093d8:	4618      	mov	r0, r3
200093da:	3710      	adds	r7, #16
200093dc:	46bd      	mov	sp, r7
200093de:	bd80      	pop	{r7, pc}

200093e0 <_ZNKSt19__shared_ptr_accessIN9Interface10ISemaphoreELN9__gnu_cxx12_Lock_policyE0ELb0ELb0EE6_M_getEv>:
      _M_get() const noexcept
200093e0:	b580      	push	{r7, lr}
200093e2:	b082      	sub	sp, #8
200093e4:	af00      	add	r7, sp, #0
200093e6:	6078      	str	r0, [r7, #4]
      { return static_cast<const __shared_ptr<_Tp, _Lp>*>(this)->get(); }
200093e8:	6878      	ldr	r0, [r7, #4]
200093ea:	f000 f8e0 	bl	200095ae <_ZNKSt12__shared_ptrIN9Interface10ISemaphoreELN9__gnu_cxx12_Lock_policyE0EE3getEv>
200093ee:	4603      	mov	r3, r0
200093f0:	4618      	mov	r0, r3
200093f2:	3708      	adds	r7, #8
200093f4:	46bd      	mov	sp, r7
200093f6:	bd80      	pop	{r7, pc}

200093f8 <_ZNKSt8__detail9__variant16_Variant_storageILb1EJN8S2GEvent11DailyHealthEEE8_M_validEv>:
      _M_valid() const noexcept
200093f8:	b480      	push	{r7}
200093fa:	b083      	sub	sp, #12
200093fc:	af00      	add	r7, sp, #0
200093fe:	6078      	str	r0, [r7, #4]
	  return true;
20009400:	2301      	movs	r3, #1
      }
20009402:	4618      	mov	r0, r3
20009404:	370c      	adds	r7, #12
20009406:	46bd      	mov	sp, r7
20009408:	f85d 7b04 	ldr.w	r7, [sp], #4
2000940c:	4770      	bx	lr

2000940e <_ZSt7forwardIRN8S2GEvent11DailyHealthEEOT_RNSt16remove_referenceIS3_E4typeE>:
    forward(typename std::remove_reference<_Tp>::type& __t) noexcept
2000940e:	b480      	push	{r7}
20009410:	b083      	sub	sp, #12
20009412:	af00      	add	r7, sp, #0
20009414:	6078      	str	r0, [r7, #4]
    { return static_cast<_Tp&&>(__t); }
20009416:	687b      	ldr	r3, [r7, #4]
20009418:	4618      	mov	r0, r3
2000941a:	370c      	adds	r7, #12
2000941c:	46bd      	mov	sp, r7
2000941e:	f85d 7b04 	ldr.w	r7, [sp], #4
20009422:	4770      	bx	lr

20009424 <_ZSt13__invoke_implIvZN5Model14checkS2GEventsEvEUlRKT_E_JRN8S2GEvent11DailyHealthEEES1_St14__invoke_otherOT0_DpOT1_>:
    __invoke_impl(__invoke_other, _Fn&& __f, _Args&&... __args)
20009424:	b590      	push	{r4, r7, lr}
20009426:	b085      	sub	sp, #20
20009428:	af00      	add	r7, sp, #0
2000942a:	7338      	strb	r0, [r7, #12]
2000942c:	60b9      	str	r1, [r7, #8]
2000942e:	607a      	str	r2, [r7, #4]
    { return std::forward<_Fn>(__f)(std::forward<_Args>(__args)...); }
20009430:	68b8      	ldr	r0, [r7, #8]
20009432:	f7ff fe03 	bl	2000903c <_ZSt7forwardIZN5Model14checkS2GEventsEvEUlRKT_E_EOS1_RNSt16remove_referenceIS1_E4typeE>
20009436:	4604      	mov	r4, r0
20009438:	6878      	ldr	r0, [r7, #4]
2000943a:	f7ff ffe8 	bl	2000940e <_ZSt7forwardIRN8S2GEvent11DailyHealthEEOT_RNSt16remove_referenceIS3_E4typeE>
2000943e:	4603      	mov	r3, r0
20009440:	4619      	mov	r1, r3
20009442:	4620      	mov	r0, r4
20009444:	f7fe fe0b 	bl	2000805e <_ZZN5Model14checkS2GEventsEvENKUlRKT_E_clIN8S2GEvent11DailyHealthEEEDaS2_>
20009448:	bf00      	nop
2000944a:	3714      	adds	r7, #20
2000944c:	46bd      	mov	sp, r7
2000944e:	bd90      	pop	{r4, r7, pc}

20009450 <_ZNKSt8__detail9__variant16_Variant_storageILb1EJN8G2SEvent7IsReadyENS2_4QuitEEE8_M_validEv>:
      _M_valid() const noexcept
20009450:	b480      	push	{r7}
20009452:	b083      	sub	sp, #12
20009454:	af00      	add	r7, sp, #0
20009456:	6078      	str	r0, [r7, #4]
	  return true;
20009458:	2301      	movs	r3, #1
      }
2000945a:	4618      	mov	r0, r3
2000945c:	370c      	adds	r7, #12
2000945e:	46bd      	mov	sp, r7
20009460:	f85d 7b04 	ldr.w	r7, [sp], #4
20009464:	4770      	bx	lr

20009466 <_ZSt7forwardIRN8G2SEvent7IsReadyEEOT_RNSt16remove_referenceIS3_E4typeE>:
    forward(typename std::remove_reference<_Tp>::type& __t) noexcept
20009466:	b480      	push	{r7}
20009468:	b083      	sub	sp, #12
2000946a:	af00      	add	r7, sp, #0
2000946c:	6078      	str	r0, [r7, #4]
    { return static_cast<_Tp&&>(__t); }
2000946e:	687b      	ldr	r3, [r7, #4]
20009470:	4618      	mov	r0, r3
20009472:	370c      	adds	r7, #12
20009474:	46bd      	mov	sp, r7
20009476:	f85d 7b04 	ldr.w	r7, [sp], #4
2000947a:	4770      	bx	lr

2000947c <_ZSt13__invoke_implIvZN5Model14checkG2SEventsEvEUlRKT_E_JRN8G2SEvent7IsReadyEEES1_St14__invoke_otherOT0_DpOT1_>:
    __invoke_impl(__invoke_other, _Fn&& __f, _Args&&... __args)
2000947c:	b590      	push	{r4, r7, lr}
2000947e:	b085      	sub	sp, #20
20009480:	af00      	add	r7, sp, #0
20009482:	7338      	strb	r0, [r7, #12]
20009484:	60b9      	str	r1, [r7, #8]
20009486:	607a      	str	r2, [r7, #4]
    { return std::forward<_Fn>(__f)(std::forward<_Args>(__args)...); }
20009488:	68b8      	ldr	r0, [r7, #8]
2000948a:	f7ff fe65 	bl	20009158 <_ZSt7forwardIZN5Model14checkG2SEventsEvEUlRKT_E_EOS1_RNSt16remove_referenceIS1_E4typeE>
2000948e:	4604      	mov	r4, r0
20009490:	6878      	ldr	r0, [r7, #4]
20009492:	f7ff ffe8 	bl	20009466 <_ZSt7forwardIRN8G2SEvent7IsReadyEEOT_RNSt16remove_referenceIS3_E4typeE>
20009496:	4603      	mov	r3, r0
20009498:	4619      	mov	r1, r3
2000949a:	4620      	mov	r0, r4
2000949c:	f7fe fec8 	bl	20008230 <_ZZN5Model14checkG2SEventsEvENKUlRKT_E_clIN8G2SEvent7IsReadyEEEDaS2_>
200094a0:	bf00      	nop
200094a2:	3714      	adds	r7, #20
200094a4:	46bd      	mov	sp, r7
200094a6:	bd90      	pop	{r4, r7, pc}

200094a8 <_ZSt7forwardIRN8G2SEvent4QuitEEOT_RNSt16remove_referenceIS3_E4typeE>:
    forward(typename std::remove_reference<_Tp>::type& __t) noexcept
200094a8:	b480      	push	{r7}
200094aa:	b083      	sub	sp, #12
200094ac:	af00      	add	r7, sp, #0
200094ae:	6078      	str	r0, [r7, #4]
    { return static_cast<_Tp&&>(__t); }
200094b0:	687b      	ldr	r3, [r7, #4]
200094b2:	4618      	mov	r0, r3
200094b4:	370c      	adds	r7, #12
200094b6:	46bd      	mov	sp, r7
200094b8:	f85d 7b04 	ldr.w	r7, [sp], #4
200094bc:	4770      	bx	lr

200094be <_ZSt13__invoke_implIvZN5Model14checkG2SEventsEvEUlRKT_E_JRN8G2SEvent4QuitEEES1_St14__invoke_otherOT0_DpOT1_>:
    __invoke_impl(__invoke_other, _Fn&& __f, _Args&&... __args)
200094be:	b590      	push	{r4, r7, lr}
200094c0:	b085      	sub	sp, #20
200094c2:	af00      	add	r7, sp, #0
200094c4:	7338      	strb	r0, [r7, #12]
200094c6:	60b9      	str	r1, [r7, #8]
200094c8:	607a      	str	r2, [r7, #4]
    { return std::forward<_Fn>(__f)(std::forward<_Args>(__args)...); }
200094ca:	68b8      	ldr	r0, [r7, #8]
200094cc:	f7ff fe44 	bl	20009158 <_ZSt7forwardIZN5Model14checkG2SEventsEvEUlRKT_E_EOS1_RNSt16remove_referenceIS1_E4typeE>
200094d0:	4604      	mov	r4, r0
200094d2:	6878      	ldr	r0, [r7, #4]
200094d4:	f7ff ffe8 	bl	200094a8 <_ZSt7forwardIRN8G2SEvent4QuitEEOT_RNSt16remove_referenceIS3_E4typeE>
200094d8:	4603      	mov	r3, r0
200094da:	4619      	mov	r1, r3
200094dc:	4620      	mov	r0, r4
200094de:	f7ff fb19 	bl	20008b14 <_ZZN5Model14checkG2SEventsEvENKUlRKT_E_clIN8G2SEvent4QuitEEEDaS2_>
200094e2:	bf00      	nop
200094e4:	3714      	adds	r7, #20
200094e6:	46bd      	mov	sp, r7
200094e8:	bd90      	pop	{r4, r7, pc}

200094ea <_ZNSt12__shared_ptrIN9Interface6IMutexELN9__gnu_cxx12_Lock_policyE0EE4swapERS4_>:
      use_count() const noexcept
      { return _M_refcount._M_get_use_count(); }

      /// Exchange both the owned pointer and the stored pointer.
      void
      swap(__shared_ptr<_Tp, _Lp>& __other) noexcept
200094ea:	b580      	push	{r7, lr}
200094ec:	b082      	sub	sp, #8
200094ee:	af00      	add	r7, sp, #0
200094f0:	6078      	str	r0, [r7, #4]
200094f2:	6039      	str	r1, [r7, #0]
      {
	std::swap(_M_ptr, __other._M_ptr);
200094f4:	687b      	ldr	r3, [r7, #4]
200094f6:	683a      	ldr	r2, [r7, #0]
200094f8:	4611      	mov	r1, r2
200094fa:	4618      	mov	r0, r3
200094fc:	f000 f863 	bl	200095c6 <_ZSt4swapIPN9Interface6IMutexEENSt9enable_ifIXsrSt6__and_IJSt6__not_ISt15__is_tuple_likeIT_EESt21is_move_constructibleIS7_ESt18is_move_assignableIS7_EEE5valueEvE4typeERS7_SH_>
	_M_refcount._M_swap(__other._M_refcount);
20009500:	687b      	ldr	r3, [r7, #4]
20009502:	1d1a      	adds	r2, r3, #4
20009504:	683b      	ldr	r3, [r7, #0]
20009506:	3304      	adds	r3, #4
20009508:	4619      	mov	r1, r3
2000950a:	4610      	mov	r0, r2
2000950c:	f7ff feb8 	bl	20009280 <_ZNSt14__shared_countILN9__gnu_cxx12_Lock_policyE0EE7_M_swapERS2_>
      }
20009510:	bf00      	nop
20009512:	3708      	adds	r7, #8
20009514:	46bd      	mov	sp, r7
20009516:	bd80      	pop	{r7, pc}

20009518 <_ZNSt12__shared_ptrIN9Interface10ISemaphoreELN9__gnu_cxx12_Lock_policyE0EE4swapERS4_>:
      swap(__shared_ptr<_Tp, _Lp>& __other) noexcept
20009518:	b580      	push	{r7, lr}
2000951a:	b082      	sub	sp, #8
2000951c:	af00      	add	r7, sp, #0
2000951e:	6078      	str	r0, [r7, #4]
20009520:	6039      	str	r1, [r7, #0]
	std::swap(_M_ptr, __other._M_ptr);
20009522:	687b      	ldr	r3, [r7, #4]
20009524:	683a      	ldr	r2, [r7, #0]
20009526:	4611      	mov	r1, r2
20009528:	4618      	mov	r0, r3
2000952a:	f000 f86b 	bl	20009604 <_ZSt4swapIPN9Interface10ISemaphoreEENSt9enable_ifIXsrSt6__and_IJSt6__not_ISt15__is_tuple_likeIT_EESt21is_move_constructibleIS7_ESt18is_move_assignableIS7_EEE5valueEvE4typeERS7_SH_>
	_M_refcount._M_swap(__other._M_refcount);
2000952e:	687b      	ldr	r3, [r7, #4]
20009530:	1d1a      	adds	r2, r3, #4
20009532:	683b      	ldr	r3, [r7, #0]
20009534:	3304      	adds	r3, #4
20009536:	4619      	mov	r1, r3
20009538:	4610      	mov	r0, r2
2000953a:	f7ff fea1 	bl	20009280 <_ZNSt14__shared_countILN9__gnu_cxx12_Lock_policyE0EE7_M_swapERS2_>
      }
2000953e:	bf00      	nop
20009540:	3708      	adds	r7, #8
20009542:	46bd      	mov	sp, r7
20009544:	bd80      	pop	{r7, pc}

20009546 <_ZSt4moveIRSt12__shared_ptrIN9Interface6IMutexELN9__gnu_cxx12_Lock_policyE0EEEONSt16remove_referenceIT_E4typeEOS8_>:
    move(_Tp&& __t) noexcept
20009546:	b480      	push	{r7}
20009548:	b083      	sub	sp, #12
2000954a:	af00      	add	r7, sp, #0
2000954c:	6078      	str	r0, [r7, #4]
    { return static_cast<typename std::remove_reference<_Tp>::type&&>(__t); }
2000954e:	687b      	ldr	r3, [r7, #4]
20009550:	4618      	mov	r0, r3
20009552:	370c      	adds	r7, #12
20009554:	46bd      	mov	sp, r7
20009556:	f85d 7b04 	ldr.w	r7, [sp], #4
2000955a:	4770      	bx	lr

2000955c <_ZSt4moveIRSt12__shared_ptrIN9Interface10ISemaphoreELN9__gnu_cxx12_Lock_policyE0EEEONSt16remove_referenceIT_E4typeEOS8_>:
    move(_Tp&& __t) noexcept
2000955c:	b480      	push	{r7}
2000955e:	b083      	sub	sp, #12
20009560:	af00      	add	r7, sp, #0
20009562:	6078      	str	r0, [r7, #4]
    { return static_cast<typename std::remove_reference<_Tp>::type&&>(__t); }
20009564:	687b      	ldr	r3, [r7, #4]
20009566:	4618      	mov	r0, r3
20009568:	370c      	adds	r7, #12
2000956a:	46bd      	mov	sp, r7
2000956c:	f85d 7b04 	ldr.w	r7, [sp], #4
20009570:	4770      	bx	lr

20009572 <_ZNSt12__shared_ptrIN9Interface10ISemaphoreELN9__gnu_cxx12_Lock_policyE0EEC1EOS4_>:
      __shared_ptr(__shared_ptr&& __r) noexcept
20009572:	b580      	push	{r7, lr}
20009574:	b082      	sub	sp, #8
20009576:	af00      	add	r7, sp, #0
20009578:	6078      	str	r0, [r7, #4]
2000957a:	6039      	str	r1, [r7, #0]
      : _M_ptr(__r._M_ptr), _M_refcount()
2000957c:	683b      	ldr	r3, [r7, #0]
2000957e:	681a      	ldr	r2, [r3, #0]
20009580:	687b      	ldr	r3, [r7, #4]
20009582:	601a      	str	r2, [r3, #0]
20009584:	687b      	ldr	r3, [r7, #4]
20009586:	3304      	adds	r3, #4
20009588:	4618      	mov	r0, r3
2000958a:	f7ff fe6b 	bl	20009264 <_ZNSt14__shared_countILN9__gnu_cxx12_Lock_policyE0EEC1Ev>
	_M_refcount._M_swap(__r._M_refcount);
2000958e:	687b      	ldr	r3, [r7, #4]
20009590:	1d1a      	adds	r2, r3, #4
20009592:	683b      	ldr	r3, [r7, #0]
20009594:	3304      	adds	r3, #4
20009596:	4619      	mov	r1, r3
20009598:	4610      	mov	r0, r2
2000959a:	f7ff fe71 	bl	20009280 <_ZNSt14__shared_countILN9__gnu_cxx12_Lock_policyE0EE7_M_swapERS2_>
	__r._M_ptr = nullptr;
2000959e:	683b      	ldr	r3, [r7, #0]
200095a0:	2200      	movs	r2, #0
200095a2:	601a      	str	r2, [r3, #0]
      }
200095a4:	687b      	ldr	r3, [r7, #4]
200095a6:	4618      	mov	r0, r3
200095a8:	3708      	adds	r7, #8
200095aa:	46bd      	mov	sp, r7
200095ac:	bd80      	pop	{r7, pc}

200095ae <_ZNKSt12__shared_ptrIN9Interface10ISemaphoreELN9__gnu_cxx12_Lock_policyE0EE3getEv>:
      get() const noexcept
200095ae:	b480      	push	{r7}
200095b0:	b083      	sub	sp, #12
200095b2:	af00      	add	r7, sp, #0
200095b4:	6078      	str	r0, [r7, #4]
      { return _M_ptr; }
200095b6:	687b      	ldr	r3, [r7, #4]
200095b8:	681b      	ldr	r3, [r3, #0]
200095ba:	4618      	mov	r0, r3
200095bc:	370c      	adds	r7, #12
200095be:	46bd      	mov	sp, r7
200095c0:	f85d 7b04 	ldr.w	r7, [sp], #4
200095c4:	4770      	bx	lr

200095c6 <_ZSt4swapIPN9Interface6IMutexEENSt9enable_ifIXsrSt6__and_IJSt6__not_ISt15__is_tuple_likeIT_EESt21is_move_constructibleIS7_ESt18is_move_assignableIS7_EEE5valueEvE4typeERS7_SH_>:
			      is_move_constructible<_Tp>,
			      is_move_assignable<_Tp>>::value>::type
#else
    void
#endif
    swap(_Tp& __a, _Tp& __b)
200095c6:	b580      	push	{r7, lr}
200095c8:	b084      	sub	sp, #16
200095ca:	af00      	add	r7, sp, #0
200095cc:	6078      	str	r0, [r7, #4]
200095ce:	6039      	str	r1, [r7, #0]
    {
#if __cplusplus < 201103L
      // concept requirements
      __glibcxx_function_requires(_SGIAssignableConcept<_Tp>)
#endif
      _Tp __tmp = _GLIBCXX_MOVE(__a);
200095d0:	6878      	ldr	r0, [r7, #4]
200095d2:	f000 f836 	bl	20009642 <_ZSt4moveIRPN9Interface6IMutexEEONSt16remove_referenceIT_E4typeEOS5_>
200095d6:	4603      	mov	r3, r0
200095d8:	681b      	ldr	r3, [r3, #0]
200095da:	60fb      	str	r3, [r7, #12]
      __a = _GLIBCXX_MOVE(__b);
200095dc:	6838      	ldr	r0, [r7, #0]
200095de:	f000 f830 	bl	20009642 <_ZSt4moveIRPN9Interface6IMutexEEONSt16remove_referenceIT_E4typeEOS5_>
200095e2:	4603      	mov	r3, r0
200095e4:	681a      	ldr	r2, [r3, #0]
200095e6:	687b      	ldr	r3, [r7, #4]
200095e8:	601a      	str	r2, [r3, #0]
      __b = _GLIBCXX_MOVE(__tmp);
200095ea:	f107 030c 	add.w	r3, r7, #12
200095ee:	4618      	mov	r0, r3
200095f0:	f000 f827 	bl	20009642 <_ZSt4moveIRPN9Interface6IMutexEEONSt16remove_referenceIT_E4typeEOS5_>
200095f4:	4603      	mov	r3, r0
200095f6:	681a      	ldr	r2, [r3, #0]
200095f8:	683b      	ldr	r3, [r7, #0]
200095fa:	601a      	str	r2, [r3, #0]
    }
200095fc:	bf00      	nop
200095fe:	3710      	adds	r7, #16
20009600:	46bd      	mov	sp, r7
20009602:	bd80      	pop	{r7, pc}

20009604 <_ZSt4swapIPN9Interface10ISemaphoreEENSt9enable_ifIXsrSt6__and_IJSt6__not_ISt15__is_tuple_likeIT_EESt21is_move_constructibleIS7_ESt18is_move_assignableIS7_EEE5valueEvE4typeERS7_SH_>:
    swap(_Tp& __a, _Tp& __b)
20009604:	b580      	push	{r7, lr}
20009606:	b084      	sub	sp, #16
20009608:	af00      	add	r7, sp, #0
2000960a:	6078      	str	r0, [r7, #4]
2000960c:	6039      	str	r1, [r7, #0]
      _Tp __tmp = _GLIBCXX_MOVE(__a);
2000960e:	6878      	ldr	r0, [r7, #4]
20009610:	f000 f822 	bl	20009658 <_ZSt4moveIRPN9Interface10ISemaphoreEEONSt16remove_referenceIT_E4typeEOS5_>
20009614:	4603      	mov	r3, r0
20009616:	681b      	ldr	r3, [r3, #0]
20009618:	60fb      	str	r3, [r7, #12]
      __a = _GLIBCXX_MOVE(__b);
2000961a:	6838      	ldr	r0, [r7, #0]
2000961c:	f000 f81c 	bl	20009658 <_ZSt4moveIRPN9Interface10ISemaphoreEEONSt16remove_referenceIT_E4typeEOS5_>
20009620:	4603      	mov	r3, r0
20009622:	681a      	ldr	r2, [r3, #0]
20009624:	687b      	ldr	r3, [r7, #4]
20009626:	601a      	str	r2, [r3, #0]
      __b = _GLIBCXX_MOVE(__tmp);
20009628:	f107 030c 	add.w	r3, r7, #12
2000962c:	4618      	mov	r0, r3
2000962e:	f000 f813 	bl	20009658 <_ZSt4moveIRPN9Interface10ISemaphoreEEONSt16remove_referenceIT_E4typeEOS5_>
20009632:	4603      	mov	r3, r0
20009634:	681a      	ldr	r2, [r3, #0]
20009636:	683b      	ldr	r3, [r7, #0]
20009638:	601a      	str	r2, [r3, #0]
    }
2000963a:	bf00      	nop
2000963c:	3710      	adds	r7, #16
2000963e:	46bd      	mov	sp, r7
20009640:	bd80      	pop	{r7, pc}

20009642 <_ZSt4moveIRPN9Interface6IMutexEEONSt16remove_referenceIT_E4typeEOS5_>:
    move(_Tp&& __t) noexcept
20009642:	b480      	push	{r7}
20009644:	b083      	sub	sp, #12
20009646:	af00      	add	r7, sp, #0
20009648:	6078      	str	r0, [r7, #4]
    { return static_cast<typename std::remove_reference<_Tp>::type&&>(__t); }
2000964a:	687b      	ldr	r3, [r7, #4]
2000964c:	4618      	mov	r0, r3
2000964e:	370c      	adds	r7, #12
20009650:	46bd      	mov	sp, r7
20009652:	f85d 7b04 	ldr.w	r7, [sp], #4
20009656:	4770      	bx	lr

20009658 <_ZSt4moveIRPN9Interface10ISemaphoreEEONSt16remove_referenceIT_E4typeEOS5_>:
    move(_Tp&& __t) noexcept
20009658:	b480      	push	{r7}
2000965a:	b083      	sub	sp, #12
2000965c:	af00      	add	r7, sp, #0
2000965e:	6078      	str	r0, [r7, #4]
    { return static_cast<typename std::remove_reference<_Tp>::type&&>(__t); }
20009660:	687b      	ldr	r3, [r7, #4]
20009662:	4618      	mov	r0, r3
20009664:	370c      	adds	r7, #12
20009666:	46bd      	mov	sp, r7
20009668:	f85d 7b04 	ldr.w	r7, [sp], #4
2000966c:	4770      	bx	lr

2000966e <_ZnwjPv>:
#endif // __cpp_sized_deallocation
#endif // __cpp_aligned_new

// Default placement versions of operator new.
_GLIBCXX_NODISCARD inline void* operator new(std::size_t, void* __p) _GLIBCXX_USE_NOEXCEPT
{ return __p; }
2000966e:	b480      	push	{r7}
20009670:	b083      	sub	sp, #12
20009672:	af00      	add	r7, sp, #0
20009674:	6078      	str	r0, [r7, #4]
20009676:	6039      	str	r1, [r7, #0]
20009678:	683b      	ldr	r3, [r7, #0]
2000967a:	4618      	mov	r0, r3
2000967c:	370c      	adds	r7, #12
2000967e:	46bd      	mov	sp, r7
20009680:	f85d 7b04 	ldr.w	r7, [sp], #4
20009684:	4770      	bx	lr

20009686 <_ZNSt16_Sp_counted_baseILN9__gnu_cxx12_Lock_policyE0EE15_M_add_ref_copyEv>:
    { ++_M_use_count; }
20009686:	b480      	push	{r7}
20009688:	b083      	sub	sp, #12
2000968a:	af00      	add	r7, sp, #0
2000968c:	6078      	str	r0, [r7, #4]
2000968e:	687b      	ldr	r3, [r7, #4]
20009690:	685b      	ldr	r3, [r3, #4]
20009692:	1c5a      	adds	r2, r3, #1
20009694:	687b      	ldr	r3, [r7, #4]
20009696:	605a      	str	r2, [r3, #4]
20009698:	bf00      	nop
2000969a:	370c      	adds	r7, #12
2000969c:	46bd      	mov	sp, r7
2000969e:	f85d 7b04 	ldr.w	r7, [sp], #4
200096a2:	4770      	bx	lr

200096a4 <_ZNSt19_Sp_make_shared_tag5_S_tiEv>:
    _S_ti() noexcept _GLIBCXX_VISIBILITY(default)
200096a4:	b480      	push	{r7}
200096a6:	af00      	add	r7, sp, #0
200096a8:	4a04      	ldr	r2, [pc, #16]	@ (200096bc <_ZNSt19_Sp_make_shared_tag5_S_tiEv+0x18>)
200096aa:	447a      	add	r2, pc
      return reinterpret_cast<const type_info&>(__tag);
200096ac:	4b04      	ldr	r3, [pc, #16]	@ (200096c0 <_ZNSt19_Sp_make_shared_tag5_S_tiEv+0x1c>)
200096ae:	58d3      	ldr	r3, [r2, r3]
    }
200096b0:	4618      	mov	r0, r3
200096b2:	46bd      	mov	sp, r7
200096b4:	f85d 7b04 	ldr.w	r7, [sp], #4
200096b8:	4770      	bx	lr
200096ba:	bf00      	nop
200096bc:	00004256 	.word	0x00004256
200096c0:	00000034 	.word	0x00000034

200096c4 <_ZNSt12__shared_ptrIvLN9__gnu_cxx12_Lock_policyE0EED1Ev>:
      ~__shared_ptr() = default;
200096c4:	b580      	push	{r7, lr}
200096c6:	b082      	sub	sp, #8
200096c8:	af00      	add	r7, sp, #0
200096ca:	6078      	str	r0, [r7, #4]
200096cc:	687b      	ldr	r3, [r7, #4]
200096ce:	3304      	adds	r3, #4
200096d0:	4618      	mov	r0, r3
200096d2:	f7fe fdfb 	bl	200082cc <_ZNSt14__shared_countILN9__gnu_cxx12_Lock_policyE0EED1Ev>
200096d6:	687b      	ldr	r3, [r7, #4]
200096d8:	4618      	mov	r0, r3
200096da:	3708      	adds	r7, #8
200096dc:	46bd      	mov	sp, r7
200096de:	bd80      	pop	{r7, pc}

200096e0 <_ZNSt10shared_ptrIvED1Ev>:
    class shared_ptr : public __shared_ptr<_Tp>
200096e0:	b580      	push	{r7, lr}
200096e2:	b082      	sub	sp, #8
200096e4:	af00      	add	r7, sp, #0
200096e6:	6078      	str	r0, [r7, #4]
200096e8:	687b      	ldr	r3, [r7, #4]
200096ea:	4618      	mov	r0, r3
200096ec:	f7ff ffea 	bl	200096c4 <_ZNSt12__shared_ptrIvLN9__gnu_cxx12_Lock_policyE0EED1Ev>
200096f0:	687b      	ldr	r3, [r7, #4]
200096f2:	4618      	mov	r0, r3
200096f4:	3708      	adds	r7, #8
200096f6:	46bd      	mov	sp, r7
200096f8:	bd80      	pop	{r7, pc}

200096fa <_ZN4TestC1Ev>:

#include <memory>

class Test {
public:
    Test() : value(sin(90 * M_PI / 180.0))
200096fa:	b480      	push	{r7}
200096fc:	b083      	sub	sp, #12
200096fe:	af00      	add	r7, sp, #0
20009700:	6078      	str	r0, [r7, #4]
20009702:	687b      	ldr	r3, [r7, #4]
20009704:	f04f 527e 	mov.w	r2, #1065353216	@ 0x3f800000
20009708:	601a      	str	r2, [r3, #0]
    {
        // printf("static constructor\n");
    }
2000970a:	687b      	ldr	r3, [r7, #4]
2000970c:	4618      	mov	r0, r3
2000970e:	370c      	adds	r7, #12
20009710:	46bd      	mov	sp, r7
20009712:	f85d 7b04 	ldr.w	r7, [sp], #4
20009716:	4770      	bx	lr

20009718 <_ZN4TestD1Ev>:

    ~Test()
20009718:	b580      	push	{r7, lr}
2000971a:	b082      	sub	sp, #8
2000971c:	af00      	add	r7, sp, #0
2000971e:	6078      	str	r0, [r7, #4]
    {
        printf("static destructor\n");
20009720:	4b04      	ldr	r3, [pc, #16]	@ (20009734 <_ZN4TestD1Ev+0x1c>)
20009722:	447b      	add	r3, pc
20009724:	4618      	mov	r0, r3
20009726:	f002 fab3 	bl	2000bc90 <__puts_veneer>
    }
2000972a:	687b      	ldr	r3, [r7, #4]
2000972c:	4618      	mov	r0, r3
2000972e:	3708      	adds	r7, #8
20009730:	46bd      	mov	sp, r7
20009732:	bd80      	pop	{r7, pc}
20009734:	0000278a 	.word	0x0000278a

20009738 <_ZNSt12__shared_ptrI5ModelLN9__gnu_cxx12_Lock_policyE0EED1Ev>:
20009738:	b580      	push	{r7, lr}
2000973a:	b082      	sub	sp, #8
2000973c:	af00      	add	r7, sp, #0
2000973e:	6078      	str	r0, [r7, #4]
20009740:	687b      	ldr	r3, [r7, #4]
20009742:	3304      	adds	r3, #4
20009744:	4618      	mov	r0, r3
20009746:	f7fe fdc1 	bl	200082cc <_ZNSt14__shared_countILN9__gnu_cxx12_Lock_policyE0EED1Ev>
2000974a:	687b      	ldr	r3, [r7, #4]
2000974c:	4618      	mov	r0, r3
2000974e:	3708      	adds	r7, #8
20009750:	46bd      	mov	sp, r7
20009752:	bd80      	pop	{r7, pc}

20009754 <_ZNSt10shared_ptrI5ModelED1Ev>:
20009754:	b580      	push	{r7, lr}
20009756:	b082      	sub	sp, #8
20009758:	af00      	add	r7, sp, #0
2000975a:	6078      	str	r0, [r7, #4]
2000975c:	687b      	ldr	r3, [r7, #4]
2000975e:	4618      	mov	r0, r3
20009760:	f7ff ffea 	bl	20009738 <_ZNSt12__shared_ptrI5ModelLN9__gnu_cxx12_Lock_policyE0EED1Ev>
20009764:	687b      	ldr	r3, [r7, #4]
20009766:	4618      	mov	r0, r3
20009768:	3708      	adds	r7, #8
2000976a:	46bd      	mov	sp, r7
2000976c:	bd80      	pop	{r7, pc}
	...

20009770 <_ZN20IServiceModelHandlerC1Ev>:
class IServiceModelHandler {
20009770:	b480      	push	{r7}
20009772:	b083      	sub	sp, #12
20009774:	af00      	add	r7, sp, #0
20009776:	6078      	str	r0, [r7, #4]
20009778:	4a07      	ldr	r2, [pc, #28]	@ (20009798 <_ZN20IServiceModelHandlerC1Ev+0x28>)
2000977a:	447a      	add	r2, pc
2000977c:	4b07      	ldr	r3, [pc, #28]	@ (2000979c <_ZN20IServiceModelHandlerC1Ev+0x2c>)
2000977e:	58d3      	ldr	r3, [r2, r3]
20009780:	f103 0208 	add.w	r2, r3, #8
20009784:	687b      	ldr	r3, [r7, #4]
20009786:	601a      	str	r2, [r3, #0]
20009788:	687b      	ldr	r3, [r7, #4]
2000978a:	4618      	mov	r0, r3
2000978c:	370c      	adds	r7, #12
2000978e:	46bd      	mov	sp, r7
20009790:	f85d 7b04 	ldr.w	r7, [sp], #4
20009794:	4770      	bx	lr
20009796:	bf00      	nop
20009798:	00004186 	.word	0x00004186
2000979c:	00000044 	.word	0x00000044

200097a0 <_ZN20IServiceModelHandlerD1Ev>:
    virtual ~IServiceModelHandler() = default;
200097a0:	b480      	push	{r7}
200097a2:	b083      	sub	sp, #12
200097a4:	af00      	add	r7, sp, #0
200097a6:	6078      	str	r0, [r7, #4]
200097a8:	4a07      	ldr	r2, [pc, #28]	@ (200097c8 <_ZN20IServiceModelHandlerD1Ev+0x28>)
200097aa:	447a      	add	r2, pc
200097ac:	4b07      	ldr	r3, [pc, #28]	@ (200097cc <_ZN20IServiceModelHandlerD1Ev+0x2c>)
200097ae:	58d3      	ldr	r3, [r2, r3]
200097b0:	f103 0208 	add.w	r2, r3, #8
200097b4:	687b      	ldr	r3, [r7, #4]
200097b6:	601a      	str	r2, [r3, #0]
200097b8:	687b      	ldr	r3, [r7, #4]
200097ba:	4618      	mov	r0, r3
200097bc:	370c      	adds	r7, #12
200097be:	46bd      	mov	sp, r7
200097c0:	f85d 7b04 	ldr.w	r7, [sp], #4
200097c4:	4770      	bx	lr
200097c6:	bf00      	nop
200097c8:	00004156 	.word	0x00004156
200097cc:	00000044 	.word	0x00000044

200097d0 <_ZN20IServiceModelHandlerD0Ev>:
200097d0:	b580      	push	{r7, lr}
200097d2:	b082      	sub	sp, #8
200097d4:	af00      	add	r7, sp, #0
200097d6:	6078      	str	r0, [r7, #4]
200097d8:	6878      	ldr	r0, [r7, #4]
200097da:	f7ff ffe1 	bl	200097a0 <_ZN20IServiceModelHandlerD1Ev>
200097de:	2104      	movs	r1, #4
200097e0:	6878      	ldr	r0, [r7, #4]
200097e2:	f001 f8ac 	bl	2000a93e <_ZdlPvj>
200097e6:	687b      	ldr	r3, [r7, #4]
200097e8:	4618      	mov	r0, r3
200097ea:	3708      	adds	r7, #8
200097ec:	46bd      	mov	sp, r7
200097ee:	bd80      	pop	{r7, pc}

200097f0 <_ZN7HandlerC1ERK7IKernel>:
}
*/

class Handler : public IServiceModelHandler {
public:
    Handler(const IKernel& kernel) : mModel(std::make_shared<Model>(kernel, *this))
200097f0:	b590      	push	{r4, r7, lr}
200097f2:	b083      	sub	sp, #12
200097f4:	af00      	add	r7, sp, #0
200097f6:	6078      	str	r0, [r7, #4]
200097f8:	6039      	str	r1, [r7, #0]
200097fa:	4c0c      	ldr	r4, [pc, #48]	@ (2000982c <_ZN7HandlerC1ERK7IKernel+0x3c>)
200097fc:	447c      	add	r4, pc
200097fe:	687b      	ldr	r3, [r7, #4]
20009800:	4618      	mov	r0, r3
20009802:	f7ff ffb5 	bl	20009770 <_ZN20IServiceModelHandlerC1Ev>
20009806:	4b0a      	ldr	r3, [pc, #40]	@ (20009830 <_ZN7HandlerC1ERK7IKernel+0x40>)
20009808:	58e3      	ldr	r3, [r4, r3]
2000980a:	f103 0208 	add.w	r2, r3, #8
2000980e:	687b      	ldr	r3, [r7, #4]
20009810:	601a      	str	r2, [r3, #0]
20009812:	687b      	ldr	r3, [r7, #4]
20009814:	3304      	adds	r3, #4
20009816:	687a      	ldr	r2, [r7, #4]
20009818:	6839      	ldr	r1, [r7, #0]
2000981a:	4618      	mov	r0, r3
2000981c:	f000 fa71 	bl	20009d02 <_ZSt11make_sharedI5ModelJRK7IKernelR7HandlerEESt10shared_ptrINSt9enable_ifIXntsrSt8is_arrayIT_E5valueES9_E4typeEEDpOT0_>
    {}
20009820:	687b      	ldr	r3, [r7, #4]
20009822:	4618      	mov	r0, r3
20009824:	370c      	adds	r7, #12
20009826:	46bd      	mov	sp, r7
20009828:	bd90      	pop	{r4, r7, pc}
2000982a:	bf00      	nop
2000982c:	00004104 	.word	0x00004104
20009830:	00000024 	.word	0x00000024

20009834 <_ZN7Handler8getModelEv>:

    virtual ~Handler() = default;

    std::shared_ptr<Model>& getModel()
20009834:	b480      	push	{r7}
20009836:	b083      	sub	sp, #12
20009838:	af00      	add	r7, sp, #0
2000983a:	6078      	str	r0, [r7, #4]
    {
        return mModel;
2000983c:	687b      	ldr	r3, [r7, #4]
2000983e:	3304      	adds	r3, #4
    }
20009840:	4618      	mov	r0, r3
20009842:	370c      	adds	r7, #12
20009844:	46bd      	mov	sp, r7
20009846:	f85d 7b04 	ldr.w	r7, [sp], #4
2000984a:	4770      	bx	lr

2000984c <_ZN7Handler11handleEventERKN8G2SEvent7IsReadyE>:

    void handleEvent(const G2SEvent::IsReady& event)
2000984c:	b5b0      	push	{r4, r5, r7, lr}
2000984e:	b08e      	sub	sp, #56	@ 0x38
20009850:	af00      	add	r7, sp, #0
20009852:	6078      	str	r0, [r7, #4]
20009854:	6039      	str	r1, [r7, #0]
    {
        (void) event;

        printf("Service - GUI is ready event\n");
20009856:	4b13      	ldr	r3, [pc, #76]	@ (200098a4 <_ZN7Handler11handleEventERKN8G2SEvent7IsReadyE+0x58>)
20009858:	447b      	add	r3, pc
2000985a:	4618      	mov	r0, r3
2000985c:	f002 fa18 	bl	2000bc90 <__puts_veneer>

        S2GEvent::DailyHealth health = {
20009860:	4b11      	ldr	r3, [pc, #68]	@ (200098a8 <_ZN7Handler11handleEventERKN8G2SEvent7IsReadyE+0x5c>)
20009862:	447b      	add	r3, pc
20009864:	f107 040c 	add.w	r4, r7, #12
20009868:	461d      	mov	r5, r3
2000986a:	cd0f      	ldmia	r5!, {r0, r1, r2, r3}
2000986c:	c40f      	stmia	r4!, {r0, r1, r2, r3}
2000986e:	682b      	ldr	r3, [r5, #0]
20009870:	6023      	str	r3, [r4, #0]
                .activityMinutes  = 3,
                .restingHeartRate = 4,
                .averageHeartRate = 5
        };

        mModel->sendToGUI(health);
20009872:	687b      	ldr	r3, [r7, #4]
20009874:	3304      	adds	r3, #4
20009876:	4618      	mov	r0, r3
20009878:	f000 fa5d 	bl	20009d36 <_ZNKSt19__shared_ptr_accessI5ModelLN9__gnu_cxx12_Lock_policyE0ELb0ELb0EEptEv>
2000987c:	4604      	mov	r4, r0
2000987e:	f107 020c 	add.w	r2, r7, #12
20009882:	f107 0320 	add.w	r3, r7, #32
20009886:	4611      	mov	r1, r2
20009888:	4618      	mov	r0, r3
2000988a:	f000 fa60 	bl	20009d4e <_ZNSt7variantIJN8S2GEvent11DailyHealthEEEC1IRS1_vvS1_vEEOT_>
2000988e:	f107 0320 	add.w	r3, r7, #32
20009892:	4619      	mov	r1, r3
20009894:	4620      	mov	r0, r4
20009896:	f7fe fd07 	bl	200082a8 <_ZN5Model9sendToGUIERKSt7variantIJN8S2GEvent11DailyHealthEEE>
    }
2000989a:	bf00      	nop
2000989c:	3738      	adds	r7, #56	@ 0x38
2000989e:	46bd      	mov	sp, r7
200098a0:	bdb0      	pop	{r4, r5, r7, pc}
200098a2:	bf00      	nop
200098a4:	00002668 	.word	0x00002668
200098a8:	0000267e 	.word	0x0000267e

200098ac <_ZN7Handler11handleEventERKN8G2SEvent4QuitE>:

    void handleEvent(const G2SEvent::Quit& event)
200098ac:	b580      	push	{r7, lr}
200098ae:	b082      	sub	sp, #8
200098b0:	af00      	add	r7, sp, #0
200098b2:	6078      	str	r0, [r7, #4]
200098b4:	6039      	str	r1, [r7, #0]
    {
        printf("Service - Quit event\n");
200098b6:	4b04      	ldr	r3, [pc, #16]	@ (200098c8 <_ZN7Handler11handleEventERKN8G2SEvent4QuitE+0x1c>)
200098b8:	447b      	add	r3, pc
200098ba:	4618      	mov	r0, r3
200098bc:	f002 f9e8 	bl	2000bc90 <__puts_veneer>
    }
200098c0:	bf00      	nop
200098c2:	3708      	adds	r7, #8
200098c4:	46bd      	mov	sp, r7
200098c6:	bd80      	pop	{r7, pc}
200098c8:	0000263c 	.word	0x0000263c

200098cc <_ZN7HandlerD1Ev>:
    virtual ~Handler() = default;
200098cc:	b580      	push	{r7, lr}
200098ce:	b082      	sub	sp, #8
200098d0:	af00      	add	r7, sp, #0
200098d2:	6078      	str	r0, [r7, #4]
200098d4:	4a0a      	ldr	r2, [pc, #40]	@ (20009900 <_ZN7HandlerD1Ev+0x34>)
200098d6:	447a      	add	r2, pc
200098d8:	4b0a      	ldr	r3, [pc, #40]	@ (20009904 <_ZN7HandlerD1Ev+0x38>)
200098da:	58d3      	ldr	r3, [r2, r3]
200098dc:	f103 0208 	add.w	r2, r3, #8
200098e0:	687b      	ldr	r3, [r7, #4]
200098e2:	601a      	str	r2, [r3, #0]
200098e4:	687b      	ldr	r3, [r7, #4]
200098e6:	3304      	adds	r3, #4
200098e8:	4618      	mov	r0, r3
200098ea:	f7ff ff33 	bl	20009754 <_ZNSt10shared_ptrI5ModelED1Ev>
200098ee:	687b      	ldr	r3, [r7, #4]
200098f0:	4618      	mov	r0, r3
200098f2:	f7ff ff55 	bl	200097a0 <_ZN20IServiceModelHandlerD1Ev>
200098f6:	687b      	ldr	r3, [r7, #4]
200098f8:	4618      	mov	r0, r3
200098fa:	3708      	adds	r7, #8
200098fc:	46bd      	mov	sp, r7
200098fe:	bd80      	pop	{r7, pc}
20009900:	0000402a 	.word	0x0000402a
20009904:	00000024 	.word	0x00000024

20009908 <_ZN7HandlerD0Ev>:
20009908:	b580      	push	{r7, lr}
2000990a:	b082      	sub	sp, #8
2000990c:	af00      	add	r7, sp, #0
2000990e:	6078      	str	r0, [r7, #4]
20009910:	6878      	ldr	r0, [r7, #4]
20009912:	f7ff ffdb 	bl	200098cc <_ZN7HandlerD1Ev>
20009916:	210c      	movs	r1, #12
20009918:	6878      	ldr	r0, [r7, #4]
2000991a:	f001 f810 	bl	2000a93e <_ZdlPvj>
2000991e:	687b      	ldr	r3, [r7, #4]
20009920:	4618      	mov	r0, r3
20009922:	3708      	adds	r7, #8
20009924:	46bd      	mov	sp, r7
20009926:	bd80      	pop	{r7, pc}

20009928 <_ZNSt12__shared_ptrI5ModelLN9__gnu_cxx12_Lock_policyE0EEC1ERKS3_>:
      __shared_ptr(const __shared_ptr&) noexcept = default;
20009928:	b580      	push	{r7, lr}
2000992a:	b082      	sub	sp, #8
2000992c:	af00      	add	r7, sp, #0
2000992e:	6078      	str	r0, [r7, #4]
20009930:	6039      	str	r1, [r7, #0]
20009932:	683b      	ldr	r3, [r7, #0]
20009934:	681a      	ldr	r2, [r3, #0]
20009936:	687b      	ldr	r3, [r7, #4]
20009938:	601a      	str	r2, [r3, #0]
2000993a:	687b      	ldr	r3, [r7, #4]
2000993c:	1d1a      	adds	r2, r3, #4
2000993e:	683b      	ldr	r3, [r7, #0]
20009940:	3304      	adds	r3, #4
20009942:	4619      	mov	r1, r3
20009944:	4610      	mov	r0, r2
20009946:	f000 fa15 	bl	20009d74 <_ZNSt14__shared_countILN9__gnu_cxx12_Lock_policyE0EEC1ERKS2_>
2000994a:	687b      	ldr	r3, [r7, #4]
2000994c:	4618      	mov	r0, r3
2000994e:	3708      	adds	r7, #8
20009950:	46bd      	mov	sp, r7
20009952:	bd80      	pop	{r7, pc}

20009954 <_ZNSt10shared_ptrI5ModelEC1ERKS1_>:
      shared_ptr(const shared_ptr&) noexcept = default; ///< Copy constructor
20009954:	b580      	push	{r7, lr}
20009956:	b082      	sub	sp, #8
20009958:	af00      	add	r7, sp, #0
2000995a:	6078      	str	r0, [r7, #4]
2000995c:	6039      	str	r1, [r7, #0]
2000995e:	687b      	ldr	r3, [r7, #4]
20009960:	683a      	ldr	r2, [r7, #0]
20009962:	4611      	mov	r1, r2
20009964:	4618      	mov	r0, r3
20009966:	f7ff ffdf 	bl	20009928 <_ZNSt12__shared_ptrI5ModelLN9__gnu_cxx12_Lock_policyE0EEC1ERKS3_>
2000996a:	687b      	ldr	r3, [r7, #4]
2000996c:	4618      	mov	r0, r3
2000996e:	3708      	adds	r7, #8
20009970:	46bd      	mov	sp, r7
20009972:	bd80      	pop	{r7, pc}

20009974 <_Z3appv>:
/**
 * @brief   The application entry point.
 * @retval  int
 */
int app()
{
20009974:	b5b0      	push	{r4, r5, r7, lr}
20009976:	b08a      	sub	sp, #40	@ 0x28
20009978:	af00      	add	r7, sp, #0
2000997a:	4cae      	ldr	r4, [pc, #696]	@ (20009c34 <_Z3appv+0x2c0>)
2000997c:	447c      	add	r4, pc
    printf("\nservice is started\n");
2000997e:	4bae      	ldr	r3, [pc, #696]	@ (20009c38 <_Z3appv+0x2c4>)
20009980:	447b      	add	r3, pc
20009982:	4618      	mov	r0, r3
20009984:	f002 f984 	bl	2000bc90 <__puts_veneer>

    printf("addr prinf      : 0x%08lX\n", (uint32_t)printf);
20009988:	4bac      	ldr	r3, [pc, #688]	@ (20009c3c <_Z3appv+0x2c8>)
2000998a:	58e3      	ldr	r3, [r4, r3]
2000998c:	4619      	mov	r1, r3
2000998e:	4bac      	ldr	r3, [pc, #688]	@ (20009c40 <_Z3appv+0x2cc>)
20009990:	447b      	add	r3, pc
20009992:	4618      	mov	r0, r3
20009994:	f002 f980 	bl	2000bc98 <__printf_veneer>
    printf("addr malloc     : 0x%08lX\n", (uint32_t)malloc);
20009998:	4baa      	ldr	r3, [pc, #680]	@ (20009c44 <_Z3appv+0x2d0>)
2000999a:	58e3      	ldr	r3, [r4, r3]
2000999c:	4619      	mov	r1, r3
2000999e:	4baa      	ldr	r3, [pc, #680]	@ (20009c48 <_Z3appv+0x2d4>)
200099a0:	447b      	add	r3, pc
200099a2:	4618      	mov	r0, r3
200099a4:	f002 f978 	bl	2000bc98 <__printf_veneer>
    printf("addr malloc_r   : 0x%08lX\n", (uint32_t)_malloc_r);
200099a8:	4ba8      	ldr	r3, [pc, #672]	@ (20009c4c <_Z3appv+0x2d8>)
200099aa:	58e3      	ldr	r3, [r4, r3]
200099ac:	4619      	mov	r1, r3
200099ae:	4ba8      	ldr	r3, [pc, #672]	@ (20009c50 <_Z3appv+0x2dc>)
200099b0:	447b      	add	r3, pc
200099b2:	4618      	mov	r0, r3
200099b4:	f002 f970 	bl	2000bc98 <__printf_veneer>
    printf("addr free       : 0x%08lX\n", (uint32_t)free);
200099b8:	4ba6      	ldr	r3, [pc, #664]	@ (20009c54 <_Z3appv+0x2e0>)
200099ba:	58e3      	ldr	r3, [r4, r3]
200099bc:	4619      	mov	r1, r3
200099be:	4ba6      	ldr	r3, [pc, #664]	@ (20009c58 <_Z3appv+0x2e4>)
200099c0:	447b      	add	r3, pc
200099c2:	4618      	mov	r0, r3
200099c4:	f002 f968 	bl	2000bc98 <__printf_veneer>
    printf("addr calloc     : 0x%08lX\n", (uint32_t)calloc);
200099c8:	4ba4      	ldr	r3, [pc, #656]	@ (20009c5c <_Z3appv+0x2e8>)
200099ca:	58e3      	ldr	r3, [r4, r3]
200099cc:	4619      	mov	r1, r3
200099ce:	4ba4      	ldr	r3, [pc, #656]	@ (20009c60 <_Z3appv+0x2ec>)
200099d0:	447b      	add	r3, pc
200099d2:	4618      	mov	r0, r3
200099d4:	f002 f960 	bl	2000bc98 <__printf_veneer>
    printf("addr realloc    : 0x%08lX\n", (uint32_t)realloc);
200099d8:	4ba2      	ldr	r3, [pc, #648]	@ (20009c64 <_Z3appv+0x2f0>)
200099da:	58e3      	ldr	r3, [r4, r3]
200099dc:	4619      	mov	r1, r3
200099de:	4ba2      	ldr	r3, [pc, #648]	@ (20009c68 <_Z3appv+0x2f4>)
200099e0:	447b      	add	r3, pc
200099e2:	4618      	mov	r0, r3
200099e4:	f002 f958 	bl	2000bc98 <__printf_veneer>
    printf("kernel          : 0x%08lX\n", (uint32_t)kernel);
200099e8:	4ba0      	ldr	r3, [pc, #640]	@ (20009c6c <_Z3appv+0x2f8>)
200099ea:	58e3      	ldr	r3, [r4, r3]
200099ec:	681b      	ldr	r3, [r3, #0]
200099ee:	4619      	mov	r1, r3
200099f0:	4b9f      	ldr	r3, [pc, #636]	@ (20009c70 <_Z3appv+0x2fc>)
200099f2:	447b      	add	r3, pc
200099f4:	4618      	mov	r0, r3
200099f6:	f002 f94f 	bl	2000bc98 <__printf_veneer>
    printf("kernel.mem      : 0x%08lX\n", (uint32_t)&kernel->mem);
200099fa:	4b9c      	ldr	r3, [pc, #624]	@ (20009c6c <_Z3appv+0x2f8>)
200099fc:	58e3      	ldr	r3, [r4, r3]
200099fe:	681b      	ldr	r3, [r3, #0]
20009a00:	699b      	ldr	r3, [r3, #24]
20009a02:	4619      	mov	r1, r3
20009a04:	4b9b      	ldr	r3, [pc, #620]	@ (20009c74 <_Z3appv+0x300>)
20009a06:	447b      	add	r3, pc
20009a08:	4618      	mov	r0, r3
20009a0a:	f002 f945 	bl	2000bc98 <__printf_veneer>
    printf("sin(90)         : %f\n", mTest.value);
20009a0e:	4b9a      	ldr	r3, [pc, #616]	@ (20009c78 <_Z3appv+0x304>)
20009a10:	447b      	add	r3, pc
20009a12:	681b      	ldr	r3, [r3, #0]
20009a14:	4618      	mov	r0, r3
20009a16:	f002 f927 	bl	2000bc68 <____aeabi_f2d_veneer>
20009a1a:	4602      	mov	r2, r0
20009a1c:	460b      	mov	r3, r1
20009a1e:	4997      	ldr	r1, [pc, #604]	@ (20009c7c <_Z3appv+0x308>)
20009a20:	4479      	add	r1, pc
20009a22:	4608      	mov	r0, r1
20009a24:	f002 f938 	bl	2000bc98 <__printf_veneer>

    printf("\n");
20009a28:	200a      	movs	r0, #10
20009a2a:	f002 f945 	bl	2000bcb8 <__putchar_veneer>
    printf("////////////////////////////\n");
20009a2e:	4b94      	ldr	r3, [pc, #592]	@ (20009c80 <_Z3appv+0x30c>)
20009a30:	447b      	add	r3, pc
20009a32:	4618      	mov	r0, r3
20009a34:	f002 f92c 	bl	2000bc90 <__puts_veneer>
    printf("//// malloc test\n");
20009a38:	4b92      	ldr	r3, [pc, #584]	@ (20009c84 <_Z3appv+0x310>)
20009a3a:	447b      	add	r3, pc
20009a3c:	4618      	mov	r0, r3
20009a3e:	f002 f927 	bl	2000bc90 <__puts_veneer>
    printf("////////////////////////////\n");
20009a42:	4b91      	ldr	r3, [pc, #580]	@ (20009c88 <_Z3appv+0x314>)
20009a44:	447b      	add	r3, pc
20009a46:	4618      	mov	r0, r3
20009a48:	f002 f922 	bl	2000bc90 <__puts_veneer>
    uint32_t* test = (uint32_t*) malloc(sizeof(uint32_t));
20009a4c:	2004      	movs	r0, #4
20009a4e:	f000 fe6b 	bl	2000a728 <malloc>
20009a52:	4603      	mov	r3, r0
20009a54:	623b      	str	r3, [r7, #32]
    *test = 0x00C0FFEE;
20009a56:	6a3b      	ldr	r3, [r7, #32]
20009a58:	4a75      	ldr	r2, [pc, #468]	@ (20009c30 <_Z3appv+0x2bc>)
20009a5a:	601a      	str	r2, [r3, #0]
    printf("addr test       : 0x%08lX\n", (uint32_t)test);
20009a5c:	6a3b      	ldr	r3, [r7, #32]
20009a5e:	4619      	mov	r1, r3
20009a60:	4b8a      	ldr	r3, [pc, #552]	@ (20009c8c <_Z3appv+0x318>)
20009a62:	447b      	add	r3, pc
20009a64:	4618      	mov	r0, r3
20009a66:	f002 f917 	bl	2000bc98 <__printf_veneer>
    printf("value test      : 0x%08lX\n", test[0]);
20009a6a:	6a3b      	ldr	r3, [r7, #32]
20009a6c:	681b      	ldr	r3, [r3, #0]
20009a6e:	4619      	mov	r1, r3
20009a70:	4b87      	ldr	r3, [pc, #540]	@ (20009c90 <_Z3appv+0x31c>)
20009a72:	447b      	add	r3, pc
20009a74:	4618      	mov	r0, r3
20009a76:	f002 f90f 	bl	2000bc98 <__printf_veneer>

    printf("\n");
20009a7a:	200a      	movs	r0, #10
20009a7c:	f002 f91c 	bl	2000bcb8 <__putchar_veneer>
    printf("////////////////////////////\n");
20009a80:	4b84      	ldr	r3, [pc, #528]	@ (20009c94 <_Z3appv+0x320>)
20009a82:	447b      	add	r3, pc
20009a84:	4618      	mov	r0, r3
20009a86:	f002 f903 	bl	2000bc90 <__puts_veneer>
    printf("//// realloc test\n");
20009a8a:	4b83      	ldr	r3, [pc, #524]	@ (20009c98 <_Z3appv+0x324>)
20009a8c:	447b      	add	r3, pc
20009a8e:	4618      	mov	r0, r3
20009a90:	f002 f8fe 	bl	2000bc90 <__puts_veneer>
    printf("////////////////////////////\n");
20009a94:	4b81      	ldr	r3, [pc, #516]	@ (20009c9c <_Z3appv+0x328>)
20009a96:	447b      	add	r3, pc
20009a98:	4618      	mov	r0, r3
20009a9a:	f002 f8f9 	bl	2000bc90 <__puts_veneer>
    test = (uint32_t*) realloc(test, sizeof(uint32_t) * 2);
20009a9e:	2108      	movs	r1, #8
20009aa0:	6a38      	ldr	r0, [r7, #32]
20009aa2:	f000 fe89 	bl	2000a7b8 <realloc>
20009aa6:	6238      	str	r0, [r7, #32]
    test[0] = 0x55555555;
20009aa8:	6a3b      	ldr	r3, [r7, #32]
20009aaa:	f04f 3255 	mov.w	r2, #1431655765	@ 0x55555555
20009aae:	601a      	str	r2, [r3, #0]
    test[1] = 0xAAAAAAAA;
20009ab0:	6a3b      	ldr	r3, [r7, #32]
20009ab2:	3304      	adds	r3, #4
20009ab4:	f04f 32aa 	mov.w	r2, #2863311530	@ 0xaaaaaaaa
20009ab8:	601a      	str	r2, [r3, #0]
    printf("addr test       : 0x%08lX\n", (uint32_t)test);
20009aba:	6a3b      	ldr	r3, [r7, #32]
20009abc:	4619      	mov	r1, r3
20009abe:	4b78      	ldr	r3, [pc, #480]	@ (20009ca0 <_Z3appv+0x32c>)
20009ac0:	447b      	add	r3, pc
20009ac2:	4618      	mov	r0, r3
20009ac4:	f002 f8e8 	bl	2000bc98 <__printf_veneer>
    printf("value test[0]   : 0x%08lX\n", test[0]);
20009ac8:	6a3b      	ldr	r3, [r7, #32]
20009aca:	681b      	ldr	r3, [r3, #0]
20009acc:	4619      	mov	r1, r3
20009ace:	4b75      	ldr	r3, [pc, #468]	@ (20009ca4 <_Z3appv+0x330>)
20009ad0:	447b      	add	r3, pc
20009ad2:	4618      	mov	r0, r3
20009ad4:	f002 f8e0 	bl	2000bc98 <__printf_veneer>
    printf("value test[1]   : 0x%08lX\n", test[1]);
20009ad8:	6a3b      	ldr	r3, [r7, #32]
20009ada:	3304      	adds	r3, #4
20009adc:	681b      	ldr	r3, [r3, #0]
20009ade:	4619      	mov	r1, r3
20009ae0:	4b71      	ldr	r3, [pc, #452]	@ (20009ca8 <_Z3appv+0x334>)
20009ae2:	447b      	add	r3, pc
20009ae4:	4618      	mov	r0, r3
20009ae6:	f002 f8d7 	bl	2000bc98 <__printf_veneer>

    printf("\n");
20009aea:	200a      	movs	r0, #10
20009aec:	f002 f8e4 	bl	2000bcb8 <__putchar_veneer>
    printf("////////////////////////////\n");
20009af0:	4b6e      	ldr	r3, [pc, #440]	@ (20009cac <_Z3appv+0x338>)
20009af2:	447b      	add	r3, pc
20009af4:	4618      	mov	r0, r3
20009af6:	f002 f8cb 	bl	2000bc90 <__puts_veneer>
    printf("//// calloc test\n");
20009afa:	4b6d      	ldr	r3, [pc, #436]	@ (20009cb0 <_Z3appv+0x33c>)
20009afc:	447b      	add	r3, pc
20009afe:	4618      	mov	r0, r3
20009b00:	f002 f8c6 	bl	2000bc90 <__puts_veneer>
    printf("////////////////////////////\n");
20009b04:	4b6b      	ldr	r3, [pc, #428]	@ (20009cb4 <_Z3appv+0x340>)
20009b06:	447b      	add	r3, pc
20009b08:	4618      	mov	r0, r3
20009b0a:	f002 f8c1 	bl	2000bc90 <__puts_veneer>
    test = (uint32_t*) calloc(sizeof(uint32_t), 4);
20009b0e:	2104      	movs	r1, #4
20009b10:	2004      	movs	r0, #4
20009b12:	f000 fe35 	bl	2000a780 <calloc>
20009b16:	4603      	mov	r3, r0
20009b18:	623b      	str	r3, [r7, #32]
    printf("addr test       : 0x%08lX\n", (uint32_t)test);
20009b1a:	6a3b      	ldr	r3, [r7, #32]
20009b1c:	4619      	mov	r1, r3
20009b1e:	4b66      	ldr	r3, [pc, #408]	@ (20009cb8 <_Z3appv+0x344>)
20009b20:	447b      	add	r3, pc
20009b22:	4618      	mov	r0, r3
20009b24:	f002 f8b8 	bl	2000bc98 <__printf_veneer>
    printf("value test[0]   : 0x%08lX\n", test[0]);
20009b28:	6a3b      	ldr	r3, [r7, #32]
20009b2a:	681b      	ldr	r3, [r3, #0]
20009b2c:	4619      	mov	r1, r3
20009b2e:	4b63      	ldr	r3, [pc, #396]	@ (20009cbc <_Z3appv+0x348>)
20009b30:	447b      	add	r3, pc
20009b32:	4618      	mov	r0, r3
20009b34:	f002 f8b0 	bl	2000bc98 <__printf_veneer>
    printf("value test[1]   : 0x%08lX\n", test[1]);
20009b38:	6a3b      	ldr	r3, [r7, #32]
20009b3a:	3304      	adds	r3, #4
20009b3c:	681b      	ldr	r3, [r3, #0]
20009b3e:	4619      	mov	r1, r3
20009b40:	4b5f      	ldr	r3, [pc, #380]	@ (20009cc0 <_Z3appv+0x34c>)
20009b42:	447b      	add	r3, pc
20009b44:	4618      	mov	r0, r3
20009b46:	f002 f8a7 	bl	2000bc98 <__printf_veneer>
    printf("value test[2]   : 0x%08lX\n", test[2]);
20009b4a:	6a3b      	ldr	r3, [r7, #32]
20009b4c:	3308      	adds	r3, #8
20009b4e:	681b      	ldr	r3, [r3, #0]
20009b50:	4619      	mov	r1, r3
20009b52:	4b5c      	ldr	r3, [pc, #368]	@ (20009cc4 <_Z3appv+0x350>)
20009b54:	447b      	add	r3, pc
20009b56:	4618      	mov	r0, r3
20009b58:	f002 f89e 	bl	2000bc98 <__printf_veneer>
    printf("value test[3]   : 0x%08lX\n", test[3]);
20009b5c:	6a3b      	ldr	r3, [r7, #32]
20009b5e:	330c      	adds	r3, #12
20009b60:	681b      	ldr	r3, [r3, #0]
20009b62:	4619      	mov	r1, r3
20009b64:	4b58      	ldr	r3, [pc, #352]	@ (20009cc8 <_Z3appv+0x354>)
20009b66:	447b      	add	r3, pc
20009b68:	4618      	mov	r0, r3
20009b6a:	f002 f895 	bl	2000bc98 <__printf_veneer>

    printf("\n");
20009b6e:	200a      	movs	r0, #10
20009b70:	f002 f8a2 	bl	2000bcb8 <__putchar_veneer>
    free(test);
20009b74:	6a38      	ldr	r0, [r7, #32]
20009b76:	f000 fded 	bl	2000a754 <free>

    Handler handler(*kernel);
20009b7a:	4b3c      	ldr	r3, [pc, #240]	@ (20009c6c <_Z3appv+0x2f8>)
20009b7c:	58e3      	ldr	r3, [r4, r3]
20009b7e:	681a      	ldr	r2, [r3, #0]
20009b80:	f107 030c 	add.w	r3, r7, #12
20009b84:	4611      	mov	r1, r2
20009b86:	4618      	mov	r0, r3
20009b88:	f7ff fe32 	bl	200097f0 <_ZN7HandlerC1ERK7IKernel>
    std::shared_ptr<Model> model = handler.getModel();
20009b8c:	f107 030c 	add.w	r3, r7, #12
20009b90:	4618      	mov	r0, r3
20009b92:	f7ff fe4f 	bl	20009834 <_ZN7Handler8getModelEv>
20009b96:	4602      	mov	r2, r0
20009b98:	1d3b      	adds	r3, r7, #4
20009b9a:	4611      	mov	r1, r2
20009b9c:	4618      	mov	r0, r3
20009b9e:	f7ff fed9 	bl	20009954 <_ZNSt10shared_ptrI5ModelEC1ERKS1_>

    printf("run GUI\n");
20009ba2:	4b4a      	ldr	r3, [pc, #296]	@ (20009ccc <_Z3appv+0x358>)
20009ba4:	447b      	add	r3, pc
20009ba6:	4618      	mov	r0, r3
20009ba8:	f002 f872 	bl	2000bc90 <__puts_veneer>
    kernel->sctrl.runGUI(model);
20009bac:	4b2f      	ldr	r3, [pc, #188]	@ (20009c6c <_Z3appv+0x2f8>)
20009bae:	58e3      	ldr	r3, [r4, r3]
20009bb0:	681b      	ldr	r3, [r3, #0]
20009bb2:	6a5b      	ldr	r3, [r3, #36]	@ 0x24
20009bb4:	681b      	ldr	r3, [r3, #0]
20009bb6:	3308      	adds	r3, #8
20009bb8:	681d      	ldr	r5, [r3, #0]
20009bba:	4b2c      	ldr	r3, [pc, #176]	@ (20009c6c <_Z3appv+0x2f8>)
20009bbc:	58e3      	ldr	r3, [r4, r3]
20009bbe:	681b      	ldr	r3, [r3, #0]
20009bc0:	6a5c      	ldr	r4, [r3, #36]	@ 0x24
20009bc2:	1d3a      	adds	r2, r7, #4
20009bc4:	f107 0318 	add.w	r3, r7, #24
20009bc8:	4611      	mov	r1, r2
20009bca:	4618      	mov	r0, r3
20009bcc:	f000 f8e9 	bl	20009da2 <_ZNSt10shared_ptrIvEC1I5ModelvEERKS_IT_E>
20009bd0:	f107 0318 	add.w	r3, r7, #24
20009bd4:	4619      	mov	r1, r3
20009bd6:	4620      	mov	r0, r4
20009bd8:	47a8      	blx	r5
20009bda:	f107 0318 	add.w	r3, r7, #24
20009bde:	4618      	mov	r0, r3
20009be0:	f7ff fd7e 	bl	200096e0 <_ZNSt10shared_ptrIvED1Ev>

    // This is FreeRTOS thread context
    uint32_t cycles = 10;
20009be4:	230a      	movs	r3, #10
20009be6:	627b      	str	r3, [r7, #36]	@ 0x24
    for (;;) {
        // Some delay function
        //kernel->app.delay(1000);

        if (--cycles == 0) {
20009be8:	6a7b      	ldr	r3, [r7, #36]	@ 0x24
20009bea:	3b01      	subs	r3, #1
20009bec:	627b      	str	r3, [r7, #36]	@ 0x24
20009bee:	6a7b      	ldr	r3, [r7, #36]	@ 0x24
20009bf0:	2b00      	cmp	r3, #0
20009bf2:	bf0c      	ite	eq
20009bf4:	2301      	moveq	r3, #1
20009bf6:	2300      	movne	r3, #0
20009bf8:	b2db      	uxtb	r3, r3
20009bfa:	2b00      	cmp	r3, #0
20009bfc:	d108      	bne.n	20009c10 <_Z3appv+0x29c>
            break;
        }

        model->checkG2SEvents();
20009bfe:	1d3b      	adds	r3, r7, #4
20009c00:	4618      	mov	r0, r3
20009c02:	f000 f898 	bl	20009d36 <_ZNKSt19__shared_ptr_accessI5ModelLN9__gnu_cxx12_Lock_policyE0ELb0ELb0EEptEv>
20009c06:	4603      	mov	r3, r0
20009c08:	4618      	mov	r0, r3
20009c0a:	f7fe fb28 	bl	2000825e <_ZN5Model14checkG2SEventsEv>
        if (--cycles == 0) {
20009c0e:	e7eb      	b.n	20009be8 <_Z3appv+0x274>
            break;
20009c10:	bf00      	nop
    }

    return 0;
20009c12:	2400      	movs	r4, #0
}
20009c14:	1d3b      	adds	r3, r7, #4
20009c16:	4618      	mov	r0, r3
20009c18:	f7ff fd9c 	bl	20009754 <_ZNSt10shared_ptrI5ModelED1Ev>
20009c1c:	f107 030c 	add.w	r3, r7, #12
20009c20:	4618      	mov	r0, r3
20009c22:	f7ff fe53 	bl	200098cc <_ZN7HandlerD1Ev>
    return 0;
20009c26:	4623      	mov	r3, r4
}
20009c28:	4618      	mov	r0, r3
20009c2a:	3728      	adds	r7, #40	@ 0x28
20009c2c:	46bd      	mov	sp, r7
20009c2e:	bdb0      	pop	{r4, r5, r7, pc}
20009c30:	00c0ffee 	.word	0x00c0ffee
20009c34:	00003f84 	.word	0x00003f84
20009c38:	0000258c 	.word	0x0000258c
20009c3c:	00000000 	.word	0x00000000
20009c40:	00002590 	.word	0x00002590
20009c44:	0000000c 	.word	0x0000000c
20009c48:	0000259c 	.word	0x0000259c
20009c4c:	00000030 	.word	0x00000030
20009c50:	000025a8 	.word	0x000025a8
20009c54:	00000058 	.word	0x00000058
20009c58:	000025b4 	.word	0x000025b4
20009c5c:	00000018 	.word	0x00000018
20009c60:	000025c0 	.word	0x000025c0
20009c64:	00000020 	.word	0x00000020
20009c68:	000025cc 	.word	0x000025cc
20009c6c:	00000038 	.word	0x00000038
20009c70:	000025d6 	.word	0x000025d6
20009c74:	000025de 	.word	0x000025de
20009c78:	00003f5c 	.word	0x00003f5c
20009c7c:	000025e0 	.word	0x000025e0
20009c80:	000025e8 	.word	0x000025e8
20009c84:	000025fe 	.word	0x000025fe
20009c88:	000025d4 	.word	0x000025d4
20009c8c:	000025ea 	.word	0x000025ea
20009c90:	000025f6 	.word	0x000025f6
20009c94:	00002596 	.word	0x00002596
20009c98:	000025f8 	.word	0x000025f8
20009c9c:	00002582 	.word	0x00002582
20009ca0:	0000258c 	.word	0x0000258c
20009ca4:	000025c8 	.word	0x000025c8
20009ca8:	000025d2 	.word	0x000025d2
20009cac:	00002526 	.word	0x00002526
20009cb0:	000025d4 	.word	0x000025d4
20009cb4:	00002512 	.word	0x00002512
20009cb8:	0000252c 	.word	0x0000252c
20009cbc:	00002568 	.word	0x00002568
20009cc0:	00002572 	.word	0x00002572
20009cc4:	00002590 	.word	0x00002590
20009cc8:	0000259a 	.word	0x0000259a
20009ccc:	00002578 	.word	0x00002578

20009cd0 <main>:

int main()
{
20009cd0:	b580      	push	{r7, lr}
20009cd2:	af00      	add	r7, sp, #0
    exit(app());
20009cd4:	f7ff fe4e 	bl	20009974 <_Z3appv>
20009cd8:	4603      	mov	r3, r0
20009cda:	4618      	mov	r0, r3
20009cdc:	f000 fe3c 	bl	2000a958 <exit>

20009ce0 <_ZNSt16_Sp_counted_baseILN9__gnu_cxx12_Lock_policyE0EE10_M_destroyEv>:
      _M_destroy() noexcept
20009ce0:	b580      	push	{r7, lr}
20009ce2:	b082      	sub	sp, #8
20009ce4:	af00      	add	r7, sp, #0
20009ce6:	6078      	str	r0, [r7, #4]
      { delete this; }
20009ce8:	687b      	ldr	r3, [r7, #4]
20009cea:	2b00      	cmp	r3, #0
20009cec:	d005      	beq.n	20009cfa <_ZNSt16_Sp_counted_baseILN9__gnu_cxx12_Lock_policyE0EE10_M_destroyEv+0x1a>
20009cee:	687b      	ldr	r3, [r7, #4]
20009cf0:	681b      	ldr	r3, [r3, #0]
20009cf2:	3304      	adds	r3, #4
20009cf4:	681b      	ldr	r3, [r3, #0]
20009cf6:	6878      	ldr	r0, [r7, #4]
20009cf8:	4798      	blx	r3
20009cfa:	bf00      	nop
20009cfc:	3708      	adds	r7, #8
20009cfe:	46bd      	mov	sp, r7
20009d00:	bd80      	pop	{r7, pc}

20009d02 <_ZSt11make_sharedI5ModelJRK7IKernelR7HandlerEESt10shared_ptrINSt9enable_ifIXntsrSt8is_arrayIT_E5valueES9_E4typeEEDpOT0_>:
   *  @throw  std::bad_alloc, or an exception thrown from the
   *          constructor of @a _Tp.
   */
  template<typename _Tp, typename... _Args>
    inline shared_ptr<_NonArray<_Tp>>
    make_shared(_Args&&... __args)
20009d02:	b5b0      	push	{r4, r5, r7, lr}
20009d04:	b086      	sub	sp, #24
20009d06:	af00      	add	r7, sp, #0
20009d08:	60f8      	str	r0, [r7, #12]
20009d0a:	60b9      	str	r1, [r7, #8]
20009d0c:	607a      	str	r2, [r7, #4]
    {
      using _Alloc = allocator<void>;
      _Alloc __a;
      return shared_ptr<_Tp>(_Sp_alloc_shared_tag<_Alloc>{__a},
			     std::forward<_Args>(__args)...);
20009d0e:	f107 0314 	add.w	r3, r7, #20
20009d12:	461d      	mov	r5, r3
20009d14:	68b8      	ldr	r0, [r7, #8]
20009d16:	f000 f87d 	bl	20009e14 <_ZSt7forwardIRK7IKernelEOT_RNSt16remove_referenceIS3_E4typeE>
20009d1a:	4604      	mov	r4, r0
20009d1c:	6878      	ldr	r0, [r7, #4]
20009d1e:	f000 f884 	bl	20009e2a <_ZSt7forwardIR7HandlerEOT_RNSt16remove_referenceIS2_E4typeE>
20009d22:	4603      	mov	r3, r0
20009d24:	4622      	mov	r2, r4
20009d26:	4629      	mov	r1, r5
20009d28:	68f8      	ldr	r0, [r7, #12]
20009d2a:	f000 f889 	bl	20009e40 <_ZNSt10shared_ptrI5ModelEC1ISaIvEJRK7IKernelR7HandlerEEESt20_Sp_alloc_shared_tagIT_EDpOT0_>
    }
20009d2e:	68f8      	ldr	r0, [r7, #12]
20009d30:	3718      	adds	r7, #24
20009d32:	46bd      	mov	sp, r7
20009d34:	bdb0      	pop	{r4, r5, r7, pc}

20009d36 <_ZNKSt19__shared_ptr_accessI5ModelLN9__gnu_cxx12_Lock_policyE0ELb0ELb0EEptEv>:
      operator->() const noexcept
20009d36:	b580      	push	{r7, lr}
20009d38:	b082      	sub	sp, #8
20009d3a:	af00      	add	r7, sp, #0
20009d3c:	6078      	str	r0, [r7, #4]
	return _M_get();
20009d3e:	6878      	ldr	r0, [r7, #4]
20009d40:	f000 f898 	bl	20009e74 <_ZNKSt19__shared_ptr_accessI5ModelLN9__gnu_cxx12_Lock_policyE0ELb0ELb0EE6_M_getEv>
20009d44:	4603      	mov	r3, r0
      }
20009d46:	4618      	mov	r0, r3
20009d48:	3708      	adds	r7, #8
20009d4a:	46bd      	mov	sp, r7
20009d4c:	bd80      	pop	{r7, pc}

20009d4e <_ZNSt7variantIJN8S2GEvent11DailyHealthEEEC1IRS1_vvS1_vEEOT_>:
	variant(_Tp&& __t)
20009d4e:	b590      	push	{r4, r7, lr}
20009d50:	b083      	sub	sp, #12
20009d52:	af00      	add	r7, sp, #0
20009d54:	6078      	str	r0, [r7, #4]
20009d56:	6039      	str	r1, [r7, #0]
		  std::forward<_Tp>(__t))
20009d58:	6838      	ldr	r0, [r7, #0]
20009d5a:	f7ff fb58 	bl	2000940e <_ZSt7forwardIRN8S2GEvent11DailyHealthEEOT_RNSt16remove_referenceIS3_E4typeE>
20009d5e:	4603      	mov	r3, r0
20009d60:	461a      	mov	r2, r3
20009d62:	4621      	mov	r1, r4
20009d64:	6878      	ldr	r0, [r7, #4]
20009d66:	f000 f891 	bl	20009e8c <_ZNSt7variantIJN8S2GEvent11DailyHealthEEEC1ILj0EJRS1_ES1_vEESt16in_place_index_tIXT_EEDpOT0_>
	{ }
20009d6a:	687b      	ldr	r3, [r7, #4]
20009d6c:	4618      	mov	r0, r3
20009d6e:	370c      	adds	r7, #12
20009d70:	46bd      	mov	sp, r7
20009d72:	bd90      	pop	{r4, r7, pc}

20009d74 <_ZNSt14__shared_countILN9__gnu_cxx12_Lock_policyE0EEC1ERKS2_>:
      __shared_count(const __shared_count& __r) noexcept
20009d74:	b580      	push	{r7, lr}
20009d76:	b082      	sub	sp, #8
20009d78:	af00      	add	r7, sp, #0
20009d7a:	6078      	str	r0, [r7, #4]
20009d7c:	6039      	str	r1, [r7, #0]
      : _M_pi(__r._M_pi)
20009d7e:	683b      	ldr	r3, [r7, #0]
20009d80:	681a      	ldr	r2, [r3, #0]
20009d82:	687b      	ldr	r3, [r7, #4]
20009d84:	601a      	str	r2, [r3, #0]
	if (_M_pi != nullptr)
20009d86:	687b      	ldr	r3, [r7, #4]
20009d88:	681b      	ldr	r3, [r3, #0]
20009d8a:	2b00      	cmp	r3, #0
20009d8c:	d004      	beq.n	20009d98 <_ZNSt14__shared_countILN9__gnu_cxx12_Lock_policyE0EEC1ERKS2_+0x24>
	  _M_pi->_M_add_ref_copy();
20009d8e:	687b      	ldr	r3, [r7, #4]
20009d90:	681b      	ldr	r3, [r3, #0]
20009d92:	4618      	mov	r0, r3
20009d94:	f7ff fc77 	bl	20009686 <_ZNSt16_Sp_counted_baseILN9__gnu_cxx12_Lock_policyE0EE15_M_add_ref_copyEv>
      }
20009d98:	687b      	ldr	r3, [r7, #4]
20009d9a:	4618      	mov	r0, r3
20009d9c:	3708      	adds	r7, #8
20009d9e:	46bd      	mov	sp, r7
20009da0:	bd80      	pop	{r7, pc}

20009da2 <_ZNSt10shared_ptrIvEC1I5ModelvEERKS_IT_E>:
	shared_ptr(const shared_ptr<_Yp>& __r) noexcept
20009da2:	b580      	push	{r7, lr}
20009da4:	b082      	sub	sp, #8
20009da6:	af00      	add	r7, sp, #0
20009da8:	6078      	str	r0, [r7, #4]
20009daa:	6039      	str	r1, [r7, #0]
        : __shared_ptr<_Tp>(__r) { }
20009dac:	687b      	ldr	r3, [r7, #4]
20009dae:	683a      	ldr	r2, [r7, #0]
20009db0:	4611      	mov	r1, r2
20009db2:	4618      	mov	r0, r3
20009db4:	f000 f883 	bl	20009ebe <_ZNSt12__shared_ptrIvLN9__gnu_cxx12_Lock_policyE0EEC1I5ModelvEERKS_IT_LS1_0EE>
20009db8:	687b      	ldr	r3, [r7, #4]
20009dba:	4618      	mov	r0, r3
20009dbc:	3708      	adds	r7, #8
20009dbe:	46bd      	mov	sp, r7
20009dc0:	bd80      	pop	{r7, pc}
	...

20009dc4 <_ZNSt16_Sp_counted_baseILN9__gnu_cxx12_Lock_policyE0EED1Ev>:
      ~_Sp_counted_base() noexcept
20009dc4:	b480      	push	{r7}
20009dc6:	b083      	sub	sp, #12
20009dc8:	af00      	add	r7, sp, #0
20009dca:	6078      	str	r0, [r7, #4]
20009dcc:	4a07      	ldr	r2, [pc, #28]	@ (20009dec <_ZNSt16_Sp_counted_baseILN9__gnu_cxx12_Lock_policyE0EED1Ev+0x28>)
20009dce:	447a      	add	r2, pc
      { }
20009dd0:	4b07      	ldr	r3, [pc, #28]	@ (20009df0 <_ZNSt16_Sp_counted_baseILN9__gnu_cxx12_Lock_policyE0EED1Ev+0x2c>)
20009dd2:	58d3      	ldr	r3, [r2, r3]
20009dd4:	f103 0208 	add.w	r2, r3, #8
20009dd8:	687b      	ldr	r3, [r7, #4]
20009dda:	601a      	str	r2, [r3, #0]
20009ddc:	687b      	ldr	r3, [r7, #4]
20009dde:	4618      	mov	r0, r3
20009de0:	370c      	adds	r7, #12
20009de2:	46bd      	mov	sp, r7
20009de4:	f85d 7b04 	ldr.w	r7, [sp], #4
20009de8:	4770      	bx	lr
20009dea:	bf00      	nop
20009dec:	00003b32 	.word	0x00003b32
20009df0:	00000004 	.word	0x00000004

20009df4 <_ZNSt16_Sp_counted_baseILN9__gnu_cxx12_Lock_policyE0EED0Ev>:
      ~_Sp_counted_base() noexcept
20009df4:	b580      	push	{r7, lr}
20009df6:	b082      	sub	sp, #8
20009df8:	af00      	add	r7, sp, #0
20009dfa:	6078      	str	r0, [r7, #4]
      { }
20009dfc:	6878      	ldr	r0, [r7, #4]
20009dfe:	f7ff ffe1 	bl	20009dc4 <_ZNSt16_Sp_counted_baseILN9__gnu_cxx12_Lock_policyE0EED1Ev>
20009e02:	210c      	movs	r1, #12
20009e04:	6878      	ldr	r0, [r7, #4]
20009e06:	f000 fd9a 	bl	2000a93e <_ZdlPvj>
20009e0a:	687b      	ldr	r3, [r7, #4]
20009e0c:	4618      	mov	r0, r3
20009e0e:	3708      	adds	r7, #8
20009e10:	46bd      	mov	sp, r7
20009e12:	bd80      	pop	{r7, pc}

20009e14 <_ZSt7forwardIRK7IKernelEOT_RNSt16remove_referenceIS3_E4typeE>:
    forward(typename std::remove_reference<_Tp>::type& __t) noexcept
20009e14:	b480      	push	{r7}
20009e16:	b083      	sub	sp, #12
20009e18:	af00      	add	r7, sp, #0
20009e1a:	6078      	str	r0, [r7, #4]
    { return static_cast<_Tp&&>(__t); }
20009e1c:	687b      	ldr	r3, [r7, #4]
20009e1e:	4618      	mov	r0, r3
20009e20:	370c      	adds	r7, #12
20009e22:	46bd      	mov	sp, r7
20009e24:	f85d 7b04 	ldr.w	r7, [sp], #4
20009e28:	4770      	bx	lr

20009e2a <_ZSt7forwardIR7HandlerEOT_RNSt16remove_referenceIS2_E4typeE>:
    forward(typename std::remove_reference<_Tp>::type& __t) noexcept
20009e2a:	b480      	push	{r7}
20009e2c:	b083      	sub	sp, #12
20009e2e:	af00      	add	r7, sp, #0
20009e30:	6078      	str	r0, [r7, #4]
    { return static_cast<_Tp&&>(__t); }
20009e32:	687b      	ldr	r3, [r7, #4]
20009e34:	4618      	mov	r0, r3
20009e36:	370c      	adds	r7, #12
20009e38:	46bd      	mov	sp, r7
20009e3a:	f85d 7b04 	ldr.w	r7, [sp], #4
20009e3e:	4770      	bx	lr

20009e40 <_ZNSt10shared_ptrI5ModelEC1ISaIvEJRK7IKernelR7HandlerEEESt20_Sp_alloc_shared_tagIT_EDpOT0_>:
	shared_ptr(_Sp_alloc_shared_tag<_Alloc> __tag, _Args&&... __args)
20009e40:	b5b0      	push	{r4, r5, r7, lr}
20009e42:	b084      	sub	sp, #16
20009e44:	af00      	add	r7, sp, #0
20009e46:	60f8      	str	r0, [r7, #12]
20009e48:	60b9      	str	r1, [r7, #8]
20009e4a:	607a      	str	r2, [r7, #4]
20009e4c:	603b      	str	r3, [r7, #0]
	: __shared_ptr<_Tp>(__tag, std::forward<_Args>(__args)...)
20009e4e:	68fc      	ldr	r4, [r7, #12]
20009e50:	6878      	ldr	r0, [r7, #4]
20009e52:	f7ff ffdf 	bl	20009e14 <_ZSt7forwardIRK7IKernelEOT_RNSt16remove_referenceIS3_E4typeE>
20009e56:	4605      	mov	r5, r0
20009e58:	6838      	ldr	r0, [r7, #0]
20009e5a:	f7ff ffe6 	bl	20009e2a <_ZSt7forwardIR7HandlerEOT_RNSt16remove_referenceIS2_E4typeE>
20009e5e:	4603      	mov	r3, r0
20009e60:	462a      	mov	r2, r5
20009e62:	68b9      	ldr	r1, [r7, #8]
20009e64:	4620      	mov	r0, r4
20009e66:	f000 f840 	bl	20009eea <_ZNSt12__shared_ptrI5ModelLN9__gnu_cxx12_Lock_policyE0EEC1ISaIvEJRK7IKernelR7HandlerEEESt20_Sp_alloc_shared_tagIT_EDpOT0_>
	{ }
20009e6a:	68fb      	ldr	r3, [r7, #12]
20009e6c:	4618      	mov	r0, r3
20009e6e:	3710      	adds	r7, #16
20009e70:	46bd      	mov	sp, r7
20009e72:	bdb0      	pop	{r4, r5, r7, pc}

20009e74 <_ZNKSt19__shared_ptr_accessI5ModelLN9__gnu_cxx12_Lock_policyE0ELb0ELb0EE6_M_getEv>:
      _M_get() const noexcept
20009e74:	b580      	push	{r7, lr}
20009e76:	b082      	sub	sp, #8
20009e78:	af00      	add	r7, sp, #0
20009e7a:	6078      	str	r0, [r7, #4]
      { return static_cast<const __shared_ptr<_Tp, _Lp>*>(this)->get(); }
20009e7c:	6878      	ldr	r0, [r7, #4]
20009e7e:	f000 f85b 	bl	20009f38 <_ZNKSt12__shared_ptrI5ModelLN9__gnu_cxx12_Lock_policyE0EE3getEv>
20009e82:	4603      	mov	r3, r0
20009e84:	4618      	mov	r0, r3
20009e86:	3708      	adds	r7, #8
20009e88:	46bd      	mov	sp, r7
20009e8a:	bd80      	pop	{r7, pc}

20009e8c <_ZNSt7variantIJN8S2GEvent11DailyHealthEEEC1ILj0EJRS1_ES1_vEESt16in_place_index_tIXT_EEDpOT0_>:
	variant(in_place_index_t<_Np>, _Args&&... __args)
20009e8c:	b5f0      	push	{r4, r5, r6, r7, lr}
20009e8e:	b085      	sub	sp, #20
20009e90:	af00      	add	r7, sp, #0
20009e92:	60f8      	str	r0, [r7, #12]
20009e94:	7239      	strb	r1, [r7, #8]
20009e96:	607a      	str	r2, [r7, #4]
	_Default_ctor_enabler(_Enable_default_constructor_tag{})
20009e98:	68fc      	ldr	r4, [r7, #12]
20009e9a:	6878      	ldr	r0, [r7, #4]
20009e9c:	f7ff fab7 	bl	2000940e <_ZSt7forwardIRN8S2GEvent11DailyHealthEEOT_RNSt16remove_referenceIS3_E4typeE>
20009ea0:	4603      	mov	r3, r0
20009ea2:	461a      	mov	r2, r3
20009ea4:	4631      	mov	r1, r6
20009ea6:	4620      	mov	r0, r4
20009ea8:	f000 f896 	bl	20009fd8 <_ZNSt8__detail9__variant13_Variant_baseIJN8S2GEvent11DailyHealthEEEC1ILj0EJRS3_EEESt16in_place_index_tIXT_EEDpOT0_>
20009eac:	4629      	mov	r1, r5
20009eae:	68f8      	ldr	r0, [r7, #12]
20009eb0:	f000 f8a7 	bl	2000a002 <_ZNSt27_Enable_default_constructorILb1ESt7variantIJN8S2GEvent11DailyHealthEEEEC1ESt31_Enable_default_constructor_tag>
	{ }
20009eb4:	68fb      	ldr	r3, [r7, #12]
20009eb6:	4618      	mov	r0, r3
20009eb8:	3714      	adds	r7, #20
20009eba:	46bd      	mov	sp, r7
20009ebc:	bdf0      	pop	{r4, r5, r6, r7, pc}

20009ebe <_ZNSt12__shared_ptrIvLN9__gnu_cxx12_Lock_policyE0EEC1I5ModelvEERKS_IT_LS1_0EE>:
	__shared_ptr(const __shared_ptr<_Yp, _Lp>& __r) noexcept
20009ebe:	b580      	push	{r7, lr}
20009ec0:	b082      	sub	sp, #8
20009ec2:	af00      	add	r7, sp, #0
20009ec4:	6078      	str	r0, [r7, #4]
20009ec6:	6039      	str	r1, [r7, #0]
	: _M_ptr(__r._M_ptr), _M_refcount(__r._M_refcount)
20009ec8:	683b      	ldr	r3, [r7, #0]
20009eca:	681a      	ldr	r2, [r3, #0]
20009ecc:	687b      	ldr	r3, [r7, #4]
20009ece:	601a      	str	r2, [r3, #0]
20009ed0:	687b      	ldr	r3, [r7, #4]
20009ed2:	1d1a      	adds	r2, r3, #4
20009ed4:	683b      	ldr	r3, [r7, #0]
20009ed6:	3304      	adds	r3, #4
20009ed8:	4619      	mov	r1, r3
20009eda:	4610      	mov	r0, r2
20009edc:	f7ff ff4a 	bl	20009d74 <_ZNSt14__shared_countILN9__gnu_cxx12_Lock_policyE0EEC1ERKS2_>
	{ }
20009ee0:	687b      	ldr	r3, [r7, #4]
20009ee2:	4618      	mov	r0, r3
20009ee4:	3708      	adds	r7, #8
20009ee6:	46bd      	mov	sp, r7
20009ee8:	bd80      	pop	{r7, pc}

20009eea <_ZNSt12__shared_ptrI5ModelLN9__gnu_cxx12_Lock_policyE0EEC1ISaIvEJRK7IKernelR7HandlerEEESt20_Sp_alloc_shared_tagIT_EDpOT0_>:
      /// @}

    protected:
      // This constructor is non-standard, it is used by allocate_shared.
      template<typename _Alloc, typename... _Args>
	__shared_ptr(_Sp_alloc_shared_tag<_Alloc> __tag, _Args&&... __args)
20009eea:	b5f0      	push	{r4, r5, r6, r7, lr}
20009eec:	b087      	sub	sp, #28
20009eee:	af02      	add	r7, sp, #8
20009ef0:	60f8      	str	r0, [r7, #12]
20009ef2:	60b9      	str	r1, [r7, #8]
20009ef4:	607a      	str	r2, [r7, #4]
20009ef6:	603b      	str	r3, [r7, #0]
	: _M_ptr(), _M_refcount(_M_ptr, __tag, std::forward<_Args>(__args)...)
20009ef8:	68fb      	ldr	r3, [r7, #12]
20009efa:	2200      	movs	r2, #0
20009efc:	601a      	str	r2, [r3, #0]
20009efe:	68fb      	ldr	r3, [r7, #12]
20009f00:	1d1c      	adds	r4, r3, #4
20009f02:	68fd      	ldr	r5, [r7, #12]
20009f04:	6878      	ldr	r0, [r7, #4]
20009f06:	f7ff ff85 	bl	20009e14 <_ZSt7forwardIRK7IKernelEOT_RNSt16remove_referenceIS3_E4typeE>
20009f0a:	4606      	mov	r6, r0
20009f0c:	6838      	ldr	r0, [r7, #0]
20009f0e:	f7ff ff8c 	bl	20009e2a <_ZSt7forwardIR7HandlerEOT_RNSt16remove_referenceIS2_E4typeE>
20009f12:	4603      	mov	r3, r0
20009f14:	9300      	str	r3, [sp, #0]
20009f16:	4633      	mov	r3, r6
20009f18:	68ba      	ldr	r2, [r7, #8]
20009f1a:	4629      	mov	r1, r5
20009f1c:	4620      	mov	r0, r4
20009f1e:	f000 f87c 	bl	2000a01a <_ZNSt14__shared_countILN9__gnu_cxx12_Lock_policyE0EEC1I5ModelSaIvEJRK7IKernelR7HandlerEEERPT_St20_Sp_alloc_shared_tagIT0_EDpOT1_>
	{ _M_enable_shared_from_this_with(_M_ptr); }
20009f22:	68fb      	ldr	r3, [r7, #12]
20009f24:	681b      	ldr	r3, [r3, #0]
20009f26:	4619      	mov	r1, r3
20009f28:	68f8      	ldr	r0, [r7, #12]
20009f2a:	f000 f8c3 	bl	2000a0b4 <_ZNSt12__shared_ptrI5ModelLN9__gnu_cxx12_Lock_policyE0EE31_M_enable_shared_from_this_withIS0_S0_EENSt9enable_ifIXntsrNS3_15__has_esft_baseIT0_vEE5valueEvE4typeEPT_>
20009f2e:	68fb      	ldr	r3, [r7, #12]
20009f30:	4618      	mov	r0, r3
20009f32:	3714      	adds	r7, #20
20009f34:	46bd      	mov	sp, r7
20009f36:	bdf0      	pop	{r4, r5, r6, r7, pc}

20009f38 <_ZNKSt12__shared_ptrI5ModelLN9__gnu_cxx12_Lock_policyE0EE3getEv>:
      get() const noexcept
20009f38:	b480      	push	{r7}
20009f3a:	b083      	sub	sp, #12
20009f3c:	af00      	add	r7, sp, #0
20009f3e:	6078      	str	r0, [r7, #4]
      { return _M_ptr; }
20009f40:	687b      	ldr	r3, [r7, #4]
20009f42:	681b      	ldr	r3, [r3, #0]
20009f44:	4618      	mov	r0, r3
20009f46:	370c      	adds	r7, #12
20009f48:	46bd      	mov	sp, r7
20009f4a:	f85d 7b04 	ldr.w	r7, [sp], #4
20009f4e:	4770      	bx	lr

20009f50 <_ZNSt8__detail9__variant15_Copy_ctor_baseILb1EJN8S2GEvent11DailyHealthEEECI1NS0_16_Variant_storageILb1EJS3_EEEILj0EJRS3_EEESt16in_place_index_tIXT_EEDpOT0_>:
      using _Base::_Base;
20009f50:	b590      	push	{r4, r7, lr}
20009f52:	b085      	sub	sp, #20
20009f54:	af00      	add	r7, sp, #0
20009f56:	60f8      	str	r0, [r7, #12]
20009f58:	7239      	strb	r1, [r7, #8]
20009f5a:	607a      	str	r2, [r7, #4]
20009f5c:	68fb      	ldr	r3, [r7, #12]
20009f5e:	687a      	ldr	r2, [r7, #4]
20009f60:	4621      	mov	r1, r4
20009f62:	4618      	mov	r0, r3
20009f64:	f000 f8b1 	bl	2000a0ca <_ZNSt8__detail9__variant16_Variant_storageILb1EJN8S2GEvent11DailyHealthEEEC1ILj0EJRS3_EEESt16in_place_index_tIXT_EEDpOT0_>
20009f68:	68fb      	ldr	r3, [r7, #12]
20009f6a:	4618      	mov	r0, r3
20009f6c:	3714      	adds	r7, #20
20009f6e:	46bd      	mov	sp, r7
20009f70:	bd90      	pop	{r4, r7, pc}

20009f72 <_ZNSt8__detail9__variant15_Move_ctor_baseILb1EJN8S2GEvent11DailyHealthEEECI1NS0_16_Variant_storageILb1EJS3_EEEILj0EJRS3_EEESt16in_place_index_tIXT_EEDpOT0_>:
      using _Base::_Base;
20009f72:	b590      	push	{r4, r7, lr}
20009f74:	b085      	sub	sp, #20
20009f76:	af00      	add	r7, sp, #0
20009f78:	60f8      	str	r0, [r7, #12]
20009f7a:	7239      	strb	r1, [r7, #8]
20009f7c:	607a      	str	r2, [r7, #4]
20009f7e:	68fb      	ldr	r3, [r7, #12]
20009f80:	687a      	ldr	r2, [r7, #4]
20009f82:	4621      	mov	r1, r4
20009f84:	4618      	mov	r0, r3
20009f86:	f7ff ffe3 	bl	20009f50 <_ZNSt8__detail9__variant15_Copy_ctor_baseILb1EJN8S2GEvent11DailyHealthEEECI1NS0_16_Variant_storageILb1EJS3_EEEILj0EJRS3_EEESt16in_place_index_tIXT_EEDpOT0_>
20009f8a:	68fb      	ldr	r3, [r7, #12]
20009f8c:	4618      	mov	r0, r3
20009f8e:	3714      	adds	r7, #20
20009f90:	46bd      	mov	sp, r7
20009f92:	bd90      	pop	{r4, r7, pc}

20009f94 <_ZNSt8__detail9__variant17_Copy_assign_baseILb1EJN8S2GEvent11DailyHealthEEECI1NS0_16_Variant_storageILb1EJS3_EEEILj0EJRS3_EEESt16in_place_index_tIXT_EEDpOT0_>:
      using _Base::_Base;
20009f94:	b590      	push	{r4, r7, lr}
20009f96:	b085      	sub	sp, #20
20009f98:	af00      	add	r7, sp, #0
20009f9a:	60f8      	str	r0, [r7, #12]
20009f9c:	7239      	strb	r1, [r7, #8]
20009f9e:	607a      	str	r2, [r7, #4]
20009fa0:	68fb      	ldr	r3, [r7, #12]
20009fa2:	687a      	ldr	r2, [r7, #4]
20009fa4:	4621      	mov	r1, r4
20009fa6:	4618      	mov	r0, r3
20009fa8:	f7ff ffe3 	bl	20009f72 <_ZNSt8__detail9__variant15_Move_ctor_baseILb1EJN8S2GEvent11DailyHealthEEECI1NS0_16_Variant_storageILb1EJS3_EEEILj0EJRS3_EEESt16in_place_index_tIXT_EEDpOT0_>
20009fac:	68fb      	ldr	r3, [r7, #12]
20009fae:	4618      	mov	r0, r3
20009fb0:	3714      	adds	r7, #20
20009fb2:	46bd      	mov	sp, r7
20009fb4:	bd90      	pop	{r4, r7, pc}

20009fb6 <_ZNSt8__detail9__variant17_Move_assign_baseILb1EJN8S2GEvent11DailyHealthEEECI1NS0_16_Variant_storageILb1EJS3_EEEILj0EJRS3_EEESt16in_place_index_tIXT_EEDpOT0_>:
      using _Base::_Base;
20009fb6:	b590      	push	{r4, r7, lr}
20009fb8:	b085      	sub	sp, #20
20009fba:	af00      	add	r7, sp, #0
20009fbc:	60f8      	str	r0, [r7, #12]
20009fbe:	7239      	strb	r1, [r7, #8]
20009fc0:	607a      	str	r2, [r7, #4]
20009fc2:	68fb      	ldr	r3, [r7, #12]
20009fc4:	687a      	ldr	r2, [r7, #4]
20009fc6:	4621      	mov	r1, r4
20009fc8:	4618      	mov	r0, r3
20009fca:	f7ff ffe3 	bl	20009f94 <_ZNSt8__detail9__variant17_Copy_assign_baseILb1EJN8S2GEvent11DailyHealthEEECI1NS0_16_Variant_storageILb1EJS3_EEEILj0EJRS3_EEESt16in_place_index_tIXT_EEDpOT0_>
20009fce:	68fb      	ldr	r3, [r7, #12]
20009fd0:	4618      	mov	r0, r3
20009fd2:	3714      	adds	r7, #20
20009fd4:	46bd      	mov	sp, r7
20009fd6:	bd90      	pop	{r4, r7, pc}

20009fd8 <_ZNSt8__detail9__variant13_Variant_baseIJN8S2GEvent11DailyHealthEEEC1ILj0EJRS3_EEESt16in_place_index_tIXT_EEDpOT0_>:
	_Variant_base(in_place_index_t<_Np> __i, _Args&&... __args)
20009fd8:	b5b0      	push	{r4, r5, r7, lr}
20009fda:	b084      	sub	sp, #16
20009fdc:	af00      	add	r7, sp, #0
20009fde:	60f8      	str	r0, [r7, #12]
20009fe0:	7239      	strb	r1, [r7, #8]
20009fe2:	607a      	str	r2, [r7, #4]
	: _Base(__i, std::forward<_Args>(__args)...)
20009fe4:	68fc      	ldr	r4, [r7, #12]
20009fe6:	6878      	ldr	r0, [r7, #4]
20009fe8:	f7ff fa11 	bl	2000940e <_ZSt7forwardIRN8S2GEvent11DailyHealthEEOT_RNSt16remove_referenceIS3_E4typeE>
20009fec:	4603      	mov	r3, r0
20009fee:	461a      	mov	r2, r3
20009ff0:	4629      	mov	r1, r5
20009ff2:	4620      	mov	r0, r4
20009ff4:	f7ff ffdf 	bl	20009fb6 <_ZNSt8__detail9__variant17_Move_assign_baseILb1EJN8S2GEvent11DailyHealthEEECI1NS0_16_Variant_storageILb1EJS3_EEEILj0EJRS3_EEESt16in_place_index_tIXT_EEDpOT0_>
	{ }
20009ff8:	68fb      	ldr	r3, [r7, #12]
20009ffa:	4618      	mov	r0, r3
20009ffc:	3710      	adds	r7, #16
20009ffe:	46bd      	mov	sp, r7
2000a000:	bdb0      	pop	{r4, r5, r7, pc}

2000a002 <_ZNSt27_Enable_default_constructorILb1ESt7variantIJN8S2GEvent11DailyHealthEEEEC1ESt31_Enable_default_constructor_tag>:
    _Enable_default_constructor&
    operator=(_Enable_default_constructor&&) noexcept = default;

    // Can be used in other ctors.
    constexpr explicit
    _Enable_default_constructor(_Enable_default_constructor_tag) { }
2000a002:	b480      	push	{r7}
2000a004:	b083      	sub	sp, #12
2000a006:	af00      	add	r7, sp, #0
2000a008:	6078      	str	r0, [r7, #4]
2000a00a:	7039      	strb	r1, [r7, #0]
2000a00c:	687b      	ldr	r3, [r7, #4]
2000a00e:	4618      	mov	r0, r3
2000a010:	370c      	adds	r7, #12
2000a012:	46bd      	mov	sp, r7
2000a014:	f85d 7b04 	ldr.w	r7, [sp], #4
2000a018:	4770      	bx	lr

2000a01a <_ZNSt14__shared_countILN9__gnu_cxx12_Lock_policyE0EEC1I5ModelSaIvEJRK7IKernelR7HandlerEEERPT_St20_Sp_alloc_shared_tagIT0_EDpOT1_>:
	__shared_count(_Tp*& __p, _Sp_alloc_shared_tag<_Alloc> __a,
2000a01a:	b5f0      	push	{r4, r5, r6, r7, lr}
2000a01c:	b08d      	sub	sp, #52	@ 0x34
2000a01e:	af00      	add	r7, sp, #0
2000a020:	60f8      	str	r0, [r7, #12]
2000a022:	60b9      	str	r1, [r7, #8]
2000a024:	607a      	str	r2, [r7, #4]
2000a026:	603b      	str	r3, [r7, #0]
	  typename _Sp_cp_type::__allocator_type __a2(__a._M_a);
2000a028:	687b      	ldr	r3, [r7, #4]
2000a02a:	627b      	str	r3, [r7, #36]	@ 0x24
2000a02c:	f107 031c 	add.w	r3, r7, #28
2000a030:	623b      	str	r3, [r7, #32]
	  auto __guard = std::__allocate_guarded(__a2);
2000a032:	f107 0314 	add.w	r3, r7, #20
2000a036:	f107 021c 	add.w	r2, r7, #28
2000a03a:	4611      	mov	r1, r2
2000a03c:	4618      	mov	r0, r3
2000a03e:	f000 f85c 	bl	2000a0fa <_ZSt18__allocate_guardedISaISt23_Sp_counted_ptr_inplaceI5ModelSaIvELN9__gnu_cxx12_Lock_policyE0EEEESt15__allocated_ptrIT_ERS8_>
	  _Sp_cp_type* __mem = __guard.get();
2000a042:	f107 0314 	add.w	r3, r7, #20
2000a046:	4618      	mov	r0, r3
2000a048:	f000 f88b 	bl	2000a162 <_ZNSt15__allocated_ptrISaISt23_Sp_counted_ptr_inplaceI5ModelSaIvELN9__gnu_cxx12_Lock_policyE0EEEE3getEv>
2000a04c:	62f8      	str	r0, [r7, #44]	@ 0x2c
	  auto __pi = ::new (__mem)
2000a04e:	6afb      	ldr	r3, [r7, #44]	@ 0x2c
2000a050:	4619      	mov	r1, r3
2000a052:	f44f 701c 	mov.w	r0, #624	@ 0x270
2000a056:	f7ff fb0a 	bl	2000966e <_ZnwjPv>
2000a05a:	4604      	mov	r4, r0
2000a05c:	6838      	ldr	r0, [r7, #0]
2000a05e:	f7ff fed9 	bl	20009e14 <_ZSt7forwardIRK7IKernelEOT_RNSt16remove_referenceIS3_E4typeE>
2000a062:	4605      	mov	r5, r0
2000a064:	6cb8      	ldr	r0, [r7, #72]	@ 0x48
2000a066:	f7ff fee0 	bl	20009e2a <_ZSt7forwardIR7HandlerEOT_RNSt16remove_referenceIS2_E4typeE>
2000a06a:	4603      	mov	r3, r0
2000a06c:	462a      	mov	r2, r5
2000a06e:	4631      	mov	r1, r6
2000a070:	4620      	mov	r0, r4
2000a072:	f000 f885 	bl	2000a180 <_ZNSt23_Sp_counted_ptr_inplaceI5ModelSaIvELN9__gnu_cxx12_Lock_policyE0EEC1IJRK7IKernelR7HandlerEEES1_DpOT_>
2000a076:	62bc      	str	r4, [r7, #40]	@ 0x28
	  __guard = nullptr;
2000a078:	f107 0314 	add.w	r3, r7, #20
2000a07c:	2100      	movs	r1, #0
2000a07e:	4618      	mov	r0, r3
2000a080:	f000 f8be 	bl	2000a200 <_ZNSt15__allocated_ptrISaISt23_Sp_counted_ptr_inplaceI5ModelSaIvELN9__gnu_cxx12_Lock_policyE0EEEEaSEDn>
	  _M_pi = __pi;
2000a084:	68fb      	ldr	r3, [r7, #12]
2000a086:	6aba      	ldr	r2, [r7, #40]	@ 0x28
2000a088:	601a      	str	r2, [r3, #0]
	  __p = __pi->_M_ptr();
2000a08a:	6ab8      	ldr	r0, [r7, #40]	@ 0x28
2000a08c:	f000 f8c7 	bl	2000a21e <_ZNSt23_Sp_counted_ptr_inplaceI5ModelSaIvELN9__gnu_cxx12_Lock_policyE0EE6_M_ptrEv>
2000a090:	4602      	mov	r2, r0
2000a092:	68bb      	ldr	r3, [r7, #8]
2000a094:	601a      	str	r2, [r3, #0]
	}
2000a096:	f107 0314 	add.w	r3, r7, #20
2000a09a:	4618      	mov	r0, r3
2000a09c:	f000 f846 	bl	2000a12c <_ZNSt15__allocated_ptrISaISt23_Sp_counted_ptr_inplaceI5ModelSaIvELN9__gnu_cxx12_Lock_policyE0EEEED1Ev>

      __attribute__((__always_inline__))
#if __cpp_constexpr_dynamic_alloc
      constexpr
#endif
      ~allocator() _GLIBCXX_NOTHROW { }
2000a0a0:	f107 031c 	add.w	r3, r7, #28
2000a0a4:	4618      	mov	r0, r3
2000a0a6:	f000 f8dd 	bl	2000a264 <_ZNSt15__new_allocatorISt23_Sp_counted_ptr_inplaceI5ModelSaIvELN9__gnu_cxx12_Lock_policyE0EEED1Ev>
2000a0aa:	68fb      	ldr	r3, [r7, #12]
2000a0ac:	4618      	mov	r0, r3
2000a0ae:	3734      	adds	r7, #52	@ 0x34
2000a0b0:	46bd      	mov	sp, r7
2000a0b2:	bdf0      	pop	{r4, r5, r6, r7, pc}

2000a0b4 <_ZNSt12__shared_ptrI5ModelLN9__gnu_cxx12_Lock_policyE0EE31_M_enable_shared_from_this_withIS0_S0_EENSt9enable_ifIXntsrNS3_15__has_esft_baseIT0_vEE5valueEvE4typeEPT_>:
	    __base->_M_weak_assign(const_cast<_Yp2*>(__p), _M_refcount);
	}

      template<typename _Yp, typename _Yp2 = typename remove_cv<_Yp>::type>
	typename enable_if<!__has_esft_base<_Yp2>::value>::type
	_M_enable_shared_from_this_with(_Yp*) noexcept
2000a0b4:	b480      	push	{r7}
2000a0b6:	b083      	sub	sp, #12
2000a0b8:	af00      	add	r7, sp, #0
2000a0ba:	6078      	str	r0, [r7, #4]
2000a0bc:	6039      	str	r1, [r7, #0]
	{ }
2000a0be:	bf00      	nop
2000a0c0:	370c      	adds	r7, #12
2000a0c2:	46bd      	mov	sp, r7
2000a0c4:	f85d 7b04 	ldr.w	r7, [sp], #4
2000a0c8:	4770      	bx	lr

2000a0ca <_ZNSt8__detail9__variant16_Variant_storageILb1EJN8S2GEvent11DailyHealthEEEC1ILj0EJRS3_EEESt16in_place_index_tIXT_EEDpOT0_>:
	_Variant_storage(in_place_index_t<_Np>, _Args&&... __args)
2000a0ca:	b5b0      	push	{r4, r5, r7, lr}
2000a0cc:	b084      	sub	sp, #16
2000a0ce:	af00      	add	r7, sp, #0
2000a0d0:	60f8      	str	r0, [r7, #12]
2000a0d2:	7239      	strb	r1, [r7, #8]
2000a0d4:	607a      	str	r2, [r7, #4]
	: _M_u(in_place_index<_Np>, std::forward<_Args>(__args)...),
2000a0d6:	68fc      	ldr	r4, [r7, #12]
2000a0d8:	6878      	ldr	r0, [r7, #4]
2000a0da:	f7ff f998 	bl	2000940e <_ZSt7forwardIRN8S2GEvent11DailyHealthEEOT_RNSt16remove_referenceIS3_E4typeE>
2000a0de:	4603      	mov	r3, r0
2000a0e0:	461a      	mov	r2, r3
2000a0e2:	4629      	mov	r1, r5
2000a0e4:	4620      	mov	r0, r4
2000a0e6:	f000 f8a8 	bl	2000a23a <_ZNSt8__detail9__variant15_Variadic_unionIJN8S2GEvent11DailyHealthEEEC1IJRS3_EEESt16in_place_index_tILj0EEDpOT_>
	_M_index{_Np}
2000a0ea:	68fb      	ldr	r3, [r7, #12]
2000a0ec:	2200      	movs	r2, #0
2000a0ee:	751a      	strb	r2, [r3, #20]
	{ }
2000a0f0:	68fb      	ldr	r3, [r7, #12]
2000a0f2:	4618      	mov	r0, r3
2000a0f4:	3710      	adds	r7, #16
2000a0f6:	46bd      	mov	sp, r7
2000a0f8:	bdb0      	pop	{r4, r5, r7, pc}

2000a0fa <_ZSt18__allocate_guardedISaISt23_Sp_counted_ptr_inplaceI5ModelSaIvELN9__gnu_cxx12_Lock_policyE0EEEESt15__allocated_ptrIT_ERS8_>:
    };

  /// Allocate space for a single object using __a
  template<typename _Alloc>
    __allocated_ptr<_Alloc>
    __allocate_guarded(_Alloc& __a)
2000a0fa:	b580      	push	{r7, lr}
2000a0fc:	b084      	sub	sp, #16
2000a0fe:	af00      	add	r7, sp, #0
2000a100:	6078      	str	r0, [r7, #4]
2000a102:	6039      	str	r1, [r7, #0]
2000a104:	683b      	ldr	r3, [r7, #0]
2000a106:	60fb      	str	r3, [r7, #12]
2000a108:	2301      	movs	r3, #1
2000a10a:	60bb      	str	r3, [r7, #8]
       *  Calls @c a.allocate(n)
      */
      [[__nodiscard__,__gnu__::__always_inline__]]
      static _GLIBCXX20_CONSTEXPR pointer
      allocate(allocator_type& __a, size_type __n)
      { return __a.allocate(__n); }
2000a10c:	2200      	movs	r2, #0
2000a10e:	68b9      	ldr	r1, [r7, #8]
2000a110:	68f8      	ldr	r0, [r7, #12]
2000a112:	f000 f921 	bl	2000a358 <_ZNSt15__new_allocatorISt23_Sp_counted_ptr_inplaceI5ModelSaIvELN9__gnu_cxx12_Lock_policyE0EEE8allocateEjPKv>
2000a116:	4603      	mov	r3, r0
2000a118:	bf00      	nop
    {
      return { __a, std::allocator_traits<_Alloc>::allocate(__a, 1) };
2000a11a:	461a      	mov	r2, r3
2000a11c:	6839      	ldr	r1, [r7, #0]
2000a11e:	6878      	ldr	r0, [r7, #4]
2000a120:	f000 f8ab 	bl	2000a27a <_ZNSt15__allocated_ptrISaISt23_Sp_counted_ptr_inplaceI5ModelSaIvELN9__gnu_cxx12_Lock_policyE0EEEEC1ERS6_PS5_>
    }
2000a124:	6878      	ldr	r0, [r7, #4]
2000a126:	3710      	adds	r7, #16
2000a128:	46bd      	mov	sp, r7
2000a12a:	bd80      	pop	{r7, pc}

2000a12c <_ZNSt15__allocated_ptrISaISt23_Sp_counted_ptr_inplaceI5ModelSaIvELN9__gnu_cxx12_Lock_policyE0EEEED1Ev>:
      ~__allocated_ptr()
2000a12c:	b580      	push	{r7, lr}
2000a12e:	b086      	sub	sp, #24
2000a130:	af00      	add	r7, sp, #0
2000a132:	6078      	str	r0, [r7, #4]
	if (_M_ptr != nullptr)
2000a134:	687b      	ldr	r3, [r7, #4]
2000a136:	685b      	ldr	r3, [r3, #4]
2000a138:	2b00      	cmp	r3, #0
2000a13a:	d00d      	beq.n	2000a158 <_ZNSt15__allocated_ptrISaISt23_Sp_counted_ptr_inplaceI5ModelSaIvELN9__gnu_cxx12_Lock_policyE0EEEED1Ev+0x2c>
	  std::allocator_traits<_Alloc>::deallocate(*_M_alloc, _M_ptr, 1);
2000a13c:	687b      	ldr	r3, [r7, #4]
2000a13e:	681a      	ldr	r2, [r3, #0]
2000a140:	687b      	ldr	r3, [r7, #4]
2000a142:	685b      	ldr	r3, [r3, #4]
2000a144:	617a      	str	r2, [r7, #20]
2000a146:	613b      	str	r3, [r7, #16]
2000a148:	2301      	movs	r3, #1
2000a14a:	60fb      	str	r3, [r7, #12]
       *  Calls <tt> a.deallocate(p, n) </tt>
      */
      [[__gnu__::__always_inline__]]
      static _GLIBCXX20_CONSTEXPR void
      deallocate(allocator_type& __a, pointer __p, size_type __n)
      { __a.deallocate(__p, __n); }
2000a14c:	68fa      	ldr	r2, [r7, #12]
2000a14e:	6939      	ldr	r1, [r7, #16]
2000a150:	6978      	ldr	r0, [r7, #20]
2000a152:	f000 f93c 	bl	2000a3ce <_ZNSt15__new_allocatorISt23_Sp_counted_ptr_inplaceI5ModelSaIvELN9__gnu_cxx12_Lock_policyE0EEE10deallocateEPS5_j>
2000a156:	bf00      	nop
      }
2000a158:	687b      	ldr	r3, [r7, #4]
2000a15a:	4618      	mov	r0, r3
2000a15c:	3718      	adds	r7, #24
2000a15e:	46bd      	mov	sp, r7
2000a160:	bd80      	pop	{r7, pc}

2000a162 <_ZNSt15__allocated_ptrISaISt23_Sp_counted_ptr_inplaceI5ModelSaIvELN9__gnu_cxx12_Lock_policyE0EEEE3getEv>:
      value_type* get() { return std::__to_address(_M_ptr); }
2000a162:	b580      	push	{r7, lr}
2000a164:	b082      	sub	sp, #8
2000a166:	af00      	add	r7, sp, #0
2000a168:	6078      	str	r0, [r7, #4]
2000a16a:	687b      	ldr	r3, [r7, #4]
2000a16c:	685b      	ldr	r3, [r3, #4]
2000a16e:	4618      	mov	r0, r3
2000a170:	f000 f897 	bl	2000a2a2 <_ZSt12__to_addressISt23_Sp_counted_ptr_inplaceI5ModelSaIvELN9__gnu_cxx12_Lock_policyE0EEEPT_S7_>
2000a174:	4603      	mov	r3, r0
2000a176:	4618      	mov	r0, r3
2000a178:	3708      	adds	r7, #8
2000a17a:	46bd      	mov	sp, r7
2000a17c:	bd80      	pop	{r7, pc}
	...

2000a180 <_ZNSt23_Sp_counted_ptr_inplaceI5ModelSaIvELN9__gnu_cxx12_Lock_policyE0EEC1IJRK7IKernelR7HandlerEEES1_DpOT_>:
	_Sp_counted_ptr_inplace(_Alloc __a, _Args&&... __args)
2000a180:	b5b0      	push	{r4, r5, r7, lr}
2000a182:	b088      	sub	sp, #32
2000a184:	af00      	add	r7, sp, #0
2000a186:	60f8      	str	r0, [r7, #12]
2000a188:	7239      	strb	r1, [r7, #8]
2000a18a:	607a      	str	r2, [r7, #4]
2000a18c:	603b      	str	r3, [r7, #0]
2000a18e:	4c1a      	ldr	r4, [pc, #104]	@ (2000a1f8 <_ZNSt23_Sp_counted_ptr_inplaceI5ModelSaIvELN9__gnu_cxx12_Lock_policyE0EEC1IJRK7IKernelR7HandlerEEES1_DpOT_+0x78>)
2000a190:	447c      	add	r4, pc
	: _M_impl(__a)
2000a192:	68fb      	ldr	r3, [r7, #12]
2000a194:	4618      	mov	r0, r3
2000a196:	f000 f88f 	bl	2000a2b8 <_ZNSt16_Sp_counted_baseILN9__gnu_cxx12_Lock_policyE0EEC1Ev>
2000a19a:	4b18      	ldr	r3, [pc, #96]	@ (2000a1fc <_ZNSt23_Sp_counted_ptr_inplaceI5ModelSaIvELN9__gnu_cxx12_Lock_policyE0EEC1IJRK7IKernelR7HandlerEEES1_DpOT_+0x7c>)
2000a19c:	58e3      	ldr	r3, [r4, r3]
2000a19e:	f103 0208 	add.w	r2, r3, #8
2000a1a2:	68fb      	ldr	r3, [r7, #12]
2000a1a4:	601a      	str	r2, [r3, #0]
2000a1a6:	68fb      	ldr	r3, [r7, #12]
2000a1a8:	330c      	adds	r3, #12
2000a1aa:	4629      	mov	r1, r5
2000a1ac:	4618      	mov	r0, r3
2000a1ae:	f000 f8a1 	bl	2000a2f4 <_ZNSt23_Sp_counted_ptr_inplaceI5ModelSaIvELN9__gnu_cxx12_Lock_policyE0EE5_ImplC1ES1_>
	  allocator_traits<_Alloc>::construct(__a, _M_ptr(),
2000a1b2:	68f8      	ldr	r0, [r7, #12]
2000a1b4:	f000 f833 	bl	2000a21e <_ZNSt23_Sp_counted_ptr_inplaceI5ModelSaIvELN9__gnu_cxx12_Lock_policyE0EE6_M_ptrEv>
2000a1b8:	4605      	mov	r5, r0
2000a1ba:	6878      	ldr	r0, [r7, #4]
2000a1bc:	f7ff fe2a 	bl	20009e14 <_ZSt7forwardIRK7IKernelEOT_RNSt16remove_referenceIS3_E4typeE>
2000a1c0:	4604      	mov	r4, r0
2000a1c2:	6838      	ldr	r0, [r7, #0]
2000a1c4:	f7ff fe31 	bl	20009e2a <_ZSt7forwardIR7HandlerEOT_RNSt16remove_referenceIS2_E4typeE>
2000a1c8:	4603      	mov	r3, r0
2000a1ca:	61fd      	str	r5, [r7, #28]
2000a1cc:	61bc      	str	r4, [r7, #24]
2000a1ce:	617b      	str	r3, [r7, #20]
      template<typename _Up, typename... _Args>
	[[__gnu__::__always_inline__]]
	static _GLIBCXX20_CONSTEXPR void
	construct(allocator_type&, _Up* __p, _Args&&... __args)
	noexcept(std::is_nothrow_constructible<_Up, _Args...>::value)
	{ std::_Construct(__p, std::forward<_Args>(__args)...); }
2000a1d0:	69b8      	ldr	r0, [r7, #24]
2000a1d2:	f7ff fe1f 	bl	20009e14 <_ZSt7forwardIRK7IKernelEOT_RNSt16remove_referenceIS3_E4typeE>
2000a1d6:	4604      	mov	r4, r0
2000a1d8:	6978      	ldr	r0, [r7, #20]
2000a1da:	f7ff fe26 	bl	20009e2a <_ZSt7forwardIR7HandlerEOT_RNSt16remove_referenceIS2_E4typeE>
2000a1de:	4603      	mov	r3, r0
2000a1e0:	461a      	mov	r2, r3
2000a1e2:	4621      	mov	r1, r4
2000a1e4:	69f8      	ldr	r0, [r7, #28]
2000a1e6:	f000 f910 	bl	2000a40a <_ZSt10_ConstructI5ModelJRK7IKernelR7HandlerEEvPT_DpOT0_>
2000a1ea:	bf00      	nop
	}
2000a1ec:	68fb      	ldr	r3, [r7, #12]
2000a1ee:	4618      	mov	r0, r3
2000a1f0:	3720      	adds	r7, #32
2000a1f2:	46bd      	mov	sp, r7
2000a1f4:	bdb0      	pop	{r4, r5, r7, pc}
2000a1f6:	bf00      	nop
2000a1f8:	00003770 	.word	0x00003770
2000a1fc:	00000010 	.word	0x00000010

2000a200 <_ZNSt15__allocated_ptrISaISt23_Sp_counted_ptr_inplaceI5ModelSaIvELN9__gnu_cxx12_Lock_policyE0EEEEaSEDn>:
      operator=(std::nullptr_t) noexcept
2000a200:	b480      	push	{r7}
2000a202:	b083      	sub	sp, #12
2000a204:	af00      	add	r7, sp, #0
2000a206:	6078      	str	r0, [r7, #4]
2000a208:	6039      	str	r1, [r7, #0]
	_M_ptr = nullptr;
2000a20a:	687b      	ldr	r3, [r7, #4]
2000a20c:	2200      	movs	r2, #0
2000a20e:	605a      	str	r2, [r3, #4]
	return *this;
2000a210:	687b      	ldr	r3, [r7, #4]
      }
2000a212:	4618      	mov	r0, r3
2000a214:	370c      	adds	r7, #12
2000a216:	46bd      	mov	sp, r7
2000a218:	f85d 7b04 	ldr.w	r7, [sp], #4
2000a21c:	4770      	bx	lr

2000a21e <_ZNSt23_Sp_counted_ptr_inplaceI5ModelSaIvELN9__gnu_cxx12_Lock_policyE0EE6_M_ptrEv>:
      _Tp* _M_ptr() noexcept { return _M_impl._M_storage._M_ptr(); }
2000a21e:	b580      	push	{r7, lr}
2000a220:	b082      	sub	sp, #8
2000a222:	af00      	add	r7, sp, #0
2000a224:	6078      	str	r0, [r7, #4]
2000a226:	687b      	ldr	r3, [r7, #4]
2000a228:	330c      	adds	r3, #12
2000a22a:	4618      	mov	r0, r3
2000a22c:	f000 f871 	bl	2000a312 <_ZN9__gnu_cxx16__aligned_bufferI5ModelE6_M_ptrEv>
2000a230:	4603      	mov	r3, r0
2000a232:	4618      	mov	r0, r3
2000a234:	3708      	adds	r7, #8
2000a236:	46bd      	mov	sp, r7
2000a238:	bd80      	pop	{r7, pc}

2000a23a <_ZNSt8__detail9__variant15_Variadic_unionIJN8S2GEvent11DailyHealthEEEC1IJRS3_EEESt16in_place_index_tILj0EEDpOT_>:
	_Variadic_union(in_place_index_t<0>, _Args&&... __args)
2000a23a:	b5b0      	push	{r4, r5, r7, lr}
2000a23c:	b084      	sub	sp, #16
2000a23e:	af00      	add	r7, sp, #0
2000a240:	60f8      	str	r0, [r7, #12]
2000a242:	7239      	strb	r1, [r7, #8]
2000a244:	607a      	str	r2, [r7, #4]
	: _M_first(in_place_index<0>, std::forward<_Args>(__args)...)
2000a246:	68fc      	ldr	r4, [r7, #12]
2000a248:	6878      	ldr	r0, [r7, #4]
2000a24a:	f7ff f8e0 	bl	2000940e <_ZSt7forwardIRN8S2GEvent11DailyHealthEEOT_RNSt16remove_referenceIS3_E4typeE>
2000a24e:	4603      	mov	r3, r0
2000a250:	461a      	mov	r2, r3
2000a252:	4629      	mov	r1, r5
2000a254:	4620      	mov	r0, r4
2000a256:	f000 f868 	bl	2000a32a <_ZNSt8__detail9__variant14_UninitializedIN8S2GEvent11DailyHealthELb1EEC1IJRS3_EEESt16in_place_index_tILj0EEDpOT_>
	{ }
2000a25a:	68fb      	ldr	r3, [r7, #12]
2000a25c:	4618      	mov	r0, r3
2000a25e:	3710      	adds	r7, #16
2000a260:	46bd      	mov	sp, r7
2000a262:	bdb0      	pop	{r4, r5, r7, pc}

2000a264 <_ZNSt15__new_allocatorISt23_Sp_counted_ptr_inplaceI5ModelSaIvELN9__gnu_cxx12_Lock_policyE0EEED1Ev>:
#if __cplusplus >= 201103L
      __new_allocator& operator=(const __new_allocator&) = default;
#endif

#if __cplusplus <= 201703L
      ~__new_allocator() _GLIBCXX_USE_NOEXCEPT { }
2000a264:	b480      	push	{r7}
2000a266:	b083      	sub	sp, #12
2000a268:	af00      	add	r7, sp, #0
2000a26a:	6078      	str	r0, [r7, #4]
2000a26c:	687b      	ldr	r3, [r7, #4]
2000a26e:	4618      	mov	r0, r3
2000a270:	370c      	adds	r7, #12
2000a272:	46bd      	mov	sp, r7
2000a274:	f85d 7b04 	ldr.w	r7, [sp], #4
2000a278:	4770      	bx	lr

2000a27a <_ZNSt15__allocated_ptrISaISt23_Sp_counted_ptr_inplaceI5ModelSaIvELN9__gnu_cxx12_Lock_policyE0EEEEC1ERS6_PS5_>:
      __allocated_ptr(_Alloc& __a, pointer __ptr) noexcept
2000a27a:	b580      	push	{r7, lr}
2000a27c:	b084      	sub	sp, #16
2000a27e:	af00      	add	r7, sp, #0
2000a280:	60f8      	str	r0, [r7, #12]
2000a282:	60b9      	str	r1, [r7, #8]
2000a284:	607a      	str	r2, [r7, #4]
      : _M_alloc(std::__addressof(__a)), _M_ptr(__ptr)
2000a286:	68b8      	ldr	r0, [r7, #8]
2000a288:	f000 f896 	bl	2000a3b8 <_ZSt11__addressofISaISt23_Sp_counted_ptr_inplaceI5ModelSaIvELN9__gnu_cxx12_Lock_policyE0EEEEPT_RS7_>
2000a28c:	4602      	mov	r2, r0
2000a28e:	68fb      	ldr	r3, [r7, #12]
2000a290:	601a      	str	r2, [r3, #0]
2000a292:	68fb      	ldr	r3, [r7, #12]
2000a294:	687a      	ldr	r2, [r7, #4]
2000a296:	605a      	str	r2, [r3, #4]
      { }
2000a298:	68fb      	ldr	r3, [r7, #12]
2000a29a:	4618      	mov	r0, r3
2000a29c:	3710      	adds	r7, #16
2000a29e:	46bd      	mov	sp, r7
2000a2a0:	bd80      	pop	{r7, pc}

2000a2a2 <_ZSt12__to_addressISt23_Sp_counted_ptr_inplaceI5ModelSaIvELN9__gnu_cxx12_Lock_policyE0EEEPT_S7_>:
  template<typename _Ptr, typename _Tp>
    using __ptr_rebind = typename pointer_traits<_Ptr>::template rebind<_Tp>;

  template<typename _Tp>
    constexpr _Tp*
    __to_address(_Tp* __ptr) noexcept
2000a2a2:	b480      	push	{r7}
2000a2a4:	b083      	sub	sp, #12
2000a2a6:	af00      	add	r7, sp, #0
2000a2a8:	6078      	str	r0, [r7, #4]
    {
      static_assert(!std::is_function<_Tp>::value, "not a function pointer");
      return __ptr;
2000a2aa:	687b      	ldr	r3, [r7, #4]
    }
2000a2ac:	4618      	mov	r0, r3
2000a2ae:	370c      	adds	r7, #12
2000a2b0:	46bd      	mov	sp, r7
2000a2b2:	f85d 7b04 	ldr.w	r7, [sp], #4
2000a2b6:	4770      	bx	lr

2000a2b8 <_ZNSt16_Sp_counted_baseILN9__gnu_cxx12_Lock_policyE0EEC1Ev>:
      _Sp_counted_base() noexcept
2000a2b8:	b480      	push	{r7}
2000a2ba:	b083      	sub	sp, #12
2000a2bc:	af00      	add	r7, sp, #0
2000a2be:	6078      	str	r0, [r7, #4]
2000a2c0:	4a0a      	ldr	r2, [pc, #40]	@ (2000a2ec <_ZNSt16_Sp_counted_baseILN9__gnu_cxx12_Lock_policyE0EEC1Ev+0x34>)
2000a2c2:	447a      	add	r2, pc
      : _M_use_count(1), _M_weak_count(1) { }
2000a2c4:	4b0a      	ldr	r3, [pc, #40]	@ (2000a2f0 <_ZNSt16_Sp_counted_baseILN9__gnu_cxx12_Lock_policyE0EEC1Ev+0x38>)
2000a2c6:	58d3      	ldr	r3, [r2, r3]
2000a2c8:	f103 0208 	add.w	r2, r3, #8
2000a2cc:	687b      	ldr	r3, [r7, #4]
2000a2ce:	601a      	str	r2, [r3, #0]
2000a2d0:	687b      	ldr	r3, [r7, #4]
2000a2d2:	2201      	movs	r2, #1
2000a2d4:	605a      	str	r2, [r3, #4]
2000a2d6:	687b      	ldr	r3, [r7, #4]
2000a2d8:	2201      	movs	r2, #1
2000a2da:	609a      	str	r2, [r3, #8]
2000a2dc:	687b      	ldr	r3, [r7, #4]
2000a2de:	4618      	mov	r0, r3
2000a2e0:	370c      	adds	r7, #12
2000a2e2:	46bd      	mov	sp, r7
2000a2e4:	f85d 7b04 	ldr.w	r7, [sp], #4
2000a2e8:	4770      	bx	lr
2000a2ea:	bf00      	nop
2000a2ec:	0000363e 	.word	0x0000363e
2000a2f0:	00000004 	.word	0x00000004

2000a2f4 <_ZNSt23_Sp_counted_ptr_inplaceI5ModelSaIvELN9__gnu_cxx12_Lock_policyE0EE5_ImplC1ES1_>:
	explicit _Impl(_Alloc __a) noexcept : _A_base(__a) { }
2000a2f4:	b580      	push	{r7, lr}
2000a2f6:	b082      	sub	sp, #8
2000a2f8:	af00      	add	r7, sp, #0
2000a2fa:	6078      	str	r0, [r7, #4]
2000a2fc:	7039      	strb	r1, [r7, #0]
2000a2fe:	463b      	mov	r3, r7
2000a300:	4619      	mov	r1, r3
2000a302:	6878      	ldr	r0, [r7, #4]
2000a304:	f000 f875 	bl	2000a3f2 <_ZNSt14_Sp_ebo_helperILi0ESaIvELb1EEC1ERKS0_>
2000a308:	687b      	ldr	r3, [r7, #4]
2000a30a:	4618      	mov	r0, r3
2000a30c:	3708      	adds	r7, #8
2000a30e:	46bd      	mov	sp, r7
2000a310:	bd80      	pop	{r7, pc}

2000a312 <_ZN9__gnu_cxx16__aligned_bufferI5ModelE6_M_ptrEv>:
      {
        return static_cast<const void*>(&_M_storage);
      }

      _Tp*
      _M_ptr() noexcept
2000a312:	b580      	push	{r7, lr}
2000a314:	b082      	sub	sp, #8
2000a316:	af00      	add	r7, sp, #0
2000a318:	6078      	str	r0, [r7, #4]
      { return static_cast<_Tp*>(_M_addr()); }
2000a31a:	6878      	ldr	r0, [r7, #4]
2000a31c:	f000 f893 	bl	2000a446 <_ZN9__gnu_cxx16__aligned_bufferI5ModelE7_M_addrEv>
2000a320:	4603      	mov	r3, r0
2000a322:	4618      	mov	r0, r3
2000a324:	3708      	adds	r7, #8
2000a326:	46bd      	mov	sp, r7
2000a328:	bd80      	pop	{r7, pc}

2000a32a <_ZNSt8__detail9__variant14_UninitializedIN8S2GEvent11DailyHealthELb1EEC1IJRS3_EEESt16in_place_index_tILj0EEDpOT_>:
	_Uninitialized(in_place_index_t<0>, _Args&&... __args)
2000a32a:	b5b0      	push	{r4, r5, r7, lr}
2000a32c:	b084      	sub	sp, #16
2000a32e:	af00      	add	r7, sp, #0
2000a330:	60f8      	str	r0, [r7, #12]
2000a332:	7239      	strb	r1, [r7, #8]
2000a334:	607a      	str	r2, [r7, #4]
	: _M_storage(std::forward<_Args>(__args)...)
2000a336:	6878      	ldr	r0, [r7, #4]
2000a338:	f7ff f869 	bl	2000940e <_ZSt7forwardIRN8S2GEvent11DailyHealthEEOT_RNSt16remove_referenceIS3_E4typeE>
2000a33c:	4602      	mov	r2, r0
2000a33e:	68fb      	ldr	r3, [r7, #12]
2000a340:	461c      	mov	r4, r3
2000a342:	4615      	mov	r5, r2
2000a344:	cd0f      	ldmia	r5!, {r0, r1, r2, r3}
2000a346:	c40f      	stmia	r4!, {r0, r1, r2, r3}
2000a348:	682b      	ldr	r3, [r5, #0]
2000a34a:	6023      	str	r3, [r4, #0]
	{ }
2000a34c:	68fb      	ldr	r3, [r7, #12]
2000a34e:	4618      	mov	r0, r3
2000a350:	3710      	adds	r7, #16
2000a352:	46bd      	mov	sp, r7
2000a354:	bdb0      	pop	{r4, r5, r7, pc}
	...

2000a358 <_ZNSt15__new_allocatorISt23_Sp_counted_ptr_inplaceI5ModelSaIvELN9__gnu_cxx12_Lock_policyE0EEE8allocateEjPKv>:
#endif

      // NB: __n is permitted to be 0.  The C++ standard says nothing
      // about what the return value is when __n == 0.
      _GLIBCXX_NODISCARD _Tp*
      allocate(size_type __n, const void* = static_cast<const void*>(0))
2000a358:	b580      	push	{r7, lr}
2000a35a:	b086      	sub	sp, #24
2000a35c:	af00      	add	r7, sp, #0
2000a35e:	60f8      	str	r0, [r7, #12]
2000a360:	60b9      	str	r1, [r7, #8]
2000a362:	607a      	str	r2, [r7, #4]
2000a364:	68fb      	ldr	r3, [r7, #12]
2000a366:	617b      	str	r3, [r7, #20]
      __attribute__((__always_inline__))
      _GLIBCXX_CONSTEXPR size_type
      _M_max_size() const _GLIBCXX_USE_NOEXCEPT
      {
#if __PTRDIFF_MAX__ < __SIZE_MAX__
	return std::size_t(__PTRDIFF_MAX__) / sizeof(_Tp);
2000a368:	4a11      	ldr	r2, [pc, #68]	@ (2000a3b0 <_ZNSt15__new_allocatorISt23_Sp_counted_ptr_inplaceI5ModelSaIvELN9__gnu_cxx12_Lock_policyE0EEE8allocateEjPKv+0x58>)
	if (__builtin_expect(__n > this->_M_max_size(), false))
2000a36a:	68bb      	ldr	r3, [r7, #8]
2000a36c:	4293      	cmp	r3, r2
2000a36e:	bf8c      	ite	hi
2000a370:	2301      	movhi	r3, #1
2000a372:	2300      	movls	r3, #0
2000a374:	b2db      	uxtb	r3, r3
2000a376:	2b00      	cmp	r3, #0
2000a378:	bf14      	ite	ne
2000a37a:	2301      	movne	r3, #1
2000a37c:	2300      	moveq	r3, #0
2000a37e:	b2db      	uxtb	r3, r3
2000a380:	2b00      	cmp	r3, #0
2000a382:	d007      	beq.n	2000a394 <_ZNSt15__new_allocatorISt23_Sp_counted_ptr_inplaceI5ModelSaIvELN9__gnu_cxx12_Lock_policyE0EEE8allocateEjPKv+0x3c>
	    if (__n > (std::size_t(-1) / sizeof(_Tp)))
2000a384:	68bb      	ldr	r3, [r7, #8]
2000a386:	4a0b      	ldr	r2, [pc, #44]	@ (2000a3b4 <_ZNSt15__new_allocatorISt23_Sp_counted_ptr_inplaceI5ModelSaIvELN9__gnu_cxx12_Lock_policyE0EEE8allocateEjPKv+0x5c>)
2000a388:	4293      	cmp	r3, r2
2000a38a:	d901      	bls.n	2000a390 <_ZNSt15__new_allocatorISt23_Sp_counted_ptr_inplaceI5ModelSaIvELN9__gnu_cxx12_Lock_policyE0EEE8allocateEjPKv+0x38>
	      std::__throw_bad_array_new_length();
2000a38c:	f000 fb22 	bl	2000a9d4 <_ZSt28__throw_bad_array_new_lengthv>
	    std::__throw_bad_alloc();
2000a390:	f000 fb10 	bl	2000a9b4 <_ZSt17__throw_bad_allocv>
	return static_cast<_Tp*>(_GLIBCXX_OPERATOR_NEW(__n * sizeof(_Tp)));
2000a394:	68bb      	ldr	r3, [r7, #8]
2000a396:	f44f 721c 	mov.w	r2, #624	@ 0x270
2000a39a:	fb02 f303 	mul.w	r3, r2, r3
2000a39e:	4618      	mov	r0, r3
2000a3a0:	f000 fab4 	bl	2000a90c <_Znwj>
2000a3a4:	4603      	mov	r3, r0
2000a3a6:	bf00      	nop
      }
2000a3a8:	4618      	mov	r0, r3
2000a3aa:	3718      	adds	r7, #24
2000a3ac:	46bd      	mov	sp, r7
2000a3ae:	bd80      	pop	{r7, pc}
2000a3b0:	00348348 	.word	0x00348348
2000a3b4:	00690690 	.word	0x00690690

2000a3b8 <_ZSt11__addressofISaISt23_Sp_counted_ptr_inplaceI5ModelSaIvELN9__gnu_cxx12_Lock_policyE0EEEEPT_RS7_>:
    __addressof(_Tp& __r) _GLIBCXX_NOEXCEPT
2000a3b8:	b480      	push	{r7}
2000a3ba:	b083      	sub	sp, #12
2000a3bc:	af00      	add	r7, sp, #0
2000a3be:	6078      	str	r0, [r7, #4]
    { return __builtin_addressof(__r); }
2000a3c0:	687b      	ldr	r3, [r7, #4]
2000a3c2:	4618      	mov	r0, r3
2000a3c4:	370c      	adds	r7, #12
2000a3c6:	46bd      	mov	sp, r7
2000a3c8:	f85d 7b04 	ldr.w	r7, [sp], #4
2000a3cc:	4770      	bx	lr

2000a3ce <_ZNSt15__new_allocatorISt23_Sp_counted_ptr_inplaceI5ModelSaIvELN9__gnu_cxx12_Lock_policyE0EEE10deallocateEPS5_j>:
      deallocate(_Tp* __p, size_type __n __attribute__ ((__unused__)))
2000a3ce:	b580      	push	{r7, lr}
2000a3d0:	b084      	sub	sp, #16
2000a3d2:	af00      	add	r7, sp, #0
2000a3d4:	60f8      	str	r0, [r7, #12]
2000a3d6:	60b9      	str	r1, [r7, #8]
2000a3d8:	607a      	str	r2, [r7, #4]
	_GLIBCXX_OPERATOR_DELETE(_GLIBCXX_SIZED_DEALLOC(__p, __n));
2000a3da:	687b      	ldr	r3, [r7, #4]
2000a3dc:	f44f 721c 	mov.w	r2, #624	@ 0x270
2000a3e0:	fb02 f303 	mul.w	r3, r2, r3
2000a3e4:	4619      	mov	r1, r3
2000a3e6:	68b8      	ldr	r0, [r7, #8]
2000a3e8:	f000 faa9 	bl	2000a93e <_ZdlPvj>
      }
2000a3ec:	3710      	adds	r7, #16
2000a3ee:	46bd      	mov	sp, r7
2000a3f0:	bd80      	pop	{r7, pc}

2000a3f2 <_ZNSt14_Sp_ebo_helperILi0ESaIvELb1EEC1ERKS0_>:
      explicit _Sp_ebo_helper(const _Tp& __tp) : _Tp(__tp) { }
2000a3f2:	b480      	push	{r7}
2000a3f4:	b083      	sub	sp, #12
2000a3f6:	af00      	add	r7, sp, #0
2000a3f8:	6078      	str	r0, [r7, #4]
2000a3fa:	6039      	str	r1, [r7, #0]
2000a3fc:	687b      	ldr	r3, [r7, #4]
2000a3fe:	4618      	mov	r0, r3
2000a400:	370c      	adds	r7, #12
2000a402:	46bd      	mov	sp, r7
2000a404:	f85d 7b04 	ldr.w	r7, [sp], #4
2000a408:	4770      	bx	lr

2000a40a <_ZSt10_ConstructI5ModelJRK7IKernelR7HandlerEEvPT_DpOT0_>:
   */
#if __cplusplus >= 201103L
  template<typename _Tp, typename... _Args>
    _GLIBCXX20_CONSTEXPR
    inline void
    _Construct(_Tp* __p, _Args&&... __args)
2000a40a:	b5b0      	push	{r4, r5, r7, lr}
2000a40c:	b084      	sub	sp, #16
2000a40e:	af00      	add	r7, sp, #0
2000a410:	60f8      	str	r0, [r7, #12]
2000a412:	60b9      	str	r1, [r7, #8]
2000a414:	607a      	str	r2, [r7, #4]
	  // Allow std::_Construct to be used in constant expressions.
	  std::construct_at(__p, std::forward<_Args>(__args)...);
	  return;
	}
#endif
      ::new((void*)__p) _Tp(std::forward<_Args>(__args)...);
2000a416:	68fb      	ldr	r3, [r7, #12]
2000a418:	4619      	mov	r1, r3
2000a41a:	f44f 7019 	mov.w	r0, #612	@ 0x264
2000a41e:	f7ff f926 	bl	2000966e <_ZnwjPv>
2000a422:	4604      	mov	r4, r0
2000a424:	68b8      	ldr	r0, [r7, #8]
2000a426:	f7ff fcf5 	bl	20009e14 <_ZSt7forwardIRK7IKernelEOT_RNSt16remove_referenceIS3_E4typeE>
2000a42a:	4605      	mov	r5, r0
2000a42c:	6878      	ldr	r0, [r7, #4]
2000a42e:	f7ff fcfc 	bl	20009e2a <_ZSt7forwardIR7HandlerEOT_RNSt16remove_referenceIS2_E4typeE>
2000a432:	4603      	mov	r3, r0
2000a434:	461a      	mov	r2, r3
2000a436:	4629      	mov	r1, r5
2000a438:	4620      	mov	r0, r4
2000a43a:	f7fd fd09 	bl	20007e50 <_ZN5ModelC1ERK7IKernelR20IServiceModelHandler>
    }
2000a43e:	bf00      	nop
2000a440:	3710      	adds	r7, #16
2000a442:	46bd      	mov	sp, r7
2000a444:	bdb0      	pop	{r4, r5, r7, pc}

2000a446 <_ZN9__gnu_cxx16__aligned_bufferI5ModelE7_M_addrEv>:
      _M_addr() noexcept
2000a446:	b480      	push	{r7}
2000a448:	b083      	sub	sp, #12
2000a44a:	af00      	add	r7, sp, #0
2000a44c:	6078      	str	r0, [r7, #4]
        return static_cast<void*>(&_M_storage);
2000a44e:	687b      	ldr	r3, [r7, #4]
      }
2000a450:	4618      	mov	r0, r3
2000a452:	370c      	adds	r7, #12
2000a454:	46bd      	mov	sp, r7
2000a456:	f85d 7b04 	ldr.w	r7, [sp], #4
2000a45a:	4770      	bx	lr

2000a45c <_Z41__static_initialization_and_destruction_0v>:
    return -1;
}
2000a45c:	b580      	push	{r7, lr}
2000a45e:	af00      	add	r7, sp, #0
static Test mTest;
2000a460:	4b03      	ldr	r3, [pc, #12]	@ (2000a470 <_Z41__static_initialization_and_destruction_0v+0x14>)
2000a462:	447b      	add	r3, pc
2000a464:	4618      	mov	r0, r3
2000a466:	f7ff f948 	bl	200096fa <_ZN4TestC1Ev>
}
2000a46a:	bf00      	nop
2000a46c:	bd80      	pop	{r7, pc}
2000a46e:	bf00      	nop
2000a470:	0000350a 	.word	0x0000350a

2000a474 <_Z41__static_initialization_and_destruction_1v>:
2000a474:	b580      	push	{r7, lr}
2000a476:	af00      	add	r7, sp, #0
static Test mTest;
2000a478:	4b03      	ldr	r3, [pc, #12]	@ (2000a488 <_Z41__static_initialization_and_destruction_1v+0x14>)
2000a47a:	447b      	add	r3, pc
2000a47c:	4618      	mov	r0, r3
2000a47e:	f7ff f94b 	bl	20009718 <_ZN4TestD1Ev>
}
2000a482:	bf00      	nop
2000a484:	bd80      	pop	{r7, pc}
2000a486:	bf00      	nop
2000a488:	000034f2 	.word	0x000034f2

2000a48c <_ZNSt23_Sp_counted_ptr_inplaceI5ModelSaIvELN9__gnu_cxx12_Lock_policyE0EED1Ev>:
      ~_Sp_counted_ptr_inplace() noexcept { }
2000a48c:	b580      	push	{r7, lr}
2000a48e:	b082      	sub	sp, #8
2000a490:	af00      	add	r7, sp, #0
2000a492:	6078      	str	r0, [r7, #4]
2000a494:	4a08      	ldr	r2, [pc, #32]	@ (2000a4b8 <_ZNSt23_Sp_counted_ptr_inplaceI5ModelSaIvELN9__gnu_cxx12_Lock_policyE0EED1Ev+0x2c>)
2000a496:	447a      	add	r2, pc
2000a498:	4b08      	ldr	r3, [pc, #32]	@ (2000a4bc <_ZNSt23_Sp_counted_ptr_inplaceI5ModelSaIvELN9__gnu_cxx12_Lock_policyE0EED1Ev+0x30>)
2000a49a:	58d3      	ldr	r3, [r2, r3]
2000a49c:	f103 0208 	add.w	r2, r3, #8
2000a4a0:	687b      	ldr	r3, [r7, #4]
2000a4a2:	601a      	str	r2, [r3, #0]
2000a4a4:	687b      	ldr	r3, [r7, #4]
2000a4a6:	4618      	mov	r0, r3
2000a4a8:	f7ff fc8c 	bl	20009dc4 <_ZNSt16_Sp_counted_baseILN9__gnu_cxx12_Lock_policyE0EED1Ev>
2000a4ac:	687b      	ldr	r3, [r7, #4]
2000a4ae:	4618      	mov	r0, r3
2000a4b0:	3708      	adds	r7, #8
2000a4b2:	46bd      	mov	sp, r7
2000a4b4:	bd80      	pop	{r7, pc}
2000a4b6:	bf00      	nop
2000a4b8:	0000346a 	.word	0x0000346a
2000a4bc:	00000010 	.word	0x00000010

2000a4c0 <_ZNSt23_Sp_counted_ptr_inplaceI5ModelSaIvELN9__gnu_cxx12_Lock_policyE0EED0Ev>:
2000a4c0:	b580      	push	{r7, lr}
2000a4c2:	b082      	sub	sp, #8
2000a4c4:	af00      	add	r7, sp, #0
2000a4c6:	6078      	str	r0, [r7, #4]
2000a4c8:	6878      	ldr	r0, [r7, #4]
2000a4ca:	f7ff ffdf 	bl	2000a48c <_ZNSt23_Sp_counted_ptr_inplaceI5ModelSaIvELN9__gnu_cxx12_Lock_policyE0EED1Ev>
2000a4ce:	f44f 711c 	mov.w	r1, #624	@ 0x270
2000a4d2:	6878      	ldr	r0, [r7, #4]
2000a4d4:	f000 fa33 	bl	2000a93e <_ZdlPvj>
2000a4d8:	687b      	ldr	r3, [r7, #4]
2000a4da:	4618      	mov	r0, r3
2000a4dc:	3708      	adds	r7, #8
2000a4de:	46bd      	mov	sp, r7
2000a4e0:	bd80      	pop	{r7, pc}

2000a4e2 <_ZNSt23_Sp_counted_ptr_inplaceI5ModelSaIvELN9__gnu_cxx12_Lock_policyE0EE10_M_disposeEv>:
      _M_dispose() noexcept
2000a4e2:	b590      	push	{r4, r7, lr}
2000a4e4:	b085      	sub	sp, #20
2000a4e6:	af00      	add	r7, sp, #0
2000a4e8:	6078      	str	r0, [r7, #4]
	allocator_traits<_Alloc>::destroy(_M_impl._M_alloc(), _M_ptr());
2000a4ea:	687b      	ldr	r3, [r7, #4]
2000a4ec:	330c      	adds	r3, #12
2000a4ee:	4618      	mov	r0, r3
2000a4f0:	f000 f857 	bl	2000a5a2 <_ZNSt23_Sp_counted_ptr_inplaceI5ModelSaIvELN9__gnu_cxx12_Lock_policyE0EE5_Impl8_M_allocEv>
2000a4f4:	4604      	mov	r4, r0
2000a4f6:	6878      	ldr	r0, [r7, #4]
2000a4f8:	f7ff fe91 	bl	2000a21e <_ZNSt23_Sp_counted_ptr_inplaceI5ModelSaIvELN9__gnu_cxx12_Lock_policyE0EE6_M_ptrEv>
2000a4fc:	4603      	mov	r3, r0
2000a4fe:	60fc      	str	r4, [r7, #12]
2000a500:	60bb      	str	r3, [r7, #8]
      template<typename _Up>
	[[__gnu__::__always_inline__]]
	static _GLIBCXX20_CONSTEXPR void
	destroy(allocator_type&, _Up* __p)
	noexcept(is_nothrow_destructible<_Up>::value)
	{ std::_Destroy(__p); }
2000a502:	68b8      	ldr	r0, [r7, #8]
2000a504:	f000 f864 	bl	2000a5d0 <_ZSt8_DestroyI5ModelEvPT_>
2000a508:	bf00      	nop
      }
2000a50a:	bf00      	nop
2000a50c:	3714      	adds	r7, #20
2000a50e:	46bd      	mov	sp, r7
2000a510:	bd90      	pop	{r4, r7, pc}

2000a512 <_ZNSt23_Sp_counted_ptr_inplaceI5ModelSaIvELN9__gnu_cxx12_Lock_policyE0EE10_M_destroyEv>:
      _M_destroy() noexcept
2000a512:	b580      	push	{r7, lr}
2000a514:	b088      	sub	sp, #32
2000a516:	af00      	add	r7, sp, #0
2000a518:	6078      	str	r0, [r7, #4]
	__allocator_type __a(_M_impl._M_alloc());
2000a51a:	687b      	ldr	r3, [r7, #4]
2000a51c:	330c      	adds	r3, #12
2000a51e:	4618      	mov	r0, r3
2000a520:	f000 f83f 	bl	2000a5a2 <_ZNSt23_Sp_counted_ptr_inplaceI5ModelSaIvELN9__gnu_cxx12_Lock_policyE0EE5_Impl8_M_allocEv>
2000a524:	4603      	mov	r3, r0
2000a526:	61fb      	str	r3, [r7, #28]
2000a528:	f107 0314 	add.w	r3, r7, #20
2000a52c:	61bb      	str	r3, [r7, #24]
	__allocated_ptr<__allocator_type> __guard_ptr{ __a, this };
2000a52e:	f107 0114 	add.w	r1, r7, #20
2000a532:	f107 030c 	add.w	r3, r7, #12
2000a536:	687a      	ldr	r2, [r7, #4]
2000a538:	4618      	mov	r0, r3
2000a53a:	f7ff fe9e 	bl	2000a27a <_ZNSt15__allocated_ptrISaISt23_Sp_counted_ptr_inplaceI5ModelSaIvELN9__gnu_cxx12_Lock_policyE0EEEEC1ERS6_PS5_>
	this->~_Sp_counted_ptr_inplace();
2000a53e:	6878      	ldr	r0, [r7, #4]
2000a540:	f7ff ffa4 	bl	2000a48c <_ZNSt23_Sp_counted_ptr_inplaceI5ModelSaIvELN9__gnu_cxx12_Lock_policyE0EED1Ev>
      }
2000a544:	f107 030c 	add.w	r3, r7, #12
2000a548:	4618      	mov	r0, r3
2000a54a:	f7ff fdef 	bl	2000a12c <_ZNSt15__allocated_ptrISaISt23_Sp_counted_ptr_inplaceI5ModelSaIvELN9__gnu_cxx12_Lock_policyE0EEEED1Ev>
2000a54e:	f107 0314 	add.w	r3, r7, #20
2000a552:	4618      	mov	r0, r3
2000a554:	f7ff fe86 	bl	2000a264 <_ZNSt15__new_allocatorISt23_Sp_counted_ptr_inplaceI5ModelSaIvELN9__gnu_cxx12_Lock_policyE0EEED1Ev>
2000a558:	bf00      	nop
2000a55a:	3720      	adds	r7, #32
2000a55c:	46bd      	mov	sp, r7
2000a55e:	bd80      	pop	{r7, pc}

2000a560 <_ZNSt23_Sp_counted_ptr_inplaceI5ModelSaIvELN9__gnu_cxx12_Lock_policyE0EE14_M_get_deleterERKSt9type_info>:
      _M_get_deleter(const std::type_info& __ti) noexcept override
2000a560:	b580      	push	{r7, lr}
2000a562:	b084      	sub	sp, #16
2000a564:	af00      	add	r7, sp, #0
2000a566:	6078      	str	r0, [r7, #4]
2000a568:	6039      	str	r1, [r7, #0]
	auto __ptr = const_cast<typename remove_cv<_Tp>::type*>(_M_ptr());
2000a56a:	6878      	ldr	r0, [r7, #4]
2000a56c:	f7ff fe57 	bl	2000a21e <_ZNSt23_Sp_counted_ptr_inplaceI5ModelSaIvELN9__gnu_cxx12_Lock_policyE0EE6_M_ptrEv>
2000a570:	60f8      	str	r0, [r7, #12]
	if (&__ti == &_Sp_make_shared_tag::_S_ti()
2000a572:	f7ff f897 	bl	200096a4 <_ZNSt19_Sp_make_shared_tag5_S_tiEv>
2000a576:	4602      	mov	r2, r0
	    ||
2000a578:	683b      	ldr	r3, [r7, #0]
2000a57a:	4293      	cmp	r3, r2
2000a57c:	d005      	beq.n	2000a58a <_ZNSt23_Sp_counted_ptr_inplaceI5ModelSaIvELN9__gnu_cxx12_Lock_policyE0EE14_M_get_deleterERKSt9type_info+0x2a>
	    _Sp_make_shared_tag::_S_eq(__ti)
2000a57e:	6838      	ldr	r0, [r7, #0]
2000a580:	f000 fa38 	bl	2000a9f4 <_ZNSt19_Sp_make_shared_tag5_S_eqERKSt9type_info>
2000a584:	4603      	mov	r3, r0
	    ||
2000a586:	2b00      	cmp	r3, #0
2000a588:	d001      	beq.n	2000a58e <_ZNSt23_Sp_counted_ptr_inplaceI5ModelSaIvELN9__gnu_cxx12_Lock_policyE0EE14_M_get_deleterERKSt9type_info+0x2e>
2000a58a:	2301      	movs	r3, #1
2000a58c:	e000      	b.n	2000a590 <_ZNSt23_Sp_counted_ptr_inplaceI5ModelSaIvELN9__gnu_cxx12_Lock_policyE0EE14_M_get_deleterERKSt9type_info+0x30>
2000a58e:	2300      	movs	r3, #0
	if (&__ti == &_Sp_make_shared_tag::_S_ti()
2000a590:	2b00      	cmp	r3, #0
2000a592:	d001      	beq.n	2000a598 <_ZNSt23_Sp_counted_ptr_inplaceI5ModelSaIvELN9__gnu_cxx12_Lock_policyE0EE14_M_get_deleterERKSt9type_info+0x38>
	  return __ptr;
2000a594:	68fb      	ldr	r3, [r7, #12]
2000a596:	e000      	b.n	2000a59a <_ZNSt23_Sp_counted_ptr_inplaceI5ModelSaIvELN9__gnu_cxx12_Lock_policyE0EE14_M_get_deleterERKSt9type_info+0x3a>
	return nullptr;
2000a598:	2300      	movs	r3, #0
      }
2000a59a:	4618      	mov	r0, r3
2000a59c:	3710      	adds	r7, #16
2000a59e:	46bd      	mov	sp, r7
2000a5a0:	bd80      	pop	{r7, pc}

2000a5a2 <_ZNSt23_Sp_counted_ptr_inplaceI5ModelSaIvELN9__gnu_cxx12_Lock_policyE0EE5_Impl8_M_allocEv>:
	_Alloc& _M_alloc() noexcept { return _A_base::_S_get(*this); }
2000a5a2:	b580      	push	{r7, lr}
2000a5a4:	b082      	sub	sp, #8
2000a5a6:	af00      	add	r7, sp, #0
2000a5a8:	6078      	str	r0, [r7, #4]
2000a5aa:	6878      	ldr	r0, [r7, #4]
2000a5ac:	f000 f805 	bl	2000a5ba <_ZNSt14_Sp_ebo_helperILi0ESaIvELb1EE6_S_getERS1_>
2000a5b0:	4603      	mov	r3, r0
2000a5b2:	4618      	mov	r0, r3
2000a5b4:	3708      	adds	r7, #8
2000a5b6:	46bd      	mov	sp, r7
2000a5b8:	bd80      	pop	{r7, pc}

2000a5ba <_ZNSt14_Sp_ebo_helperILi0ESaIvELb1EE6_S_getERS1_>:
      _S_get(_Sp_ebo_helper& __eboh) { return static_cast<_Tp&>(__eboh); }
2000a5ba:	b480      	push	{r7}
2000a5bc:	b083      	sub	sp, #12
2000a5be:	af00      	add	r7, sp, #0
2000a5c0:	6078      	str	r0, [r7, #4]
2000a5c2:	687b      	ldr	r3, [r7, #4]
2000a5c4:	4618      	mov	r0, r3
2000a5c6:	370c      	adds	r7, #12
2000a5c8:	46bd      	mov	sp, r7
2000a5ca:	f85d 7b04 	ldr.w	r7, [sp], #4
2000a5ce:	4770      	bx	lr

2000a5d0 <_ZSt8_DestroyI5ModelEvPT_>:
  /**
   * Destroy the object pointed to by a pointer type.
   */
  template<typename _Tp>
    _GLIBCXX14_CONSTEXPR inline void
    _Destroy(_Tp* __pointer)
2000a5d0:	b580      	push	{r7, lr}
2000a5d2:	b082      	sub	sp, #8
2000a5d4:	af00      	add	r7, sp, #0
2000a5d6:	6078      	str	r0, [r7, #4]
    {
#if __cplusplus > 201703L
      std::destroy_at(__pointer);
#else
      __pointer->~_Tp();
2000a5d8:	687b      	ldr	r3, [r7, #4]
2000a5da:	681b      	ldr	r3, [r3, #0]
2000a5dc:	681b      	ldr	r3, [r3, #0]
2000a5de:	6878      	ldr	r0, [r7, #4]
2000a5e0:	4798      	blx	r3
#endif
    }
2000a5e2:	bf00      	nop
2000a5e4:	3708      	adds	r7, #8
2000a5e6:	46bd      	mov	sp, r7
2000a5e8:	bd80      	pop	{r7, pc}

2000a5ea <_GLOBAL__sub_I_main.cpp>:
2000a5ea:	b580      	push	{r7, lr}
2000a5ec:	af00      	add	r7, sp, #0
2000a5ee:	f7ff ff35 	bl	2000a45c <_Z41__static_initialization_and_destruction_0v>
2000a5f2:	bd80      	pop	{r7, pc}

2000a5f4 <_GLOBAL__sub_D_main.cpp>:
2000a5f4:	b580      	push	{r7, lr}
2000a5f6:	af00      	add	r7, sp, #0
2000a5f8:	f7ff ff3c 	bl	2000a474 <_Z41__static_initialization_and_destruction_1v>
2000a5fc:	bd80      	pop	{r7, pc}
	...

2000a600 <__una_init_kernel>:
extern void (*__fini_array_start[])     (void) __attribute__((weak));
extern void (*__fini_array_end[])       (void) __attribute__((weak));

extern "C" {
    void __una_init_kernel (void)
    {
2000a600:	b598      	push	{r3, r4, r7, lr}
2000a602:	af00      	add	r7, sp, #0
2000a604:	4c0f      	ldr	r4, [pc, #60]	@ (2000a644 <__una_init_kernel+0x44>)
2000a606:	447c      	add	r4, pc
        kernel->app.initialized();
2000a608:	4b0f      	ldr	r3, [pc, #60]	@ (2000a648 <__una_init_kernel+0x48>)
2000a60a:	58e3      	ldr	r3, [r4, r3]
2000a60c:	681b      	ldr	r3, [r3, #0]
2000a60e:	6a1b      	ldr	r3, [r3, #32]
2000a610:	681b      	ldr	r3, [r3, #0]
2000a612:	3304      	adds	r3, #4
2000a614:	681b      	ldr	r3, [r3, #0]
2000a616:	4a0c      	ldr	r2, [pc, #48]	@ (2000a648 <__una_init_kernel+0x48>)
2000a618:	58a2      	ldr	r2, [r4, r2]
2000a61a:	6812      	ldr	r2, [r2, #0]
2000a61c:	6a12      	ldr	r2, [r2, #32]
2000a61e:	4610      	mov	r0, r2
2000a620:	4798      	blx	r3
        kernel->app.log("\n");
2000a622:	4b09      	ldr	r3, [pc, #36]	@ (2000a648 <__una_init_kernel+0x48>)
2000a624:	58e3      	ldr	r3, [r4, r3]
2000a626:	681b      	ldr	r3, [r3, #0]
2000a628:	6a1b      	ldr	r3, [r3, #32]
2000a62a:	681b      	ldr	r3, [r3, #0]
2000a62c:	332c      	adds	r3, #44	@ 0x2c
2000a62e:	681b      	ldr	r3, [r3, #0]
2000a630:	4a05      	ldr	r2, [pc, #20]	@ (2000a648 <__una_init_kernel+0x48>)
2000a632:	58a2      	ldr	r2, [r4, r2]
2000a634:	6812      	ldr	r2, [r2, #0]
2000a636:	6a12      	ldr	r2, [r2, #32]
2000a638:	4904      	ldr	r1, [pc, #16]	@ (2000a64c <__una_init_kernel+0x4c>)
2000a63a:	4479      	add	r1, pc
2000a63c:	4610      	mov	r0, r2
2000a63e:	4798      	blx	r3
    }
2000a640:	bf00      	nop
2000a642:	bd98      	pop	{r3, r4, r7, pc}
2000a644:	000032fa 	.word	0x000032fa
2000a648:	00000038 	.word	0x00000038
2000a64c:	00001aea 	.word	0x00001aea

2000a650 <__una_init_array>:

    /* Iterate over all the init routines.  */
    void __una_init_array (void)
    {
2000a650:	b590      	push	{r4, r7, lr}
2000a652:	b083      	sub	sp, #12
2000a654:	af00      	add	r7, sp, #0
2000a656:	4c1b      	ldr	r4, [pc, #108]	@ (2000a6c4 <__una_init_array+0x74>)
2000a658:	447c      	add	r4, pc
        size_t count;
        size_t i;

        count = __preinit_array_end - __preinit_array_start;
2000a65a:	4b1b      	ldr	r3, [pc, #108]	@ (2000a6c8 <__una_init_array+0x78>)
2000a65c:	58e3      	ldr	r3, [r4, r3]
2000a65e:	461a      	mov	r2, r3
2000a660:	4b1a      	ldr	r3, [pc, #104]	@ (2000a6cc <__una_init_array+0x7c>)
2000a662:	58e3      	ldr	r3, [r4, r3]
2000a664:	1ad3      	subs	r3, r2, r3
2000a666:	109b      	asrs	r3, r3, #2
2000a668:	603b      	str	r3, [r7, #0]
        for (i = 0; i < count; ++i) {
2000a66a:	2300      	movs	r3, #0
2000a66c:	607b      	str	r3, [r7, #4]
2000a66e:	e008      	b.n	2000a682 <__una_init_array+0x32>
            __preinit_array_start[i] ();
2000a670:	4b16      	ldr	r3, [pc, #88]	@ (2000a6cc <__una_init_array+0x7c>)
2000a672:	58e3      	ldr	r3, [r4, r3]
2000a674:	687a      	ldr	r2, [r7, #4]
2000a676:	f853 3022 	ldr.w	r3, [r3, r2, lsl #2]
2000a67a:	4798      	blx	r3
        for (i = 0; i < count; ++i) {
2000a67c:	687b      	ldr	r3, [r7, #4]
2000a67e:	3301      	adds	r3, #1
2000a680:	607b      	str	r3, [r7, #4]
2000a682:	687a      	ldr	r2, [r7, #4]
2000a684:	683b      	ldr	r3, [r7, #0]
2000a686:	429a      	cmp	r2, r3
2000a688:	d3f2      	bcc.n	2000a670 <__una_init_array+0x20>

        #ifdef _HAVE_INIT_FINI
          _init ();
        #endif

        count = __init_array_end - __init_array_start;
2000a68a:	4b11      	ldr	r3, [pc, #68]	@ (2000a6d0 <__una_init_array+0x80>)
2000a68c:	58e3      	ldr	r3, [r4, r3]
2000a68e:	461a      	mov	r2, r3
2000a690:	4b10      	ldr	r3, [pc, #64]	@ (2000a6d4 <__una_init_array+0x84>)
2000a692:	58e3      	ldr	r3, [r4, r3]
2000a694:	1ad3      	subs	r3, r2, r3
2000a696:	109b      	asrs	r3, r3, #2
2000a698:	603b      	str	r3, [r7, #0]
        for (i = 0; i < count; ++i) {
2000a69a:	2300      	movs	r3, #0
2000a69c:	607b      	str	r3, [r7, #4]
2000a69e:	e008      	b.n	2000a6b2 <__una_init_array+0x62>
           __init_array_start[i] ();
2000a6a0:	4b0c      	ldr	r3, [pc, #48]	@ (2000a6d4 <__una_init_array+0x84>)
2000a6a2:	58e3      	ldr	r3, [r4, r3]
2000a6a4:	687a      	ldr	r2, [r7, #4]
2000a6a6:	f853 3022 	ldr.w	r3, [r3, r2, lsl #2]
2000a6aa:	4798      	blx	r3
        for (i = 0; i < count; ++i) {
2000a6ac:	687b      	ldr	r3, [r7, #4]
2000a6ae:	3301      	adds	r3, #1
2000a6b0:	607b      	str	r3, [r7, #4]
2000a6b2:	687a      	ldr	r2, [r7, #4]
2000a6b4:	683b      	ldr	r3, [r7, #0]
2000a6b6:	429a      	cmp	r2, r3
2000a6b8:	d3f2      	bcc.n	2000a6a0 <__una_init_array+0x50>
        }
   }
2000a6ba:	bf00      	nop
2000a6bc:	bf00      	nop
2000a6be:	370c      	adds	r7, #12
2000a6c0:	46bd      	mov	sp, r7
2000a6c2:	bd90      	pop	{r4, r7, pc}
2000a6c4:	000032a8 	.word	0x000032a8
2000a6c8:	00000040 	.word	0x00000040
2000a6cc:	00000054 	.word	0x00000054
2000a6d0:	0000002c 	.word	0x0000002c
2000a6d4:	0000004c 	.word	0x0000004c

2000a6d8 <__una_fini_array>:

    void __una_fini_array(void)
    {
2000a6d8:	b590      	push	{r4, r7, lr}
2000a6da:	b083      	sub	sp, #12
2000a6dc:	af00      	add	r7, sp, #0
2000a6de:	4c0f      	ldr	r4, [pc, #60]	@ (2000a71c <__una_fini_array+0x44>)
2000a6e0:	447c      	add	r4, pc
        int count = __fini_array_end - __fini_array_start;
2000a6e2:	4b0f      	ldr	r3, [pc, #60]	@ (2000a720 <__una_fini_array+0x48>)
2000a6e4:	58e3      	ldr	r3, [r4, r3]
2000a6e6:	461a      	mov	r2, r3
2000a6e8:	4b0e      	ldr	r3, [pc, #56]	@ (2000a724 <__una_fini_array+0x4c>)
2000a6ea:	58e3      	ldr	r3, [r4, r3]
2000a6ec:	1ad3      	subs	r3, r2, r3
2000a6ee:	109b      	asrs	r3, r3, #2
2000a6f0:	603b      	str	r3, [r7, #0]
        for (int i = 0; i < count; ++i) {
2000a6f2:	2300      	movs	r3, #0
2000a6f4:	607b      	str	r3, [r7, #4]
2000a6f6:	e008      	b.n	2000a70a <__una_fini_array+0x32>
            __fini_array_start[i] ();
2000a6f8:	4b0a      	ldr	r3, [pc, #40]	@ (2000a724 <__una_fini_array+0x4c>)
2000a6fa:	58e3      	ldr	r3, [r4, r3]
2000a6fc:	687a      	ldr	r2, [r7, #4]
2000a6fe:	f853 3022 	ldr.w	r3, [r3, r2, lsl #2]
2000a702:	4798      	blx	r3
        for (int i = 0; i < count; ++i) {
2000a704:	687b      	ldr	r3, [r7, #4]
2000a706:	3301      	adds	r3, #1
2000a708:	607b      	str	r3, [r7, #4]
2000a70a:	687a      	ldr	r2, [r7, #4]
2000a70c:	683b      	ldr	r3, [r7, #0]
2000a70e:	429a      	cmp	r2, r3
2000a710:	dbf2      	blt.n	2000a6f8 <__una_fini_array+0x20>
        }
    }
2000a712:	bf00      	nop
2000a714:	bf00      	nop
2000a716:	370c      	adds	r7, #12
2000a718:	46bd      	mov	sp, r7
2000a71a:	bd90      	pop	{r4, r7, pc}
2000a71c:	00003220 	.word	0x00003220
2000a720:	00000008 	.word	0x00000008
2000a724:	00000028 	.word	0x00000028

2000a728 <malloc>:
    errno = ENOMEM;
    return (void*) -1;
}

extern "C" void* malloc(size_t size)
{
2000a728:	b580      	push	{r7, lr}
2000a72a:	b082      	sub	sp, #8
2000a72c:	af00      	add	r7, sp, #0
2000a72e:	6078      	str	r0, [r7, #4]
2000a730:	4a06      	ldr	r2, [pc, #24]	@ (2000a74c <malloc+0x24>)
2000a732:	447a      	add	r2, pc
    return _malloc_r(_REENT, size);
2000a734:	4b06      	ldr	r3, [pc, #24]	@ (2000a750 <malloc+0x28>)
2000a736:	58d3      	ldr	r3, [r2, r3]
2000a738:	681b      	ldr	r3, [r3, #0]
2000a73a:	6879      	ldr	r1, [r7, #4]
2000a73c:	4618      	mov	r0, r3
2000a73e:	f000 f853 	bl	2000a7e8 <_malloc_r>
2000a742:	4603      	mov	r3, r0
}
2000a744:	4618      	mov	r0, r3
2000a746:	3708      	adds	r7, #8
2000a748:	46bd      	mov	sp, r7
2000a74a:	bd80      	pop	{r7, pc}
2000a74c:	000031ce 	.word	0x000031ce
2000a750:	0000003c 	.word	0x0000003c

2000a754 <free>:

extern "C" void free(void* ptr)
{
2000a754:	b580      	push	{r7, lr}
2000a756:	b082      	sub	sp, #8
2000a758:	af00      	add	r7, sp, #0
2000a75a:	6078      	str	r0, [r7, #4]
2000a75c:	4a06      	ldr	r2, [pc, #24]	@ (2000a778 <free+0x24>)
2000a75e:	447a      	add	r2, pc
    _free_r(_REENT, ptr);
2000a760:	4b06      	ldr	r3, [pc, #24]	@ (2000a77c <free+0x28>)
2000a762:	58d3      	ldr	r3, [r2, r3]
2000a764:	681b      	ldr	r3, [r3, #0]
2000a766:	6879      	ldr	r1, [r7, #4]
2000a768:	4618      	mov	r0, r3
2000a76a:	f000 f86d 	bl	2000a848 <_free_r>
}
2000a76e:	bf00      	nop
2000a770:	3708      	adds	r7, #8
2000a772:	46bd      	mov	sp, r7
2000a774:	bd80      	pop	{r7, pc}
2000a776:	bf00      	nop
2000a778:	000031a2 	.word	0x000031a2
2000a77c:	0000003c 	.word	0x0000003c

2000a780 <calloc>:

extern "C" void* calloc(size_t __nmemb, size_t __size)
{
2000a780:	b580      	push	{r7, lr}
2000a782:	b084      	sub	sp, #16
2000a784:	af00      	add	r7, sp, #0
2000a786:	6078      	str	r0, [r7, #4]
2000a788:	6039      	str	r1, [r7, #0]
    void* res = malloc(__nmemb * __size);
2000a78a:	687b      	ldr	r3, [r7, #4]
2000a78c:	683a      	ldr	r2, [r7, #0]
2000a78e:	fb02 f303 	mul.w	r3, r2, r3
2000a792:	4618      	mov	r0, r3
2000a794:	f7ff ffc8 	bl	2000a728 <malloc>
2000a798:	4603      	mov	r3, r0
2000a79a:	60fb      	str	r3, [r7, #12]

    memset(res, 0, __nmemb * __size);
2000a79c:	687b      	ldr	r3, [r7, #4]
2000a79e:	683a      	ldr	r2, [r7, #0]
2000a7a0:	fb02 f303 	mul.w	r3, r2, r3
2000a7a4:	461a      	mov	r2, r3
2000a7a6:	2100      	movs	r1, #0
2000a7a8:	68f8      	ldr	r0, [r7, #12]
2000a7aa:	f001 fa59 	bl	2000bc60 <__memset_veneer>

    return res;
2000a7ae:	68fb      	ldr	r3, [r7, #12]
}
2000a7b0:	4618      	mov	r0, r3
2000a7b2:	3710      	adds	r7, #16
2000a7b4:	46bd      	mov	sp, r7
2000a7b6:	bd80      	pop	{r7, pc}

2000a7b8 <realloc>:

extern "C" void* realloc(void* ptr, size_t __size)
{
2000a7b8:	b580      	push	{r7, lr}
2000a7ba:	b082      	sub	sp, #8
2000a7bc:	af00      	add	r7, sp, #0
2000a7be:	6078      	str	r0, [r7, #4]
2000a7c0:	6039      	str	r1, [r7, #0]
2000a7c2:	4a07      	ldr	r2, [pc, #28]	@ (2000a7e0 <realloc+0x28>)
2000a7c4:	447a      	add	r2, pc
    return _realloc_r(_REENT, ptr, __size);
2000a7c6:	4b07      	ldr	r3, [pc, #28]	@ (2000a7e4 <realloc+0x2c>)
2000a7c8:	58d3      	ldr	r3, [r2, r3]
2000a7ca:	681b      	ldr	r3, [r3, #0]
2000a7cc:	683a      	ldr	r2, [r7, #0]
2000a7ce:	6879      	ldr	r1, [r7, #4]
2000a7d0:	4618      	mov	r0, r3
2000a7d2:	f000 f86b 	bl	2000a8ac <_realloc_r>
2000a7d6:	4603      	mov	r3, r0
}
2000a7d8:	4618      	mov	r0, r3
2000a7da:	3708      	adds	r7, #8
2000a7dc:	46bd      	mov	sp, r7
2000a7de:	bd80      	pop	{r7, pc}
2000a7e0:	0000313c 	.word	0x0000313c
2000a7e4:	0000003c 	.word	0x0000003c

2000a7e8 <_malloc_r>:

extern "C" void* _malloc_r(struct _reent *r, size_t size)
{
2000a7e8:	b5b0      	push	{r4, r5, r7, lr}
2000a7ea:	b084      	sub	sp, #16
2000a7ec:	af00      	add	r7, sp, #0
2000a7ee:	6078      	str	r0, [r7, #4]
2000a7f0:	6039      	str	r1, [r7, #0]
2000a7f2:	4c12      	ldr	r4, [pc, #72]	@ (2000a83c <_malloc_r+0x54>)
2000a7f4:	447c      	add	r4, pc
    (void) r;
    void *ptr = kernel->mem.malloc(size);
2000a7f6:	4b12      	ldr	r3, [pc, #72]	@ (2000a840 <_malloc_r+0x58>)
2000a7f8:	58e3      	ldr	r3, [r4, r3]
2000a7fa:	681b      	ldr	r3, [r3, #0]
2000a7fc:	699b      	ldr	r3, [r3, #24]
2000a7fe:	681b      	ldr	r3, [r3, #0]
2000a800:	681b      	ldr	r3, [r3, #0]
2000a802:	4a0f      	ldr	r2, [pc, #60]	@ (2000a840 <_malloc_r+0x58>)
2000a804:	58a2      	ldr	r2, [r4, r2]
2000a806:	6812      	ldr	r2, [r2, #0]
2000a808:	6992      	ldr	r2, [r2, #24]
2000a80a:	6839      	ldr	r1, [r7, #0]
2000a80c:	4610      	mov	r0, r2
2000a80e:	4798      	blx	r3
2000a810:	60f8      	str	r0, [r7, #12]
    kernel->app.log("malloc 0x%08X %u b\n", ptr, size);
2000a812:	4b0b      	ldr	r3, [pc, #44]	@ (2000a840 <_malloc_r+0x58>)
2000a814:	58e3      	ldr	r3, [r4, r3]
2000a816:	681b      	ldr	r3, [r3, #0]
2000a818:	6a1b      	ldr	r3, [r3, #32]
2000a81a:	681b      	ldr	r3, [r3, #0]
2000a81c:	332c      	adds	r3, #44	@ 0x2c
2000a81e:	681d      	ldr	r5, [r3, #0]
2000a820:	4b07      	ldr	r3, [pc, #28]	@ (2000a840 <_malloc_r+0x58>)
2000a822:	58e3      	ldr	r3, [r4, r3]
2000a824:	681b      	ldr	r3, [r3, #0]
2000a826:	6a18      	ldr	r0, [r3, #32]
2000a828:	683b      	ldr	r3, [r7, #0]
2000a82a:	68fa      	ldr	r2, [r7, #12]
2000a82c:	4905      	ldr	r1, [pc, #20]	@ (2000a844 <_malloc_r+0x5c>)
2000a82e:	4479      	add	r1, pc
2000a830:	47a8      	blx	r5
    return ptr;
2000a832:	68fb      	ldr	r3, [r7, #12]
}
2000a834:	4618      	mov	r0, r3
2000a836:	3710      	adds	r7, #16
2000a838:	46bd      	mov	sp, r7
2000a83a:	bdb0      	pop	{r4, r5, r7, pc}
2000a83c:	0000310c 	.word	0x0000310c
2000a840:	00000038 	.word	0x00000038
2000a844:	0000193a 	.word	0x0000193a

2000a848 <_free_r>:

extern "C" void _free_r(struct _reent *r, void *ptr)
{
2000a848:	b590      	push	{r4, r7, lr}
2000a84a:	b083      	sub	sp, #12
2000a84c:	af00      	add	r7, sp, #0
2000a84e:	6078      	str	r0, [r7, #4]
2000a850:	6039      	str	r1, [r7, #0]
2000a852:	4c13      	ldr	r4, [pc, #76]	@ (2000a8a0 <_free_r+0x58>)
2000a854:	447c      	add	r4, pc
    (void) r;
    if (ptr) {
2000a856:	683b      	ldr	r3, [r7, #0]
2000a858:	2b00      	cmp	r3, #0
2000a85a:	d01c      	beq.n	2000a896 <_free_r+0x4e>
        kernel->app.log("free   0x%08X\n", ptr);
2000a85c:	4b11      	ldr	r3, [pc, #68]	@ (2000a8a4 <_free_r+0x5c>)
2000a85e:	58e3      	ldr	r3, [r4, r3]
2000a860:	681b      	ldr	r3, [r3, #0]
2000a862:	6a1b      	ldr	r3, [r3, #32]
2000a864:	681b      	ldr	r3, [r3, #0]
2000a866:	332c      	adds	r3, #44	@ 0x2c
2000a868:	681b      	ldr	r3, [r3, #0]
2000a86a:	4a0e      	ldr	r2, [pc, #56]	@ (2000a8a4 <_free_r+0x5c>)
2000a86c:	58a2      	ldr	r2, [r4, r2]
2000a86e:	6812      	ldr	r2, [r2, #0]
2000a870:	6a10      	ldr	r0, [r2, #32]
2000a872:	683a      	ldr	r2, [r7, #0]
2000a874:	490c      	ldr	r1, [pc, #48]	@ (2000a8a8 <_free_r+0x60>)
2000a876:	4479      	add	r1, pc
2000a878:	4798      	blx	r3
        kernel->mem.free(ptr);
2000a87a:	4b0a      	ldr	r3, [pc, #40]	@ (2000a8a4 <_free_r+0x5c>)
2000a87c:	58e3      	ldr	r3, [r4, r3]
2000a87e:	681b      	ldr	r3, [r3, #0]
2000a880:	699b      	ldr	r3, [r3, #24]
2000a882:	681b      	ldr	r3, [r3, #0]
2000a884:	3304      	adds	r3, #4
2000a886:	681b      	ldr	r3, [r3, #0]
2000a888:	4a06      	ldr	r2, [pc, #24]	@ (2000a8a4 <_free_r+0x5c>)
2000a88a:	58a2      	ldr	r2, [r4, r2]
2000a88c:	6812      	ldr	r2, [r2, #0]
2000a88e:	6992      	ldr	r2, [r2, #24]
2000a890:	6839      	ldr	r1, [r7, #0]
2000a892:	4610      	mov	r0, r2
2000a894:	4798      	blx	r3
    }
}
2000a896:	bf00      	nop
2000a898:	370c      	adds	r7, #12
2000a89a:	46bd      	mov	sp, r7
2000a89c:	bd90      	pop	{r4, r7, pc}
2000a89e:	bf00      	nop
2000a8a0:	000030ac 	.word	0x000030ac
2000a8a4:	00000038 	.word	0x00000038
2000a8a8:	00001906 	.word	0x00001906

2000a8ac <_realloc_r>:
    }
    return ptr;
}

extern "C" void* _realloc_r(struct _reent *r, void *ptr, size_t new_size)
{
2000a8ac:	b580      	push	{r7, lr}
2000a8ae:	b086      	sub	sp, #24
2000a8b0:	af00      	add	r7, sp, #0
2000a8b2:	60f8      	str	r0, [r7, #12]
2000a8b4:	60b9      	str	r1, [r7, #8]
2000a8b6:	607a      	str	r2, [r7, #4]
    // If ptr == NULL, realloc behaves like malloc.
    if (ptr == NULL) {
2000a8b8:	68bb      	ldr	r3, [r7, #8]
2000a8ba:	2b00      	cmp	r3, #0
2000a8bc:	d105      	bne.n	2000a8ca <_realloc_r+0x1e>
        return _malloc_r(r, new_size);
2000a8be:	6879      	ldr	r1, [r7, #4]
2000a8c0:	68f8      	ldr	r0, [r7, #12]
2000a8c2:	f7ff ff91 	bl	2000a7e8 <_malloc_r>
2000a8c6:	4603      	mov	r3, r0
2000a8c8:	e01c      	b.n	2000a904 <_realloc_r+0x58>
    }

    // If new_size == 0, release the block and return NULL.
    if (new_size == 0) {
2000a8ca:	687b      	ldr	r3, [r7, #4]
2000a8cc:	2b00      	cmp	r3, #0
2000a8ce:	d105      	bne.n	2000a8dc <_realloc_r+0x30>
        _free_r(r, ptr);
2000a8d0:	68b9      	ldr	r1, [r7, #8]
2000a8d2:	68f8      	ldr	r0, [r7, #12]
2000a8d4:	f7ff ffb8 	bl	2000a848 <_free_r>
        return NULL;
2000a8d8:	2300      	movs	r3, #0
2000a8da:	e013      	b.n	2000a904 <_realloc_r+0x58>
    }

    // Allocate a new block of memory.
    void *new_ptr = _malloc_r(r, new_size);
2000a8dc:	6879      	ldr	r1, [r7, #4]
2000a8de:	68f8      	ldr	r0, [r7, #12]
2000a8e0:	f7ff ff82 	bl	2000a7e8 <_malloc_r>
2000a8e4:	6178      	str	r0, [r7, #20]
    if (new_ptr == NULL) {
2000a8e6:	697b      	ldr	r3, [r7, #20]
2000a8e8:	2b00      	cmp	r3, #0
2000a8ea:	d101      	bne.n	2000a8f0 <_realloc_r+0x44>
        // Selection failed, return NULL.
        return NULL;
2000a8ec:	2300      	movs	r3, #0
2000a8ee:	e009      	b.n	2000a904 <_realloc_r+0x58>
    }

    // We copy the data from the old block to the new one (we copy the smaller of the two sizes).
    // Assume the old block contains at least new_size bytes for simplicity.
    // If exact copying is required, block size should be stored separately.
    memcpy(new_ptr, ptr, new_size);
2000a8f0:	687a      	ldr	r2, [r7, #4]
2000a8f2:	68b9      	ldr	r1, [r7, #8]
2000a8f4:	6978      	ldr	r0, [r7, #20]
2000a8f6:	f001 f9a3 	bl	2000bc40 <__memcpy_veneer>

    // Free the old block.
    _free_r(r, ptr);
2000a8fa:	68b9      	ldr	r1, [r7, #8]
2000a8fc:	68f8      	ldr	r0, [r7, #12]
2000a8fe:	f7ff ffa3 	bl	2000a848 <_free_r>

    return new_ptr;
2000a902:	697b      	ldr	r3, [r7, #20]
}
2000a904:	4618      	mov	r0, r3
2000a906:	3718      	adds	r7, #24
2000a908:	46bd      	mov	sp, r7
2000a90a:	bd80      	pop	{r7, pc}

2000a90c <_Znwj>:

void* operator new(size_t size) noexcept
{
2000a90c:	b580      	push	{r7, lr}
2000a90e:	b082      	sub	sp, #8
2000a910:	af00      	add	r7, sp, #0
2000a912:	6078      	str	r0, [r7, #4]
    return _malloc_r(nullptr, size);
2000a914:	6879      	ldr	r1, [r7, #4]
2000a916:	2000      	movs	r0, #0
2000a918:	f7ff ff66 	bl	2000a7e8 <_malloc_r>
2000a91c:	4603      	mov	r3, r0
}
2000a91e:	4618      	mov	r0, r3
2000a920:	3708      	adds	r7, #8
2000a922:	46bd      	mov	sp, r7
2000a924:	bd80      	pop	{r7, pc}

2000a926 <_ZdlPv>:

void operator delete(void *ptr) noexcept
{
2000a926:	b580      	push	{r7, lr}
2000a928:	b082      	sub	sp, #8
2000a92a:	af00      	add	r7, sp, #0
2000a92c:	6078      	str	r0, [r7, #4]
    _free_r(nullptr, ptr);
2000a92e:	6879      	ldr	r1, [r7, #4]
2000a930:	2000      	movs	r0, #0
2000a932:	f7ff ff89 	bl	2000a848 <_free_r>
}
2000a936:	bf00      	nop
2000a938:	3708      	adds	r7, #8
2000a93a:	46bd      	mov	sp, r7
2000a93c:	bd80      	pop	{r7, pc}

2000a93e <_ZdlPvj>:
{
    operator delete(ptr);
}

void operator delete(void* ptr, std::size_t) noexcept
{
2000a93e:	b580      	push	{r7, lr}
2000a940:	b082      	sub	sp, #8
2000a942:	af00      	add	r7, sp, #0
2000a944:	6078      	str	r0, [r7, #4]
2000a946:	6039      	str	r1, [r7, #0]
    operator delete(ptr);
2000a948:	6878      	ldr	r0, [r7, #4]
2000a94a:	f7ff ffec 	bl	2000a926 <_ZdlPv>
}
2000a94e:	bf00      	nop
2000a950:	3708      	adds	r7, #8
2000a952:	46bd      	mov	sp, r7
2000a954:	bd80      	pop	{r7, pc}
	...

2000a958 <exit>:
    kernel->app.log("assert: %s %d %s %s\n", file, line, func, failedexpr);
    exit(-1);
}

extern "C" void exit(int status)
{
2000a958:	b590      	push	{r4, r7, lr}
2000a95a:	b083      	sub	sp, #12
2000a95c:	af00      	add	r7, sp, #0
2000a95e:	6078      	str	r0, [r7, #4]
2000a960:	4c11      	ldr	r4, [pc, #68]	@ (2000a9a8 <exit+0x50>)
2000a962:	447c      	add	r4, pc
    kernel->app.log("exit %d\n", status);
2000a964:	4b11      	ldr	r3, [pc, #68]	@ (2000a9ac <exit+0x54>)
2000a966:	58e3      	ldr	r3, [r4, r3]
2000a968:	681b      	ldr	r3, [r3, #0]
2000a96a:	6a1b      	ldr	r3, [r3, #32]
2000a96c:	681b      	ldr	r3, [r3, #0]
2000a96e:	332c      	adds	r3, #44	@ 0x2c
2000a970:	681b      	ldr	r3, [r3, #0]
2000a972:	4a0e      	ldr	r2, [pc, #56]	@ (2000a9ac <exit+0x54>)
2000a974:	58a2      	ldr	r2, [r4, r2]
2000a976:	6812      	ldr	r2, [r2, #0]
2000a978:	6a10      	ldr	r0, [r2, #32]
2000a97a:	687a      	ldr	r2, [r7, #4]
2000a97c:	490c      	ldr	r1, [pc, #48]	@ (2000a9b0 <exit+0x58>)
2000a97e:	4479      	add	r1, pc
2000a980:	4798      	blx	r3

    __una_fini_array();
2000a982:	f7ff fea9 	bl	2000a6d8 <__una_fini_array>

    kernel->app.exit(status);
2000a986:	4b09      	ldr	r3, [pc, #36]	@ (2000a9ac <exit+0x54>)
2000a988:	58e3      	ldr	r3, [r4, r3]
2000a98a:	681b      	ldr	r3, [r3, #0]
2000a98c:	6a1b      	ldr	r3, [r3, #32]
2000a98e:	681b      	ldr	r3, [r3, #0]
2000a990:	3318      	adds	r3, #24
2000a992:	681b      	ldr	r3, [r3, #0]
2000a994:	4a05      	ldr	r2, [pc, #20]	@ (2000a9ac <exit+0x54>)
2000a996:	58a2      	ldr	r2, [r4, r2]
2000a998:	6812      	ldr	r2, [r2, #0]
2000a99a:	6a12      	ldr	r2, [r2, #32]
2000a99c:	6879      	ldr	r1, [r7, #4]
2000a99e:	4610      	mov	r0, r2
2000a9a0:	4798      	blx	r3

    while (1) {}    /* Make sure we hang here */
2000a9a2:	bf00      	nop
2000a9a4:	e7fd      	b.n	2000a9a2 <exit+0x4a>
2000a9a6:	bf00      	nop
2000a9a8:	00002f9e 	.word	0x00002f9e
2000a9ac:	00000038 	.word	0x00000038
2000a9b0:	00001826 	.word	0x00001826

2000a9b4 <_ZSt17__throw_bad_allocv>:
2000a9b4:	b508      	push	{r3, lr}
2000a9b6:	2004      	movs	r0, #4
2000a9b8:	f000 f946 	bl	2000ac48 <__cxa_allocate_exception>
2000a9bc:	4b02      	ldr	r3, [pc, #8]	@ (2000a9c8 <_ZSt17__throw_bad_allocv+0x14>)
2000a9be:	4a03      	ldr	r2, [pc, #12]	@ (2000a9cc <_ZSt17__throw_bad_allocv+0x18>)
2000a9c0:	4903      	ldr	r1, [pc, #12]	@ (2000a9d0 <_ZSt17__throw_bad_allocv+0x1c>)
2000a9c2:	6003      	str	r3, [r0, #0]
2000a9c4:	f000 fe24 	bl	2000b610 <__cxa_throw>
2000a9c8:	2000d44c 	.word	0x2000d44c
2000a9cc:	2000aa09 	.word	0x2000aa09
2000a9d0:	2000d438 	.word	0x2000d438

2000a9d4 <_ZSt28__throw_bad_array_new_lengthv>:
2000a9d4:	b508      	push	{r3, lr}
2000a9d6:	2004      	movs	r0, #4
2000a9d8:	f000 f936 	bl	2000ac48 <__cxa_allocate_exception>
2000a9dc:	4b02      	ldr	r3, [pc, #8]	@ (2000a9e8 <_ZSt28__throw_bad_array_new_lengthv+0x14>)
2000a9de:	4a03      	ldr	r2, [pc, #12]	@ (2000a9ec <_ZSt28__throw_bad_array_new_lengthv+0x18>)
2000a9e0:	4903      	ldr	r1, [pc, #12]	@ (2000a9f0 <_ZSt28__throw_bad_array_new_lengthv+0x1c>)
2000a9e2:	6003      	str	r3, [r0, #0]
2000a9e4:	f000 fe14 	bl	2000b610 <__cxa_throw>
2000a9e8:	2000d488 	.word	0x2000d488
2000a9ec:	2000aa41 	.word	0x2000aa41
2000a9f0:	2000d474 	.word	0x2000d474

2000a9f4 <_ZNSt19_Sp_make_shared_tag5_S_eqERKSt9type_info>:
2000a9f4:	4901      	ldr	r1, [pc, #4]	@ (2000a9fc <_ZNSt19_Sp_make_shared_tag5_S_eqERKSt9type_info+0x8>)
2000a9f6:	f000 bef1 	b.w	2000b7dc <_ZNKSt9type_info7__equalERKS_>
2000a9fa:	bf00      	nop
2000a9fc:	2000ca04 	.word	0x2000ca04

2000aa00 <_ZNKSt9bad_alloc4whatEv>:
2000aa00:	4800      	ldr	r0, [pc, #0]	@ (2000aa04 <_ZNKSt9bad_alloc4whatEv+0x4>)
2000aa02:	4770      	bx	lr
2000aa04:	2000ca0c 	.word	0x2000ca0c

2000aa08 <_ZNSt9bad_allocD1Ev>:
2000aa08:	4b03      	ldr	r3, [pc, #12]	@ (2000aa18 <_ZNSt9bad_allocD1Ev+0x10>)
2000aa0a:	b510      	push	{r4, lr}
2000aa0c:	4604      	mov	r4, r0
2000aa0e:	6003      	str	r3, [r0, #0]
2000aa10:	f000 fa90 	bl	2000af34 <_ZNSt9exceptionD1Ev>
2000aa14:	4620      	mov	r0, r4
2000aa16:	bd10      	pop	{r4, pc}
2000aa18:	2000d44c 	.word	0x2000d44c

2000aa1c <_ZNSt9bad_allocD0Ev>:
2000aa1c:	4b05      	ldr	r3, [pc, #20]	@ (2000aa34 <_ZNSt9bad_allocD0Ev+0x18>)
2000aa1e:	b510      	push	{r4, lr}
2000aa20:	4604      	mov	r4, r0
2000aa22:	6003      	str	r3, [r0, #0]
2000aa24:	f000 fa86 	bl	2000af34 <_ZNSt9exceptionD1Ev>
2000aa28:	2104      	movs	r1, #4
2000aa2a:	4620      	mov	r0, r4
2000aa2c:	f7ff ff87 	bl	2000a93e <_ZdlPvj>
2000aa30:	4620      	mov	r0, r4
2000aa32:	bd10      	pop	{r4, pc}
2000aa34:	2000d44c 	.word	0x2000d44c

2000aa38 <_ZNKSt20bad_array_new_length4whatEv>:
2000aa38:	4800      	ldr	r0, [pc, #0]	@ (2000aa3c <_ZNKSt20bad_array_new_length4whatEv+0x4>)
2000aa3a:	4770      	bx	lr
2000aa3c:	2000ca1c 	.word	0x2000ca1c

2000aa40 <_ZNSt20bad_array_new_lengthD1Ev>:
2000aa40:	4b03      	ldr	r3, [pc, #12]	@ (2000aa50 <_ZNSt20bad_array_new_lengthD1Ev+0x10>)
2000aa42:	b510      	push	{r4, lr}
2000aa44:	4604      	mov	r4, r0
2000aa46:	6003      	str	r3, [r0, #0]
2000aa48:	f7ff ffde 	bl	2000aa08 <_ZNSt9bad_allocD1Ev>
2000aa4c:	4620      	mov	r0, r4
2000aa4e:	bd10      	pop	{r4, pc}
2000aa50:	2000d488 	.word	0x2000d488

2000aa54 <_ZNSt20bad_array_new_lengthD0Ev>:
2000aa54:	4b05      	ldr	r3, [pc, #20]	@ (2000aa6c <_ZNSt20bad_array_new_lengthD0Ev+0x18>)
2000aa56:	b510      	push	{r4, lr}
2000aa58:	4604      	mov	r4, r0
2000aa5a:	6003      	str	r3, [r0, #0]
2000aa5c:	f7ff ffd4 	bl	2000aa08 <_ZNSt9bad_allocD1Ev>
2000aa60:	2104      	movs	r1, #4
2000aa62:	4620      	mov	r0, r4
2000aa64:	f7ff ff6b 	bl	2000a93e <_ZdlPvj>
2000aa68:	4620      	mov	r0, r4
2000aa6a:	bd10      	pop	{r4, pc}
2000aa6c:	2000d488 	.word	0x2000d488

2000aa70 <_ZNK10__cxxabiv117__class_type_info11__do_upcastEPKS0_PPv>:
2000aa70:	6803      	ldr	r3, [r0, #0]
2000aa72:	b570      	push	{r4, r5, r6, lr}
2000aa74:	2400      	movs	r4, #0
2000aa76:	b084      	sub	sp, #16
2000aa78:	699e      	ldr	r6, [r3, #24]
2000aa7a:	2310      	movs	r3, #16
2000aa7c:	4615      	mov	r5, r2
2000aa7e:	9403      	str	r4, [sp, #12]
2000aa80:	9302      	str	r3, [sp, #8]
2000aa82:	466b      	mov	r3, sp
2000aa84:	6812      	ldr	r2, [r2, #0]
2000aa86:	e9cd 4400 	strd	r4, r4, [sp]
2000aa8a:	47b0      	blx	r6
2000aa8c:	f89d 3004 	ldrb.w	r3, [sp, #4]
2000aa90:	f003 0306 	and.w	r3, r3, #6
2000aa94:	2b06      	cmp	r3, #6
2000aa96:	d104      	bne.n	2000aaa2 <_ZNK10__cxxabiv117__class_type_info11__do_upcastEPKS0_PPv+0x32>
2000aa98:	9b00      	ldr	r3, [sp, #0]
2000aa9a:	2001      	movs	r0, #1
2000aa9c:	602b      	str	r3, [r5, #0]
2000aa9e:	b004      	add	sp, #16
2000aaa0:	bd70      	pop	{r4, r5, r6, pc}
2000aaa2:	4620      	mov	r0, r4
2000aaa4:	b004      	add	sp, #16
2000aaa6:	bd70      	pop	{r4, r5, r6, pc}

2000aaa8 <_ZNK10__cxxabiv117__class_type_info20__do_find_public_srcEiPKvPKS0_S2_>:
2000aaa8:	9800      	ldr	r0, [sp, #0]
2000aaaa:	4290      	cmp	r0, r2
2000aaac:	bf0c      	ite	eq
2000aaae:	2006      	moveq	r0, #6
2000aab0:	2001      	movne	r0, #1
2000aab2:	4770      	bx	lr

2000aab4 <_ZN10__cxxabiv117__class_type_infoD1Ev>:
2000aab4:	4b03      	ldr	r3, [pc, #12]	@ (2000aac4 <_ZN10__cxxabiv117__class_type_infoD1Ev+0x10>)
2000aab6:	b510      	push	{r4, lr}
2000aab8:	4604      	mov	r4, r0
2000aaba:	6003      	str	r3, [r0, #0]
2000aabc:	f000 fe8a 	bl	2000b7d4 <_ZNSt9type_infoD1Ev>
2000aac0:	4620      	mov	r0, r4
2000aac2:	bd10      	pop	{r4, pc}
2000aac4:	2000d4cc 	.word	0x2000d4cc

2000aac8 <_ZN10__cxxabiv117__class_type_infoD0Ev>:
2000aac8:	4b05      	ldr	r3, [pc, #20]	@ (2000aae0 <_ZN10__cxxabiv117__class_type_infoD0Ev+0x18>)
2000aaca:	b510      	push	{r4, lr}
2000aacc:	4604      	mov	r4, r0
2000aace:	6003      	str	r3, [r0, #0]
2000aad0:	f000 fe80 	bl	2000b7d4 <_ZNSt9type_infoD1Ev>
2000aad4:	2108      	movs	r1, #8
2000aad6:	4620      	mov	r0, r4
2000aad8:	f7ff ff31 	bl	2000a93e <_ZdlPvj>
2000aadc:	4620      	mov	r0, r4
2000aade:	bd10      	pop	{r4, pc}
2000aae0:	2000d4cc 	.word	0x2000d4cc

2000aae4 <_ZNK10__cxxabiv117__class_type_info12__do_dyncastEiNS0_10__sub_kindEPKS0_PKvS3_S5_RNS0_16__dyncast_resultE>:
2000aae4:	e92d 41f0 	stmdb	sp!, {r4, r5, r6, r7, r8, lr}
2000aae8:	9f06      	ldr	r7, [sp, #24]
2000aaea:	461d      	mov	r5, r3
2000aaec:	4604      	mov	r4, r0
2000aaee:	4690      	mov	r8, r2
2000aaf0:	e9dd 3608 	ldrd	r3, r6, [sp, #32]
2000aaf4:	429f      	cmp	r7, r3
2000aaf6:	d00c      	beq.n	2000ab12 <_ZNK10__cxxabiv117__class_type_info12__do_dyncastEiNS0_10__sub_kindEPKS0_PKvS3_S5_RNS0_16__dyncast_resultE+0x2e>
2000aaf8:	4629      	mov	r1, r5
2000aafa:	4620      	mov	r0, r4
2000aafc:	f000 fe6e 	bl	2000b7dc <_ZNKSt9type_info7__equalERKS_>
2000ab00:	b120      	cbz	r0, 2000ab0c <_ZNK10__cxxabiv117__class_type_info12__do_dyncastEiNS0_10__sub_kindEPKS0_PKvS3_S5_RNS0_16__dyncast_resultE+0x28>
2000ab02:	2301      	movs	r3, #1
2000ab04:	6037      	str	r7, [r6, #0]
2000ab06:	f886 8004 	strb.w	r8, [r6, #4]
2000ab0a:	71b3      	strb	r3, [r6, #6]
2000ab0c:	2000      	movs	r0, #0
2000ab0e:	e8bd 81f0 	ldmia.w	sp!, {r4, r5, r6, r7, r8, pc}
2000ab12:	9907      	ldr	r1, [sp, #28]
2000ab14:	f000 fe62 	bl	2000b7dc <_ZNKSt9type_info7__equalERKS_>
2000ab18:	2800      	cmp	r0, #0
2000ab1a:	d0ed      	beq.n	2000aaf8 <_ZNK10__cxxabiv117__class_type_info12__do_dyncastEiNS0_10__sub_kindEPKS0_PKvS3_S5_RNS0_16__dyncast_resultE+0x14>
2000ab1c:	2000      	movs	r0, #0
2000ab1e:	f886 8005 	strb.w	r8, [r6, #5]
2000ab22:	e8bd 81f0 	ldmia.w	sp!, {r4, r5, r6, r7, r8, pc}
2000ab26:	bf00      	nop

2000ab28 <_ZNK10__cxxabiv117__class_type_info11__do_upcastEPKS0_PKvRNS0_15__upcast_resultE>:
2000ab28:	b538      	push	{r3, r4, r5, lr}
2000ab2a:	4615      	mov	r5, r2
2000ab2c:	461c      	mov	r4, r3
2000ab2e:	f000 fe55 	bl	2000b7dc <_ZNKSt9type_info7__equalERKS_>
2000ab32:	b900      	cbnz	r0, 2000ab36 <_ZNK10__cxxabiv117__class_type_info11__do_upcastEPKS0_PKvRNS0_15__upcast_resultE+0xe>
2000ab34:	bd38      	pop	{r3, r4, r5, pc}
2000ab36:	2208      	movs	r2, #8
2000ab38:	2306      	movs	r3, #6
2000ab3a:	6025      	str	r5, [r4, #0]
2000ab3c:	60e2      	str	r2, [r4, #12]
2000ab3e:	7123      	strb	r3, [r4, #4]
2000ab40:	bd38      	pop	{r3, r4, r5, pc}
2000ab42:	bf00      	nop

2000ab44 <_ZNK10__cxxabiv117__class_type_info10__do_catchEPKSt9type_infoPPvj>:
2000ab44:	e92d 41f0 	stmdb	sp!, {r4, r5, r6, r7, r8, lr}
2000ab48:	4606      	mov	r6, r0
2000ab4a:	4617      	mov	r7, r2
2000ab4c:	461d      	mov	r5, r3
2000ab4e:	460c      	mov	r4, r1
2000ab50:	f000 fe44 	bl	2000b7dc <_ZNKSt9type_info7__equalERKS_>
2000ab54:	b948      	cbnz	r0, 2000ab6a <_ZNK10__cxxabiv117__class_type_info10__do_catchEPKSt9type_infoPPvj+0x26>
2000ab56:	2d03      	cmp	r5, #3
2000ab58:	d807      	bhi.n	2000ab6a <_ZNK10__cxxabiv117__class_type_info10__do_catchEPKSt9type_infoPPvj+0x26>
2000ab5a:	6823      	ldr	r3, [r4, #0]
2000ab5c:	463a      	mov	r2, r7
2000ab5e:	4631      	mov	r1, r6
2000ab60:	4620      	mov	r0, r4
2000ab62:	695b      	ldr	r3, [r3, #20]
2000ab64:	e8bd 41f0 	ldmia.w	sp!, {r4, r5, r6, r7, r8, lr}
2000ab68:	4718      	bx	r3
2000ab6a:	e8bd 81f0 	ldmia.w	sp!, {r4, r5, r6, r7, r8, pc}
2000ab6e:	bf00      	nop

2000ab70 <_ZN12_GLOBAL__N_14pool4freeEPv.constprop.0>:
2000ab70:	491e      	ldr	r1, [pc, #120]	@ (2000abec <_ZN12_GLOBAL__N_14pool4freeEPv.constprop.0+0x7c>)
2000ab72:	684b      	ldr	r3, [r1, #4]
2000ab74:	b530      	push	{r4, r5, lr}
2000ab76:	f1a0 0508 	sub.w	r5, r0, #8
2000ab7a:	f850 4c08 	ldr.w	r4, [r0, #-8]
2000ab7e:	b32b      	cbz	r3, 2000abcc <_ZN12_GLOBAL__N_14pool4freeEPv.constprop.0+0x5c>
2000ab80:	eb05 0e04 	add.w	lr, r5, r4
2000ab84:	4573      	cmp	r3, lr
2000ab86:	d821      	bhi.n	2000abcc <_ZN12_GLOBAL__N_14pool4freeEPv.constprop.0+0x5c>
2000ab88:	685a      	ldr	r2, [r3, #4]
2000ab8a:	d026      	beq.n	2000abda <_ZN12_GLOBAL__N_14pool4freeEPv.constprop.0+0x6a>
2000ab8c:	f101 0c04 	add.w	ip, r1, #4
2000ab90:	b932      	cbnz	r2, 2000aba0 <_ZN12_GLOBAL__N_14pool4freeEPv.constprop.0+0x30>
2000ab92:	e010      	b.n	2000abb6 <_ZN12_GLOBAL__N_14pool4freeEPv.constprop.0+0x46>
2000ab94:	6851      	ldr	r1, [r2, #4]
2000ab96:	f103 0c04 	add.w	ip, r3, #4
2000ab9a:	4613      	mov	r3, r2
2000ab9c:	b149      	cbz	r1, 2000abb2 <_ZN12_GLOBAL__N_14pool4freeEPv.constprop.0+0x42>
2000ab9e:	460a      	mov	r2, r1
2000aba0:	4596      	cmp	lr, r2
2000aba2:	d8f7      	bhi.n	2000ab94 <_ZN12_GLOBAL__N_14pool4freeEPv.constprop.0+0x24>
2000aba4:	d105      	bne.n	2000abb2 <_ZN12_GLOBAL__N_14pool4freeEPv.constprop.0+0x42>
2000aba6:	f8de 2000 	ldr.w	r2, [lr]
2000abaa:	4414      	add	r4, r2
2000abac:	f8de 2004 	ldr.w	r2, [lr, #4]
2000abb0:	605a      	str	r2, [r3, #4]
2000abb2:	f8dc 3000 	ldr.w	r3, [ip]
2000abb6:	681a      	ldr	r2, [r3, #0]
2000abb8:	1899      	adds	r1, r3, r2
2000abba:	428d      	cmp	r5, r1
2000abbc:	d00a      	beq.n	2000abd4 <_ZN12_GLOBAL__N_14pool4freeEPv.constprop.0+0x64>
2000abbe:	685b      	ldr	r3, [r3, #4]
2000abc0:	e940 4302 	strd	r4, r3, [r0, #-8]
2000abc4:	f8dc 3000 	ldr.w	r3, [ip]
2000abc8:	605d      	str	r5, [r3, #4]
2000abca:	bd30      	pop	{r4, r5, pc}
2000abcc:	f840 3c04 	str.w	r3, [r0, #-4]
2000abd0:	604d      	str	r5, [r1, #4]
2000abd2:	bd30      	pop	{r4, r5, pc}
2000abd4:	4422      	add	r2, r4
2000abd6:	601a      	str	r2, [r3, #0]
2000abd8:	bd30      	pop	{r4, r5, pc}
2000abda:	681b      	ldr	r3, [r3, #0]
2000abdc:	f840 2c04 	str.w	r2, [r0, #-4]
2000abe0:	4423      	add	r3, r4
2000abe2:	f840 3c08 	str.w	r3, [r0, #-8]
2000abe6:	604d      	str	r5, [r1, #4]
2000abe8:	bd30      	pop	{r4, r5, pc}
2000abea:	bf00      	nop
2000abec:	2000d978 	.word	0x2000d978

2000abf0 <_ZN12_GLOBAL__N_14pool8allocateEj.constprop.0>:
2000abf0:	f100 0308 	add.w	r3, r0, #8
2000abf4:	4913      	ldr	r1, [pc, #76]	@ (2000ac44 <_ZN12_GLOBAL__N_14pool8allocateEj.constprop.0+0x54>)
2000abf6:	2b08      	cmp	r3, #8
2000abf8:	6848      	ldr	r0, [r1, #4]
2000abfa:	bf38      	it	cc
2000abfc:	2308      	movcc	r3, #8
2000abfe:	b1f8      	cbz	r0, 2000ac40 <_ZN12_GLOBAL__N_14pool8allocateEj.constprop.0+0x50>
2000ac00:	3307      	adds	r3, #7
2000ac02:	3104      	adds	r1, #4
2000ac04:	f023 0307 	bic.w	r3, r3, #7
2000ac08:	e002      	b.n	2000ac10 <_ZN12_GLOBAL__N_14pool8allocateEj.constprop.0+0x20>
2000ac0a:	1d01      	adds	r1, r0, #4
2000ac0c:	6840      	ldr	r0, [r0, #4]
2000ac0e:	b180      	cbz	r0, 2000ac32 <_ZN12_GLOBAL__N_14pool8allocateEj.constprop.0+0x42>
2000ac10:	6802      	ldr	r2, [r0, #0]
2000ac12:	4293      	cmp	r3, r2
2000ac14:	d8f9      	bhi.n	2000ac0a <_ZN12_GLOBAL__N_14pool8allocateEj.constprop.0+0x1a>
2000ac16:	b470      	push	{r4, r5, r6}
2000ac18:	1ad4      	subs	r4, r2, r3
2000ac1a:	6846      	ldr	r6, [r0, #4]
2000ac1c:	2c07      	cmp	r4, #7
2000ac1e:	d909      	bls.n	2000ac34 <_ZN12_GLOBAL__N_14pool8allocateEj.constprop.0+0x44>
2000ac20:	18c5      	adds	r5, r0, r3
2000ac22:	606e      	str	r6, [r5, #4]
2000ac24:	50c4      	str	r4, [r0, r3]
2000ac26:	6808      	ldr	r0, [r1, #0]
2000ac28:	6003      	str	r3, [r0, #0]
2000ac2a:	3008      	adds	r0, #8
2000ac2c:	600d      	str	r5, [r1, #0]
2000ac2e:	bc70      	pop	{r4, r5, r6}
2000ac30:	4770      	bx	lr
2000ac32:	4770      	bx	lr
2000ac34:	4635      	mov	r5, r6
2000ac36:	6002      	str	r2, [r0, #0]
2000ac38:	3008      	adds	r0, #8
2000ac3a:	600d      	str	r5, [r1, #0]
2000ac3c:	bc70      	pop	{r4, r5, r6}
2000ac3e:	4770      	bx	lr
2000ac40:	4770      	bx	lr
2000ac42:	bf00      	nop
2000ac44:	2000d978 	.word	0x2000d978

2000ac48 <__cxa_allocate_exception>:
2000ac48:	b510      	push	{r4, lr}
2000ac4a:	f100 0480 	add.w	r4, r0, #128	@ 0x80
2000ac4e:	4620      	mov	r0, r4
2000ac50:	f7ff fd6a 	bl	2000a728 <malloc>
2000ac54:	b138      	cbz	r0, 2000ac66 <__cxa_allocate_exception+0x1e>
2000ac56:	4603      	mov	r3, r0
2000ac58:	2280      	movs	r2, #128	@ 0x80
2000ac5a:	2100      	movs	r1, #0
2000ac5c:	4618      	mov	r0, r3
2000ac5e:	f000 ffff 	bl	2000bc60 <__memset_veneer>
2000ac62:	3080      	adds	r0, #128	@ 0x80
2000ac64:	bd10      	pop	{r4, pc}
2000ac66:	4620      	mov	r0, r4
2000ac68:	f7ff ffc2 	bl	2000abf0 <_ZN12_GLOBAL__N_14pool8allocateEj.constprop.0>
2000ac6c:	4603      	mov	r3, r0
2000ac6e:	2800      	cmp	r0, #0
2000ac70:	d1f2      	bne.n	2000ac58 <__cxa_allocate_exception+0x10>
2000ac72:	f000 fc6d 	bl	2000b550 <_ZSt9terminatev>
2000ac76:	bf00      	nop

2000ac78 <__cxa_free_exception>:
2000ac78:	4b06      	ldr	r3, [pc, #24]	@ (2000ac94 <__cxa_free_exception+0x1c>)
2000ac7a:	3880      	subs	r0, #128	@ 0x80
2000ac7c:	e9d3 2302 	ldrd	r2, r3, [r3, #8]
2000ac80:	4413      	add	r3, r2
2000ac82:	4298      	cmp	r0, r3
2000ac84:	d203      	bcs.n	2000ac8e <__cxa_free_exception+0x16>
2000ac86:	4282      	cmp	r2, r0
2000ac88:	d201      	bcs.n	2000ac8e <__cxa_free_exception+0x16>
2000ac8a:	f7ff bf71 	b.w	2000ab70 <_ZN12_GLOBAL__N_14pool4freeEPv.constprop.0>
2000ac8e:	f7ff bd61 	b.w	2000a754 <free>
2000ac92:	bf00      	nop
2000ac94:	2000d978 	.word	0x2000d978

2000ac98 <_GLOBAL__sub_I__ZN9__gnu_cxx9__freeresEv>:
2000ac98:	e92d 41f0 	stmdb	sp!, {r4, r5, r6, r7, r8, lr}
2000ac9c:	2600      	movs	r6, #0
2000ac9e:	4d3c      	ldr	r5, [pc, #240]	@ (2000ad90 <_GLOBAL__sub_I__ZN9__gnu_cxx9__freeresEv+0xf8>)
2000aca0:	b088      	sub	sp, #32
2000aca2:	483c      	ldr	r0, [pc, #240]	@ (2000ad94 <_GLOBAL__sub_I__ZN9__gnu_cxx9__freeresEv+0xfc>)
2000aca4:	60ee      	str	r6, [r5, #12]
2000aca6:	e9c5 6601 	strd	r6, r6, [r5, #4]
2000acaa:	f000 ff5b 	bl	2000bb64 <getenv>
2000acae:	2208      	movs	r2, #8
2000acb0:	4b39      	ldr	r3, [pc, #228]	@ (2000ad98 <_GLOBAL__sub_I__ZN9__gnu_cxx9__freeresEv+0x100>)
2000acb2:	2109      	movs	r1, #9
2000acb4:	9604      	str	r6, [sp, #16]
2000acb6:	e9cd 2302 	strd	r2, r3, [sp, #8]
2000acba:	4a38      	ldr	r2, [pc, #224]	@ (2000ad9c <_GLOBAL__sub_I__ZN9__gnu_cxx9__freeresEv+0x104>)
2000acbc:	2304      	movs	r3, #4
2000acbe:	e9cd 1205 	strd	r1, r2, [sp, #20]
2000acc2:	9307      	str	r3, [sp, #28]
2000acc4:	2800      	cmp	r0, #0
2000acc6:	d04b      	beq.n	2000ad60 <_GLOBAL__sub_I__ZN9__gnu_cxx9__freeresEv+0xc8>
2000acc8:	4604      	mov	r4, r0
2000acca:	4e35      	ldr	r6, [pc, #212]	@ (2000ada0 <_GLOBAL__sub_I__ZN9__gnu_cxx9__freeresEv+0x108>)
2000accc:	7823      	ldrb	r3, [r4, #0]
2000acce:	220f      	movs	r2, #15
2000acd0:	4630      	mov	r0, r6
2000acd2:	2b3a      	cmp	r3, #58	@ 0x3a
2000acd4:	bf08      	it	eq
2000acd6:	3401      	addeq	r4, #1
2000acd8:	4621      	mov	r1, r4
2000acda:	f000 ff8b 	bl	2000bbf4 <memcmp>
2000acde:	b910      	cbnz	r0, 2000ace6 <_GLOBAL__sub_I__ZN9__gnu_cxx9__freeresEv+0x4e>
2000ace0:	7be3      	ldrb	r3, [r4, #15]
2000ace2:	2b2e      	cmp	r3, #46	@ 0x2e
2000ace4:	d016      	beq.n	2000ad14 <_GLOBAL__sub_I__ZN9__gnu_cxx9__freeresEv+0x7c>
2000ace6:	4620      	mov	r0, r4
2000ace8:	213a      	movs	r1, #58	@ 0x3a
2000acea:	f000 ffb5 	bl	2000bc58 <__strchr_veneer>
2000acee:	4604      	mov	r4, r0
2000acf0:	2800      	cmp	r0, #0
2000acf2:	d1eb      	bne.n	2000accc <_GLOBAL__sub_I__ZN9__gnu_cxx9__freeresEv+0x34>
2000acf4:	9a07      	ldr	r2, [sp, #28]
2000acf6:	9c04      	ldr	r4, [sp, #16]
2000acf8:	2a40      	cmp	r2, #64	@ 0x40
2000acfa:	dc20      	bgt.n	2000ad3e <_GLOBAL__sub_I__ZN9__gnu_cxx9__freeresEv+0xa6>
2000acfc:	2c00      	cmp	r4, #0
2000acfe:	bf08      	it	eq
2000ad00:	2406      	moveq	r4, #6
2000ad02:	343e      	adds	r4, #62	@ 0x3e
2000ad04:	fb02 f404 	mul.w	r4, r2, r4
2000ad08:	00a4      	lsls	r4, r4, #2
2000ad0a:	60ec      	str	r4, [r5, #12]
2000ad0c:	b9e4      	cbnz	r4, 2000ad48 <_GLOBAL__sub_I__ZN9__gnu_cxx9__freeresEv+0xb0>
2000ad0e:	b008      	add	sp, #32
2000ad10:	e8bd 81f0 	ldmia.w	sp!, {r4, r5, r6, r7, r8, pc}
2000ad14:	3410      	adds	r4, #16
2000ad16:	af02      	add	r7, sp, #8
2000ad18:	4621      	mov	r1, r4
2000ad1a:	e9d7 8000 	ldrd	r8, r0, [r7]
2000ad1e:	4642      	mov	r2, r8
2000ad20:	f1b8 0f00 	cmp.w	r8, #0
2000ad24:	d002      	beq.n	2000ad2c <_GLOBAL__sub_I__ZN9__gnu_cxx9__freeresEv+0x94>
2000ad26:	f000 ff65 	bl	2000bbf4 <memcmp>
2000ad2a:	b918      	cbnz	r0, 2000ad34 <_GLOBAL__sub_I__ZN9__gnu_cxx9__freeresEv+0x9c>
2000ad2c:	f814 3008 	ldrb.w	r3, [r4, r8]
2000ad30:	2b3d      	cmp	r3, #61	@ 0x3d
2000ad32:	d01a      	beq.n	2000ad6a <_GLOBAL__sub_I__ZN9__gnu_cxx9__freeresEv+0xd2>
2000ad34:	370c      	adds	r7, #12
2000ad36:	ab08      	add	r3, sp, #32
2000ad38:	429f      	cmp	r7, r3
2000ad3a:	d1ed      	bne.n	2000ad18 <_GLOBAL__sub_I__ZN9__gnu_cxx9__freeresEv+0x80>
2000ad3c:	e7d3      	b.n	2000ace6 <_GLOBAL__sub_I__ZN9__gnu_cxx9__freeresEv+0x4e>
2000ad3e:	b96c      	cbnz	r4, 2000ad5c <_GLOBAL__sub_I__ZN9__gnu_cxx9__freeresEv+0xc4>
2000ad40:	f44f 4388 	mov.w	r3, #17408	@ 0x4400
2000ad44:	461c      	mov	r4, r3
2000ad46:	60eb      	str	r3, [r5, #12]
2000ad48:	4620      	mov	r0, r4
2000ad4a:	f7ff fced 	bl	2000a728 <malloc>
2000ad4e:	60a8      	str	r0, [r5, #8]
2000ad50:	b1e0      	cbz	r0, 2000ad8c <_GLOBAL__sub_I__ZN9__gnu_cxx9__freeresEv+0xf4>
2000ad52:	2300      	movs	r3, #0
2000ad54:	6068      	str	r0, [r5, #4]
2000ad56:	e9c0 4300 	strd	r4, r3, [r0]
2000ad5a:	e7d8      	b.n	2000ad0e <_GLOBAL__sub_I__ZN9__gnu_cxx9__freeresEv+0x76>
2000ad5c:	2240      	movs	r2, #64	@ 0x40
2000ad5e:	e7d0      	b.n	2000ad02 <_GLOBAL__sub_I__ZN9__gnu_cxx9__freeresEv+0x6a>
2000ad60:	f44f 6388 	mov.w	r3, #1088	@ 0x440
2000ad64:	461c      	mov	r4, r3
2000ad66:	60eb      	str	r3, [r5, #12]
2000ad68:	e7ee      	b.n	2000ad48 <_GLOBAL__sub_I__ZN9__gnu_cxx9__freeresEv+0xb0>
2000ad6a:	f108 0001 	add.w	r0, r8, #1
2000ad6e:	2200      	movs	r2, #0
2000ad70:	a901      	add	r1, sp, #4
2000ad72:	4420      	add	r0, r4
2000ad74:	f000 ff94 	bl	2000bca0 <__strtoul_veneer>
2000ad78:	9c01      	ldr	r4, [sp, #4]
2000ad7a:	7823      	ldrb	r3, [r4, #0]
2000ad7c:	2b3a      	cmp	r3, #58	@ 0x3a
2000ad7e:	d001      	beq.n	2000ad84 <_GLOBAL__sub_I__ZN9__gnu_cxx9__freeresEv+0xec>
2000ad80:	2b00      	cmp	r3, #0
2000ad82:	d1b0      	bne.n	2000ace6 <_GLOBAL__sub_I__ZN9__gnu_cxx9__freeresEv+0x4e>
2000ad84:	2800      	cmp	r0, #0
2000ad86:	bfa8      	it	ge
2000ad88:	60b8      	strge	r0, [r7, #8]
2000ad8a:	e7ac      	b.n	2000ace6 <_GLOBAL__sub_I__ZN9__gnu_cxx9__freeresEv+0x4e>
2000ad8c:	60e8      	str	r0, [r5, #12]
2000ad8e:	e7be      	b.n	2000ad0e <_GLOBAL__sub_I__ZN9__gnu_cxx9__freeresEv+0x76>
2000ad90:	2000d978 	.word	0x2000d978
2000ad94:	2000ca38 	.word	0x2000ca38
2000ad98:	2000ca4c 	.word	0x2000ca4c
2000ad9c:	2000ca58 	.word	0x2000ca58
2000ada0:	2000ca64 	.word	0x2000ca64

2000ada4 <__cxa_end_cleanup>:
2000ada4:	b41e      	push	{r1, r2, r3, r4}
2000ada6:	f000 f88d 	bl	2000aec4 <__gnu_end_cleanup>
2000adaa:	bc1e      	pop	{r1, r2, r3, r4}
2000adac:	f7fc fda2 	bl	200078f4 <_Unwind_Resume>

2000adb0 <__cxa_type_match>:
2000adb0:	b5f0      	push	{r4, r5, r6, r7, lr}
2000adb2:	461d      	mov	r5, r3
2000adb4:	7803      	ldrb	r3, [r0, #0]
2000adb6:	b083      	sub	sp, #12
2000adb8:	460c      	mov	r4, r1
2000adba:	2b47      	cmp	r3, #71	@ 0x47
2000adbc:	d019      	beq.n	2000adf2 <__cxa_type_match+0x42>
2000adbe:	2000      	movs	r0, #0
2000adc0:	4e25      	ldr	r6, [pc, #148]	@ (2000ae58 <__cxa_type_match+0xa8>)
2000adc2:	6833      	ldr	r3, [r6, #0]
2000adc4:	9001      	str	r0, [sp, #4]
2000adc6:	4630      	mov	r0, r6
2000adc8:	689b      	ldr	r3, [r3, #8]
2000adca:	4798      	blx	r3
2000adcc:	b178      	cbz	r0, 2000adee <__cxa_type_match+0x3e>
2000adce:	9b01      	ldr	r3, [sp, #4]
2000add0:	2702      	movs	r7, #2
2000add2:	681b      	ldr	r3, [r3, #0]
2000add4:	9301      	str	r3, [sp, #4]
2000add6:	6823      	ldr	r3, [r4, #0]
2000add8:	4620      	mov	r0, r4
2000adda:	4631      	mov	r1, r6
2000addc:	aa01      	add	r2, sp, #4
2000adde:	691c      	ldr	r4, [r3, #16]
2000ade0:	2301      	movs	r3, #1
2000ade2:	47a0      	blx	r4
2000ade4:	bb20      	cbnz	r0, 2000ae30 <__cxa_type_match+0x80>
2000ade6:	4607      	mov	r7, r0
2000ade8:	4638      	mov	r0, r7
2000adea:	b003      	add	sp, #12
2000adec:	bdf0      	pop	{r4, r5, r6, r7, pc}
2000adee:	2701      	movs	r7, #1
2000adf0:	e7f1      	b.n	2000add6 <__cxa_type_match+0x26>
2000adf2:	7843      	ldrb	r3, [r0, #1]
2000adf4:	2b4e      	cmp	r3, #78	@ 0x4e
2000adf6:	d1e2      	bne.n	2000adbe <__cxa_type_match+0xe>
2000adf8:	7883      	ldrb	r3, [r0, #2]
2000adfa:	2b55      	cmp	r3, #85	@ 0x55
2000adfc:	d1df      	bne.n	2000adbe <__cxa_type_match+0xe>
2000adfe:	78c3      	ldrb	r3, [r0, #3]
2000ae00:	2b43      	cmp	r3, #67	@ 0x43
2000ae02:	d1dc      	bne.n	2000adbe <__cxa_type_match+0xe>
2000ae04:	7903      	ldrb	r3, [r0, #4]
2000ae06:	2b46      	cmp	r3, #70	@ 0x46
2000ae08:	d01b      	beq.n	2000ae42 <__cxa_type_match+0x92>
2000ae0a:	2b43      	cmp	r3, #67	@ 0x43
2000ae0c:	d1d7      	bne.n	2000adbe <__cxa_type_match+0xe>
2000ae0e:	7943      	ldrb	r3, [r0, #5]
2000ae10:	2b2b      	cmp	r3, #43	@ 0x2b
2000ae12:	d1d4      	bne.n	2000adbe <__cxa_type_match+0xe>
2000ae14:	7983      	ldrb	r3, [r0, #6]
2000ae16:	2b2b      	cmp	r3, #43	@ 0x2b
2000ae18:	d1d1      	bne.n	2000adbe <__cxa_type_match+0xe>
2000ae1a:	79c3      	ldrb	r3, [r0, #7]
2000ae1c:	2b01      	cmp	r3, #1
2000ae1e:	d8ce      	bhi.n	2000adbe <__cxa_type_match+0xe>
2000ae20:	f04f 0300 	mov.w	r3, #0
2000ae24:	f850 6c20 	ldr.w	r6, [r0, #-32]
2000ae28:	9301      	str	r3, [sp, #4]
2000ae2a:	d006      	beq.n	2000ae3a <__cxa_type_match+0x8a>
2000ae2c:	3058      	adds	r0, #88	@ 0x58
2000ae2e:	e7c8      	b.n	2000adc2 <__cxa_type_match+0x12>
2000ae30:	9b01      	ldr	r3, [sp, #4]
2000ae32:	4638      	mov	r0, r7
2000ae34:	602b      	str	r3, [r5, #0]
2000ae36:	b003      	add	sp, #12
2000ae38:	bdf0      	pop	{r4, r5, r6, r7, pc}
2000ae3a:	4630      	mov	r0, r6
2000ae3c:	f856 6c78 	ldr.w	r6, [r6, #-120]
2000ae40:	e7bf      	b.n	2000adc2 <__cxa_type_match+0x12>
2000ae42:	7943      	ldrb	r3, [r0, #5]
2000ae44:	2b4f      	cmp	r3, #79	@ 0x4f
2000ae46:	d1ba      	bne.n	2000adbe <__cxa_type_match+0xe>
2000ae48:	7983      	ldrb	r3, [r0, #6]
2000ae4a:	2b52      	cmp	r3, #82	@ 0x52
2000ae4c:	d1b7      	bne.n	2000adbe <__cxa_type_match+0xe>
2000ae4e:	79c0      	ldrb	r0, [r0, #7]
2000ae50:	2800      	cmp	r0, #0
2000ae52:	d1b4      	bne.n	2000adbe <__cxa_type_match+0xe>
2000ae54:	4e01      	ldr	r6, [pc, #4]	@ (2000ae5c <__cxa_type_match+0xac>)
2000ae56:	e7b4      	b.n	2000adc2 <__cxa_type_match+0x12>
2000ae58:	2000d574 	.word	0x2000d574
2000ae5c:	2000d548 	.word	0x2000d548

2000ae60 <__cxa_begin_cleanup>:
2000ae60:	b510      	push	{r4, lr}
2000ae62:	4604      	mov	r4, r0
2000ae64:	f000 f87a 	bl	2000af5c <__cxa_get_globals>
2000ae68:	4622      	mov	r2, r4
2000ae6a:	f812 3920 	ldrb.w	r3, [r2], #-32
2000ae6e:	2b47      	cmp	r3, #71	@ 0x47
2000ae70:	d004      	beq.n	2000ae7c <__cxa_begin_cleanup+0x1c>
2000ae72:	6883      	ldr	r3, [r0, #8]
2000ae74:	bb23      	cbnz	r3, 2000aec0 <__cxa_begin_cleanup+0x60>
2000ae76:	6082      	str	r2, [r0, #8]
2000ae78:	2001      	movs	r0, #1
2000ae7a:	bd10      	pop	{r4, pc}
2000ae7c:	7863      	ldrb	r3, [r4, #1]
2000ae7e:	2b4e      	cmp	r3, #78	@ 0x4e
2000ae80:	d1f7      	bne.n	2000ae72 <__cxa_begin_cleanup+0x12>
2000ae82:	78a3      	ldrb	r3, [r4, #2]
2000ae84:	2b55      	cmp	r3, #85	@ 0x55
2000ae86:	d1f4      	bne.n	2000ae72 <__cxa_begin_cleanup+0x12>
2000ae88:	78e3      	ldrb	r3, [r4, #3]
2000ae8a:	2b43      	cmp	r3, #67	@ 0x43
2000ae8c:	d1f1      	bne.n	2000ae72 <__cxa_begin_cleanup+0x12>
2000ae8e:	7923      	ldrb	r3, [r4, #4]
2000ae90:	2b43      	cmp	r3, #67	@ 0x43
2000ae92:	d1ee      	bne.n	2000ae72 <__cxa_begin_cleanup+0x12>
2000ae94:	7963      	ldrb	r3, [r4, #5]
2000ae96:	2b2b      	cmp	r3, #43	@ 0x2b
2000ae98:	d1eb      	bne.n	2000ae72 <__cxa_begin_cleanup+0x12>
2000ae9a:	79a3      	ldrb	r3, [r4, #6]
2000ae9c:	2b2b      	cmp	r3, #43	@ 0x2b
2000ae9e:	d1e8      	bne.n	2000ae72 <__cxa_begin_cleanup+0x12>
2000aea0:	79e3      	ldrb	r3, [r4, #7]
2000aea2:	2b01      	cmp	r3, #1
2000aea4:	d8e5      	bhi.n	2000ae72 <__cxa_begin_cleanup+0x12>
2000aea6:	f854 3c04 	ldr.w	r3, [r4, #-4]
2000aeaa:	3301      	adds	r3, #1
2000aeac:	2b01      	cmp	r3, #1
2000aeae:	f844 3c04 	str.w	r3, [r4, #-4]
2000aeb2:	d1e1      	bne.n	2000ae78 <__cxa_begin_cleanup+0x18>
2000aeb4:	6883      	ldr	r3, [r0, #8]
2000aeb6:	f844 3c08 	str.w	r3, [r4, #-8]
2000aeba:	6082      	str	r2, [r0, #8]
2000aebc:	2001      	movs	r0, #1
2000aebe:	bd10      	pop	{r4, pc}
2000aec0:	f000 fb46 	bl	2000b550 <_ZSt9terminatev>

2000aec4 <__gnu_end_cleanup>:
2000aec4:	b508      	push	{r3, lr}
2000aec6:	f000 f849 	bl	2000af5c <__cxa_get_globals>
2000aeca:	6883      	ldr	r3, [r0, #8]
2000aecc:	b383      	cbz	r3, 2000af30 <__gnu_end_cleanup+0x6c>
2000aece:	f893 2020 	ldrb.w	r2, [r3, #32]
2000aed2:	2a47      	cmp	r2, #71	@ 0x47
2000aed4:	d004      	beq.n	2000aee0 <__gnu_end_cleanup+0x1c>
2000aed6:	2200      	movs	r2, #0
2000aed8:	6082      	str	r2, [r0, #8]
2000aeda:	f103 0020 	add.w	r0, r3, #32
2000aede:	bd08      	pop	{r3, pc}
2000aee0:	f893 2021 	ldrb.w	r2, [r3, #33]	@ 0x21
2000aee4:	2a4e      	cmp	r2, #78	@ 0x4e
2000aee6:	d1f6      	bne.n	2000aed6 <__gnu_end_cleanup+0x12>
2000aee8:	f893 2022 	ldrb.w	r2, [r3, #34]	@ 0x22
2000aeec:	2a55      	cmp	r2, #85	@ 0x55
2000aeee:	d1f2      	bne.n	2000aed6 <__gnu_end_cleanup+0x12>
2000aef0:	f893 2023 	ldrb.w	r2, [r3, #35]	@ 0x23
2000aef4:	2a43      	cmp	r2, #67	@ 0x43
2000aef6:	d1ee      	bne.n	2000aed6 <__gnu_end_cleanup+0x12>
2000aef8:	f893 2024 	ldrb.w	r2, [r3, #36]	@ 0x24
2000aefc:	2a43      	cmp	r2, #67	@ 0x43
2000aefe:	d1ea      	bne.n	2000aed6 <__gnu_end_cleanup+0x12>
2000af00:	f893 2025 	ldrb.w	r2, [r3, #37]	@ 0x25
2000af04:	2a2b      	cmp	r2, #43	@ 0x2b
2000af06:	d1e6      	bne.n	2000aed6 <__gnu_end_cleanup+0x12>
2000af08:	f893 2026 	ldrb.w	r2, [r3, #38]	@ 0x26
2000af0c:	2a2b      	cmp	r2, #43	@ 0x2b
2000af0e:	d1e2      	bne.n	2000aed6 <__gnu_end_cleanup+0x12>
2000af10:	f893 2027 	ldrb.w	r2, [r3, #39]	@ 0x27
2000af14:	2a01      	cmp	r2, #1
2000af16:	d8de      	bhi.n	2000aed6 <__gnu_end_cleanup+0x12>
2000af18:	69da      	ldr	r2, [r3, #28]
2000af1a:	3a01      	subs	r2, #1
2000af1c:	61da      	str	r2, [r3, #28]
2000af1e:	2a00      	cmp	r2, #0
2000af20:	d1db      	bne.n	2000aeda <__gnu_end_cleanup+0x16>
2000af22:	6999      	ldr	r1, [r3, #24]
2000af24:	2200      	movs	r2, #0
2000af26:	6081      	str	r1, [r0, #8]
2000af28:	f103 0020 	add.w	r0, r3, #32
2000af2c:	619a      	str	r2, [r3, #24]
2000af2e:	bd08      	pop	{r3, pc}
2000af30:	f000 fb0e 	bl	2000b550 <_ZSt9terminatev>

2000af34 <_ZNSt9exceptionD1Ev>:
2000af34:	4770      	bx	lr
2000af36:	bf00      	nop

2000af38 <_ZNSt13bad_exceptionD1Ev>:
2000af38:	4770      	bx	lr
2000af3a:	bf00      	nop

2000af3c <_ZGTtNKSt13bad_exception4whatEv>:
2000af3c:	4800      	ldr	r0, [pc, #0]	@ (2000af40 <_ZGTtNKSt13bad_exception4whatEv+0x4>)
2000af3e:	4770      	bx	lr
2000af40:	2000ca74 	.word	0x2000ca74

2000af44 <_ZNSt13bad_exceptionD0Ev>:
2000af44:	b510      	push	{r4, lr}
2000af46:	4604      	mov	r4, r0
2000af48:	2104      	movs	r1, #4
2000af4a:	f7ff fcf8 	bl	2000a93e <_ZdlPvj>
2000af4e:	4620      	mov	r0, r4
2000af50:	bd10      	pop	{r4, pc}
2000af52:	bf00      	nop

2000af54 <__cxa_get_globals_fast>:
2000af54:	4800      	ldr	r0, [pc, #0]	@ (2000af58 <__cxa_get_globals_fast+0x4>)
2000af56:	4770      	bx	lr
2000af58:	2000d988 	.word	0x2000d988

2000af5c <__cxa_get_globals>:
2000af5c:	4800      	ldr	r0, [pc, #0]	@ (2000af60 <__cxa_get_globals+0x4>)
2000af5e:	4770      	bx	lr
2000af60:	2000d988 	.word	0x2000d988

2000af64 <_ZL28read_encoded_value_with_basehjPKhPj>:
2000af64:	2850      	cmp	r0, #80	@ 0x50
2000af66:	b570      	push	{r4, r5, r6, lr}
2000af68:	d01d      	beq.n	2000afa6 <_ZL28read_encoded_value_with_basehjPKhPj+0x42>
2000af6a:	4684      	mov	ip, r0
2000af6c:	f000 000f 	and.w	r0, r0, #15
2000af70:	280c      	cmp	r0, #12
2000af72:	d855      	bhi.n	2000b020 <_ZL28read_encoded_value_with_basehjPKhPj+0xbc>
2000af74:	e8df f000 	tbb	[pc, r0]
2000af78:	07264407 	.word	0x07264407
2000af7c:	5454541e 	.word	0x5454541e
2000af80:	07222a54 	.word	0x07222a54
2000af84:	1e          	.byte	0x1e
2000af85:	00          	.byte	0x00
2000af86:	4610      	mov	r0, r2
2000af88:	f850 6b04 	ldr.w	r6, [r0], #4
2000af8c:	b14e      	cbz	r6, 2000afa2 <_ZL28read_encoded_value_with_basehjPKhPj+0x3e>
2000af8e:	f00c 0470 	and.w	r4, ip, #112	@ 0x70
2000af92:	2c10      	cmp	r4, #16
2000af94:	bf08      	it	eq
2000af96:	4611      	moveq	r1, r2
2000af98:	f01c 0f80 	tst.w	ip, #128	@ 0x80
2000af9c:	440e      	add	r6, r1
2000af9e:	bf18      	it	ne
2000afa0:	6836      	ldrne	r6, [r6, #0]
2000afa2:	601e      	str	r6, [r3, #0]
2000afa4:	bd70      	pop	{r4, r5, r6, pc}
2000afa6:	1cd0      	adds	r0, r2, #3
2000afa8:	f020 0003 	bic.w	r0, r0, #3
2000afac:	f850 6b04 	ldr.w	r6, [r0], #4
2000afb0:	601e      	str	r6, [r3, #0]
2000afb2:	bd70      	pop	{r4, r5, r6, pc}
2000afb4:	4610      	mov	r0, r2
2000afb6:	f850 6b08 	ldr.w	r6, [r0], #8
2000afba:	e7e7      	b.n	2000af8c <_ZL28read_encoded_value_with_basehjPKhPj+0x28>
2000afbc:	4610      	mov	r0, r2
2000afbe:	f930 6b02 	ldrsh.w	r6, [r0], #2
2000afc2:	e7e3      	b.n	2000af8c <_ZL28read_encoded_value_with_basehjPKhPj+0x28>
2000afc4:	4610      	mov	r0, r2
2000afc6:	f830 6b02 	ldrh.w	r6, [r0], #2
2000afca:	e7df      	b.n	2000af8c <_ZL28read_encoded_value_with_basehjPKhPj+0x28>
2000afcc:	2600      	movs	r6, #0
2000afce:	4610      	mov	r0, r2
2000afd0:	4634      	mov	r4, r6
2000afd2:	f810 5b01 	ldrb.w	r5, [r0], #1
2000afd6:	f005 0e7f 	and.w	lr, r5, #127	@ 0x7f
2000afda:	f015 0f80 	tst.w	r5, #128	@ 0x80
2000afde:	fa0e fe04 	lsl.w	lr, lr, r4
2000afe2:	f104 0407 	add.w	r4, r4, #7
2000afe6:	ea46 060e 	orr.w	r6, r6, lr
2000afea:	d1f2      	bne.n	2000afd2 <_ZL28read_encoded_value_with_basehjPKhPj+0x6e>
2000afec:	2c1f      	cmp	r4, #31
2000afee:	d8cd      	bhi.n	2000af8c <_ZL28read_encoded_value_with_basehjPKhPj+0x28>
2000aff0:	066d      	lsls	r5, r5, #25
2000aff2:	d5cb      	bpl.n	2000af8c <_ZL28read_encoded_value_with_basehjPKhPj+0x28>
2000aff4:	f04f 35ff 	mov.w	r5, #4294967295
2000aff8:	fa05 f404 	lsl.w	r4, r5, r4
2000affc:	4326      	orrs	r6, r4
2000affe:	e7c6      	b.n	2000af8e <_ZL28read_encoded_value_with_basehjPKhPj+0x2a>
2000b000:	2600      	movs	r6, #0
2000b002:	4610      	mov	r0, r2
2000b004:	4634      	mov	r4, r6
2000b006:	f810 5b01 	ldrb.w	r5, [r0], #1
2000b00a:	f005 0e7f 	and.w	lr, r5, #127	@ 0x7f
2000b00e:	062d      	lsls	r5, r5, #24
2000b010:	fa0e fe04 	lsl.w	lr, lr, r4
2000b014:	f104 0407 	add.w	r4, r4, #7
2000b018:	ea46 060e 	orr.w	r6, r6, lr
2000b01c:	d4f3      	bmi.n	2000b006 <_ZL28read_encoded_value_with_basehjPKhPj+0xa2>
2000b01e:	e7b5      	b.n	2000af8c <_ZL28read_encoded_value_with_basehjPKhPj+0x28>
2000b020:	f000 fe32 	bl	2000bc88 <__abort_veneer>

2000b024 <_ZL21base_of_encoded_valuehP15_Unwind_Context>:
2000b024:	28ff      	cmp	r0, #255	@ 0xff
2000b026:	b508      	push	{r3, lr}
2000b028:	4603      	mov	r3, r0
2000b02a:	d012      	beq.n	2000b052 <_ZL21base_of_encoded_valuehP15_Unwind_Context+0x2e>
2000b02c:	f003 0370 	and.w	r3, r3, #112	@ 0x70
2000b030:	4608      	mov	r0, r1
2000b032:	2b30      	cmp	r3, #48	@ 0x30
2000b034:	d013      	beq.n	2000b05e <_ZL21base_of_encoded_valuehP15_Unwind_Context+0x3a>
2000b036:	d805      	bhi.n	2000b044 <_ZL21base_of_encoded_valuehP15_Unwind_Context+0x20>
2000b038:	2b20      	cmp	r3, #32
2000b03a:	d109      	bne.n	2000b050 <_ZL21base_of_encoded_valuehP15_Unwind_Context+0x2c>
2000b03c:	e8bd 4008 	ldmia.w	sp!, {r3, lr}
2000b040:	f000 bdf9 	b.w	2000bc36 <_Unwind_GetTextRelBase>
2000b044:	2b40      	cmp	r3, #64	@ 0x40
2000b046:	d106      	bne.n	2000b056 <_ZL21base_of_encoded_valuehP15_Unwind_Context+0x32>
2000b048:	e8bd 4008 	ldmia.w	sp!, {r3, lr}
2000b04c:	f7fc be5c 	b.w	20007d08 <_Unwind_GetRegionStart>
2000b050:	d803      	bhi.n	2000b05a <_ZL21base_of_encoded_valuehP15_Unwind_Context+0x36>
2000b052:	2000      	movs	r0, #0
2000b054:	bd08      	pop	{r3, pc}
2000b056:	2b50      	cmp	r3, #80	@ 0x50
2000b058:	d0fb      	beq.n	2000b052 <_ZL21base_of_encoded_valuehP15_Unwind_Context+0x2e>
2000b05a:	f000 fe15 	bl	2000bc88 <__abort_veneer>
2000b05e:	e8bd 4008 	ldmia.w	sp!, {r3, lr}
2000b062:	f000 bde5 	b.w	2000bc30 <_Unwind_GetDataRelBase>
2000b066:	bf00      	nop

2000b068 <_ZL17parse_lsda_headerP15_Unwind_ContextPKhP16lsda_header_info>:
2000b068:	b5f8      	push	{r3, r4, r5, r6, r7, lr}
2000b06a:	460c      	mov	r4, r1
2000b06c:	4606      	mov	r6, r0
2000b06e:	4615      	mov	r5, r2
2000b070:	b108      	cbz	r0, 2000b076 <_ZL17parse_lsda_headerP15_Unwind_ContextPKhP16lsda_header_info+0xe>
2000b072:	f7fc fe49 	bl	20007d08 <_Unwind_GetRegionStart>
2000b076:	6028      	str	r0, [r5, #0]
2000b078:	f814 7b01 	ldrb.w	r7, [r4], #1
2000b07c:	2fff      	cmp	r7, #255	@ 0xff
2000b07e:	d128      	bne.n	2000b0d2 <_ZL17parse_lsda_headerP15_Unwind_ContextPKhP16lsda_header_info+0x6a>
2000b080:	6068      	str	r0, [r5, #4]
2000b082:	4620      	mov	r0, r4
2000b084:	f810 2b01 	ldrb.w	r2, [r0], #1
2000b088:	2aff      	cmp	r2, #255	@ 0xff
2000b08a:	d032      	beq.n	2000b0f2 <_ZL17parse_lsda_headerP15_Unwind_ContextPKhP16lsda_header_info+0x8a>
2000b08c:	2400      	movs	r4, #0
2000b08e:	2310      	movs	r3, #16
2000b090:	4622      	mov	r2, r4
2000b092:	752b      	strb	r3, [r5, #20]
2000b094:	f810 1b01 	ldrb.w	r1, [r0], #1
2000b098:	f001 037f 	and.w	r3, r1, #127	@ 0x7f
2000b09c:	0609      	lsls	r1, r1, #24
2000b09e:	fa03 f302 	lsl.w	r3, r3, r2
2000b0a2:	f102 0207 	add.w	r2, r2, #7
2000b0a6:	ea44 0403 	orr.w	r4, r4, r3
2000b0aa:	d4f3      	bmi.n	2000b094 <_ZL17parse_lsda_headerP15_Unwind_ContextPKhP16lsda_header_info+0x2c>
2000b0ac:	1903      	adds	r3, r0, r4
2000b0ae:	2400      	movs	r4, #0
2000b0b0:	60eb      	str	r3, [r5, #12]
2000b0b2:	f810 3b01 	ldrb.w	r3, [r0], #1
2000b0b6:	4622      	mov	r2, r4
2000b0b8:	756b      	strb	r3, [r5, #21]
2000b0ba:	f810 1b01 	ldrb.w	r1, [r0], #1
2000b0be:	f001 037f 	and.w	r3, r1, #127	@ 0x7f
2000b0c2:	4093      	lsls	r3, r2
2000b0c4:	3207      	adds	r2, #7
2000b0c6:	431c      	orrs	r4, r3
2000b0c8:	060b      	lsls	r3, r1, #24
2000b0ca:	d4f6      	bmi.n	2000b0ba <_ZL17parse_lsda_headerP15_Unwind_ContextPKhP16lsda_header_info+0x52>
2000b0cc:	4404      	add	r4, r0
2000b0ce:	612c      	str	r4, [r5, #16]
2000b0d0:	bdf8      	pop	{r3, r4, r5, r6, r7, pc}
2000b0d2:	4631      	mov	r1, r6
2000b0d4:	4638      	mov	r0, r7
2000b0d6:	f7ff ffa5 	bl	2000b024 <_ZL21base_of_encoded_valuehP15_Unwind_Context>
2000b0da:	4622      	mov	r2, r4
2000b0dc:	4601      	mov	r1, r0
2000b0de:	1d2b      	adds	r3, r5, #4
2000b0e0:	4638      	mov	r0, r7
2000b0e2:	f7ff ff3f 	bl	2000af64 <_ZL28read_encoded_value_with_basehjPKhPj>
2000b0e6:	4604      	mov	r4, r0
2000b0e8:	4620      	mov	r0, r4
2000b0ea:	f810 2b01 	ldrb.w	r2, [r0], #1
2000b0ee:	2aff      	cmp	r2, #255	@ 0xff
2000b0f0:	d1cc      	bne.n	2000b08c <_ZL17parse_lsda_headerP15_Unwind_ContextPKhP16lsda_header_info+0x24>
2000b0f2:	2300      	movs	r3, #0
2000b0f4:	752a      	strb	r2, [r5, #20]
2000b0f6:	e7da      	b.n	2000b0ae <_ZL17parse_lsda_headerP15_Unwind_ContextPKhP16lsda_header_info+0x46>

2000b0f8 <__gxx_personality_v0>:
2000b0f8:	e92d 4ff0 	stmdb	sp!, {r4, r5, r6, r7, r8, r9, sl, fp, lr}
2000b0fc:	2300      	movs	r3, #0
2000b0fe:	b095      	sub	sp, #84	@ 0x54
2000b100:	460f      	mov	r7, r1
2000b102:	4690      	mov	r8, r2
2000b104:	930a      	str	r3, [sp, #40]	@ 0x28
2000b106:	f000 0303 	and.w	r3, r0, #3
2000b10a:	2b01      	cmp	r3, #1
2000b10c:	f000 80a0 	beq.w	2000b250 <__gxx_personality_v0+0x158>
2000b110:	2b02      	cmp	r3, #2
2000b112:	d10a      	bne.n	2000b12a <__gxx_personality_v0+0x32>
2000b114:	4641      	mov	r1, r8
2000b116:	4638      	mov	r0, r7
2000b118:	f7fc fde0 	bl	20007cdc <__gnu_unwind_frame>
2000b11c:	2800      	cmp	r0, #0
2000b11e:	f040 808c 	bne.w	2000b23a <__gxx_personality_v0+0x142>
2000b122:	2008      	movs	r0, #8
2000b124:	b015      	add	sp, #84	@ 0x54
2000b126:	e8bd 8ff0 	ldmia.w	sp!, {r4, r5, r6, r7, r8, r9, sl, fp, pc}
2000b12a:	2b00      	cmp	r3, #0
2000b12c:	f040 8201 	bne.w	2000b532 <__gxx_personality_v0+0x43a>
2000b130:	f010 0408 	ands.w	r4, r0, #8
2000b134:	d1ee      	bne.n	2000b114 <__gxx_personality_v0+0x1c>
2000b136:	ab0e      	add	r3, sp, #56	@ 0x38
2000b138:	2501      	movs	r5, #1
2000b13a:	9302      	str	r3, [sp, #8]
2000b13c:	9b02      	ldr	r3, [sp, #8]
2000b13e:	220c      	movs	r2, #12
2000b140:	4640      	mov	r0, r8
2000b142:	970e      	str	r7, [sp, #56]	@ 0x38
2000b144:	9300      	str	r3, [sp, #0]
2000b146:	2300      	movs	r3, #0
2000b148:	4619      	mov	r1, r3
2000b14a:	f7fc f80f 	bl	2000716c <_Unwind_VRS_Set>
2000b14e:	4640      	mov	r0, r8
2000b150:	f7fc fde0 	bl	20007d14 <_Unwind_GetLanguageSpecificData>
2000b154:	9003      	str	r0, [sp, #12]
2000b156:	2800      	cmp	r0, #0
2000b158:	d0dc      	beq.n	2000b114 <__gxx_personality_v0+0x1c>
2000b15a:	ea44 0305 	orr.w	r3, r4, r5
2000b15e:	4640      	mov	r0, r8
2000b160:	f10d 0934 	add.w	r9, sp, #52	@ 0x34
2000b164:	9304      	str	r3, [sp, #16]
2000b166:	e9dd 2102 	ldrd	r2, r1, [sp, #8]
2000b16a:	f7ff ff7d 	bl	2000b068 <_ZL17parse_lsda_headerP15_Unwind_ContextPKhP16lsda_header_info>
2000b16e:	f89d 304c 	ldrb.w	r3, [sp, #76]	@ 0x4c
2000b172:	4605      	mov	r5, r0
2000b174:	4641      	mov	r1, r8
2000b176:	4618      	mov	r0, r3
2000b178:	9306      	str	r3, [sp, #24]
2000b17a:	f7ff ff53 	bl	2000b024 <_ZL21base_of_encoded_valuehP15_Unwind_Context>
2000b17e:	2300      	movs	r3, #0
2000b180:	9005      	str	r0, [sp, #20]
2000b182:	220f      	movs	r2, #15
2000b184:	4619      	mov	r1, r3
2000b186:	9010      	str	r0, [sp, #64]	@ 0x40
2000b188:	f8cd 9000 	str.w	r9, [sp]
2000b18c:	4640      	mov	r0, r8
2000b18e:	f7fb ffc7 	bl	20007120 <_Unwind_VRS_Get>
2000b192:	9b0d      	ldr	r3, [sp, #52]	@ 0x34
2000b194:	f8dd a048 	ldr.w	sl, [sp, #72]	@ 0x48
2000b198:	f023 0301 	bic.w	r3, r3, #1
2000b19c:	4555      	cmp	r5, sl
2000b19e:	f103 36ff 	add.w	r6, r3, #4294967295
2000b1a2:	d232      	bcs.n	2000b20a <__gxx_personality_v0+0x112>
2000b1a4:	f89d b04d 	ldrb.w	fp, [sp, #77]	@ 0x4d
2000b1a8:	9c0e      	ldr	r4, [sp, #56]	@ 0x38
2000b1aa:	2100      	movs	r1, #0
2000b1ac:	4658      	mov	r0, fp
2000b1ae:	f7ff ff39 	bl	2000b024 <_ZL21base_of_encoded_valuehP15_Unwind_Context>
2000b1b2:	462a      	mov	r2, r5
2000b1b4:	4601      	mov	r1, r0
2000b1b6:	ab0b      	add	r3, sp, #44	@ 0x2c
2000b1b8:	4658      	mov	r0, fp
2000b1ba:	f7ff fed3 	bl	2000af64 <_ZL28read_encoded_value_with_basehjPKhPj>
2000b1be:	4605      	mov	r5, r0
2000b1c0:	2100      	movs	r1, #0
2000b1c2:	4658      	mov	r0, fp
2000b1c4:	f7ff ff2e 	bl	2000b024 <_ZL21base_of_encoded_valuehP15_Unwind_Context>
2000b1c8:	462a      	mov	r2, r5
2000b1ca:	4601      	mov	r1, r0
2000b1cc:	ab0c      	add	r3, sp, #48	@ 0x30
2000b1ce:	4658      	mov	r0, fp
2000b1d0:	f7ff fec8 	bl	2000af64 <_ZL28read_encoded_value_with_basehjPKhPj>
2000b1d4:	4605      	mov	r5, r0
2000b1d6:	2100      	movs	r1, #0
2000b1d8:	4658      	mov	r0, fp
2000b1da:	f7ff ff23 	bl	2000b024 <_ZL21base_of_encoded_valuehP15_Unwind_Context>
2000b1de:	462a      	mov	r2, r5
2000b1e0:	4601      	mov	r1, r0
2000b1e2:	464b      	mov	r3, r9
2000b1e4:	4658      	mov	r0, fp
2000b1e6:	f7ff febd 	bl	2000af64 <_ZL28read_encoded_value_with_basehjPKhPj>
2000b1ea:	4605      	mov	r5, r0
2000b1ec:	2000      	movs	r0, #0
2000b1ee:	4602      	mov	r2, r0
2000b1f0:	f815 1b01 	ldrb.w	r1, [r5], #1
2000b1f4:	f001 037f 	and.w	r3, r1, #127	@ 0x7f
2000b1f8:	4093      	lsls	r3, r2
2000b1fa:	3207      	adds	r2, #7
2000b1fc:	4318      	orrs	r0, r3
2000b1fe:	060b      	lsls	r3, r1, #24
2000b200:	d4f6      	bmi.n	2000b1f0 <__gxx_personality_v0+0xf8>
2000b202:	9b0b      	ldr	r3, [sp, #44]	@ 0x2c
2000b204:	4423      	add	r3, r4
2000b206:	42b3      	cmp	r3, r6
2000b208:	d91b      	bls.n	2000b242 <__gxx_personality_v0+0x14a>
2000b20a:	9b04      	ldr	r3, [sp, #16]
2000b20c:	07dc      	lsls	r4, r3, #31
2000b20e:	d526      	bpl.n	2000b25e <__gxx_personality_v0+0x166>
2000b210:	2500      	movs	r5, #0
2000b212:	9b0a      	ldr	r3, [sp, #40]	@ 0x28
2000b214:	46ab      	mov	fp, r5
2000b216:	461c      	mov	r4, r3
2000b218:	2300      	movs	r3, #0
2000b21a:	4640      	mov	r0, r8
2000b21c:	220d      	movs	r2, #13
2000b21e:	f8cd 9000 	str.w	r9, [sp]
2000b222:	4619      	mov	r1, r3
2000b224:	f7fb ff7c 	bl	20007120 <_Unwind_VRS_Get>
2000b228:	9b03      	ldr	r3, [sp, #12]
2000b22a:	2006      	movs	r0, #6
2000b22c:	627c      	str	r4, [r7, #36]	@ 0x24
2000b22e:	62bd      	str	r5, [r7, #40]	@ 0x28
2000b230:	e9c7 3b0b 	strd	r3, fp, [r7, #44]	@ 0x2c
2000b234:	9b0d      	ldr	r3, [sp, #52]	@ 0x34
2000b236:	623b      	str	r3, [r7, #32]
2000b238:	e774      	b.n	2000b124 <__gxx_personality_v0+0x2c>
2000b23a:	2009      	movs	r0, #9
2000b23c:	b015      	add	sp, #84	@ 0x54
2000b23e:	e8bd 8ff0 	ldmia.w	sp!, {r4, r5, r6, r7, r8, r9, sl, fp, pc}
2000b242:	9a0c      	ldr	r2, [sp, #48]	@ 0x30
2000b244:	4413      	add	r3, r2
2000b246:	42b3      	cmp	r3, r6
2000b248:	d863      	bhi.n	2000b312 <__gxx_personality_v0+0x21a>
2000b24a:	4555      	cmp	r5, sl
2000b24c:	d3ad      	bcc.n	2000b1aa <__gxx_personality_v0+0xb2>
2000b24e:	e7dc      	b.n	2000b20a <__gxx_personality_v0+0x112>
2000b250:	f010 0408 	ands.w	r4, r0, #8
2000b254:	ab0e      	add	r3, sp, #56	@ 0x38
2000b256:	d00a      	beq.n	2000b26e <__gxx_personality_v0+0x176>
2000b258:	9302      	str	r3, [sp, #8]
2000b25a:	2502      	movs	r5, #2
2000b25c:	e76e      	b.n	2000b13c <__gxx_personality_v0+0x44>
2000b25e:	9b04      	ldr	r3, [sp, #16]
2000b260:	0718      	lsls	r0, r3, #28
2000b262:	d501      	bpl.n	2000b268 <__gxx_personality_v0+0x170>
2000b264:	f000 f974 	bl	2000b550 <_ZSt9terminatev>
2000b268:	4638      	mov	r0, r7
2000b26a:	f000 fb71 	bl	2000b950 <__cxa_call_terminate>
2000b26e:	461a      	mov	r2, r3
2000b270:	6a0d      	ldr	r5, [r1, #32]
2000b272:	9302      	str	r3, [sp, #8]
2000b274:	4621      	mov	r1, r4
2000b276:	4623      	mov	r3, r4
2000b278:	9200      	str	r2, [sp, #0]
2000b27a:	4640      	mov	r0, r8
2000b27c:	220d      	movs	r2, #13
2000b27e:	f7fb ff4f 	bl	20007120 <_Unwind_VRS_Get>
2000b282:	9b0e      	ldr	r3, [sp, #56]	@ 0x38
2000b284:	429d      	cmp	r5, r3
2000b286:	d1e8      	bne.n	2000b25a <__gxx_personality_v0+0x162>
2000b288:	9a02      	ldr	r2, [sp, #8]
2000b28a:	4623      	mov	r3, r4
2000b28c:	4621      	mov	r1, r4
2000b28e:	4640      	mov	r0, r8
2000b290:	9200      	str	r2, [sp, #0]
2000b292:	220c      	movs	r2, #12
2000b294:	970e      	str	r7, [sp, #56]	@ 0x38
2000b296:	f7fb ff69 	bl	2000716c <_Unwind_VRS_Set>
2000b29a:	f8d7 b030 	ldr.w	fp, [r7, #48]	@ 0x30
2000b29e:	e9d7 530a 	ldrd	r5, r3, [r7, #40]	@ 0x28
2000b2a2:	f1bb 0f00 	cmp.w	fp, #0
2000b2a6:	d0df      	beq.n	2000b268 <__gxx_personality_v0+0x170>
2000b2a8:	f10d 0934 	add.w	r9, sp, #52	@ 0x34
2000b2ac:	9303      	str	r3, [sp, #12]
2000b2ae:	2d00      	cmp	r5, #0
2000b2b0:	f2c0 80fc 	blt.w	2000b4ac <__gxx_personality_v0+0x3b4>
2000b2b4:	2403      	movs	r4, #3
2000b2b6:	2300      	movs	r3, #0
2000b2b8:	4640      	mov	r0, r8
2000b2ba:	f8cd 9000 	str.w	r9, [sp]
2000b2be:	461a      	mov	r2, r3
2000b2c0:	4619      	mov	r1, r3
2000b2c2:	970d      	str	r7, [sp, #52]	@ 0x34
2000b2c4:	f7fb ff52 	bl	2000716c <_Unwind_VRS_Set>
2000b2c8:	2300      	movs	r3, #0
2000b2ca:	2201      	movs	r2, #1
2000b2cc:	4640      	mov	r0, r8
2000b2ce:	f8cd 9000 	str.w	r9, [sp]
2000b2d2:	4619      	mov	r1, r3
2000b2d4:	950d      	str	r5, [sp, #52]	@ 0x34
2000b2d6:	f7fb ff49 	bl	2000716c <_Unwind_VRS_Set>
2000b2da:	2300      	movs	r3, #0
2000b2dc:	220f      	movs	r2, #15
2000b2de:	4640      	mov	r0, r8
2000b2e0:	4619      	mov	r1, r3
2000b2e2:	f8cd 9000 	str.w	r9, [sp]
2000b2e6:	f7fb ff1b 	bl	20007120 <_Unwind_VRS_Get>
2000b2ea:	9a0d      	ldr	r2, [sp, #52]	@ 0x34
2000b2ec:	2300      	movs	r3, #0
2000b2ee:	4640      	mov	r0, r8
2000b2f0:	f002 0201 	and.w	r2, r2, #1
2000b2f4:	f8cd 9000 	str.w	r9, [sp]
2000b2f8:	4619      	mov	r1, r3
2000b2fa:	ea42 020b 	orr.w	r2, r2, fp
2000b2fe:	920d      	str	r2, [sp, #52]	@ 0x34
2000b300:	220f      	movs	r2, #15
2000b302:	f7fb ff33 	bl	2000716c <_Unwind_VRS_Set>
2000b306:	2c02      	cmp	r4, #2
2000b308:	d057      	beq.n	2000b3ba <__gxx_personality_v0+0x2c2>
2000b30a:	2007      	movs	r0, #7
2000b30c:	b015      	add	sp, #84	@ 0x54
2000b30e:	e8bd 8ff0 	ldmia.w	sp!, {r4, r5, r6, r7, r8, r9, sl, fp, pc}
2000b312:	9b0d      	ldr	r3, [sp, #52]	@ 0x34
2000b314:	2b00      	cmp	r3, #0
2000b316:	f43f aefd 	beq.w	2000b114 <__gxx_personality_v0+0x1c>
2000b31a:	9a0f      	ldr	r2, [sp, #60]	@ 0x3c
2000b31c:	eb03 0b02 	add.w	fp, r3, r2
2000b320:	2800      	cmp	r0, #0
2000b322:	f000 80ed 	beq.w	2000b500 <__gxx_personality_v0+0x408>
2000b326:	3801      	subs	r0, #1
2000b328:	eb0a 0400 	add.w	r4, sl, r0
2000b32c:	f1bb 0f00 	cmp.w	fp, #0
2000b330:	f43f aef0 	beq.w	2000b114 <__gxx_personality_v0+0x1c>
2000b334:	9b04      	ldr	r3, [sp, #16]
2000b336:	f013 0c08 	ands.w	ip, r3, #8
2000b33a:	f000 80e6 	beq.w	2000b50a <__gxx_personality_v0+0x412>
2000b33e:	4b7e      	ldr	r3, [pc, #504]	@ (2000b538 <__gxx_personality_v0+0x440>)
2000b340:	603b      	str	r3, [r7, #0]
2000b342:	4b7e      	ldr	r3, [pc, #504]	@ (2000b53c <__gxx_personality_v0+0x444>)
2000b344:	607b      	str	r3, [r7, #4]
2000b346:	9b06      	ldr	r3, [sp, #24]
2000b348:	f04f 0a00 	mov.w	sl, #0
2000b34c:	f8cd 8020 	str.w	r8, [sp, #32]
2000b350:	f003 0207 	and.w	r2, r3, #7
2000b354:	e9cd cb06 	strd	ip, fp, [sp, #24]
2000b358:	469b      	mov	fp, r3
2000b35a:	9209      	str	r2, [sp, #36]	@ 0x24
2000b35c:	2500      	movs	r5, #0
2000b35e:	462a      	mov	r2, r5
2000b360:	f814 1b01 	ldrb.w	r1, [r4], #1
2000b364:	f001 037f 	and.w	r3, r1, #127	@ 0x7f
2000b368:	0608      	lsls	r0, r1, #24
2000b36a:	fa03 f302 	lsl.w	r3, r3, r2
2000b36e:	f102 0207 	add.w	r2, r2, #7
2000b372:	ea45 0503 	orr.w	r5, r5, r3
2000b376:	d4f3      	bmi.n	2000b360 <__gxx_personality_v0+0x268>
2000b378:	2a1f      	cmp	r2, #31
2000b37a:	d805      	bhi.n	2000b388 <__gxx_personality_v0+0x290>
2000b37c:	0649      	lsls	r1, r1, #25
2000b37e:	d503      	bpl.n	2000b388 <__gxx_personality_v0+0x290>
2000b380:	2301      	movs	r3, #1
2000b382:	4093      	lsls	r3, r2
2000b384:	425b      	negs	r3, r3
2000b386:	431d      	orrs	r5, r3
2000b388:	2600      	movs	r6, #0
2000b38a:	4620      	mov	r0, r4
2000b38c:	4632      	mov	r2, r6
2000b38e:	f810 1b01 	ldrb.w	r1, [r0], #1
2000b392:	f001 037f 	and.w	r3, r1, #127	@ 0x7f
2000b396:	4093      	lsls	r3, r2
2000b398:	3207      	adds	r2, #7
2000b39a:	431e      	orrs	r6, r3
2000b39c:	060b      	lsls	r3, r1, #24
2000b39e:	d4f6      	bmi.n	2000b38e <__gxx_personality_v0+0x296>
2000b3a0:	2a1f      	cmp	r2, #31
2000b3a2:	d80e      	bhi.n	2000b3c2 <__gxx_personality_v0+0x2ca>
2000b3a4:	064b      	lsls	r3, r1, #25
2000b3a6:	d50c      	bpl.n	2000b3c2 <__gxx_personality_v0+0x2ca>
2000b3a8:	2301      	movs	r3, #1
2000b3aa:	4093      	lsls	r3, r2
2000b3ac:	425b      	negs	r3, r3
2000b3ae:	431e      	orrs	r6, r3
2000b3b0:	b9dd      	cbnz	r5, 2000b3ea <__gxx_personality_v0+0x2f2>
2000b3b2:	f04f 0a01 	mov.w	sl, #1
2000b3b6:	4434      	add	r4, r6
2000b3b8:	e7d0      	b.n	2000b35c <__gxx_personality_v0+0x264>
2000b3ba:	4638      	mov	r0, r7
2000b3bc:	f7ff fd50 	bl	2000ae60 <__cxa_begin_cleanup>
2000b3c0:	e7a3      	b.n	2000b30a <__gxx_personality_v0+0x212>
2000b3c2:	b995      	cbnz	r5, 2000b3ea <__gxx_personality_v0+0x2f2>
2000b3c4:	f04f 0a01 	mov.w	sl, #1
2000b3c8:	2e00      	cmp	r6, #0
2000b3ca:	d1f4      	bne.n	2000b3b6 <__gxx_personality_v0+0x2be>
2000b3cc:	4653      	mov	r3, sl
2000b3ce:	f8dd b01c 	ldr.w	fp, [sp, #28]
2000b3d2:	f8dd 8020 	ldr.w	r8, [sp, #32]
2000b3d6:	2b00      	cmp	r3, #0
2000b3d8:	f43f ae9c 	beq.w	2000b114 <__gxx_personality_v0+0x1c>
2000b3dc:	9b04      	ldr	r3, [sp, #16]
2000b3de:	07dd      	lsls	r5, r3, #31
2000b3e0:	f53f ae98 	bmi.w	2000b114 <__gxx_personality_v0+0x1c>
2000b3e4:	2500      	movs	r5, #0
2000b3e6:	2402      	movs	r4, #2
2000b3e8:	e765      	b.n	2000b2b6 <__gxx_personality_v0+0x1be>
2000b3ea:	2d00      	cmp	r5, #0
2000b3ec:	dc19      	bgt.n	2000b422 <__gxx_personality_v0+0x32a>
2000b3ee:	f06f 4340 	mvn.w	r3, #3221225472	@ 0xc0000000
2000b3f2:	1b5b      	subs	r3, r3, r5
2000b3f4:	ea4f 0883 	mov.w	r8, r3, lsl #2
2000b3f8:	b117      	cbz	r7, 2000b400 <__gxx_personality_v0+0x308>
2000b3fa:	9a06      	ldr	r2, [sp, #24]
2000b3fc:	2a00      	cmp	r2, #0
2000b3fe:	d03f      	beq.n	2000b480 <__gxx_personality_v0+0x388>
2000b400:	9a11      	ldr	r2, [sp, #68]	@ 0x44
2000b402:	f852 2008 	ldr.w	r2, [r2, r8]
2000b406:	2a00      	cmp	r2, #0
2000b408:	d1de      	bne.n	2000b3c8 <__gxx_personality_v0+0x2d0>
2000b40a:	9a04      	ldr	r2, [sp, #16]
2000b40c:	f8dd 8020 	ldr.w	r8, [sp, #32]
2000b410:	07d2      	lsls	r2, r2, #31
2000b412:	e9dd cb06 	ldrd	ip, fp, [sp, #24]
2000b416:	d42a      	bmi.n	2000b46e <__gxx_personality_v0+0x376>
2000b418:	f1bc 0f00 	cmp.w	ip, #0
2000b41c:	d049      	beq.n	2000b4b2 <__gxx_personality_v0+0x3ba>
2000b41e:	f000 f8a3 	bl	2000b568 <_ZSt10unexpectedv>
2000b422:	f1bb 0fff 	cmp.w	fp, #255	@ 0xff
2000b426:	d03f      	beq.n	2000b4a8 <__gxx_personality_v0+0x3b0>
2000b428:	9a09      	ldr	r2, [sp, #36]	@ 0x24
2000b42a:	2a04      	cmp	r2, #4
2000b42c:	f200 8081 	bhi.w	2000b532 <__gxx_personality_v0+0x43a>
2000b430:	e8df f002 	tbb	[pc, r2]
2000b434:	03237f03 	.word	0x03237f03
2000b438:	20          	.byte	0x20
2000b439:	00          	.byte	0x00
2000b43a:	00ab      	lsls	r3, r5, #2
2000b43c:	425b      	negs	r3, r3
2000b43e:	9a11      	ldr	r2, [sp, #68]	@ 0x44
2000b440:	4658      	mov	r0, fp
2000b442:	9905      	ldr	r1, [sp, #20]
2000b444:	441a      	add	r2, r3
2000b446:	464b      	mov	r3, r9
2000b448:	f7ff fd8c 	bl	2000af64 <_ZL28read_encoded_value_with_basehjPKhPj>
2000b44c:	990d      	ldr	r1, [sp, #52]	@ 0x34
2000b44e:	b141      	cbz	r1, 2000b462 <__gxx_personality_v0+0x36a>
2000b450:	2f00      	cmp	r7, #0
2000b452:	d0b9      	beq.n	2000b3c8 <__gxx_personality_v0+0x2d0>
2000b454:	ab0a      	add	r3, sp, #40	@ 0x28
2000b456:	2200      	movs	r2, #0
2000b458:	4638      	mov	r0, r7
2000b45a:	f7ff fca9 	bl	2000adb0 <__cxa_type_match>
2000b45e:	2800      	cmp	r0, #0
2000b460:	d0b2      	beq.n	2000b3c8 <__gxx_personality_v0+0x2d0>
2000b462:	9b04      	ldr	r3, [sp, #16]
2000b464:	07d9      	lsls	r1, r3, #31
2000b466:	e9dd b807 	ldrd	fp, r8, [sp, #28]
2000b46a:	f57f af23 	bpl.w	2000b2b4 <__gxx_personality_v0+0x1bc>
2000b46e:	9b0a      	ldr	r3, [sp, #40]	@ 0x28
2000b470:	461c      	mov	r4, r3
2000b472:	e6d1      	b.n	2000b218 <__gxx_personality_v0+0x120>
2000b474:	00eb      	lsls	r3, r5, #3
2000b476:	425b      	negs	r3, r3
2000b478:	e7e1      	b.n	2000b43e <__gxx_personality_v0+0x346>
2000b47a:	006b      	lsls	r3, r5, #1
2000b47c:	425b      	negs	r3, r3
2000b47e:	e7de      	b.n	2000b43e <__gxx_personality_v0+0x346>
2000b480:	9a11      	ldr	r2, [sp, #68]	@ 0x44
2000b482:	980a      	ldr	r0, [sp, #40]	@ 0x28
2000b484:	f852 1008 	ldr.w	r1, [r2, r8]
2000b488:	4490      	add	r8, r2
2000b48a:	900d      	str	r0, [sp, #52]	@ 0x34
2000b48c:	b919      	cbnz	r1, 2000b496 <__gxx_personality_v0+0x39e>
2000b48e:	e045      	b.n	2000b51c <__gxx_personality_v0+0x424>
2000b490:	f858 1f04 	ldr.w	r1, [r8, #4]!
2000b494:	b369      	cbz	r1, 2000b4f2 <__gxx_personality_v0+0x3fa>
2000b496:	4441      	add	r1, r8
2000b498:	464b      	mov	r3, r9
2000b49a:	2200      	movs	r2, #0
2000b49c:	4638      	mov	r0, r7
2000b49e:	f7ff fc87 	bl	2000adb0 <__cxa_type_match>
2000b4a2:	2800      	cmp	r0, #0
2000b4a4:	d0f4      	beq.n	2000b490 <__gxx_personality_v0+0x398>
2000b4a6:	e78f      	b.n	2000b3c8 <__gxx_personality_v0+0x2d0>
2000b4a8:	2300      	movs	r3, #0
2000b4aa:	e7c8      	b.n	2000b43e <__gxx_personality_v0+0x346>
2000b4ac:	f06f 4340 	mvn.w	r3, #3221225472	@ 0xc0000000
2000b4b0:	1b5b      	subs	r3, r3, r5
2000b4b2:	4640      	mov	r0, r8
2000b4b4:	9304      	str	r3, [sp, #16]
2000b4b6:	e9dd 2102 	ldrd	r2, r1, [sp, #8]
2000b4ba:	f7ff fdd5 	bl	2000b068 <_ZL17parse_lsda_headerP15_Unwind_ContextPKhP16lsda_header_info>
2000b4be:	4641      	mov	r1, r8
2000b4c0:	f89d 004c 	ldrb.w	r0, [sp, #76]	@ 0x4c
2000b4c4:	f7ff fdae 	bl	2000b024 <_ZL21base_of_encoded_valuehP15_Unwind_Context>
2000b4c8:	9b04      	ldr	r3, [sp, #16]
2000b4ca:	4604      	mov	r4, r0
2000b4cc:	9811      	ldr	r0, [sp, #68]	@ 0x44
2000b4ce:	f850 2023 	ldr.w	r2, [r0, r3, lsl #2]
2000b4d2:	eb00 0083 	add.w	r0, r0, r3, lsl #2
2000b4d6:	b132      	cbz	r2, 2000b4e6 <__gxx_personality_v0+0x3ee>
2000b4d8:	4603      	mov	r3, r0
2000b4da:	2200      	movs	r2, #0
2000b4dc:	f853 1f04 	ldr.w	r1, [r3, #4]!
2000b4e0:	3201      	adds	r2, #1
2000b4e2:	2900      	cmp	r1, #0
2000b4e4:	d1fa      	bne.n	2000b4dc <__gxx_personality_v0+0x3e4>
2000b4e6:	2304      	movs	r3, #4
2000b4e8:	6378      	str	r0, [r7, #52]	@ 0x34
2000b4ea:	e9c7 240a 	strd	r2, r4, [r7, #40]	@ 0x28
2000b4ee:	633b      	str	r3, [r7, #48]	@ 0x30
2000b4f0:	e6e0      	b.n	2000b2b4 <__gxx_personality_v0+0x1bc>
2000b4f2:	9b04      	ldr	r3, [sp, #16]
2000b4f4:	07db      	lsls	r3, r3, #31
2000b4f6:	e9dd b807 	ldrd	fp, r8, [sp, #28]
2000b4fa:	f57f aed8 	bpl.w	2000b2ae <__gxx_personality_v0+0x1b6>
2000b4fe:	e7b6      	b.n	2000b46e <__gxx_personality_v0+0x376>
2000b500:	f1bb 0f00 	cmp.w	fp, #0
2000b504:	f47f af6a 	bne.w	2000b3dc <__gxx_personality_v0+0x2e4>
2000b508:	e604      	b.n	2000b114 <__gxx_personality_v0+0x1c>
2000b50a:	79fb      	ldrb	r3, [r7, #7]
2000b50c:	2b01      	cmp	r3, #1
2000b50e:	bf0c      	ite	eq
2000b510:	f857 3c20 	ldreq.w	r3, [r7, #-32]
2000b514:	f107 0358 	addne.w	r3, r7, #88	@ 0x58
2000b518:	930a      	str	r3, [sp, #40]	@ 0x28
2000b51a:	e714      	b.n	2000b346 <__gxx_personality_v0+0x24e>
2000b51c:	9a04      	ldr	r2, [sp, #16]
2000b51e:	4604      	mov	r4, r0
2000b520:	07d6      	lsls	r6, r2, #31
2000b522:	e9dd b807 	ldrd	fp, r8, [sp, #28]
2000b526:	f53f ae77 	bmi.w	2000b218 <__gxx_personality_v0+0x120>
2000b52a:	e7c2      	b.n	2000b4b2 <__gxx_personality_v0+0x3ba>
2000b52c:	f000 fa8a 	bl	2000ba44 <__cxa_begin_catch>
2000b530:	e698      	b.n	2000b264 <__gxx_personality_v0+0x16c>
2000b532:	f000 fba9 	bl	2000bc88 <__abort_veneer>
2000b536:	bf00      	nop
2000b538:	43554e47 	.word	0x43554e47
2000b53c:	00524f46 	.word	0x00524f46

2000b540 <_ZN10__cxxabiv111__terminateEPFvvE>:
2000b540:	b508      	push	{r3, lr}
2000b542:	4780      	blx	r0
2000b544:	f000 fba0 	bl	2000bc88 <__abort_veneer>
2000b548:	f000 fa7c 	bl	2000ba44 <__cxa_begin_catch>
2000b54c:	f000 fb9c 	bl	2000bc88 <__abort_veneer>

2000b550 <_ZSt9terminatev>:
2000b550:	b508      	push	{r3, lr}
2000b552:	4b02      	ldr	r3, [pc, #8]	@ (2000b55c <_ZSt9terminatev+0xc>)
2000b554:	e8d3 0faf 	lda	r0, [r3]
2000b558:	f7ff fff2 	bl	2000b540 <_ZN10__cxxabiv111__terminateEPFvvE>
2000b55c:	2000d7b8 	.word	0x2000d7b8

2000b560 <_ZN10__cxxabiv112__unexpectedEPFvvE>:
2000b560:	b508      	push	{r3, lr}
2000b562:	4780      	blx	r0
2000b564:	f7ff fff4 	bl	2000b550 <_ZSt9terminatev>

2000b568 <_ZSt10unexpectedv>:
2000b568:	b508      	push	{r3, lr}
2000b56a:	4b02      	ldr	r3, [pc, #8]	@ (2000b574 <_ZSt10unexpectedv+0xc>)
2000b56c:	e8d3 0faf 	lda	r0, [r3]
2000b570:	f7ff fff6 	bl	2000b560 <_ZN10__cxxabiv112__unexpectedEPFvvE>
2000b574:	2000d7b4 	.word	0x2000d7b4

2000b578 <_ZSt13get_terminatev>:
2000b578:	4b01      	ldr	r3, [pc, #4]	@ (2000b580 <_ZSt13get_terminatev+0x8>)
2000b57a:	e8d3 0faf 	lda	r0, [r3]
2000b57e:	4770      	bx	lr
2000b580:	2000d7b8 	.word	0x2000d7b8

2000b584 <_ZSt14get_unexpectedv>:
2000b584:	4b01      	ldr	r3, [pc, #4]	@ (2000b58c <_ZSt14get_unexpectedv+0x8>)
2000b586:	e8d3 0faf 	lda	r0, [r3]
2000b58a:	4770      	bx	lr
2000b58c:	2000d7b4 	.word	0x2000d7b4

2000b590 <_ZL23__gxx_exception_cleanup19_Unwind_Reason_CodeP21_Unwind_Control_Block>:
2000b590:	2801      	cmp	r0, #1
2000b592:	b510      	push	{r4, lr}
2000b594:	d816      	bhi.n	2000b5c4 <_ZL23__gxx_exception_cleanup19_Unwind_Reason_CodeP21_Unwind_Control_Block+0x34>
2000b596:	f1a1 0328 	sub.w	r3, r1, #40	@ 0x28
2000b59a:	e8d3 2fef 	ldaex	r2, [r3]
2000b59e:	3a01      	subs	r2, #1
2000b5a0:	e8c3 2fe0 	stlex	r0, r2, [r3]
2000b5a4:	2800      	cmp	r0, #0
2000b5a6:	d1f8      	bne.n	2000b59a <_ZL23__gxx_exception_cleanup19_Unwind_Reason_CodeP21_Unwind_Control_Block+0xa>
2000b5a8:	b95a      	cbnz	r2, 2000b5c2 <_ZL23__gxx_exception_cleanup19_Unwind_Reason_CodeP21_Unwind_Control_Block+0x32>
2000b5aa:	f851 3c1c 	ldr.w	r3, [r1, #-28]
2000b5ae:	f101 0458 	add.w	r4, r1, #88	@ 0x58
2000b5b2:	b10b      	cbz	r3, 2000b5b8 <_ZL23__gxx_exception_cleanup19_Unwind_Reason_CodeP21_Unwind_Control_Block+0x28>
2000b5b4:	4620      	mov	r0, r4
2000b5b6:	4798      	blx	r3
2000b5b8:	4620      	mov	r0, r4
2000b5ba:	e8bd 4010 	ldmia.w	sp!, {r4, lr}
2000b5be:	f7ff bb5b 	b.w	2000ac78 <__cxa_free_exception>
2000b5c2:	bd10      	pop	{r4, pc}
2000b5c4:	f851 0c14 	ldr.w	r0, [r1, #-20]
2000b5c8:	f7ff ffba 	bl	2000b540 <_ZN10__cxxabiv111__terminateEPFvvE>

2000b5cc <__cxa_init_primary_exception>:
2000b5cc:	2300      	movs	r3, #0
2000b5ce:	b510      	push	{r4, lr}
2000b5d0:	4604      	mov	r4, r0
2000b5d2:	f840 3c80 	str.w	r3, [r0, #-128]
2000b5d6:	e940 121e 	strd	r1, r2, [r0, #-120]	@ 0x78
2000b5da:	f7ff ffd3 	bl	2000b584 <_ZSt14get_unexpectedv>
2000b5de:	f844 0c70 	str.w	r0, [r4, #-112]
2000b5e2:	f7ff ffc9 	bl	2000b578 <_ZSt13get_terminatev>
2000b5e6:	4907      	ldr	r1, [pc, #28]	@ (2000b604 <__cxa_init_primary_exception+0x38>)
2000b5e8:	4a07      	ldr	r2, [pc, #28]	@ (2000b608 <__cxa_init_primary_exception+0x3c>)
2000b5ea:	4b08      	ldr	r3, [pc, #32]	@ (2000b60c <__cxa_init_primary_exception+0x40>)
2000b5ec:	f844 0c6c 	str.w	r0, [r4, #-108]
2000b5f0:	f1a4 0080 	sub.w	r0, r4, #128	@ 0x80
2000b5f4:	f844 1c58 	str.w	r1, [r4, #-88]
2000b5f8:	f844 2c54 	str.w	r2, [r4, #-84]
2000b5fc:	f844 3c50 	str.w	r3, [r4, #-80]
2000b600:	bd10      	pop	{r4, pc}
2000b602:	bf00      	nop
2000b604:	43554e47 	.word	0x43554e47
2000b608:	002b2b43 	.word	0x002b2b43
2000b60c:	2000b591 	.word	0x2000b591

2000b610 <__cxa_throw>:
2000b610:	b570      	push	{r4, r5, r6, lr}
2000b612:	4604      	mov	r4, r0
2000b614:	460d      	mov	r5, r1
2000b616:	4616      	mov	r6, r2
2000b618:	f7ff fca0 	bl	2000af5c <__cxa_get_globals>
2000b61c:	4603      	mov	r3, r0
2000b61e:	4620      	mov	r0, r4
2000b620:	4632      	mov	r2, r6
2000b622:	4629      	mov	r1, r5
2000b624:	685c      	ldr	r4, [r3, #4]
2000b626:	3401      	adds	r4, #1
2000b628:	605c      	str	r4, [r3, #4]
2000b62a:	f7ff ffcf 	bl	2000b5cc <__cxa_init_primary_exception>
2000b62e:	2301      	movs	r3, #1
2000b630:	4604      	mov	r4, r0
2000b632:	f844 3b28 	str.w	r3, [r4], #40
2000b636:	4620      	mov	r0, r4
2000b638:	f7fc f94a 	bl	200078d0 <_Unwind_RaiseException>
2000b63c:	4620      	mov	r0, r4
2000b63e:	f000 fa01 	bl	2000ba44 <__cxa_begin_catch>
2000b642:	f7ff ff85 	bl	2000b550 <_ZSt9terminatev>
2000b646:	bf00      	nop

2000b648 <__cxa_rethrow>:
2000b648:	b510      	push	{r4, lr}
2000b64a:	f7ff fc87 	bl	2000af5c <__cxa_get_globals>
2000b64e:	e9d0 4200 	ldrd	r4, r2, [r0]
2000b652:	3201      	adds	r2, #1
2000b654:	6042      	str	r2, [r0, #4]
2000b656:	b164      	cbz	r4, 2000b672 <__cxa_rethrow+0x2a>
2000b658:	f894 2020 	ldrb.w	r2, [r4, #32]
2000b65c:	2a47      	cmp	r2, #71	@ 0x47
2000b65e:	d00a      	beq.n	2000b676 <__cxa_rethrow+0x2e>
2000b660:	2200      	movs	r2, #0
2000b662:	6002      	str	r2, [r0, #0]
2000b664:	3420      	adds	r4, #32
2000b666:	4620      	mov	r0, r4
2000b668:	f7fc f956 	bl	20007918 <_Unwind_Resume_or_Rethrow>
2000b66c:	4620      	mov	r0, r4
2000b66e:	f000 f9e9 	bl	2000ba44 <__cxa_begin_catch>
2000b672:	f7ff ff6d 	bl	2000b550 <_ZSt9terminatev>
2000b676:	f894 2021 	ldrb.w	r2, [r4, #33]	@ 0x21
2000b67a:	2a4e      	cmp	r2, #78	@ 0x4e
2000b67c:	d1f0      	bne.n	2000b660 <__cxa_rethrow+0x18>
2000b67e:	f894 2022 	ldrb.w	r2, [r4, #34]	@ 0x22
2000b682:	2a55      	cmp	r2, #85	@ 0x55
2000b684:	d1ec      	bne.n	2000b660 <__cxa_rethrow+0x18>
2000b686:	f894 2023 	ldrb.w	r2, [r4, #35]	@ 0x23
2000b68a:	2a43      	cmp	r2, #67	@ 0x43
2000b68c:	d1e8      	bne.n	2000b660 <__cxa_rethrow+0x18>
2000b68e:	f894 2024 	ldrb.w	r2, [r4, #36]	@ 0x24
2000b692:	2a43      	cmp	r2, #67	@ 0x43
2000b694:	d1e4      	bne.n	2000b660 <__cxa_rethrow+0x18>
2000b696:	f894 2025 	ldrb.w	r2, [r4, #37]	@ 0x25
2000b69a:	2a2b      	cmp	r2, #43	@ 0x2b
2000b69c:	d1e0      	bne.n	2000b660 <__cxa_rethrow+0x18>
2000b69e:	f894 2026 	ldrb.w	r2, [r4, #38]	@ 0x26
2000b6a2:	2a2b      	cmp	r2, #43	@ 0x2b
2000b6a4:	d1dc      	bne.n	2000b660 <__cxa_rethrow+0x18>
2000b6a6:	f894 2027 	ldrb.w	r2, [r4, #39]	@ 0x27
2000b6aa:	2a01      	cmp	r2, #1
2000b6ac:	d8d8      	bhi.n	2000b660 <__cxa_rethrow+0x18>
2000b6ae:	6962      	ldr	r2, [r4, #20]
2000b6b0:	4252      	negs	r2, r2
2000b6b2:	6162      	str	r2, [r4, #20]
2000b6b4:	e7d6      	b.n	2000b664 <__cxa_rethrow+0x1c>
2000b6b6:	bf00      	nop

2000b6b8 <_ZN10__cxxabiv120__si_class_type_infoD1Ev>:
2000b6b8:	4b03      	ldr	r3, [pc, #12]	@ (2000b6c8 <_ZN10__cxxabiv120__si_class_type_infoD1Ev+0x10>)
2000b6ba:	b510      	push	{r4, lr}
2000b6bc:	4604      	mov	r4, r0
2000b6be:	6003      	str	r3, [r0, #0]
2000b6c0:	f7ff f9f8 	bl	2000aab4 <_ZN10__cxxabiv117__class_type_infoD1Ev>
2000b6c4:	4620      	mov	r0, r4
2000b6c6:	bd10      	pop	{r4, pc}
2000b6c8:	2000d5cc 	.word	0x2000d5cc

2000b6cc <_ZN10__cxxabiv120__si_class_type_infoD0Ev>:
2000b6cc:	4b05      	ldr	r3, [pc, #20]	@ (2000b6e4 <_ZN10__cxxabiv120__si_class_type_infoD0Ev+0x18>)
2000b6ce:	b510      	push	{r4, lr}
2000b6d0:	4604      	mov	r4, r0
2000b6d2:	6003      	str	r3, [r0, #0]
2000b6d4:	f7ff f9ee 	bl	2000aab4 <_ZN10__cxxabiv117__class_type_infoD1Ev>
2000b6d8:	210c      	movs	r1, #12
2000b6da:	4620      	mov	r0, r4
2000b6dc:	f7ff f92f 	bl	2000a93e <_ZdlPvj>
2000b6e0:	4620      	mov	r0, r4
2000b6e2:	bd10      	pop	{r4, pc}
2000b6e4:	2000d5cc 	.word	0x2000d5cc

2000b6e8 <_ZNK10__cxxabiv120__si_class_type_info20__do_find_public_srcEiPKvPKNS_17__class_type_infoES2_>:
2000b6e8:	b570      	push	{r4, r5, r6, lr}
2000b6ea:	b082      	sub	sp, #8
2000b6ec:	4604      	mov	r4, r0
2000b6ee:	460d      	mov	r5, r1
2000b6f0:	9e06      	ldr	r6, [sp, #24]
2000b6f2:	4296      	cmp	r6, r2
2000b6f4:	d009      	beq.n	2000b70a <_ZNK10__cxxabiv120__si_class_type_info20__do_find_public_srcEiPKvPKNS_17__class_type_infoES2_+0x22>
2000b6f6:	68a0      	ldr	r0, [r4, #8]
2000b6f8:	4629      	mov	r1, r5
2000b6fa:	6804      	ldr	r4, [r0, #0]
2000b6fc:	9606      	str	r6, [sp, #24]
2000b6fe:	6a24      	ldr	r4, [r4, #32]
2000b700:	46a4      	mov	ip, r4
2000b702:	b002      	add	sp, #8
2000b704:	e8bd 4070 	ldmia.w	sp!, {r4, r5, r6, lr}
2000b708:	4760      	bx	ip
2000b70a:	4619      	mov	r1, r3
2000b70c:	9201      	str	r2, [sp, #4]
2000b70e:	9300      	str	r3, [sp, #0]
2000b710:	f000 f864 	bl	2000b7dc <_ZNKSt9type_info7__equalERKS_>
2000b714:	e9dd 3200 	ldrd	r3, r2, [sp]
2000b718:	2800      	cmp	r0, #0
2000b71a:	d0ec      	beq.n	2000b6f6 <_ZNK10__cxxabiv120__si_class_type_info20__do_find_public_srcEiPKvPKNS_17__class_type_infoES2_+0xe>
2000b71c:	2006      	movs	r0, #6
2000b71e:	b002      	add	sp, #8
2000b720:	bd70      	pop	{r4, r5, r6, pc}
2000b722:	bf00      	nop

2000b724 <_ZNK10__cxxabiv120__si_class_type_info12__do_dyncastEiNS_17__class_type_info10__sub_kindEPKS1_PKvS4_S6_RNS1_16__dyncast_resultE>:
2000b724:	e92d 4ff0 	stmdb	sp!, {r4, r5, r6, r7, r8, r9, sl, fp, lr}
2000b728:	b081      	sub	sp, #4
2000b72a:	460d      	mov	r5, r1
2000b72c:	4619      	mov	r1, r3
2000b72e:	461c      	mov	r4, r3
2000b730:	4607      	mov	r7, r0
2000b732:	4616      	mov	r6, r2
2000b734:	e9dd 8b0a 	ldrd	r8, fp, [sp, #40]	@ 0x28
2000b738:	e9dd a90c 	ldrd	sl, r9, [sp, #48]	@ 0x30
2000b73c:	f000 f84e 	bl	2000b7dc <_ZNKSt9type_info7__equalERKS_>
2000b740:	b980      	cbnz	r0, 2000b764 <_ZNK10__cxxabiv120__si_class_type_info12__do_dyncastEiNS_17__class_type_info10__sub_kindEPKS1_PKvS4_S6_RNS1_16__dyncast_resultE+0x40>
2000b742:	45d0      	cmp	r8, sl
2000b744:	d027      	beq.n	2000b796 <_ZNK10__cxxabiv120__si_class_type_info12__do_dyncastEiNS_17__class_type_info10__sub_kindEPKS1_PKvS4_S6_RNS1_16__dyncast_resultE+0x72>
2000b746:	68b8      	ldr	r0, [r7, #8]
2000b748:	4623      	mov	r3, r4
2000b74a:	4632      	mov	r2, r6
2000b74c:	4629      	mov	r1, r5
2000b74e:	6804      	ldr	r4, [r0, #0]
2000b750:	e9cd a90c 	strd	sl, r9, [sp, #48]	@ 0x30
2000b754:	e9cd 8b0a 	strd	r8, fp, [sp, #40]	@ 0x28
2000b758:	69e4      	ldr	r4, [r4, #28]
2000b75a:	46a4      	mov	ip, r4
2000b75c:	b001      	add	sp, #4
2000b75e:	e8bd 4ff0 	ldmia.w	sp!, {r4, r5, r6, r7, r8, r9, sl, fp, lr}
2000b762:	4760      	bx	ip
2000b764:	2d00      	cmp	r5, #0
2000b766:	f8c9 8000 	str.w	r8, [r9]
2000b76a:	f889 6004 	strb.w	r6, [r9, #4]
2000b76e:	db0c      	blt.n	2000b78a <_ZNK10__cxxabiv120__si_class_type_info12__do_dyncastEiNS_17__class_type_info10__sub_kindEPKS1_PKvS4_S6_RNS1_16__dyncast_resultE+0x66>
2000b770:	44a8      	add	r8, r5
2000b772:	45c2      	cmp	sl, r8
2000b774:	bf14      	ite	ne
2000b776:	f04f 0801 	movne.w	r8, #1
2000b77a:	f04f 0806 	moveq.w	r8, #6
2000b77e:	f889 8006 	strb.w	r8, [r9, #6]
2000b782:	2000      	movs	r0, #0
2000b784:	b001      	add	sp, #4
2000b786:	e8bd 8ff0 	ldmia.w	sp!, {r4, r5, r6, r7, r8, r9, sl, fp, pc}
2000b78a:	3502      	adds	r5, #2
2000b78c:	d1f9      	bne.n	2000b782 <_ZNK10__cxxabiv120__si_class_type_info12__do_dyncastEiNS_17__class_type_info10__sub_kindEPKS1_PKvS4_S6_RNS1_16__dyncast_resultE+0x5e>
2000b78e:	2301      	movs	r3, #1
2000b790:	f889 3006 	strb.w	r3, [r9, #6]
2000b794:	e7f5      	b.n	2000b782 <_ZNK10__cxxabiv120__si_class_type_info12__do_dyncastEiNS_17__class_type_info10__sub_kindEPKS1_PKvS4_S6_RNS1_16__dyncast_resultE+0x5e>
2000b796:	4659      	mov	r1, fp
2000b798:	4638      	mov	r0, r7
2000b79a:	f000 f81f 	bl	2000b7dc <_ZNKSt9type_info7__equalERKS_>
2000b79e:	2800      	cmp	r0, #0
2000b7a0:	d0d1      	beq.n	2000b746 <_ZNK10__cxxabiv120__si_class_type_info12__do_dyncastEiNS_17__class_type_info10__sub_kindEPKS1_PKvS4_S6_RNS1_16__dyncast_resultE+0x22>
2000b7a2:	f889 6005 	strb.w	r6, [r9, #5]
2000b7a6:	e7ec      	b.n	2000b782 <_ZNK10__cxxabiv120__si_class_type_info12__do_dyncastEiNS_17__class_type_info10__sub_kindEPKS1_PKvS4_S6_RNS1_16__dyncast_resultE+0x5e>

2000b7a8 <_ZNK10__cxxabiv120__si_class_type_info11__do_upcastEPKNS_17__class_type_infoEPKvRNS1_15__upcast_resultE>:
2000b7a8:	e92d 41f0 	stmdb	sp!, {r4, r5, r6, r7, r8, lr}
2000b7ac:	4607      	mov	r7, r0
2000b7ae:	460c      	mov	r4, r1
2000b7b0:	4615      	mov	r5, r2
2000b7b2:	461e      	mov	r6, r3
2000b7b4:	f7ff f9b8 	bl	2000ab28 <_ZNK10__cxxabiv117__class_type_info11__do_upcastEPKS0_PKvRNS0_15__upcast_resultE>
2000b7b8:	b948      	cbnz	r0, 2000b7ce <_ZNK10__cxxabiv120__si_class_type_info11__do_upcastEPKNS_17__class_type_infoEPKvRNS1_15__upcast_resultE+0x26>
2000b7ba:	68b8      	ldr	r0, [r7, #8]
2000b7bc:	4621      	mov	r1, r4
2000b7be:	4633      	mov	r3, r6
2000b7c0:	462a      	mov	r2, r5
2000b7c2:	6804      	ldr	r4, [r0, #0]
2000b7c4:	69a4      	ldr	r4, [r4, #24]
2000b7c6:	46a4      	mov	ip, r4
2000b7c8:	e8bd 41f0 	ldmia.w	sp!, {r4, r5, r6, r7, r8, lr}
2000b7cc:	4760      	bx	ip
2000b7ce:	e8bd 81f0 	ldmia.w	sp!, {r4, r5, r6, r7, r8, pc}
2000b7d2:	bf00      	nop

2000b7d4 <_ZNSt9type_infoD1Ev>:
2000b7d4:	4770      	bx	lr
2000b7d6:	bf00      	nop

2000b7d8 <_ZNKSt9type_info14__is_pointer_pEv>:
2000b7d8:	2000      	movs	r0, #0
2000b7da:	4770      	bx	lr

2000b7dc <_ZNKSt9type_info7__equalERKS_>:
2000b7dc:	4281      	cmp	r1, r0
2000b7de:	d011      	beq.n	2000b804 <_ZNKSt9type_info7__equalERKS_+0x28>
2000b7e0:	6840      	ldr	r0, [r0, #4]
2000b7e2:	b508      	push	{r3, lr}
2000b7e4:	7803      	ldrb	r3, [r0, #0]
2000b7e6:	2b2a      	cmp	r3, #42	@ 0x2a
2000b7e8:	d00a      	beq.n	2000b800 <_ZNKSt9type_info7__equalERKS_+0x24>
2000b7ea:	6849      	ldr	r1, [r1, #4]
2000b7ec:	780b      	ldrb	r3, [r1, #0]
2000b7ee:	2b2a      	cmp	r3, #42	@ 0x2a
2000b7f0:	bf08      	it	eq
2000b7f2:	3101      	addeq	r1, #1
2000b7f4:	f000 fa58 	bl	2000bca8 <__strcmp_veneer>
2000b7f8:	fab0 f080 	clz	r0, r0
2000b7fc:	0940      	lsrs	r0, r0, #5
2000b7fe:	bd08      	pop	{r3, pc}
2000b800:	2000      	movs	r0, #0
2000b802:	bd08      	pop	{r3, pc}
2000b804:	2001      	movs	r0, #1
2000b806:	4770      	bx	lr

2000b808 <_ZN9__gnu_cxx27__verbose_terminate_handlerEv>:
2000b808:	4b3b      	ldr	r3, [pc, #236]	@ (2000b8f8 <_ZN9__gnu_cxx27__verbose_terminate_handlerEv+0xf0>)
2000b80a:	781a      	ldrb	r2, [r3, #0]
2000b80c:	b570      	push	{r4, r5, r6, lr}
2000b80e:	b082      	sub	sp, #8
2000b810:	2a00      	cmp	r2, #0
2000b812:	d141      	bne.n	2000b898 <_ZN9__gnu_cxx27__verbose_terminate_handlerEv+0x90>
2000b814:	2401      	movs	r4, #1
2000b816:	701c      	strb	r4, [r3, #0]
2000b818:	f000 f996 	bl	2000bb48 <__cxa_current_exception_type>
2000b81c:	2800      	cmp	r0, #0
2000b81e:	d031      	beq.n	2000b884 <_ZN9__gnu_cxx27__verbose_terminate_handlerEv+0x7c>
2000b820:	6844      	ldr	r4, [r0, #4]
2000b822:	2200      	movs	r2, #0
2000b824:	f04f 30ff 	mov.w	r0, #4294967295
2000b828:	4d34      	ldr	r5, [pc, #208]	@ (2000b8fc <_ZN9__gnu_cxx27__verbose_terminate_handlerEv+0xf4>)
2000b82a:	7823      	ldrb	r3, [r4, #0]
2000b82c:	4611      	mov	r1, r2
2000b82e:	9001      	str	r0, [sp, #4]
2000b830:	2b2a      	cmp	r3, #42	@ 0x2a
2000b832:	ab01      	add	r3, sp, #4
2000b834:	bf08      	it	eq
2000b836:	3401      	addeq	r4, #1
2000b838:	4620      	mov	r0, r4
2000b83a:	f7fb fa2b 	bl	20006c94 <__cxa_demangle>
2000b83e:	682b      	ldr	r3, [r5, #0]
2000b840:	2230      	movs	r2, #48	@ 0x30
2000b842:	2101      	movs	r1, #1
2000b844:	68db      	ldr	r3, [r3, #12]
2000b846:	4606      	mov	r6, r0
2000b848:	482d      	ldr	r0, [pc, #180]	@ (2000b900 <_ZN9__gnu_cxx27__verbose_terminate_handlerEv+0xf8>)
2000b84a:	f000 fa01 	bl	2000bc50 <__fwrite_veneer>
2000b84e:	9b01      	ldr	r3, [sp, #4]
2000b850:	b193      	cbz	r3, 2000b878 <_ZN9__gnu_cxx27__verbose_terminate_handlerEv+0x70>
2000b852:	682b      	ldr	r3, [r5, #0]
2000b854:	4620      	mov	r0, r4
2000b856:	68d9      	ldr	r1, [r3, #12]
2000b858:	f000 fa0e 	bl	2000bc78 <__fputs_veneer>
2000b85c:	682b      	ldr	r3, [r5, #0]
2000b85e:	2202      	movs	r2, #2
2000b860:	2101      	movs	r1, #1
2000b862:	4828      	ldr	r0, [pc, #160]	@ (2000b904 <_ZN9__gnu_cxx27__verbose_terminate_handlerEv+0xfc>)
2000b864:	68db      	ldr	r3, [r3, #12]
2000b866:	f000 f9f3 	bl	2000bc50 <__fwrite_veneer>
2000b86a:	9b01      	ldr	r3, [sp, #4]
2000b86c:	b913      	cbnz	r3, 2000b874 <_ZN9__gnu_cxx27__verbose_terminate_handlerEv+0x6c>
2000b86e:	4630      	mov	r0, r6
2000b870:	f7fe ff70 	bl	2000a754 <free>
2000b874:	f7ff fee8 	bl	2000b648 <__cxa_rethrow>
2000b878:	682b      	ldr	r3, [r5, #0]
2000b87a:	4630      	mov	r0, r6
2000b87c:	68d9      	ldr	r1, [r3, #12]
2000b87e:	f000 f9fb 	bl	2000bc78 <__fputs_veneer>
2000b882:	e7eb      	b.n	2000b85c <_ZN9__gnu_cxx27__verbose_terminate_handlerEv+0x54>
2000b884:	4b1d      	ldr	r3, [pc, #116]	@ (2000b8fc <_ZN9__gnu_cxx27__verbose_terminate_handlerEv+0xf4>)
2000b886:	222d      	movs	r2, #45	@ 0x2d
2000b888:	4621      	mov	r1, r4
2000b88a:	481f      	ldr	r0, [pc, #124]	@ (2000b908 <_ZN9__gnu_cxx27__verbose_terminate_handlerEv+0x100>)
2000b88c:	681b      	ldr	r3, [r3, #0]
2000b88e:	68db      	ldr	r3, [r3, #12]
2000b890:	f000 f9de 	bl	2000bc50 <__fwrite_veneer>
2000b894:	f000 f9f8 	bl	2000bc88 <__abort_veneer>
2000b898:	4b18      	ldr	r3, [pc, #96]	@ (2000b8fc <_ZN9__gnu_cxx27__verbose_terminate_handlerEv+0xf4>)
2000b89a:	221d      	movs	r2, #29
2000b89c:	2101      	movs	r1, #1
2000b89e:	481b      	ldr	r0, [pc, #108]	@ (2000b90c <_ZN9__gnu_cxx27__verbose_terminate_handlerEv+0x104>)
2000b8a0:	681b      	ldr	r3, [r3, #0]
2000b8a2:	68db      	ldr	r3, [r3, #12]
2000b8a4:	f000 f9d4 	bl	2000bc50 <__fwrite_veneer>
2000b8a8:	f000 f9ee 	bl	2000bc88 <__abort_veneer>
2000b8ac:	2901      	cmp	r1, #1
2000b8ae:	460c      	mov	r4, r1
2000b8b0:	d119      	bne.n	2000b8e6 <_ZN9__gnu_cxx27__verbose_terminate_handlerEv+0xde>
2000b8b2:	f000 f8c7 	bl	2000ba44 <__cxa_begin_catch>
2000b8b6:	6803      	ldr	r3, [r0, #0]
2000b8b8:	689b      	ldr	r3, [r3, #8]
2000b8ba:	4798      	blx	r3
2000b8bc:	682b      	ldr	r3, [r5, #0]
2000b8be:	4621      	mov	r1, r4
2000b8c0:	220b      	movs	r2, #11
2000b8c2:	4604      	mov	r4, r0
2000b8c4:	68db      	ldr	r3, [r3, #12]
2000b8c6:	4812      	ldr	r0, [pc, #72]	@ (2000b910 <_ZN9__gnu_cxx27__verbose_terminate_handlerEv+0x108>)
2000b8c8:	f000 f9c2 	bl	2000bc50 <__fwrite_veneer>
2000b8cc:	682b      	ldr	r3, [r5, #0]
2000b8ce:	4620      	mov	r0, r4
2000b8d0:	68d9      	ldr	r1, [r3, #12]
2000b8d2:	f000 f9d1 	bl	2000bc78 <__fputs_veneer>
2000b8d6:	682b      	ldr	r3, [r5, #0]
2000b8d8:	200a      	movs	r0, #10
2000b8da:	68d9      	ldr	r1, [r3, #12]
2000b8dc:	f000 f9d0 	bl	2000bc80 <__fputc_veneer>
2000b8e0:	f000 f8ee 	bl	2000bac0 <__cxa_end_catch>
2000b8e4:	e7d6      	b.n	2000b894 <_ZN9__gnu_cxx27__verbose_terminate_handlerEv+0x8c>
2000b8e6:	f000 f8ad 	bl	2000ba44 <__cxa_begin_catch>
2000b8ea:	f000 f8e9 	bl	2000bac0 <__cxa_end_catch>
2000b8ee:	e7d1      	b.n	2000b894 <_ZN9__gnu_cxx27__verbose_terminate_handlerEv+0x8c>
2000b8f0:	f000 f8e6 	bl	2000bac0 <__cxa_end_catch>
2000b8f4:	f7ff fa56 	bl	2000ada4 <__cxa_end_cleanup>
2000b8f8:	2000d994 	.word	0x2000d994
2000b8fc:	2000d7bc 	.word	0x2000d7bc
2000b900:	2000caa8 	.word	0x2000caa8
2000b904:	2000cadc 	.word	0x2000cadc
2000b908:	2000cae0 	.word	0x2000cae0
2000b90c:	2000ca88 	.word	0x2000ca88
2000b910:	2000cb10 	.word	0x2000cb10

2000b914 <_ZN10__cxxabiv1L24__is_gxx_exception_classEPc>:
2000b914:	7803      	ldrb	r3, [r0, #0]
2000b916:	2b47      	cmp	r3, #71	@ 0x47
2000b918:	d001      	beq.n	2000b91e <_ZN10__cxxabiv1L24__is_gxx_exception_classEPc+0xa>
2000b91a:	2000      	movs	r0, #0
2000b91c:	4770      	bx	lr
2000b91e:	7843      	ldrb	r3, [r0, #1]
2000b920:	2b4e      	cmp	r3, #78	@ 0x4e
2000b922:	d1fa      	bne.n	2000b91a <_ZN10__cxxabiv1L24__is_gxx_exception_classEPc+0x6>
2000b924:	7883      	ldrb	r3, [r0, #2]
2000b926:	2b55      	cmp	r3, #85	@ 0x55
2000b928:	d1f7      	bne.n	2000b91a <_ZN10__cxxabiv1L24__is_gxx_exception_classEPc+0x6>
2000b92a:	78c3      	ldrb	r3, [r0, #3]
2000b92c:	2b43      	cmp	r3, #67	@ 0x43
2000b92e:	d1f4      	bne.n	2000b91a <_ZN10__cxxabiv1L24__is_gxx_exception_classEPc+0x6>
2000b930:	7903      	ldrb	r3, [r0, #4]
2000b932:	2b43      	cmp	r3, #67	@ 0x43
2000b934:	d1f1      	bne.n	2000b91a <_ZN10__cxxabiv1L24__is_gxx_exception_classEPc+0x6>
2000b936:	7943      	ldrb	r3, [r0, #5]
2000b938:	2b2b      	cmp	r3, #43	@ 0x2b
2000b93a:	d1ee      	bne.n	2000b91a <_ZN10__cxxabiv1L24__is_gxx_exception_classEPc+0x6>
2000b93c:	7983      	ldrb	r3, [r0, #6]
2000b93e:	2b2b      	cmp	r3, #43	@ 0x2b
2000b940:	d1eb      	bne.n	2000b91a <_ZN10__cxxabiv1L24__is_gxx_exception_classEPc+0x6>
2000b942:	79c0      	ldrb	r0, [r0, #7]
2000b944:	2801      	cmp	r0, #1
2000b946:	bf8c      	ite	hi
2000b948:	2000      	movhi	r0, #0
2000b94a:	2001      	movls	r0, #1
2000b94c:	4770      	bx	lr
2000b94e:	bf00      	nop

2000b950 <__cxa_call_terminate>:
2000b950:	b510      	push	{r4, lr}
2000b952:	b130      	cbz	r0, 2000b962 <__cxa_call_terminate+0x12>
2000b954:	4604      	mov	r4, r0
2000b956:	f000 f875 	bl	2000ba44 <__cxa_begin_catch>
2000b95a:	4620      	mov	r0, r4
2000b95c:	f7ff ffda 	bl	2000b914 <_ZN10__cxxabiv1L24__is_gxx_exception_classEPc>
2000b960:	b908      	cbnz	r0, 2000b966 <__cxa_call_terminate+0x16>
2000b962:	f7ff fdf5 	bl	2000b550 <_ZSt9terminatev>
2000b966:	f854 0c14 	ldr.w	r0, [r4, #-20]
2000b96a:	f7ff fde9 	bl	2000b540 <_ZN10__cxxabiv111__terminateEPFvvE>
2000b96e:	bf00      	nop

2000b970 <__cxa_call_unexpected>:
2000b970:	e92d 4ff0 	stmdb	sp!, {r4, r5, r6, r7, r8, r9, sl, fp, lr}
2000b974:	b083      	sub	sp, #12
2000b976:	4602      	mov	r2, r0
2000b978:	f7ff ffcc 	bl	2000b914 <_ZN10__cxxabiv1L24__is_gxx_exception_classEPc>
2000b97c:	b138      	cbz	r0, 2000b98e <__cxa_call_unexpected+0x1e>
2000b97e:	f8d2 a028 	ldr.w	sl, [r2, #40]	@ 0x28
2000b982:	2600      	movs	r6, #0
2000b984:	e952 8406 	ldrd	r8, r4, [r2, #-24]
2000b988:	e9d2 750c 	ldrd	r7, r5, [r2, #48]	@ 0x30
2000b98c:	e005      	b.n	2000b99a <__cxa_call_unexpected+0x2a>
2000b98e:	4604      	mov	r4, r0
2000b990:	2601      	movs	r6, #1
2000b992:	4680      	mov	r8, r0
2000b994:	4605      	mov	r5, r0
2000b996:	4607      	mov	r7, r0
2000b998:	4682      	mov	sl, r0
2000b99a:	4610      	mov	r0, r2
2000b99c:	f000 f852 	bl	2000ba44 <__cxa_begin_catch>
2000b9a0:	b10e      	cbz	r6, 2000b9a6 <__cxa_call_unexpected+0x36>
2000b9a2:	f7ff fde1 	bl	2000b568 <_ZSt10unexpectedv>
2000b9a6:	4640      	mov	r0, r8
2000b9a8:	f7ff fdda 	bl	2000b560 <_ZN10__cxxabiv112__unexpectedEPFvvE>
2000b9ac:	f000 f84a 	bl	2000ba44 <__cxa_begin_catch>
2000b9b0:	b10e      	cbz	r6, 2000b9b6 <__cxa_call_unexpected+0x46>
2000b9b2:	f7ff fdcd 	bl	2000b550 <_ZSt9terminatev>
2000b9b6:	f7ff facd 	bl	2000af54 <__cxa_get_globals_fast>
2000b9ba:	6803      	ldr	r3, [r0, #0]
2000b9bc:	f027 0803 	bic.w	r8, r7, #3
2000b9c0:	f04f 0900 	mov.w	r9, #0
2000b9c4:	f893 2027 	ldrb.w	r2, [r3, #39]	@ 0x27
2000b9c8:	f103 0b20 	add.w	fp, r3, #32
2000b9cc:	2a01      	cmp	r2, #1
2000b9ce:	bf0c      	ite	eq
2000b9d0:	681a      	ldreq	r2, [r3, #0]
2000b9d2:	f103 0278 	addne.w	r2, r3, #120	@ 0x78
2000b9d6:	9200      	str	r2, [sp, #0]
2000b9d8:	45ca      	cmp	sl, r9
2000b9da:	dd1a      	ble.n	2000ba12 <__cxa_call_unexpected+0xa2>
2000b9dc:	682f      	ldr	r7, [r5, #0]
2000b9de:	b107      	cbz	r7, 2000b9e2 <__cxa_call_unexpected+0x72>
2000b9e0:	442f      	add	r7, r5
2000b9e2:	466b      	mov	r3, sp
2000b9e4:	2200      	movs	r2, #0
2000b9e6:	4639      	mov	r1, r7
2000b9e8:	4658      	mov	r0, fp
2000b9ea:	f7ff f9e1 	bl	2000adb0 <__cxa_type_match>
2000b9ee:	b108      	cbz	r0, 2000b9f4 <__cxa_call_unexpected+0x84>
2000b9f0:	f7ff fe2a 	bl	2000b648 <__cxa_rethrow>
2000b9f4:	683b      	ldr	r3, [r7, #0]
2000b9f6:	aa01      	add	r2, sp, #4
2000b9f8:	9001      	str	r0, [sp, #4]
2000b9fa:	4638      	mov	r0, r7
2000b9fc:	490e      	ldr	r1, [pc, #56]	@ (2000ba38 <__cxa_call_unexpected+0xc8>)
2000b9fe:	691f      	ldr	r7, [r3, #16]
2000ba00:	2301      	movs	r3, #1
2000ba02:	47b8      	blx	r7
2000ba04:	2800      	cmp	r0, #0
2000ba06:	bf18      	it	ne
2000ba08:	4606      	movne	r6, r0
2000ba0a:	f109 0901 	add.w	r9, r9, #1
2000ba0e:	4445      	add	r5, r8
2000ba10:	e7e2      	b.n	2000b9d8 <__cxa_call_unexpected+0x68>
2000ba12:	b146      	cbz	r6, 2000ba26 <__cxa_call_unexpected+0xb6>
2000ba14:	2004      	movs	r0, #4
2000ba16:	f7ff f917 	bl	2000ac48 <__cxa_allocate_exception>
2000ba1a:	4b08      	ldr	r3, [pc, #32]	@ (2000ba3c <__cxa_call_unexpected+0xcc>)
2000ba1c:	4a08      	ldr	r2, [pc, #32]	@ (2000ba40 <__cxa_call_unexpected+0xd0>)
2000ba1e:	4906      	ldr	r1, [pc, #24]	@ (2000ba38 <__cxa_call_unexpected+0xc8>)
2000ba20:	6003      	str	r3, [r0, #0]
2000ba22:	f7ff fdf5 	bl	2000b610 <__cxa_throw>
2000ba26:	4620      	mov	r0, r4
2000ba28:	f7ff fd8a 	bl	2000b540 <_ZN10__cxxabiv111__terminateEPFvvE>
2000ba2c:	f000 f848 	bl	2000bac0 <__cxa_end_catch>
2000ba30:	f000 f846 	bl	2000bac0 <__cxa_end_catch>
2000ba34:	f7ff f9b6 	bl	2000ada4 <__cxa_end_cleanup>
2000ba38:	2000d51c 	.word	0x2000d51c
2000ba3c:	2000d584 	.word	0x2000d584
2000ba40:	2000af39 	.word	0x2000af39

2000ba44 <__cxa_begin_catch>:
2000ba44:	b538      	push	{r3, r4, r5, lr}
2000ba46:	4604      	mov	r4, r0
2000ba48:	f7ff fa88 	bl	2000af5c <__cxa_get_globals>
2000ba4c:	6805      	ldr	r5, [r0, #0]
2000ba4e:	4622      	mov	r2, r4
2000ba50:	f812 3920 	ldrb.w	r3, [r2], #-32
2000ba54:	2b47      	cmp	r3, #71	@ 0x47
2000ba56:	d003      	beq.n	2000ba60 <__cxa_begin_catch+0x1c>
2000ba58:	bb85      	cbnz	r5, 2000babc <__cxa_begin_catch+0x78>
2000ba5a:	6002      	str	r2, [r0, #0]
2000ba5c:	4628      	mov	r0, r5
2000ba5e:	bd38      	pop	{r3, r4, r5, pc}
2000ba60:	7863      	ldrb	r3, [r4, #1]
2000ba62:	2b4e      	cmp	r3, #78	@ 0x4e
2000ba64:	d1f8      	bne.n	2000ba58 <__cxa_begin_catch+0x14>
2000ba66:	78a3      	ldrb	r3, [r4, #2]
2000ba68:	2b55      	cmp	r3, #85	@ 0x55
2000ba6a:	d1f5      	bne.n	2000ba58 <__cxa_begin_catch+0x14>
2000ba6c:	78e3      	ldrb	r3, [r4, #3]
2000ba6e:	2b43      	cmp	r3, #67	@ 0x43
2000ba70:	d1f2      	bne.n	2000ba58 <__cxa_begin_catch+0x14>
2000ba72:	7923      	ldrb	r3, [r4, #4]
2000ba74:	2b43      	cmp	r3, #67	@ 0x43
2000ba76:	d1ef      	bne.n	2000ba58 <__cxa_begin_catch+0x14>
2000ba78:	7963      	ldrb	r3, [r4, #5]
2000ba7a:	2b2b      	cmp	r3, #43	@ 0x2b
2000ba7c:	d1ec      	bne.n	2000ba58 <__cxa_begin_catch+0x14>
2000ba7e:	79a3      	ldrb	r3, [r4, #6]
2000ba80:	2b2b      	cmp	r3, #43	@ 0x2b
2000ba82:	d1e9      	bne.n	2000ba58 <__cxa_begin_catch+0x14>
2000ba84:	79e3      	ldrb	r3, [r4, #7]
2000ba86:	2b01      	cmp	r3, #1
2000ba88:	d8e6      	bhi.n	2000ba58 <__cxa_begin_catch+0x14>
2000ba8a:	f854 3c0c 	ldr.w	r3, [r4, #-12]
2000ba8e:	2b00      	cmp	r3, #0
2000ba90:	db11      	blt.n	2000bab6 <__cxa_begin_catch+0x72>
2000ba92:	3301      	adds	r3, #1
2000ba94:	f844 3c0c 	str.w	r3, [r4, #-12]
2000ba98:	4295      	cmp	r5, r2
2000ba9a:	6843      	ldr	r3, [r0, #4]
2000ba9c:	f103 33ff 	add.w	r3, r3, #4294967295
2000baa0:	6043      	str	r3, [r0, #4]
2000baa2:	d002      	beq.n	2000baaa <__cxa_begin_catch+0x66>
2000baa4:	f844 5c10 	str.w	r5, [r4, #-16]
2000baa8:	6002      	str	r2, [r0, #0]
2000baaa:	6a65      	ldr	r5, [r4, #36]	@ 0x24
2000baac:	4620      	mov	r0, r4
2000baae:	f7fb fb2f 	bl	20007110 <_Unwind_Complete>
2000bab2:	4628      	mov	r0, r5
2000bab4:	bd38      	pop	{r3, r4, r5, pc}
2000bab6:	f1c3 0301 	rsb	r3, r3, #1
2000baba:	e7eb      	b.n	2000ba94 <__cxa_begin_catch+0x50>
2000babc:	f7ff fd48 	bl	2000b550 <_ZSt9terminatev>

2000bac0 <__cxa_end_catch>:
2000bac0:	b508      	push	{r3, lr}
2000bac2:	f7ff fa47 	bl	2000af54 <__cxa_get_globals_fast>
2000bac6:	4602      	mov	r2, r0
2000bac8:	6800      	ldr	r0, [r0, #0]
2000baca:	b370      	cbz	r0, 2000bb2a <__cxa_end_catch+0x6a>
2000bacc:	f890 1020 	ldrb.w	r1, [r0, #32]
2000bad0:	2947      	cmp	r1, #71	@ 0x47
2000bad2:	d006      	beq.n	2000bae2 <__cxa_end_catch+0x22>
2000bad4:	2100      	movs	r1, #0
2000bad6:	3020      	adds	r0, #32
2000bad8:	e8bd 4008 	ldmia.w	sp!, {r3, lr}
2000badc:	6011      	str	r1, [r2, #0]
2000bade:	f7fb bb19 	b.w	20007114 <_Unwind_DeleteException>
2000bae2:	f890 1021 	ldrb.w	r1, [r0, #33]	@ 0x21
2000bae6:	294e      	cmp	r1, #78	@ 0x4e
2000bae8:	d1f4      	bne.n	2000bad4 <__cxa_end_catch+0x14>
2000baea:	f890 1022 	ldrb.w	r1, [r0, #34]	@ 0x22
2000baee:	2955      	cmp	r1, #85	@ 0x55
2000baf0:	d1f0      	bne.n	2000bad4 <__cxa_end_catch+0x14>
2000baf2:	f890 1023 	ldrb.w	r1, [r0, #35]	@ 0x23
2000baf6:	2943      	cmp	r1, #67	@ 0x43
2000baf8:	d1ec      	bne.n	2000bad4 <__cxa_end_catch+0x14>
2000bafa:	f890 1024 	ldrb.w	r1, [r0, #36]	@ 0x24
2000bafe:	2943      	cmp	r1, #67	@ 0x43
2000bb00:	d1e8      	bne.n	2000bad4 <__cxa_end_catch+0x14>
2000bb02:	f890 1025 	ldrb.w	r1, [r0, #37]	@ 0x25
2000bb06:	292b      	cmp	r1, #43	@ 0x2b
2000bb08:	d1e4      	bne.n	2000bad4 <__cxa_end_catch+0x14>
2000bb0a:	f890 1026 	ldrb.w	r1, [r0, #38]	@ 0x26
2000bb0e:	292b      	cmp	r1, #43	@ 0x2b
2000bb10:	d1e0      	bne.n	2000bad4 <__cxa_end_catch+0x14>
2000bb12:	f890 1027 	ldrb.w	r1, [r0, #39]	@ 0x27
2000bb16:	2901      	cmp	r1, #1
2000bb18:	d8dc      	bhi.n	2000bad4 <__cxa_end_catch+0x14>
2000bb1a:	6941      	ldr	r1, [r0, #20]
2000bb1c:	2900      	cmp	r1, #0
2000bb1e:	db05      	blt.n	2000bb2c <__cxa_end_catch+0x6c>
2000bb20:	3901      	subs	r1, #1
2000bb22:	d008      	beq.n	2000bb36 <__cxa_end_catch+0x76>
2000bb24:	1c4b      	adds	r3, r1, #1
2000bb26:	d00d      	beq.n	2000bb44 <__cxa_end_catch+0x84>
2000bb28:	6141      	str	r1, [r0, #20]
2000bb2a:	bd08      	pop	{r3, pc}
2000bb2c:	3101      	adds	r1, #1
2000bb2e:	d1fb      	bne.n	2000bb28 <__cxa_end_catch+0x68>
2000bb30:	6903      	ldr	r3, [r0, #16]
2000bb32:	6013      	str	r3, [r2, #0]
2000bb34:	e7f8      	b.n	2000bb28 <__cxa_end_catch+0x68>
2000bb36:	6901      	ldr	r1, [r0, #16]
2000bb38:	3020      	adds	r0, #32
2000bb3a:	e8bd 4008 	ldmia.w	sp!, {r3, lr}
2000bb3e:	6011      	str	r1, [r2, #0]
2000bb40:	f7fb bae8 	b.w	20007114 <_Unwind_DeleteException>
2000bb44:	f7ff fd04 	bl	2000b550 <_ZSt9terminatev>

2000bb48 <__cxa_current_exception_type>:
2000bb48:	b508      	push	{r3, lr}
2000bb4a:	f7ff fa07 	bl	2000af5c <__cxa_get_globals>
2000bb4e:	6800      	ldr	r0, [r0, #0]
2000bb50:	b130      	cbz	r0, 2000bb60 <__cxa_current_exception_type+0x18>
2000bb52:	f890 3027 	ldrb.w	r3, [r0, #39]	@ 0x27
2000bb56:	2b01      	cmp	r3, #1
2000bb58:	d101      	bne.n	2000bb5e <__cxa_current_exception_type+0x16>
2000bb5a:	6800      	ldr	r0, [r0, #0]
2000bb5c:	3878      	subs	r0, #120	@ 0x78
2000bb5e:	6800      	ldr	r0, [r0, #0]
2000bb60:	bd08      	pop	{r3, pc}
2000bb62:	bf00      	nop

2000bb64 <getenv>:
2000bb64:	4b04      	ldr	r3, [pc, #16]	@ (2000bb78 <getenv+0x14>)
2000bb66:	b507      	push	{r0, r1, r2, lr}
2000bb68:	4601      	mov	r1, r0
2000bb6a:	aa01      	add	r2, sp, #4
2000bb6c:	6818      	ldr	r0, [r3, #0]
2000bb6e:	f000 f805 	bl	2000bb7c <_findenv_r>
2000bb72:	b003      	add	sp, #12
2000bb74:	f85d fb04 	ldr.w	pc, [sp], #4
2000bb78:	2000d7bc 	.word	0x2000d7bc

2000bb7c <_findenv_r>:
2000bb7c:	e92d 4ff8 	stmdb	sp!, {r3, r4, r5, r6, r7, r8, r9, sl, fp, lr}
2000bb80:	f8df a06c 	ldr.w	sl, [pc, #108]	@ 2000bbf0 <_findenv_r+0x74>
2000bb84:	4606      	mov	r6, r0
2000bb86:	4689      	mov	r9, r1
2000bb88:	4617      	mov	r7, r2
2000bb8a:	f000 f845 	bl	2000bc18 <__env_lock>
2000bb8e:	f8da 4000 	ldr.w	r4, [sl]
2000bb92:	b134      	cbz	r4, 2000bba2 <_findenv_r+0x26>
2000bb94:	464b      	mov	r3, r9
2000bb96:	4698      	mov	r8, r3
2000bb98:	f813 2b01 	ldrb.w	r2, [r3], #1
2000bb9c:	b13a      	cbz	r2, 2000bbae <_findenv_r+0x32>
2000bb9e:	2a3d      	cmp	r2, #61	@ 0x3d
2000bba0:	d1f9      	bne.n	2000bb96 <_findenv_r+0x1a>
2000bba2:	4630      	mov	r0, r6
2000bba4:	f000 f83e 	bl	2000bc24 <__env_unlock>
2000bba8:	2000      	movs	r0, #0
2000bbaa:	e8bd 8ff8 	ldmia.w	sp!, {r3, r4, r5, r6, r7, r8, r9, sl, fp, pc}
2000bbae:	eba8 0809 	sub.w	r8, r8, r9
2000bbb2:	46a3      	mov	fp, r4
2000bbb4:	f854 0b04 	ldr.w	r0, [r4], #4
2000bbb8:	2800      	cmp	r0, #0
2000bbba:	d0f2      	beq.n	2000bba2 <_findenv_r+0x26>
2000bbbc:	4642      	mov	r2, r8
2000bbbe:	4649      	mov	r1, r9
2000bbc0:	f000 f842 	bl	2000bc48 <__strncmp_veneer>
2000bbc4:	2800      	cmp	r0, #0
2000bbc6:	d1f4      	bne.n	2000bbb2 <_findenv_r+0x36>
2000bbc8:	f854 3c04 	ldr.w	r3, [r4, #-4]
2000bbcc:	eb03 0508 	add.w	r5, r3, r8
2000bbd0:	f813 3008 	ldrb.w	r3, [r3, r8]
2000bbd4:	2b3d      	cmp	r3, #61	@ 0x3d
2000bbd6:	d1ec      	bne.n	2000bbb2 <_findenv_r+0x36>
2000bbd8:	f8da 3000 	ldr.w	r3, [sl]
2000bbdc:	4630      	mov	r0, r6
2000bbde:	ebab 0303 	sub.w	r3, fp, r3
2000bbe2:	109b      	asrs	r3, r3, #2
2000bbe4:	603b      	str	r3, [r7, #0]
2000bbe6:	f000 f81d 	bl	2000bc24 <__env_unlock>
2000bbea:	1c68      	adds	r0, r5, #1
2000bbec:	e7dd      	b.n	2000bbaa <_findenv_r+0x2e>
2000bbee:	bf00      	nop
2000bbf0:	2000d900 	.word	0x2000d900

2000bbf4 <memcmp>:
2000bbf4:	3901      	subs	r1, #1
2000bbf6:	4402      	add	r2, r0
2000bbf8:	b510      	push	{r4, lr}
2000bbfa:	4290      	cmp	r0, r2
2000bbfc:	d101      	bne.n	2000bc02 <memcmp+0xe>
2000bbfe:	2000      	movs	r0, #0
2000bc00:	e005      	b.n	2000bc0e <memcmp+0x1a>
2000bc02:	7803      	ldrb	r3, [r0, #0]
2000bc04:	f811 4f01 	ldrb.w	r4, [r1, #1]!
2000bc08:	42a3      	cmp	r3, r4
2000bc0a:	d001      	beq.n	2000bc10 <memcmp+0x1c>
2000bc0c:	1b18      	subs	r0, r3, r4
2000bc0e:	bd10      	pop	{r4, pc}
2000bc10:	3001      	adds	r0, #1
2000bc12:	e7f2      	b.n	2000bbfa <memcmp+0x6>

2000bc14 <__retarget_lock_acquire_recursive>:
2000bc14:	4770      	bx	lr

2000bc16 <__retarget_lock_release_recursive>:
2000bc16:	4770      	bx	lr

2000bc18 <__env_lock>:
2000bc18:	4801      	ldr	r0, [pc, #4]	@ (2000bc20 <__env_lock+0x8>)
2000bc1a:	f7ff bffb 	b.w	2000bc14 <__retarget_lock_acquire_recursive>
2000bc1e:	bf00      	nop
2000bc20:	2000d995 	.word	0x2000d995

2000bc24 <__env_unlock>:
2000bc24:	4801      	ldr	r0, [pc, #4]	@ (2000bc2c <__env_unlock+0x8>)
2000bc26:	f7ff bff6 	b.w	2000bc16 <__retarget_lock_release_recursive>
2000bc2a:	bf00      	nop
2000bc2c:	2000d995 	.word	0x2000d995

2000bc30 <_Unwind_GetDataRelBase>:
2000bc30:	b508      	push	{r3, lr}
2000bc32:	f000 f829 	bl	2000bc88 <__abort_veneer>

2000bc36 <_Unwind_GetTextRelBase>:
2000bc36:	b508      	push	{r3, lr}
2000bc38:	f7ff fffa 	bl	2000bc30 <_Unwind_GetDataRelBase>
2000bc3c:	0000      	movs	r0, r0
	...

2000bc40 <__memcpy_veneer>:
2000bc40:	f85f f000 	ldr.w	pc, [pc]	@ 2000bc44 <__memcpy_veneer+0x4>
2000bc44:	081b4705 	.word	0x081b4705

2000bc48 <__strncmp_veneer>:
2000bc48:	f85f f000 	ldr.w	pc, [pc]	@ 2000bc4c <__strncmp_veneer+0x4>
2000bc4c:	081b311b 	.word	0x081b311b

2000bc50 <__fwrite_veneer>:
2000bc50:	f85f f000 	ldr.w	pc, [pc]	@ 2000bc54 <__fwrite_veneer+0x4>
2000bc54:	081b20fd 	.word	0x081b20fd

2000bc58 <__strchr_veneer>:
2000bc58:	f85f f000 	ldr.w	pc, [pc]	@ 2000bc5c <__strchr_veneer+0x4>
2000bc5c:	081b2cbf 	.word	0x081b2cbf

2000bc60 <__memset_veneer>:
2000bc60:	f85f f000 	ldr.w	pc, [pc]	@ 2000bc64 <__memset_veneer+0x4>
2000bc64:	081b2c91 	.word	0x081b2c91

2000bc68 <____aeabi_f2d_veneer>:
2000bc68:	f85f f000 	ldr.w	pc, [pc]	@ 2000bc6c <____aeabi_f2d_veneer+0x4>
2000bc6c:	081d0d35 	.word	0x081d0d35

2000bc70 <__strlen_veneer>:
2000bc70:	f85f f000 	ldr.w	pc, [pc]	@ 2000bc74 <__strlen_veneer+0x4>
2000bc74:	081b471f 	.word	0x081b471f

2000bc78 <__fputs_veneer>:
2000bc78:	f85f f000 	ldr.w	pc, [pc]	@ 2000bc7c <__fputs_veneer+0x4>
2000bc7c:	081b1c49 	.word	0x081b1c49

2000bc80 <__fputc_veneer>:
2000bc80:	f85f f000 	ldr.w	pc, [pc]	@ 2000bc84 <__fputc_veneer+0x4>
2000bc84:	081b1bb9 	.word	0x081b1bb9

2000bc88 <__abort_veneer>:
2000bc88:	f85f f000 	ldr.w	pc, [pc]	@ 2000bc8c <__abort_veneer+0x4>
2000bc8c:	081b0009 	.word	0x081b0009

2000bc90 <__puts_veneer>:
2000bc90:	f85f f000 	ldr.w	pc, [pc]	@ 2000bc94 <__puts_veneer+0x4>
2000bc94:	081b23b1 	.word	0x081b23b1

2000bc98 <__printf_veneer>:
2000bc98:	f85f f000 	ldr.w	pc, [pc]	@ 2000bc9c <__printf_veneer+0x4>
2000bc9c:	081b2269 	.word	0x081b2269

2000bca0 <__strtoul_veneer>:
2000bca0:	f85f f000 	ldr.w	pc, [pc]	@ 2000bca4 <__strtoul_veneer+0x4>
2000bca4:	081b114d 	.word	0x081b114d

2000bca8 <__strcmp_veneer>:
2000bca8:	f85f f000 	ldr.w	pc, [pc]	@ 2000bcac <__strcmp_veneer+0x4>
2000bcac:	081b46c5 	.word	0x081b46c5

2000bcb0 <__sprintf_veneer>:
2000bcb0:	f85f f000 	ldr.w	pc, [pc]	@ 2000bcb4 <__sprintf_veneer+0x4>
2000bcb4:	081b2659 	.word	0x081b2659

2000bcb8 <__putchar_veneer>:
2000bcb8:	f85f f000 	ldr.w	pc, [pc]	@ 2000bcbc <__putchar_veneer+0x4>
2000bcbc:	081b230d 	.word	0x081b230d
2000bcc0:	8101b108 	.word	0x8101b108
2000bcc4:	8400b0b0 	.word	0x8400b0b0
2000bcc8:	00000000 	.word	0x00000000
2000bccc:	8101b108 	.word	0x8101b108
2000bcd0:	8400b0b0 	.word	0x8400b0b0
2000bcd4:	00000000 	.word	0x00000000
2000bcd8:	8101b108 	.word	0x8101b108
2000bcdc:	8400b0b0 	.word	0x8400b0b0
2000bce0:	00000000 	.word	0x00000000
2000bce4:	7ffff415 	.word	0x7ffff415
2000bce8:	0014afb0 	.word	0x0014afb0
2000bcec:	011910ff 	.word	0x011910ff
2000bcf0:	05a82011 	.word	0x05a82011
2000bcf4:	06a60000 	.word	0x06a60000
2000bcf8:	0108b404 	.word	0x0108b404
2000bcfc:	01ee06d0 	.word	0x01ee06d0
2000bd00:	00010000 	.word	0x00010000
2000bd04:	00000000 	.word	0x00000000
2000bd08:	7ffff3f1 	.word	0x7ffff3f1
2000bd0c:	01b10884 	.word	0x01b10884
2000bd10:	00b0b0b0 	.word	0x00b0b0b0
2000bd14:	010d10ff 	.word	0x010d10ff
2000bd18:	08060204 	.word	0x08060204
2000bd1c:	00000101 	.word	0x00000101
2000bd20:	00000000 	.word	0x00000000
2000bd24:	8101b108 	.word	0x8101b108
2000bd28:	8400b0b0 	.word	0x8400b0b0
2000bd2c:	00000000 	.word	0x00000000
2000bd30:	8101b108 	.word	0x8101b108
2000bd34:	8400b0b0 	.word	0x8400b0b0
2000bd38:	00000000 	.word	0x00000000
2000bd3c:	7ffff3bd 	.word	0x7ffff3bd
2000bd40:	0001aab0 	.word	0x0001aab0
2000bd44:	012910ff 	.word	0x012910ff
2000bd48:	00303218 	.word	0x00303218
2000bd4c:	a4046c00 	.word	0xa4046c00
2000bd50:	2e760301 	.word	0x2e760301
2000bd54:	01c00000 	.word	0x01c00000
2000bd58:	0001e818 	.word	0x0001e818
2000bd5c:	000e01e2 	.word	0x000e01e2
2000bd60:	01000200 	.word	0x01000200
2000bd64:	0000007d 	.word	0x0000007d
2000bd68:	00000000 	.word	0x00000000
2000bd6c:	00001794 	.word	0x00001794
2000bd70:	7ffff389 	.word	0x7ffff389
2000bd74:	0002afb0 	.word	0x0002afb0
2000bd78:	011910ff 	.word	0x011910ff
2000bd7c:	3c0a320e 	.word	0x3c0a320e
2000bd80:	bc3c7a01 	.word	0xbc3c7a01
2000bd84:	01c40001 	.word	0x01c40001
2000bd88:	01000004 	.word	0x01000004
	...
2000bd94:	7ffff365 	.word	0x7ffff365
2000bd98:	00b108a9 	.word	0x00b108a9
2000bd9c:	0001ffff 	.word	0x0001ffff
2000bda0:	8101b108 	.word	0x8101b108
2000bda4:	8400b0b0 	.word	0x8400b0b0
2000bda8:	00000000 	.word	0x00000000
2000bdac:	8101b108 	.word	0x8101b108
2000bdb0:	8400b0b0 	.word	0x8400b0b0
2000bdb4:	00000000 	.word	0x00000000

2000bdb8 <__exidx_start>:
2000bdb8:	7fffafc0 	.word	0x7fffafc0
2000bdbc:	00000001 	.word	0x00000001
2000bdc0:	7fffb050 	.word	0x7fffb050
2000bdc4:	8002a9b0 	.word	0x8002a9b0
2000bdc8:	7fffb0e0 	.word	0x7fffb0e0
2000bdcc:	80a8b0b0 	.word	0x80a8b0b0
2000bdd0:	7fffb130 	.word	0x7fffb130
2000bdd4:	00000001 	.word	0x00000001
2000bdd8:	7fffb13c 	.word	0x7fffb13c
2000bddc:	80aab0b0 	.word	0x80aab0b0
2000bde0:	7fffb174 	.word	0x7fffb174
2000bde4:	80b277ae 	.word	0x80b277ae
2000bde8:	7fffb250 	.word	0x7fffb250
2000bdec:	00000001 	.word	0x00000001
2000bdf0:	7fffb24c 	.word	0x7fffb24c
2000bdf4:	803a3fab 	.word	0x803a3fab
2000bdf8:	7fffb2ac 	.word	0x7fffb2ac
2000bdfc:	00000001 	.word	0x00000001
2000be00:	7fffb2b8 	.word	0x7fffb2b8
2000be04:	80aab0b0 	.word	0x80aab0b0
2000be08:	7fffb2f4 	.word	0x7fffb2f4
2000be0c:	00000001 	.word	0x00000001
2000be10:	7fffb3a8 	.word	0x7fffb3a8
2000be14:	80b210ab 	.word	0x80b210ab
2000be18:	7fffb41c 	.word	0x7fffb41c
2000be1c:	8008afb0 	.word	0x8008afb0
2000be20:	7fffb6c4 	.word	0x7fffb6c4
2000be24:	00000001 	.word	0x00000001
2000be28:	7fffb6c8 	.word	0x7fffb6c8
2000be2c:	80033fac 	.word	0x80033fac
2000be30:	7fffb9a8 	.word	0x7fffb9a8
2000be34:	00000001 	.word	0x00000001
2000be38:	7fffbb88 	.word	0x7fffbb88
2000be3c:	8003a8b0 	.word	0x8003a8b0
2000be40:	7fffbb98 	.word	0x7fffbb98
2000be44:	00000001 	.word	0x00000001
2000be48:	7fffbb94 	.word	0x7fffbb94
2000be4c:	8004adb0 	.word	0x8004adb0
2000be50:	7fffbe8c 	.word	0x7fffbe8c
2000be54:	8003a8b0 	.word	0x8003a8b0
2000be58:	7fffbeb0 	.word	0x7fffbeb0
2000be5c:	7fffff44 	.word	0x7fffff44
2000be60:	7fffbeb4 	.word	0x7fffbeb4
2000be64:	7fffff48 	.word	0x7fffff48
2000be68:	7fffbec0 	.word	0x7fffbec0
2000be6c:	00000001 	.word	0x00000001

2000be70 <__exidx_end>:
2000be70:	75657571 	.word	0x75657571
2000be74:	6e692065 	.word	0x6e692065
2000be78:	00007469 	.word	0x00007469
2000be7c:	3a647473 	.word	0x3a647473
2000be80:	7369763a 	.word	0x7369763a
2000be84:	203a7469 	.word	0x203a7469
2000be88:	69726176 	.word	0x69726176
2000be8c:	20746e61 	.word	0x20746e61
2000be90:	76207369 	.word	0x76207369
2000be94:	65756c61 	.word	0x65756c61
2000be98:	7373656c 	.word	0x7373656c
2000be9c:	00000000 	.word	0x00000000
2000bea0:	75657571 	.word	0x75657571
2000bea4:	65642065 	.word	0x65642065
2000bea8:	74696e69 	.word	0x74696e69
2000beac:	00000000 	.word	0x00000000
2000beb0:	74617473 	.word	0x74617473
2000beb4:	64206369 	.word	0x64206369
2000beb8:	72747365 	.word	0x72747365
2000bebc:	6f746375 	.word	0x6f746375
2000bec0:	00000072 	.word	0x00000072
2000bec4:	76726553 	.word	0x76726553
2000bec8:	20656369 	.word	0x20656369
2000becc:	5547202d 	.word	0x5547202d
2000bed0:	73692049 	.word	0x73692049
2000bed4:	61657220 	.word	0x61657220
2000bed8:	65207964 	.word	0x65207964
2000bedc:	746e6576 	.word	0x746e6576
2000bee0:	00000000 	.word	0x00000000
2000bee4:	00000001 	.word	0x00000001
2000bee8:	00000002 	.word	0x00000002
2000beec:	00000003 	.word	0x00000003
2000bef0:	00000004 	.word	0x00000004
2000bef4:	00000005 	.word	0x00000005
2000bef8:	76726553 	.word	0x76726553
2000befc:	20656369 	.word	0x20656369
2000bf00:	7551202d 	.word	0x7551202d
2000bf04:	65207469 	.word	0x65207469
2000bf08:	746e6576 	.word	0x746e6576
2000bf0c:	00000000 	.word	0x00000000
2000bf10:	7265730a 	.word	0x7265730a
2000bf14:	65636976 	.word	0x65636976
2000bf18:	20736920 	.word	0x20736920
2000bf1c:	72617473 	.word	0x72617473
2000bf20:	00646574 	.word	0x00646574
2000bf24:	72646461 	.word	0x72646461
2000bf28:	69727020 	.word	0x69727020
2000bf2c:	2020666e 	.word	0x2020666e
2000bf30:	20202020 	.word	0x20202020
2000bf34:	7830203a 	.word	0x7830203a
2000bf38:	6c383025 	.word	0x6c383025
2000bf3c:	00000a58 	.word	0x00000a58
2000bf40:	72646461 	.word	0x72646461
2000bf44:	6c616d20 	.word	0x6c616d20
2000bf48:	20636f6c 	.word	0x20636f6c
2000bf4c:	20202020 	.word	0x20202020
2000bf50:	7830203a 	.word	0x7830203a
2000bf54:	6c383025 	.word	0x6c383025
2000bf58:	00000a58 	.word	0x00000a58
2000bf5c:	72646461 	.word	0x72646461
2000bf60:	6c616d20 	.word	0x6c616d20
2000bf64:	5f636f6c 	.word	0x5f636f6c
2000bf68:	20202072 	.word	0x20202072
2000bf6c:	7830203a 	.word	0x7830203a
2000bf70:	6c383025 	.word	0x6c383025
2000bf74:	00000a58 	.word	0x00000a58
2000bf78:	72646461 	.word	0x72646461
2000bf7c:	65726620 	.word	0x65726620
2000bf80:	20202065 	.word	0x20202065
2000bf84:	20202020 	.word	0x20202020
2000bf88:	7830203a 	.word	0x7830203a
2000bf8c:	6c383025 	.word	0x6c383025
2000bf90:	00000a58 	.word	0x00000a58
2000bf94:	72646461 	.word	0x72646461
2000bf98:	6c616320 	.word	0x6c616320
2000bf9c:	20636f6c 	.word	0x20636f6c
2000bfa0:	20202020 	.word	0x20202020
2000bfa4:	7830203a 	.word	0x7830203a
2000bfa8:	6c383025 	.word	0x6c383025
2000bfac:	00000a58 	.word	0x00000a58
2000bfb0:	72646461 	.word	0x72646461
2000bfb4:	61657220 	.word	0x61657220
2000bfb8:	636f6c6c 	.word	0x636f6c6c
2000bfbc:	20202020 	.word	0x20202020
2000bfc0:	7830203a 	.word	0x7830203a
2000bfc4:	6c383025 	.word	0x6c383025
2000bfc8:	00000a58 	.word	0x00000a58
2000bfcc:	6e72656b 	.word	0x6e72656b
2000bfd0:	20206c65 	.word	0x20206c65
2000bfd4:	20202020 	.word	0x20202020
2000bfd8:	20202020 	.word	0x20202020
2000bfdc:	7830203a 	.word	0x7830203a
2000bfe0:	6c383025 	.word	0x6c383025
2000bfe4:	00000a58 	.word	0x00000a58
2000bfe8:	6e72656b 	.word	0x6e72656b
2000bfec:	6d2e6c65 	.word	0x6d2e6c65
2000bff0:	20206d65 	.word	0x20206d65
2000bff4:	20202020 	.word	0x20202020
2000bff8:	7830203a 	.word	0x7830203a
2000bffc:	6c383025 	.word	0x6c383025
2000c000:	00000a58 	.word	0x00000a58
2000c004:	286e6973 	.word	0x286e6973
2000c008:	20293039 	.word	0x20293039
2000c00c:	20202020 	.word	0x20202020
2000c010:	20202020 	.word	0x20202020
2000c014:	6625203a 	.word	0x6625203a
2000c018:	0000000a 	.word	0x0000000a
2000c01c:	2f2f2f2f 	.word	0x2f2f2f2f
2000c020:	2f2f2f2f 	.word	0x2f2f2f2f
2000c024:	2f2f2f2f 	.word	0x2f2f2f2f
2000c028:	2f2f2f2f 	.word	0x2f2f2f2f
2000c02c:	2f2f2f2f 	.word	0x2f2f2f2f
2000c030:	2f2f2f2f 	.word	0x2f2f2f2f
2000c034:	2f2f2f2f 	.word	0x2f2f2f2f
2000c038:	00000000 	.word	0x00000000
2000c03c:	2f2f2f2f 	.word	0x2f2f2f2f
2000c040:	6c616d20 	.word	0x6c616d20
2000c044:	20636f6c 	.word	0x20636f6c
2000c048:	74736574 	.word	0x74736574
2000c04c:	00000000 	.word	0x00000000
2000c050:	72646461 	.word	0x72646461
2000c054:	73657420 	.word	0x73657420
2000c058:	20202074 	.word	0x20202074
2000c05c:	20202020 	.word	0x20202020
2000c060:	7830203a 	.word	0x7830203a
2000c064:	6c383025 	.word	0x6c383025
2000c068:	00000a58 	.word	0x00000a58
2000c06c:	756c6176 	.word	0x756c6176
2000c070:	65742065 	.word	0x65742065
2000c074:	20207473 	.word	0x20207473
2000c078:	20202020 	.word	0x20202020
2000c07c:	7830203a 	.word	0x7830203a
2000c080:	6c383025 	.word	0x6c383025
2000c084:	00000a58 	.word	0x00000a58
2000c088:	2f2f2f2f 	.word	0x2f2f2f2f
2000c08c:	61657220 	.word	0x61657220
2000c090:	636f6c6c 	.word	0x636f6c6c
2000c094:	73657420 	.word	0x73657420
2000c098:	00000074 	.word	0x00000074
2000c09c:	756c6176 	.word	0x756c6176
2000c0a0:	65742065 	.word	0x65742065
2000c0a4:	305b7473 	.word	0x305b7473
2000c0a8:	2020205d 	.word	0x2020205d
2000c0ac:	7830203a 	.word	0x7830203a
2000c0b0:	6c383025 	.word	0x6c383025
2000c0b4:	00000a58 	.word	0x00000a58
2000c0b8:	756c6176 	.word	0x756c6176
2000c0bc:	65742065 	.word	0x65742065
2000c0c0:	315b7473 	.word	0x315b7473
2000c0c4:	2020205d 	.word	0x2020205d
2000c0c8:	7830203a 	.word	0x7830203a
2000c0cc:	6c383025 	.word	0x6c383025
2000c0d0:	00000a58 	.word	0x00000a58
2000c0d4:	2f2f2f2f 	.word	0x2f2f2f2f
2000c0d8:	6c616320 	.word	0x6c616320
2000c0dc:	20636f6c 	.word	0x20636f6c
2000c0e0:	74736574 	.word	0x74736574
2000c0e4:	00000000 	.word	0x00000000
2000c0e8:	756c6176 	.word	0x756c6176
2000c0ec:	65742065 	.word	0x65742065
2000c0f0:	325b7473 	.word	0x325b7473
2000c0f4:	2020205d 	.word	0x2020205d
2000c0f8:	7830203a 	.word	0x7830203a
2000c0fc:	6c383025 	.word	0x6c383025
2000c100:	00000a58 	.word	0x00000a58
2000c104:	756c6176 	.word	0x756c6176
2000c108:	65742065 	.word	0x65742065
2000c10c:	335b7473 	.word	0x335b7473
2000c110:	2020205d 	.word	0x2020205d
2000c114:	7830203a 	.word	0x7830203a
2000c118:	6c383025 	.word	0x6c383025
2000c11c:	00000a58 	.word	0x00000a58
2000c120:	206e7572 	.word	0x206e7572
2000c124:	00495547 	.word	0x00495547
2000c128:	0000000a 	.word	0x0000000a
2000c12c:	7262735f 	.word	0x7262735f
2000c130:	6425206b 	.word	0x6425206b
2000c134:	0000000a 	.word	0x0000000a
2000c138:	00000030 	.word	0x00000030
2000c13c:	64696f76 	.word	0x64696f76
2000c140:	735f202a 	.word	0x735f202a
2000c144:	286b7262 	.word	0x286b7262
2000c148:	64727470 	.word	0x64727470
2000c14c:	5f666669 	.word	0x5f666669
2000c150:	00002974 	.word	0x00002974
2000c154:	432f2e2e 	.word	0x432f2e2e
2000c158:	2f65726f 	.word	0x2f65726f
2000c15c:	2f637253 	.word	0x2f637253
2000c160:	6d737973 	.word	0x6d737973
2000c164:	632e6d65 	.word	0x632e6d65
2000c168:	00007070 	.word	0x00007070
2000c16c:	6c6c616d 	.word	0x6c6c616d
2000c170:	3020636f 	.word	0x3020636f
2000c174:	38302578 	.word	0x38302578
2000c178:	75252058 	.word	0x75252058
2000c17c:	000a6220 	.word	0x000a6220
2000c180:	65657266 	.word	0x65657266
2000c184:	30202020 	.word	0x30202020
2000c188:	38302578 	.word	0x38302578
2000c18c:	00000a58 	.word	0x00000a58
2000c190:	65737361 	.word	0x65737361
2000c194:	203a7472 	.word	0x203a7472
2000c198:	25207325 	.word	0x25207325
2000c19c:	73252064 	.word	0x73252064
2000c1a0:	0a732520 	.word	0x0a732520
2000c1a4:	00000000 	.word	0x00000000
2000c1a8:	74697865 	.word	0x74697865
2000c1ac:	0a642520 	.word	0x0a642520
2000c1b0:	00000000 	.word	0x00000000

2000c1b4 <standard_subs>:
2000c1b4:	00000074 2000cb6c 00000003 2000cb6c     t...l.. ....l.. 
2000c1c4:	00000003 00000000 00000000 00000061     ............a...
2000c1d4:	2000ced8 0000000e 2000ced8 0000000e     ... ....... ....
2000c1e4:	2000cee8 00000009 00000062 2000cef4     ... ....b...... 
2000c1f4:	00000011 2000cef4 00000011 2000cf08     ....... ....... 
2000c204:	0000000c 00000073 2000cf18 0000000b     ....s...... ....
2000c214:	2000cf24 00000046 2000cf08 0000000c     $.. F...... ....
2000c224:	00000069 2000cf6c 0000000c 2000cf7c     i...l.. ....|.. 
2000c234:	00000031 2000cfb0 0000000d 0000006f     1...... ....o...
2000c244:	2000cfc0 0000000c 2000cfd0 00000031     ... ....... 1...
2000c254:	2000d004 0000000d 00000064 2000d014     ... ....d...... 
2000c264:	0000000d 2000d024 00000032 2000d058     ....$.. 2...X.. 
2000c274:	0000000e                                ....

2000c278 <cplus_demangle_builtin_types>:
2000c278:	2000d2c0 0000000b 2000d2c0 0000000b     ... ....... ....
2000c288:	00000000 2000d2cc 00000004 2000d2d4     ....... ....... 
2000c298:	00000007 00000007 2000d2dc 00000004     ........... ....
2000c2a8:	2000d2e4 00000004 00000000 2000d2ec     ... ........... 
2000c2b8:	00000006 2000d2ec 00000006 00000008     ....... ........
2000c2c8:	2000d2f4 0000000b 2000d2f4 0000000b     ... ....... ....
2000c2d8:	00000008 2000d300 00000005 2000d300     ....... ....... 
2000c2e8:	00000005 00000008 2000d308 0000000a     ........... ....
2000c2f8:	2000d308 0000000a 00000008 2000d314     ... ........... 
2000c308:	0000000d 2000d314 0000000d 00000000     ....... ........
2000c318:	2000d324 00000003 2000d324 00000003     $.. ....$.. ....
2000c328:	00000001 2000d328 0000000c 2000d338     ....(.. ....8.. 
2000c338:	00000008 00000002 00000000 00000000     ................
	...
2000c354:	2000d344 00000004 2000d344 00000004     D.. ....D.. ....
2000c364:	00000003 2000d34c 0000000d 2000d34c     ....L.. ....L.. 
2000c374:	0000000d 00000004 2000d35c 00000008     ........\.. ....
2000c384:	2000d35c 00000008 00000000 2000d368     \.. ........h.. 
2000c394:	00000011 2000d368 00000011 00000000     ....h.. ........
	...
2000c3e0:	2000d37c 00000005 2000d37c 00000005     |.. ....|.. ....
2000c3f0:	00000000 2000d384 0000000e 2000d384     ....... ....... 
2000c400:	0000000e 00000000 00000000 00000000     ................
	...
2000c41c:	2000d394 00000004 2000d394 00000004     ... ....... ....
2000c42c:	00000009 2000d39c 00000007 2000d2dc     ....... ....... 
2000c43c:	00000004 00000000 2000d3a4 00000009     ........... ....
2000c44c:	2000d344 00000004 00000005 2000d3b0     D.. ........... 
2000c45c:	00000012 2000d3b0 00000012 00000006     ....... ........
2000c46c:	2000cda4 00000003 2000cda4 00000003     ... ....... ....
2000c47c:	00000000 2000d3c4 00000009 2000d3c4     ....... ....... 
2000c48c:	00000009 00000000 2000d3d0 00000009     ........... ....
2000c49c:	2000d3d0 00000009 00000000 2000d3dc     ... ........... 
2000c4ac:	0000000a 2000d3dc 0000000a 00000000     ....... ........
2000c4bc:	2000d3e8 00000004 2000d3e8 00000004     ... ....... ....
2000c4cc:	00000008 2000d3f0 00000007 2000d3f0     ....... ....... 
2000c4dc:	00000007 00000000 2000d3f8 00000008     ........... ....
2000c4ec:	2000d3f8 00000008 00000000 2000d404     ... ........... 
2000c4fc:	00000008 2000d404 00000008 00000000     ....... ........
2000c50c:	2000cb70 00000011 2000cb70 00000011     p.. ....p.. ....
2000c51c:	00000000 2000d410 00000006 2000d410     ....... ....... 
2000c52c:	00000006 00000008 2000d418 0000000f     ........... ....
2000c53c:	2000d418 0000000f 00000008              ... ........

2000c548 <cplus_demangle_operators>:
2000c548:	2000d068 2000d06c 00000002 00000002     h.. l.. ........
2000c558:	2000d070 2000d074 00000001 00000002     p.. t.. ........
2000c568:	2000d078 2000ce88 00000002 00000002     x.. ... ........
2000c578:	2000d07c 2000d080 00000001 00000001     |.. ... ........
2000c588:	2000d084 2000d080 00000001 00000002     ... ... ........
2000c598:	2000d414 2000d088 00000008 00000001     ... ... ........
2000c5a8:	2000d094 2000d098 00000009 00000001     ... ... ........
2000c5b8:	2000d0a4 2000d088 00000008 00000001     ... ... ........
2000c5c8:	2000d0a8 2000d0ac 0000000a 00000002     ... ... ........
2000c5d8:	2000cd54 2000d0b8 00000002 00000002     T.. ... ........
2000c5e8:	2000d0bc 2000d0c0 00000001 00000002     ... ... ........
2000c5f8:	2000d0c4 2000d0c8 00000001 00000001     ... ... ........
2000c608:	2000d0cc 2000d0d0 00000002 00000002     ... ... ........
2000c618:	2000d0d4 2000d0d8 00000006 00000003     ... ... ........
2000c628:	2000d0e0 2000d0e4 00000009 00000001     ... ... ........
2000c638:	2000d0f0 2000d0f4 0000000c 00000002     ... ... ........
2000c648:	2000d104 2000d108 00000001 00000001     ... ... ........
2000c658:	2000d10c 2000d074 00000001 00000002     ... t.. ........
2000c668:	2000d110 2000d114 00000007 00000001     ... ... ........
2000c678:	2000d11c 2000d120 00000002 00000002     ...  .. ........
2000c688:	2000d124 2000d128 00000001 00000002     $.. (.. ........
2000c698:	2000d12c 2000d130 00000001 00000002     ,.. 0.. ........
2000c6a8:	2000d134 2000d0dc 00000002 00000002     4.. ... ........
2000c6b8:	2000d138 2000d13c 00000002 00000002     8.. <.. ........
2000c6c8:	2000d140 2000d144 00000001 00000002     @.. D.. ........
2000c6d8:	2000d148 2000d14c 00000002 00000002     H.. L.. ........
2000c6e8:	2000d150 2000cda4 00000003 00000003     P.. ... ........
2000c6f8:	2000d154 2000cda4 00000003 00000003     T.. ... ........
2000c708:	2000d158 2000cda4 00000003 00000002     X.. ... ........
2000c718:	2000d15c 2000cda4 00000003 00000002     \.. ... ........
2000c728:	2000d160 2000d164 00000002 00000002     `.. d.. ........
2000c738:	2000d168 2000cb90 00000002 00000001     h.. ... ........
2000c748:	2000d16c 2000d170 00000001 00000002     l.. p.. ........
2000c758:	2000cd58 2000d174 00000002 00000002     X.. t.. ........
2000c768:	2000d178 2000d17c 00000003 00000002     x.. |.. ........
2000c778:	2000d2f0 2000d180 00000002 00000002     ... ... ........
2000c788:	2000d184 2000d188 0000000b 00000001     ... ... ........
2000c798:	2000d194 2000d198 00000002 00000002     ... ... ........
2000c7a8:	2000d19c 2000d1a0 00000001 00000002     ... ... ........
2000c7b8:	2000d1a4 2000d1a8 00000002 00000002     ... ... ........
2000c7c8:	2000d1ac 2000d1b0 00000002 00000002     ... ... ........
2000c7d8:	2000d1b4 2000d1b8 00000001 00000002     ... ... ........
2000c7e8:	2000d1bc 2000d108 00000001 00000002     ... ... ........
2000c7f8:	2000d1c0 2000d1c4 00000002 00000001     ... ... ........
2000c808:	2000d1c8 2000d1cc 00000005 00000003     ... ... ........
2000c818:	2000d1d4 2000d1d8 00000002 00000002     ... ... ........
2000c828:	2000d1dc 2000d1b8 00000001 00000001     ... ... ........
2000c838:	2000d1e0 2000d1e4 00000001 00000001     ... ... ........
2000c848:	2000d1e8 2000d1ec 00000003 00000003     ... ... ........
2000c858:	2000d1f0 2000d1f4 00000002 00000002     ... ... ........
2000c868:	2000d1f8 2000d1fc 00000002 00000002     ... ... ........
2000c878:	2000d200 2000d204 00000001 00000002     ... ... ........
2000c888:	2000d208 2000d20c 00000002 00000002     ... ... ........
2000c898:	2000d210 2000d214 00000001 00000002     ... ... ........
2000c8a8:	2000d218 2000d21c 00000003 00000002     ... ... ........
2000c8b8:	2000d220 2000d224 00000002 00000001      .. $.. ........
2000c8c8:	2000d228 2000d214 00000001 00000001     (.. ... ........
2000c8d8:	2000d22c 2000d230 00000002 00000002     ,.. 0.. ........
2000c8e8:	2000cd5c 2000d234 00000001 00000003     \.. 4.. ........
2000c8f8:	2000d238 2000d23c 00000002 00000002     8.. <.. ........
2000c908:	2000d240 2000d244 00000003 00000002     @.. D.. ........
2000c918:	2000d248 2000d24c 00000010 00000002     H.. L.. ........
2000c928:	2000d260 2000d264 00000001 00000002     `.. d.. ........
2000c938:	2000d268 2000d26c 00000002 00000002     h.. l.. ........
2000c948:	2000d270 2000d274 00000009 00000001     p.. t.. ........
2000c958:	2000d280 2000d274 00000009 00000001     ... t.. ........
2000c968:	2000d284 2000d288 0000000b 00000002     ... ... ........
2000c978:	2000ce3c 2000d294 00000003 00000002     <.. ... ........
2000c988:	2000d298 2000d29c 00000007 00000001     ... ... ........
2000c998:	2000d2a4 2000d29c 00000007 00000001     ... ... ........
2000c9a8:	2000d2a8 2000d2ac 00000005 00000000     ... ... ........
2000c9b8:	2000d2b4 2000d2b8 00000006 00000001     ... ... ........
	...

2000c9d8 <CSWTCH.176>:
2000c9d8:	2000cecc 2000ced0 2000ced4              ... ... ... 

2000c9e4 <_ZZNSt19_Sp_make_shared_tag5_S_tiEvE5__tag>:
	...

2000c9ec <_ZTSSt19_Sp_make_shared_tag>:
2000c9ec:	39317453 5f70535f 656b616d 6168735f     St19_Sp_make_sha
2000c9fc:	5f646572 00676174                       red_tag.

2000ca04 <_ZTISt19_Sp_make_shared_tag>:
2000ca04:	2000d4cc 2000c9ec 3a647473 6461623a     ... ... std::bad
2000ca14:	6c6c615f 0000636f 3a647473 6461623a     _alloc..std::bad
2000ca24:	7272615f 6e5f7961 6c5f7765 74676e65     _array_new_lengt
2000ca34:	00000068 42494c47 5f585843 414e5554     h...GLIBCXX_TUNA
2000ca44:	53454c42 00000000 5f6a626f 657a6973     BLES....obj_size
2000ca54:	00000000 5f6a626f 6e756f63 00000074     ....obj_count...
2000ca64:	62696c67 2e787863 705f6865 006c6f6f     glibcxx.eh_pool.
2000ca74:	3a647473 6461623a 6378655f 69747065     std::bad_excepti
2000ca84:	00006e6f 6d726574 74616e69 61632065     on..terminate ca
2000ca94:	64656c6c 63657220 69737275 796c6576     lled recursively
2000caa4:	0000000a 6d726574 74616e69 61632065     ....terminate ca
2000cab4:	64656c6c 74666120 74207265 776f7268     lled after throw
2000cac4:	20676e69 69206e61 6174736e 2065636e     ing an instance 
2000cad4:	2720666f 00000000 00000a27 6d726574     of '....'...term
2000cae4:	74616e69 61632065 64656c6c 74697720     inate called wit
2000caf4:	74756f68 206e6120 69746361 65206576     hout an active e
2000cb04:	70656378 6e6f6974 0000000a 68772020     xception....  wh
2000cb14:	29287461 0020203a 00006425 4f4c475f     at():  .%d.._GLO
2000cb24:	5f4c4142 00000000 6f6e6128 6f6d796e     BAL_....(anonymo
2000cb34:	6e207375 73656d61 65636170 00000029     us namespace)...
2000cb44:	6f747561 00000000 6c636564 65707974     auto....decltype
2000cb54:	74756128 0000296f 69727473 6c20676e     (auto)..string l
2000cb64:	72657469 00006c61 00647473 6c636564     iteral..std.decl
2000cb74:	65707974 6c756e28 7274706c 00000029     type(nullptr)...
2000cb84:	6962615b 0000003a 0000202c 00003a3a     [abi:..., ..::..
2000cb94:	6665647b 746c7561 67726120 00000023     {default arg#...
2000cba4:	003a3a7d 6f747561 0000003a              }::.auto:...

2000cbb0 <.LC14>:
2000cbb0:	706d6574 	.word	0x706d6574
2000cbb4:	6574616c 	.word	0x6574616c
2000cbb8:	72617020 	.word	0x72617020
2000cbbc:	74656d61 	.word	0x74656d61
2000cbc0:	6f207265 	.word	0x6f207265
2000cbc4:	63656a62 	.word	0x63656a62
2000cbc8:	6f662074 	.word	0x6f662074
2000cbcc:	00002072 	.word	0x00002072

2000cbd0 <.LC15>:
2000cbd0:	74696e69 	.word	0x74696e69
2000cbd4:	696c6169 	.word	0x696c6169
2000cbd8:	2072657a 	.word	0x2072657a
2000cbdc:	20726f66 	.word	0x20726f66
2000cbe0:	75646f6d 	.word	0x75646f6d
2000cbe4:	0020656c 	.word	0x0020656c
2000cbe8:	62617476 	.word	0x62617476
2000cbec:	6620656c 	.word	0x6620656c
2000cbf0:	0020726f 	.word	0x0020726f

2000cbf4 <.LC17>:
2000cbf4:	20545456 	.word	0x20545456
2000cbf8:	20726f66 	.word	0x20726f66
2000cbfc:	00000000 	.word	0x00000000

2000cc00 <.LC18>:
2000cc00:	736e6f63 	.word	0x736e6f63
2000cc04:	63757274 	.word	0x63757274
2000cc08:	6e6f6974 	.word	0x6e6f6974
2000cc0c:	61747620 	.word	0x61747620
2000cc10:	20656c62 	.word	0x20656c62
2000cc14:	20726f66 	.word	0x20726f66
2000cc18:	00000000 	.word	0x00000000
2000cc1c:	2d6e692d 	.word	0x2d6e692d
2000cc20:	00000000 	.word	0x00000000
2000cc24:	65707974 	.word	0x65707974
2000cc28:	6f666e69 	.word	0x6f666e69
2000cc2c:	726f6620 	.word	0x726f6620
2000cc30:	00000020 	.word	0x00000020

2000cc34 <.LC21>:
2000cc34:	65707974 	.word	0x65707974
2000cc38:	6f666e69 	.word	0x6f666e69
2000cc3c:	6d616e20 	.word	0x6d616e20
2000cc40:	6f662065 	.word	0x6f662065
2000cc44:	00002072 	.word	0x00002072

2000cc48 <.LC22>:
2000cc48:	65707974 	.word	0x65707974
2000cc4c:	6f666e69 	.word	0x6f666e69
2000cc50:	206e6620 	.word	0x206e6620
2000cc54:	20726f66 	.word	0x20726f66
2000cc58:	00000000 	.word	0x00000000

2000cc5c <.LC23>:
2000cc5c:	2d6e6f6e 	.word	0x2d6e6f6e

2000cc60 <.LC24>:
2000cc60:	74726976 	.word	0x74726976
2000cc64:	206c6175 	.word	0x206c6175
2000cc68:	6e756874 	.word	0x6e756874
2000cc6c:	6f74206b 	.word	0x6f74206b
2000cc70:	00000020 	.word	0x00000020

2000cc74 <.LC25>:
2000cc74:	61766f63 	.word	0x61766f63
2000cc78:	6e616972 	.word	0x6e616972
2000cc7c:	65722074 	.word	0x65722074
2000cc80:	6e727574 	.word	0x6e727574
2000cc84:	75687420 	.word	0x75687420
2000cc88:	74206b6e 	.word	0x74206b6e
2000cc8c:	0000206f 	.word	0x0000206f

2000cc90 <.LC26>:
2000cc90:	6176616a 	.word	0x6176616a
2000cc94:	616c4320 	.word	0x616c4320
2000cc98:	66207373 	.word	0x66207373
2000cc9c:	0020726f 	.word	0x0020726f

2000cca0 <.LC27>:
2000cca0:	72617567 	.word	0x72617567
2000cca4:	61762064 	.word	0x61762064
2000cca8:	62616972 	.word	0x62616972
2000ccac:	6620656c 	.word	0x6620656c
2000ccb0:	0020726f 	.word	0x0020726f

2000ccb4 <.LC28>:
2000ccb4:	20534c54 	.word	0x20534c54
2000ccb8:	74696e69 	.word	0x74696e69
2000ccbc:	6e756620 	.word	0x6e756620
2000ccc0:	6f697463 	.word	0x6f697463
2000ccc4:	6f66206e 	.word	0x6f66206e
2000ccc8:	00002072 	.word	0x00002072
2000cccc:	20534c54 	.word	0x20534c54
2000ccd0:	70617277 	.word	0x70617277
2000ccd4:	20726570 	.word	0x20726570
2000ccd8:	636e7566 	.word	0x636e7566
2000ccdc:	6e6f6974 	.word	0x6e6f6974
2000cce0:	726f6620 	.word	0x726f6620
2000cce4:	00000020 	.word	0x00000020

2000cce8 <.LC30>:
2000cce8:	65666572 	.word	0x65666572
2000ccec:	636e6572 	.word	0x636e6572
2000ccf0:	65742065 	.word	0x65742065
2000ccf4:	726f706d 	.word	0x726f706d
2000ccf8:	20797261 	.word	0x20797261
2000ccfc:	00000023 	.word	0x00000023
2000cd00:	726f6620 	.word	0x726f6620
2000cd04:	00000020 	.word	0x00000020
2000cd08:	64646968 	.word	0x64646968
2000cd0c:	61206e65 	.word	0x61206e65
2000cd10:	7361696c 	.word	0x7361696c
2000cd14:	726f6620 	.word	0x726f6620
2000cd18:	00000020 	.word	0x00000020
2000cd1c:	2d6e6f6e 	.word	0x2d6e6f6e

2000cd20 <.LC33>:
2000cd20:	6e617274 	.word	0x6e617274
2000cd24:	74636173 	.word	0x74636173
2000cd28:	206e6f69 	.word	0x206e6f69
2000cd2c:	6e6f6c63 	.word	0x6e6f6c63
2000cd30:	6f662065 	.word	0x6f662065
2000cd34:	00002072 	.word	0x00002072

2000cd38 <.LC35>:
2000cd38:	7265706f 	.word	0x7265706f
2000cd3c:	726f7461 	.word	0x726f7461
2000cd40:	00000000 	.word	0x00000000

2000cd44 <.LC36>:
2000cd44:	7265706f 	.word	0x7265706f
2000cd48:	726f7461 	.word	0x726f7461
2000cd4c:	00000020 	.word	0x00000020
2000cd50:	0000283e 	.word	0x0000283e
2000cd54:	00006c63 	.word	0x00006c63
2000cd58:	00007869 	.word	0x00007869
2000cd5c:	00007571 	.word	0x00007571
2000cd60:	00203a20 	.word	0x00203a20
2000cd64:	2077656e 	.word	0x2077656e
2000cd68:	00000000 	.word	0x00000000
2000cd6c:	00006c75 	.word	0x00006c75
2000cd70:	00006c6c 	.word	0x00006c6c
2000cd74:	006c6c75 	.word	0x006c6c75
2000cd78:	736c6166 	.word	0x736c6166
2000cd7c:	00000065 	.word	0x00000065
2000cd80:	65757274 	.word	0x65757274
2000cd84:	00000000 	.word	0x00000000

2000cd88 <.LC48>:
2000cd88:	6176616a 	.word	0x6176616a
2000cd8c:	73657220 	.word	0x73657220
2000cd90:	6372756f 	.word	0x6372756f
2000cd94:	00002065 	.word	0x00002065
2000cd98:	6c636564 	.word	0x6c636564
2000cd9c:	65707974 	.word	0x65707974
2000cda0:	00002820 	.word	0x00002820
2000cda4:	002e2e2e 	.word	0x002e2e2e
2000cda8:	73696874 	.word	0x73696874
2000cdac:	00000000 	.word	0x00000000
2000cdb0:	7261707b 	.word	0x7261707b
2000cdb4:	0000236d 	.word	0x0000236d

2000cdb8 <.LC53>:
2000cdb8:	626f6c67 	.word	0x626f6c67
2000cdbc:	63206c61 	.word	0x63206c61
2000cdc0:	74736e6f 	.word	0x74736e6f
2000cdc4:	74637572 	.word	0x74637572
2000cdc8:	2073726f 	.word	0x2073726f
2000cdcc:	6579656b 	.word	0x6579656b
2000cdd0:	6f742064 	.word	0x6f742064
2000cdd4:	00000020 	.word	0x00000020

2000cdd8 <.LC54>:
2000cdd8:	626f6c67 	.word	0x626f6c67
2000cddc:	64206c61 	.word	0x64206c61
2000cde0:	72747365 	.word	0x72747365
2000cde4:	6f746375 	.word	0x6f746375
2000cde8:	6b207372 	.word	0x6b207372
2000cdec:	64657965 	.word	0x64657965
2000cdf0:	206f7420 	.word	0x206f7420
2000cdf4:	00000000 	.word	0x00000000

2000cdf8 <.LC55>:
2000cdf8:	6d616c7b 	.word	0x6d616c7b
2000cdfc:	00616462 	.word	0x00616462
2000ce00:	00002329 	.word	0x00002329

2000ce04 <.LC57>:
2000ce04:	6e6e757b 	.word	0x6e6e757b
2000ce08:	64656d61 	.word	0x64656d61
2000ce0c:	70797420 	.word	0x70797420
2000ce10:	00002365 	.word	0x00002365

2000ce14 <.LC58>:
2000ce14:	6c635b20 	.word	0x6c635b20
2000ce18:	20656e6f 	.word	0x20656e6f
2000ce1c:	00000000 	.word	0x00000000

2000ce20 <.LC59>:
2000ce20:	65707974 	.word	0x65707974
2000ce24:	656d616e 	.word	0x656d616e
2000ce28:	00000000 	.word	0x00000000

2000ce2c <.LC60>:
2000ce2c:	706d6574 	.word	0x706d6574
2000ce30:	6574616c 	.word	0x6574616c
2000ce34:	00000000 	.word	0x00000000
2000ce38:	616c6320 	.word	0x616c6320
2000ce3c:	00007373 	.word	0x00007373

2000ce40 <.LC62>:
2000ce40:	73657220 	.word	0x73657220
2000ce44:	63697274 	.word	0x63697274
2000ce48:	00000074 	.word	0x00000074

2000ce4c <.LC63>:
2000ce4c:	6c6f7620 	.word	0x6c6f7620
2000ce50:	6c697461 	.word	0x6c697461
2000ce54:	00000065 	.word	0x00000065
2000ce58:	6e6f6320 	.word	0x6e6f6320
2000ce5c:	00007473 	.word	0x00007473

2000ce60 <.LC65>:
2000ce60:	61727420 	.word	0x61727420
2000ce64:	6361736e 	.word	0x6361736e
2000ce68:	6e6f6974 	.word	0x6e6f6974
2000ce6c:	6661735f 	.word	0x6661735f
2000ce70:	00000065 	.word	0x00000065

2000ce74 <.LC66>:
2000ce74:	656f6e20 	.word	0x656f6e20
2000ce78:	70656378 	.word	0x70656378
2000ce7c:	00000074 	.word	0x00000074
2000ce80:	72687420 	.word	0x72687420
2000ce84:	0000776f 	.word	0x0000776f
2000ce88:	00002626 	.word	0x00002626

2000ce8c <.LC69>:
2000ce8c:	6f435f20 	.word	0x6f435f20
2000ce90:	656c706d 	.word	0x656c706d
2000ce94:	00000078 	.word	0x00000078
2000ce98:	6d495f20 	.word	0x6d495f20
2000ce9c:	6e696761 	.word	0x6e696761
2000cea0:	00797261 	.word	0x00797261
2000cea4:	002a3a3a 	.word	0x002a3a3a
2000cea8:	765f5f20 	.word	0x765f5f20
2000ceac:	6f746365 	.word	0x6f746365
2000ceb0:	00002872 	.word	0x00002872
2000ceb4:	2e2e2e28 	.word	0x2e2e2e28
2000ceb8:	00000000 	.word	0x00000000
2000cebc:	292e2e2e 	.word	0x292e2e2e
2000cec0:	00000000 	.word	0x00000000
2000cec4:	2e2e2e20 	.word	0x2e2e2e20
2000cec8:	00000020 	.word	0x00000020
2000cecc:	00005424 	.word	0x00005424
2000ced0:	00004e24 	.word	0x00004e24
2000ced4:	00545424 	.word	0x00545424
2000ced8:	3a647473 	.word	0x3a647473
2000cedc:	6c6c613a 	.word	0x6c6c613a
2000cee0:	7461636f 	.word	0x7461636f
2000cee4:	0000726f 	.word	0x0000726f
2000cee8:	6f6c6c61 	.word	0x6f6c6c61
2000ceec:	6f746163 	.word	0x6f746163
2000cef0:	00000072 	.word	0x00000072
2000cef4:	3a647473 	.word	0x3a647473
2000cef8:	7361623a 	.word	0x7361623a
2000cefc:	735f6369 	.word	0x735f6369
2000cf00:	6e697274 	.word	0x6e697274
2000cf04:	00000067 	.word	0x00000067
2000cf08:	69736162 	.word	0x69736162
2000cf0c:	74735f63 	.word	0x74735f63
2000cf10:	676e6972 	.word	0x676e6972
2000cf14:	00000000 	.word	0x00000000
2000cf18:	3a647473 	.word	0x3a647473
2000cf1c:	7274733a 	.word	0x7274733a
2000cf20:	00676e69 	.word	0x00676e69
2000cf24:	3a647473 	.word	0x3a647473
2000cf28:	7361623a 	.word	0x7361623a
2000cf2c:	735f6369 	.word	0x735f6369
2000cf30:	6e697274 	.word	0x6e697274
2000cf34:	68633c67 	.word	0x68633c67
2000cf38:	202c7261 	.word	0x202c7261
2000cf3c:	3a647473 	.word	0x3a647473
2000cf40:	6168633a 	.word	0x6168633a
2000cf44:	72745f72 	.word	0x72745f72
2000cf48:	73746961 	.word	0x73746961
2000cf4c:	6168633c 	.word	0x6168633c
2000cf50:	202c3e72 	.word	0x202c3e72
2000cf54:	3a647473 	.word	0x3a647473
2000cf58:	6c6c613a 	.word	0x6c6c613a
2000cf5c:	7461636f 	.word	0x7461636f
2000cf60:	633c726f 	.word	0x633c726f
2000cf64:	3e726168 	.word	0x3e726168
2000cf68:	00003e20 	.word	0x00003e20
2000cf6c:	3a647473 	.word	0x3a647473
2000cf70:	7473693a 	.word	0x7473693a
2000cf74:	6d616572 	.word	0x6d616572
2000cf78:	00000000 	.word	0x00000000
2000cf7c:	3a647473 	.word	0x3a647473
2000cf80:	7361623a 	.word	0x7361623a
2000cf84:	695f6369 	.word	0x695f6369
2000cf88:	65727473 	.word	0x65727473
2000cf8c:	633c6d61 	.word	0x633c6d61
2000cf90:	2c726168 	.word	0x2c726168
2000cf94:	64747320 	.word	0x64747320
2000cf98:	68633a3a 	.word	0x68633a3a
2000cf9c:	745f7261 	.word	0x745f7261
2000cfa0:	74696172 	.word	0x74696172
2000cfa4:	68633c73 	.word	0x68633c73
2000cfa8:	203e7261 	.word	0x203e7261
2000cfac:	0000003e 	.word	0x0000003e
2000cfb0:	69736162 	.word	0x69736162
2000cfb4:	73695f63 	.word	0x73695f63
2000cfb8:	61657274 	.word	0x61657274
2000cfbc:	0000006d 	.word	0x0000006d
2000cfc0:	3a647473 	.word	0x3a647473
2000cfc4:	74736f3a 	.word	0x74736f3a
2000cfc8:	6d616572 	.word	0x6d616572
2000cfcc:	00000000 	.word	0x00000000
2000cfd0:	3a647473 	.word	0x3a647473
2000cfd4:	7361623a 	.word	0x7361623a
2000cfd8:	6f5f6369 	.word	0x6f5f6369
2000cfdc:	65727473 	.word	0x65727473
2000cfe0:	633c6d61 	.word	0x633c6d61
2000cfe4:	2c726168 	.word	0x2c726168
2000cfe8:	64747320 	.word	0x64747320
2000cfec:	68633a3a 	.word	0x68633a3a
2000cff0:	745f7261 	.word	0x745f7261
2000cff4:	74696172 	.word	0x74696172
2000cff8:	68633c73 	.word	0x68633c73
2000cffc:	203e7261 	.word	0x203e7261
2000d000:	0000003e 	.word	0x0000003e
2000d004:	69736162 	.word	0x69736162
2000d008:	736f5f63 	.word	0x736f5f63
2000d00c:	61657274 	.word	0x61657274
2000d010:	0000006d 	.word	0x0000006d
2000d014:	3a647473 	.word	0x3a647473
2000d018:	736f693a 	.word	0x736f693a
2000d01c:	61657274 	.word	0x61657274
2000d020:	0000006d 	.word	0x0000006d
2000d024:	3a647473 	.word	0x3a647473
2000d028:	7361623a 	.word	0x7361623a
2000d02c:	695f6369 	.word	0x695f6369
2000d030:	7274736f 	.word	0x7274736f
2000d034:	3c6d6165 	.word	0x3c6d6165
2000d038:	72616863 	.word	0x72616863
2000d03c:	7473202c 	.word	0x7473202c
2000d040:	633a3a64 	.word	0x633a3a64
2000d044:	5f726168 	.word	0x5f726168
2000d048:	69617274 	.word	0x69617274
2000d04c:	633c7374 	.word	0x633c7374
2000d050:	3e726168 	.word	0x3e726168
2000d054:	00003e20 	.word	0x00003e20
2000d058:	69736162 	.word	0x69736162
2000d05c:	6f695f63 	.word	0x6f695f63
2000d060:	65727473 	.word	0x65727473
2000d064:	00006d61 	.word	0x00006d61
2000d068:	00004e61 	.word	0x00004e61
2000d06c:	00003d26 	.word	0x00003d26
2000d070:	00005361 	.word	0x00005361
2000d074:	0000003d 	.word	0x0000003d
2000d078:	00006161 	.word	0x00006161
2000d07c:	00006461 	.word	0x00006461
2000d080:	00000026 	.word	0x00000026
2000d084:	00006e61 	.word	0x00006e61
2000d088:	67696c61 	.word	0x67696c61
2000d08c:	20666f6e 	.word	0x20666f6e
2000d090:	00000000 	.word	0x00000000
2000d094:	00007761 	.word	0x00007761
2000d098:	615f6f63 	.word	0x615f6f63
2000d09c:	74696177 	.word	0x74696177
2000d0a0:	00000020 	.word	0x00000020
2000d0a4:	00007a61 	.word	0x00007a61
2000d0a8:	00006363 	.word	0x00006363
2000d0ac:	736e6f63 	.word	0x736e6f63
2000d0b0:	61635f74 	.word	0x61635f74
2000d0b4:	00007473 	.word	0x00007473
2000d0b8:	00002928 	.word	0x00002928
2000d0bc:	00006d63 	.word	0x00006d63
2000d0c0:	0000002c 	.word	0x0000002c
2000d0c4:	00006f63 	.word	0x00006f63
2000d0c8:	0000007e 	.word	0x0000007e
2000d0cc:	00005664 	.word	0x00005664
2000d0d0:	00003d2f 	.word	0x00003d2f
2000d0d4:	00005864 	.word	0x00005864
2000d0d8:	2e2e2e5b 	.word	0x2e2e2e5b
2000d0dc:	00003d5d 	.word	0x00003d5d
2000d0e0:	00006164 	.word	0x00006164
2000d0e4:	656c6564 	.word	0x656c6564
2000d0e8:	5d5b6574 	.word	0x5d5b6574
2000d0ec:	00000020 	.word	0x00000020
2000d0f0:	00006364 	.word	0x00006364
2000d0f4:	616e7964 	.word	0x616e7964
2000d0f8:	5f63696d 	.word	0x5f63696d
2000d0fc:	74736163 	.word	0x74736163
2000d100:	00000000 	.word	0x00000000
2000d104:	00006564 	.word	0x00006564
2000d108:	0000002a 	.word	0x0000002a
2000d10c:	00006964 	.word	0x00006964
2000d110:	00006c64 	.word	0x00006c64
2000d114:	656c6564 	.word	0x656c6564
2000d118:	00206574 	.word	0x00206574
2000d11c:	00007364 	.word	0x00007364
2000d120:	00002a2e 	.word	0x00002a2e
2000d124:	00007464 	.word	0x00007464
2000d128:	0000002e 	.word	0x0000002e
2000d12c:	00007664 	.word	0x00007664
2000d130:	0000002f 	.word	0x0000002f
2000d134:	00007864 	.word	0x00007864
2000d138:	00004f65 	.word	0x00004f65
2000d13c:	00003d5e 	.word	0x00003d5e
2000d140:	00006f65 	.word	0x00006f65
2000d144:	0000005e 	.word	0x0000005e
2000d148:	00007165 	.word	0x00007165
2000d14c:	00003d3d 	.word	0x00003d3d
2000d150:	00004c66 	.word	0x00004c66
2000d154:	00005266 	.word	0x00005266
2000d158:	00006c66 	.word	0x00006c66
2000d15c:	00007266 	.word	0x00007266
2000d160:	00006567 	.word	0x00006567
2000d164:	00003d3e 	.word	0x00003d3e
2000d168:	00007367 	.word	0x00007367
2000d16c:	00007467 	.word	0x00007467
2000d170:	0000003e 	.word	0x0000003e
2000d174:	00005d5b 	.word	0x00005d5b
2000d178:	0000536c 	.word	0x0000536c
2000d17c:	003d3c3c 	.word	0x003d3c3c
2000d180:	00003d3c 	.word	0x00003d3c
2000d184:	0000696c 	.word	0x0000696c
2000d188:	7265706f 	.word	0x7265706f
2000d18c:	726f7461 	.word	0x726f7461
2000d190:	00202222 	.word	0x00202222
2000d194:	0000736c 	.word	0x0000736c
2000d198:	00003c3c 	.word	0x00003c3c
2000d19c:	0000746c 	.word	0x0000746c
2000d1a0:	0000003c 	.word	0x0000003c
2000d1a4:	0000496d 	.word	0x0000496d
2000d1a8:	00003d2d 	.word	0x00003d2d
2000d1ac:	00004c6d 	.word	0x00004c6d
2000d1b0:	00003d2a 	.word	0x00003d2a
2000d1b4:	0000696d 	.word	0x0000696d
2000d1b8:	0000002d 	.word	0x0000002d
2000d1bc:	00006c6d 	.word	0x00006c6d
2000d1c0:	00006d6d 	.word	0x00006d6d
2000d1c4:	00002d2d 	.word	0x00002d2d
2000d1c8:	0000616e 	.word	0x0000616e
2000d1cc:	5b77656e 	.word	0x5b77656e
2000d1d0:	0000005d 	.word	0x0000005d
2000d1d4:	0000656e 	.word	0x0000656e
2000d1d8:	00003d21 	.word	0x00003d21
2000d1dc:	0000676e 	.word	0x0000676e
2000d1e0:	0000746e 	.word	0x0000746e
2000d1e4:	00000021 	.word	0x00000021
2000d1e8:	0000776e 	.word	0x0000776e
2000d1ec:	0077656e 	.word	0x0077656e
2000d1f0:	0000526f 	.word	0x0000526f
2000d1f4:	00003d7c 	.word	0x00003d7c
2000d1f8:	00006f6f 	.word	0x00006f6f
2000d1fc:	00007c7c 	.word	0x00007c7c
2000d200:	0000726f 	.word	0x0000726f
2000d204:	0000007c 	.word	0x0000007c
2000d208:	00004c70 	.word	0x00004c70
2000d20c:	00003d2b 	.word	0x00003d2b
2000d210:	00006c70 	.word	0x00006c70
2000d214:	0000002b 	.word	0x0000002b
2000d218:	00006d70 	.word	0x00006d70
2000d21c:	002a3e2d 	.word	0x002a3e2d
2000d220:	00007070 	.word	0x00007070
2000d224:	00002b2b 	.word	0x00002b2b
2000d228:	00007370 	.word	0x00007370
2000d22c:	00007470 	.word	0x00007470
2000d230:	00003e2d 	.word	0x00003e2d
2000d234:	0000003f 	.word	0x0000003f
2000d238:	00004d72 	.word	0x00004d72
2000d23c:	00003d25 	.word	0x00003d25
2000d240:	00005372 	.word	0x00005372
2000d244:	003d3e3e 	.word	0x003d3e3e
2000d248:	00006372 	.word	0x00006372
2000d24c:	6e696572 	.word	0x6e696572
2000d250:	70726574 	.word	0x70726574
2000d254:	5f746572 	.word	0x5f746572
2000d258:	74736163 	.word	0x74736163
2000d25c:	00000000 	.word	0x00000000
2000d260:	00006d72 	.word	0x00006d72
2000d264:	00000025 	.word	0x00000025
2000d268:	00007372 	.word	0x00007372
2000d26c:	00003e3e 	.word	0x00003e3e
2000d270:	00005073 	.word	0x00005073
2000d274:	657a6973 	.word	0x657a6973
2000d278:	2e2e666f 	.word	0x2e2e666f
2000d27c:	0000002e 	.word	0x0000002e
2000d280:	00005a73 	.word	0x00005a73
2000d284:	00006373 	.word	0x00006373
2000d288:	74617473 	.word	0x74617473
2000d28c:	635f6369 	.word	0x635f6369
2000d290:	00747361 	.word	0x00747361
2000d294:	003e3d3c 	.word	0x003e3d3c
2000d298:	00007473 	.word	0x00007473
2000d29c:	657a6973 	.word	0x657a6973
2000d2a0:	0020666f 	.word	0x0020666f
2000d2a4:	00007a73 	.word	0x00007a73
2000d2a8:	00007274 	.word	0x00007274
2000d2ac:	6f726874 	.word	0x6f726874
2000d2b0:	00000077 	.word	0x00000077
2000d2b4:	00007774 	.word	0x00007774
2000d2b8:	6f726874 	.word	0x6f726874
2000d2bc:	00002077 	.word	0x00002077
2000d2c0:	6e676973 	.word	0x6e676973
2000d2c4:	63206465 	.word	0x63206465
2000d2c8:	00726168 	.word	0x00726168
2000d2cc:	6c6f6f62 	.word	0x6c6f6f62
2000d2d0:	00000000 	.word	0x00000000
2000d2d4:	6c6f6f62 	.word	0x6c6f6f62
2000d2d8:	006e6165 	.word	0x006e6165
2000d2dc:	72616863 	.word	0x72616863
2000d2e0:	00000000 	.word	0x00000000
2000d2e4:	65747962 	.word	0x65747962
2000d2e8:	00000000 	.word	0x00000000
2000d2ec:	62756f64 	.word	0x62756f64
2000d2f0:	0000656c 	.word	0x0000656c
2000d2f4:	676e6f6c 	.word	0x676e6f6c
2000d2f8:	756f6420 	.word	0x756f6420
2000d2fc:	00656c62 	.word	0x00656c62
2000d300:	616f6c66 	.word	0x616f6c66
2000d304:	00000074 	.word	0x00000074
2000d308:	6c665f5f 	.word	0x6c665f5f
2000d30c:	3174616f 	.word	0x3174616f
2000d310:	00003832 	.word	0x00003832
2000d314:	69736e75 	.word	0x69736e75
2000d318:	64656e67 	.word	0x64656e67
2000d31c:	61686320 	.word	0x61686320
2000d320:	00000072 	.word	0x00000072
2000d324:	00746e69 	.word	0x00746e69
2000d328:	69736e75 	.word	0x69736e75
2000d32c:	64656e67 	.word	0x64656e67
2000d330:	746e6920 	.word	0x746e6920
2000d334:	00000000 	.word	0x00000000
2000d338:	69736e75 	.word	0x69736e75
2000d33c:	64656e67 	.word	0x64656e67
2000d340:	00000000 	.word	0x00000000
2000d344:	676e6f6c 	.word	0x676e6f6c
2000d348:	00000000 	.word	0x00000000
2000d34c:	69736e75 	.word	0x69736e75
2000d350:	64656e67 	.word	0x64656e67
2000d354:	6e6f6c20 	.word	0x6e6f6c20
2000d358:	00000067 	.word	0x00000067
2000d35c:	6e695f5f 	.word	0x6e695f5f
2000d360:	38323174 	.word	0x38323174
2000d364:	00000000 	.word	0x00000000
2000d368:	69736e75 	.word	0x69736e75
2000d36c:	64656e67 	.word	0x64656e67
2000d370:	695f5f20 	.word	0x695f5f20
2000d374:	3231746e 	.word	0x3231746e
2000d378:	00000038 	.word	0x00000038
2000d37c:	726f6873 	.word	0x726f6873
2000d380:	00000074 	.word	0x00000074
2000d384:	69736e75 	.word	0x69736e75
2000d388:	64656e67 	.word	0x64656e67
2000d38c:	6f687320 	.word	0x6f687320
2000d390:	00007472 	.word	0x00007472
2000d394:	64696f76 	.word	0x64696f76
2000d398:	00000000 	.word	0x00000000
2000d39c:	61686377 	.word	0x61686377
2000d3a0:	00745f72 	.word	0x00745f72
2000d3a4:	676e6f6c 	.word	0x676e6f6c
2000d3a8:	6e6f6c20 	.word	0x6e6f6c20
2000d3ac:	00000067 	.word	0x00000067
2000d3b0:	69736e75 	.word	0x69736e75
2000d3b4:	64656e67 	.word	0x64656e67
2000d3b8:	6e6f6c20 	.word	0x6e6f6c20
2000d3bc:	6f6c2067 	.word	0x6f6c2067
2000d3c0:	0000676e 	.word	0x0000676e
2000d3c4:	69636564 	.word	0x69636564
2000d3c8:	336c616d 	.word	0x336c616d
2000d3cc:	00000032 	.word	0x00000032
2000d3d0:	69636564 	.word	0x69636564
2000d3d4:	366c616d 	.word	0x366c616d
2000d3d8:	00000034 	.word	0x00000034
2000d3dc:	69636564 	.word	0x69636564
2000d3e0:	316c616d 	.word	0x316c616d
2000d3e4:	00003832 	.word	0x00003832
2000d3e8:	666c6168 	.word	0x666c6168
2000d3ec:	00000000 	.word	0x00000000
2000d3f0:	72616863 	.word	0x72616863
2000d3f4:	00745f38 	.word	0x00745f38
2000d3f8:	72616863 	.word	0x72616863
2000d3fc:	745f3631 	.word	0x745f3631
2000d400:	00000000 	.word	0x00000000
2000d404:	72616863 	.word	0x72616863
2000d408:	745f3233 	.word	0x745f3233
2000d40c:	00000000 	.word	0x00000000
2000d410:	6f6c465f 	.word	0x6f6c465f
2000d414:	00007461 	.word	0x00007461
2000d418:	3a647473 	.word	0x3a647473
2000d41c:	6c66623a 	.word	0x6c66623a
2000d420:	3174616f 	.word	0x3174616f
2000d424:	00745f36 	.word	0x00745f36

2000d428 <_ZTSSt9bad_alloc>:
2000d428:	62397453 615f6461 636f6c6c 00000000     St9bad_alloc....

2000d438 <_ZTISt9bad_alloc>:
2000d438:	2000d5cc 2000d428 2000d500              ... (.. ... 

2000d444 <_ZTVSt9bad_alloc>:
2000d444:	00000000 2000d438 2000aa09 2000aa1d     ....8.. ... ... 
2000d454:	2000aa01                                ... 

2000d458 <_ZTSSt20bad_array_new_length>:
2000d458:	30327453 5f646162 61727261 656e5f79     St20bad_array_ne
2000d468:	656c5f77 6874676e 00000000              w_length....

2000d474 <_ZTISt20bad_array_new_length>:
2000d474:	2000d5cc 2000d458 2000d438              ... X.. 8.. 

2000d480 <_ZTVSt20bad_array_new_length>:
2000d480:	00000000 2000d474 2000aa41 2000aa55     ....t.. A.. U.. 
2000d490:	2000aa39                                9.. 

2000d494 <_ZTSN10__cxxabiv117__class_type_infoE>:
2000d494:	5f30314e 7878635f 76696261 5f373131     N10__cxxabiv117_
2000d4a4:	616c635f 745f7373 5f657079 6f666e69     _class_type_info
2000d4b4:	00000045                                E...

2000d4b8 <_ZTIN10__cxxabiv117__class_type_infoE>:
2000d4b8:	2000d5cc 2000d494 2000d600              ... ... ... 

2000d4c4 <_ZTVN10__cxxabiv117__class_type_infoE>:
2000d4c4:	00000000 2000d4b8 2000aab5 2000aac9     ....... ... ... 
2000d4d4:	2000b7d9 2000b7d9 2000ab45 2000aa71     ... ... E.. q.. 
2000d4e4:	2000ab29 2000aae5 2000aaa9              ).. ... ... 

2000d4f0 <_ZTSSt9exception>:
2000d4f0:	65397453 70656378 6e6f6974 00000000     St9exception....

2000d500 <_ZTISt9exception>:
2000d500:	2000d4cc 2000d4f0                       ... ... 

2000d508 <_ZTSSt13bad_exception>:
2000d508:	33317453 5f646162 65637865 6f697470     St13bad_exceptio
2000d518:	0000006e                                n...

2000d51c <_ZTISt13bad_exception>:
2000d51c:	2000d5cc 2000d508 2000d500              ... ... ... 

2000d528 <_ZTSN10__cxxabiv115__forced_unwindE>:
2000d528:	5f30314e 7878635f 76696261 5f353131     N10__cxxabiv115_
2000d538:	726f665f 5f646563 69776e75 0045646e     _forced_unwindE.

2000d548 <_ZTIN10__cxxabiv115__forced_unwindE>:
2000d548:	2000d4cc 2000d528                       ... (.. 

2000d550 <_ZTSN10__cxxabiv119__foreign_exceptionE>:
2000d550:	5f30314e 7878635f 76696261 5f393131     N10__cxxabiv119_
2000d560:	726f665f 6e676965 6378655f 69747065     _foreign_excepti
2000d570:	00456e6f                                onE.

2000d574 <_ZTIN10__cxxabiv119__foreign_exceptionE>:
2000d574:	2000d4cc 2000d550                       ... P.. 

2000d57c <_ZTVSt13bad_exception>:
2000d57c:	00000000 2000d51c 2000af39 2000af45     ....... 9.. E.. 
2000d58c:	2000af3d                                =.. 

2000d590 <_ZTSN10__cxxabiv120__si_class_type_infoE>:
2000d590:	5f30314e 7878635f 76696261 5f303231     N10__cxxabiv120_
2000d5a0:	5f69735f 73616c63 79745f73 695f6570     _si_class_type_i
2000d5b0:	456f666e 00000000                       nfoE....

2000d5b8 <_ZTIN10__cxxabiv120__si_class_type_infoE>:
2000d5b8:	2000d5cc 2000d590 2000d4b8              ... ... ... 

2000d5c4 <_ZTVN10__cxxabiv120__si_class_type_infoE>:
2000d5c4:	00000000 2000d5b8 2000b6b9 2000b6cd     ....... ... ... 
2000d5d4:	2000b7d9 2000b7d9 2000ab45 2000aa71     ... ... E.. q.. 
2000d5e4:	2000b7a9 2000b725 2000b6e9              ... %.. ... 

2000d5f0 <_ZTSSt9type_info>:
2000d5f0:	74397453 5f657079 6f666e69 00000000     St9type_info....

2000d600 <_ZTISt9type_info>:
2000d600:	2000d4cc 2000d5f0                       ... ... 
