; Listing generated by Microsoft (R) Optimizing Compiler Version 19.42.34436.0 

	TITLE	C:\DT\Solutions\Una\una-watch\Apps\Utility2\GUI\Software\App\TouchGFX-GUI\build\Debug\obj\ApplicationFontProvider.obj
	.686P
	.XMM
	include listing.inc
	.model	flat

INCLUDELIB MSVCRTD
INCLUDELIB OLDNAMES

msvcjmc	SEGMENT
__3A77C584_concurrencysal@h DB 01H
__7D61E6FE_sal@h DB 01H
__F85DFF2E_vadefs@h DB 01H
__E62C82FD_vcruntime@h DB 01H
__B48F2F87_stdarg@h DB 01H
__B193B045_corecrt@h DB 01H
__829D5E02_assert@h DB 01H
__80509148_stdint@h DB 01H
__CA6578A3_Config@hpp DB 01H
__26FA5A17_Types@hpp DB 01H
__614D25B1_Unicode@hpp DB 01H
__EEB25667_Font@hpp DB 01H
__C5789229_FontManager@hpp DB 01H
__EA81C2A6_ApplicationFontProvider@hpp DB 01H
__EA2B9F45_ConstFont@hpp DB 01H
__58182536_GeneratedFont@hpp DB 01H
__F80C1609_Texts@hpp DB 01H
__F5EBA356_TypedText@hpp DB 01H
__EE07DCCC_TypedTextDatabase@hpp DB 01H
__FA40FEE9_ApplicationFontProvider@cpp DB 01H
msvcjmc	ENDS
PUBLIC	?getFont@ApplicationFontProvider@@UAEPAVFont@touchgfx@@G@Z ; ApplicationFontProvider::getFont
PUBLIC	__JustMyCode_Default
EXTRN	?getFonts@TypedTextDatabase@@YAPAPBVFont@touchgfx@@XZ:PROC ; TypedTextDatabase::getFonts
EXTRN	@__CheckForDebuggerJustMyCode@4:PROC
EXTRN	__RTC_CheckEsp:PROC
EXTRN	__RTC_InitBase:PROC
EXTRN	__RTC_Shutdown:PROC
;	COMDAT rtc$TMZ
rtc$TMZ	SEGMENT
__RTC_Shutdown.rtc$TMZ DD FLAT:__RTC_Shutdown
rtc$TMZ	ENDS
;	COMDAT rtc$IMZ
rtc$IMZ	SEGMENT
__RTC_InitBase.rtc$IMZ DD FLAT:__RTC_InitBase
rtc$IMZ	ENDS
; Function compile flags: /Odt
;	COMDAT __JustMyCode_Default
_TEXT	SEGMENT
__JustMyCode_Default PROC				; COMDAT
	push	ebp
	mov	ebp, esp
	pop	ebp
	ret	0
__JustMyCode_Default ENDP
_TEXT	ENDS
; Function compile flags: /Odtp /RTCsu /ZI
;	COMDAT ?getFont@ApplicationFontProvider@@UAEPAVFont@touchgfx@@G@Z
_TEXT	SEGMENT
tv65 = -208						; size = 4
_this$ = -8						; size = 4
_typography$ = 8					; size = 2
?getFont@ApplicationFontProvider@@UAEPAVFont@touchgfx@@G@Z PROC ; ApplicationFontProvider::getFont, COMDAT
; _this$ = ecx
; File C:\DT\Solutions\Una\una-watch\Apps\Utility2\GUI\Software\App\TouchGFX-GUI\generated\fonts\src\ApplicationFontProvider.cpp
; Line 9
	push	ebp
	mov	ebp, esp
	sub	esp, 208				; 000000d0H
	push	ebx
	push	esi
	push	edi
	push	ecx
	lea	edi, DWORD PTR [ebp-16]
	mov	ecx, 4
	mov	eax, -858993460				; ccccccccH
	rep stosd
	pop	ecx
	mov	DWORD PTR _this$[ebp], ecx
	mov	ecx, OFFSET __FA40FEE9_ApplicationFontProvider@cpp
	call	@__CheckForDebuggerJustMyCode@4
	npad	1
; Line 10
	movzx	eax, WORD PTR _typography$[ebp]
	mov	DWORD PTR tv65[ebp], eax
	cmp	DWORD PTR tv65[ebp], 16			; 00000010H
	ja	$LN21@getFont
	mov	ecx, DWORD PTR tv65[ebp]
	jmp	DWORD PTR $LN23@getFont[ecx*4]
$LN4@getFont:
; Line 14
	call	?getFonts@TypedTextDatabase@@YAPAPBVFont@touchgfx@@XZ ; TypedTextDatabase::getFonts
	mov	ecx, 4
	imul	edx, ecx, 0
	mov	eax, DWORD PTR [eax+edx]
	jmp	$LN2@getFont
$LN5@getFont:
; Line 17
	call	?getFonts@TypedTextDatabase@@YAPAPBVFont@touchgfx@@XZ ; TypedTextDatabase::getFonts
	mov	ecx, 4
	shl	ecx, 0
	mov	eax, DWORD PTR [eax+ecx]
	jmp	$LN2@getFont
$LN6@getFont:
; Line 20
	call	?getFonts@TypedTextDatabase@@YAPAPBVFont@touchgfx@@XZ ; TypedTextDatabase::getFonts
	mov	ecx, 4
	shl	ecx, 1
	mov	eax, DWORD PTR [eax+ecx]
	jmp	$LN2@getFont
$LN7@getFont:
; Line 23
	call	?getFonts@TypedTextDatabase@@YAPAPBVFont@touchgfx@@XZ ; TypedTextDatabase::getFonts
	mov	ecx, 4
	imul	edx, ecx, 3
	mov	eax, DWORD PTR [eax+edx]
	jmp	$LN2@getFont
$LN8@getFont:
; Line 26
	call	?getFonts@TypedTextDatabase@@YAPAPBVFont@touchgfx@@XZ ; TypedTextDatabase::getFonts
	mov	ecx, 4
	shl	ecx, 2
	mov	eax, DWORD PTR [eax+ecx]
	jmp	$LN2@getFont
$LN9@getFont:
; Line 29
	call	?getFonts@TypedTextDatabase@@YAPAPBVFont@touchgfx@@XZ ; TypedTextDatabase::getFonts
	mov	ecx, 4
	imul	edx, ecx, 5
	mov	eax, DWORD PTR [eax+edx]
	jmp	$LN2@getFont
$LN10@getFont:
; Line 32
	call	?getFonts@TypedTextDatabase@@YAPAPBVFont@touchgfx@@XZ ; TypedTextDatabase::getFonts
	mov	ecx, 4
	imul	edx, ecx, 6
	mov	eax, DWORD PTR [eax+edx]
	jmp	$LN2@getFont
$LN11@getFont:
; Line 35
	call	?getFonts@TypedTextDatabase@@YAPAPBVFont@touchgfx@@XZ ; TypedTextDatabase::getFonts
	mov	ecx, 4
	imul	edx, ecx, 7
	mov	eax, DWORD PTR [eax+edx]
	jmp	$LN2@getFont
$LN12@getFont:
; Line 38
	call	?getFonts@TypedTextDatabase@@YAPAPBVFont@touchgfx@@XZ ; TypedTextDatabase::getFonts
	mov	ecx, 4
	imul	edx, ecx, 3
	mov	eax, DWORD PTR [eax+edx]
	jmp	$LN2@getFont
$LN13@getFont:
; Line 41
	call	?getFonts@TypedTextDatabase@@YAPAPBVFont@touchgfx@@XZ ; TypedTextDatabase::getFonts
	mov	ecx, 4
	shl	ecx, 3
	mov	eax, DWORD PTR [eax+ecx]
	jmp	$LN2@getFont
$LN14@getFont:
; Line 44
	call	?getFonts@TypedTextDatabase@@YAPAPBVFont@touchgfx@@XZ ; TypedTextDatabase::getFonts
	mov	ecx, 4
	imul	edx, ecx, 9
	mov	eax, DWORD PTR [eax+edx]
	jmp	SHORT $LN2@getFont
$LN15@getFont:
; Line 47
	call	?getFonts@TypedTextDatabase@@YAPAPBVFont@touchgfx@@XZ ; TypedTextDatabase::getFonts
	mov	ecx, 4
	imul	edx, ecx, 10
	mov	eax, DWORD PTR [eax+edx]
	jmp	SHORT $LN2@getFont
$LN16@getFont:
; Line 50
	call	?getFonts@TypedTextDatabase@@YAPAPBVFont@touchgfx@@XZ ; TypedTextDatabase::getFonts
	mov	ecx, 4
	imul	edx, ecx, 5
	mov	eax, DWORD PTR [eax+edx]
	jmp	SHORT $LN2@getFont
$LN17@getFont:
; Line 53
	call	?getFonts@TypedTextDatabase@@YAPAPBVFont@touchgfx@@XZ ; TypedTextDatabase::getFonts
	mov	ecx, 4
	imul	edx, ecx, 11
	mov	eax, DWORD PTR [eax+edx]
	jmp	SHORT $LN2@getFont
$LN18@getFont:
; Line 56
	call	?getFonts@TypedTextDatabase@@YAPAPBVFont@touchgfx@@XZ ; TypedTextDatabase::getFonts
	mov	ecx, 4
	imul	edx, ecx, 12
	mov	eax, DWORD PTR [eax+edx]
	jmp	SHORT $LN2@getFont
$LN19@getFont:
; Line 59
	call	?getFonts@TypedTextDatabase@@YAPAPBVFont@touchgfx@@XZ ; TypedTextDatabase::getFonts
	mov	ecx, 4
	imul	edx, ecx, 13
	mov	eax, DWORD PTR [eax+edx]
	jmp	SHORT $LN2@getFont
$LN20@getFont:
; Line 62
	call	?getFonts@TypedTextDatabase@@YAPAPBVFont@touchgfx@@XZ ; TypedTextDatabase::getFonts
	mov	ecx, 4
	imul	edx, ecx, 14
	mov	eax, DWORD PTR [eax+edx]
	jmp	SHORT $LN2@getFont
$LN21@getFont:
; Line 64
	xor	eax, eax
$LN2@getFont:
; Line 66
	pop	edi
	pop	esi
	pop	ebx
	add	esp, 208				; 000000d0H
	cmp	ebp, esp
	call	__RTC_CheckEsp
	mov	esp, ebp
	pop	ebp
	ret	4
	npad	2
$LN23@getFont:
	DD	$LN4@getFont
	DD	$LN5@getFont
	DD	$LN6@getFont
	DD	$LN7@getFont
	DD	$LN8@getFont
	DD	$LN9@getFont
	DD	$LN10@getFont
	DD	$LN11@getFont
	DD	$LN12@getFont
	DD	$LN13@getFont
	DD	$LN14@getFont
	DD	$LN15@getFont
	DD	$LN16@getFont
	DD	$LN17@getFont
	DD	$LN18@getFont
	DD	$LN19@getFont
	DD	$LN20@getFont
?getFont@ApplicationFontProvider@@UAEPAVFont@touchgfx@@G@Z ENDP ; ApplicationFontProvider::getFont
_TEXT	ENDS
END
