; Listing generated by Microsoft (R) Optimizing Compiler Version 19.42.34436.0 

	TITLE	C:\DT\Solutions\Una\una-watch\Apps\Utility2\GUI\Software\App\TouchGFX-GUI\build\Debug\obj\BitmapDatabase.obj
	.686P
	.XMM
	include listing.inc
	.model	flat

INCLUDELIB MSVCRTD
INCLUDELIB OLDNAMES

EXTRN	?image_batterybig_gray1@@3QBEB:BYTE		; image_batterybig_gray1
EXTRN	?image_batterybig_gray2@@3QBEB:BYTE		; image_batterybig_gray2
EXTRN	?image_batterybig_gray3@@3QBEB:BYTE		; image_batterybig_gray3
EXTRN	?image_batterybig_green1@@3QBEB:BYTE		; image_batterybig_green1
EXTRN	?image_batterybig_green2@@3QBEB:BYTE		; image_batterybig_green2
EXTRN	?image_batterybig_green3@@3QBEB:BYTE		; image_batterybig_green3
EXTRN	?image_batterybig_red1@@3QBEB:BYTE		; image_batterybig_red1
EXTRN	?image_button_l1@@3QBEB:BYTE			; image_button_l1
EXTRN	?image_button_l1a@@3QBEB:BYTE			; image_button_l1a
EXTRN	?image_button_l1r@@3QBEB:BYTE			; image_button_l1r
EXTRN	?image_button_l2@@3QBEB:BYTE			; image_button_l2
EXTRN	?image_button_l2a@@3QBEB:BYTE			; image_button_l2a
EXTRN	?image_button_l2r_@@3QBEB:BYTE			; image_button_l2r_
EXTRN	?image_button_r1@@3QBEB:BYTE			; image_button_r1
EXTRN	?image_button_r1a@@3QBEB:BYTE			; image_button_r1a
EXTRN	?image_button_r1r@@3QBEB:BYTE			; image_button_r1r
EXTRN	?image_button_r2@@3QBEB:BYTE			; image_button_r2
EXTRN	?image_button_r2a@@3QBEB:BYTE			; image_button_r2a
EXTRN	?image_button_r2r@@3QBEB:BYTE			; image_button_r2r
EXTRN	?image_logo@@3QBEB:BYTE				; image_logo
EXTRN	?image_menuassets_cross@@3QBEB:BYTE		; image_menuassets_cross
EXTRN	?image_menuassets_crossyellow@@3QBEB:BYTE	; image_menuassets_crossyellow
EXTRN	?image_menuassets_tick@@3QBEB:BYTE		; image_menuassets_tick
msvcjmc	SEGMENT
__3A77C584_concurrencysal@h DB 01H
__7D61E6FE_sal@h DB 01H
__F85DFF2E_vadefs@h DB 01H
__E62C82FD_vcruntime@h DB 01H
__B193B045_corecrt@h DB 01H
__829D5E02_assert@h DB 01H
__80509148_stdint@h DB 01H
__CA6578A3_Config@hpp DB 01H
__26FA5A17_Types@hpp DB 01H
__253B2C74_Bitmap@hpp DB 01H
__7E26A546_BitmapDatabase@hpp DB 01H
__832C98DF_BitmapDatabase@cpp DB 01H
msvcjmc	ENDS
CONST	SEGMENT
?bitmap_database@@3QBUBitmapData@Bitmap@touchgfx@@B DD FLAT:?image_batterybig_gray1@@3QBEB ; bitmap_database
	DD	00H
	DW	014H
	DW	01cH
	DW	01H
	DW	02H
	DW	02013H
	DW	018H
	DD	FLAT:?image_batterybig_gray2@@3QBEB
	DD	00H
	DW	014H
	DW	01cH
	DW	00H
	DW	02H
	DW	02014H
	DW	018H
	DD	FLAT:?image_batterybig_gray3@@3QBEB
	DD	00H
	DW	016H
	DW	01cH
	DW	00H
	DW	02H
	DW	02013H
	DW	018H
	DD	FLAT:?image_batterybig_green1@@3QBEB
	DD	00H
	DW	014H
	DW	01cH
	DW	01H
	DW	02H
	DW	02013H
	DW	018H
	DD	FLAT:?image_batterybig_green2@@3QBEB
	DD	00H
	DW	014H
	DW	01cH
	DW	00H
	DW	02H
	DW	02014H
	DW	018H
	DD	FLAT:?image_batterybig_green3@@3QBEB
	DD	00H
	DW	016H
	DW	01cH
	DW	00H
	DW	02H
	DW	02013H
	DW	018H
	DD	FLAT:?image_batterybig_red1@@3QBEB
	DD	00H
	DW	014H
	DW	01cH
	DW	01H
	DW	02H
	DW	02013H
	DW	018H
	DD	FLAT:?image_button_l1@@3QBEB
	DD	00H
	DW	017H
	DW	023H
	DW	03H
	DW	019H
	DW	02002H
	DW	08H
	DD	FLAT:?image_button_l1a@@3QBEB
	DD	00H
	DW	017H
	DW	023H
	DW	03H
	DW	019H
	DW	02002H
	DW	08H
	DD	FLAT:?image_button_l1r@@3QBEB
	DD	00H
	DW	017H
	DW	023H
	DW	03H
	DW	019H
	DW	02002H
	DW	08H
	DD	FLAT:?image_button_l2@@3QBEB
	DD	00H
	DW	017H
	DW	023H
	DW	03H
	DW	02H
	DW	02002H
	DW	08H
	DD	FLAT:?image_button_l2a@@3QBEB
	DD	00H
	DW	017H
	DW	023H
	DW	03H
	DW	02H
	DW	02002H
	DW	08H
	DD	FLAT:?image_button_l2r_@@3QBEB
	DD	00H
	DW	017H
	DW	023H
	DW	03H
	DW	02H
	DW	02002H
	DW	08H
	DD	FLAT:?image_button_r1@@3QBEB
	DD	00H
	DW	017H
	DW	023H
	DW	010H
	DW	016H
	DW	02002H
	DW	08H
	DD	FLAT:?image_button_r1a@@3QBEB
	DD	00H
	DW	017H
	DW	023H
	DW	010H
	DW	016H
	DW	02002H
	DW	08H
	DD	FLAT:?image_button_r1r@@3QBEB
	DD	00H
	DW	017H
	DW	023H
	DW	012H
	DW	01dH
	DW	02003H
	DW	05H
	DD	FLAT:?image_button_r2@@3QBEB
	DD	00H
	DW	017H
	DW	023H
	DW	010H
	DW	05H
	DW	02003H
	DW	06H
	DD	FLAT:?image_button_r2a@@3QBEB
	DD	00H
	DW	017H
	DW	023H
	DW	010H
	DW	05H
	DW	02003H
	DW	06H
	DD	FLAT:?image_button_r2r@@3QBEB
	DD	00H
	DW	017H
	DW	023H
	DW	011H
	DW	03H
	DW	02003H
	DW	05H
	DD	FLAT:?image_logo@@3QBEB
	DD	00H
	DW	0aaH
	DW	051H
	DW	00H
	DW	0bH
	DW	020aaH
	DW	046H
	DD	FLAT:?image_menuassets_cross@@3QBEB
	DD	00H
	DW	011H
	DW	011H
	DW	05H
	DW	05H
	DW	02007H
	DW	07H
	DD	FLAT:?image_menuassets_crossyellow@@3QBEB
	DD	00H
	DW	011H
	DW	011H
	DW	05H
	DW	05H
	DW	02007H
	DW	07H
	DD	FLAT:?image_menuassets_tick@@3QBEB
	DD	00H
	DW	016H
	DW	011H
	DW	04H
	DW	0bH
	DW	02007H
	DW	03H
CONST	ENDS
PUBLIC	?getInstance@BitmapDatabase@@YAPBUBitmapData@Bitmap@touchgfx@@XZ ; BitmapDatabase::getInstance
PUBLIC	?getInstanceSize@BitmapDatabase@@YAGXZ		; BitmapDatabase::getInstanceSize
PUBLIC	__JustMyCode_Default
EXTRN	@__CheckForDebuggerJustMyCode@4:PROC
EXTRN	__RTC_CheckEsp:PROC
EXTRN	__RTC_InitBase:PROC
EXTRN	__RTC_Shutdown:PROC
;	COMDAT rtc$TMZ
rtc$TMZ	SEGMENT
__RTC_Shutdown.rtc$TMZ DD FLAT:__RTC_Shutdown
rtc$TMZ	ENDS
;	COMDAT rtc$IMZ
rtc$IMZ	SEGMENT
__RTC_InitBase.rtc$IMZ DD FLAT:__RTC_InitBase
rtc$IMZ	ENDS
; Function compile flags: /Odt
;	COMDAT __JustMyCode_Default
_TEXT	SEGMENT
__JustMyCode_Default PROC				; COMDAT
	push	ebp
	mov	ebp, esp
	pop	ebp
	ret	0
__JustMyCode_Default ENDP
_TEXT	ENDS
; Function compile flags: /Odtp /RTCsu /ZI
;	COMDAT ?getInstanceSize@BitmapDatabase@@YAGXZ
_TEXT	SEGMENT
?getInstanceSize@BitmapDatabase@@YAGXZ PROC		; BitmapDatabase::getInstanceSize, COMDAT
; File C:\DT\Solutions\Una\una-watch\Apps\Utility2\GUI\Software\App\TouchGFX-GUI\generated\images\src\BitmapDatabase.cpp
; Line 65
	push	ebp
	mov	ebp, esp
	sub	esp, 192				; 000000c0H
	push	ebx
	push	esi
	push	edi
	mov	edi, ebp
	xor	ecx, ecx
	mov	eax, -858993460				; ccccccccH
	rep stosd
	mov	ecx, OFFSET __832C98DF_BitmapDatabase@cpp
	call	@__CheckForDebuggerJustMyCode@4
	npad	1
; Line 66
	mov	eax, 23					; 00000017H
; Line 67
	pop	edi
	pop	esi
	pop	ebx
	add	esp, 192				; 000000c0H
	cmp	ebp, esp
	call	__RTC_CheckEsp
	mov	esp, ebp
	pop	ebp
	ret	0
?getInstanceSize@BitmapDatabase@@YAGXZ ENDP		; BitmapDatabase::getInstanceSize
_TEXT	ENDS
; Function compile flags: /Odtp /RTCsu /ZI
;	COMDAT ?getInstance@BitmapDatabase@@YAPBUBitmapData@Bitmap@touchgfx@@XZ
_TEXT	SEGMENT
?getInstance@BitmapDatabase@@YAPBUBitmapData@Bitmap@touchgfx@@XZ PROC ; BitmapDatabase::getInstance, COMDAT
; File C:\DT\Solutions\Una\una-watch\Apps\Utility2\GUI\Software\App\TouchGFX-GUI\generated\images\src\BitmapDatabase.cpp
; Line 60
	push	ebp
	mov	ebp, esp
	sub	esp, 192				; 000000c0H
	push	ebx
	push	esi
	push	edi
	mov	edi, ebp
	xor	ecx, ecx
	mov	eax, -858993460				; ccccccccH
	rep stosd
	mov	ecx, OFFSET __832C98DF_BitmapDatabase@cpp
	call	@__CheckForDebuggerJustMyCode@4
	npad	1
; Line 61
	mov	eax, OFFSET ?bitmap_database@@3QBUBitmapData@Bitmap@touchgfx@@B
; Line 62
	pop	edi
	pop	esi
	pop	ebx
	add	esp, 192				; 000000c0H
	cmp	ebp, esp
	call	__RTC_CheckEsp
	mov	esp, ebp
	pop	ebp
	ret	0
?getInstance@BitmapDatabase@@YAPBUBitmapData@Bitmap@touchgfx@@XZ ENDP ; BitmapDatabase::getInstance
_TEXT	ENDS
END
