; Listing generated by Microsoft (R) Optimizing Compiler Version 19.42.34436.0 

	TITLE	C:\DT\Solutions\Una\una-watch\Apps\Utility2\GUI\Software\App\TouchGFX-GUI\build\Debug\obj\CachedFont.obj
	.686P
	.XMM
	include listing.inc
	.model	flat

INCLUDELIB MSVCRTD
INCLUDELIB OLDNAMES

msvcjmc	SEGMENT
__3A77C584_concurrencysal@h DB 01H
__7D61E6FE_sal@h DB 01H
__F85DFF2E_vadefs@h DB 01H
__E62C82FD_vcruntime@h DB 01H
__B48F2F87_stdarg@h DB 01H
__B193B045_corecrt@h DB 01H
__829D5E02_assert@h DB 01H
__80509148_stdint@h DB 01H
__CA6578A3_Config@hpp DB 01H
__26FA5A17_Types@hpp DB 01H
__614D25B1_Unicode@hpp DB 01H
__EEB25667_Font@hpp DB 01H
__F80C1609_Texts@hpp DB 01H
__F5EBA356_TypedText@hpp DB 01H
__C5789229_FontManager@hpp DB 01H
__EA81C2A6_ApplicationFontProvider@hpp DB 01H
__5D518954_FontCache@hpp DB 01H
__EA2B9F45_ConstFont@hpp DB 01H
__58182536_GeneratedFont@hpp DB 01H
__B0933683_CachedFont@hpp DB 01H
__8769B8DC_CachedFont@cpp DB 01H
msvcjmc	ENDS
PUBLIC	?getPixelData@FontCache@touchgfx@@SAPBEPBUGlyphNode@2@@Z ; touchgfx::FontCache::getPixelData
PUBLIC	?isCached@FontCache@touchgfx@@SA_NPBUGlyphNode@2@@Z ; touchgfx::FontCache::isCached
PUBLIC	?getGlyph@CachedFont@touchgfx@@UBEPBUGlyphNode@2@GAAPBEAAE@Z ; touchgfx::CachedFont::getGlyph
PUBLIC	?getPixelData@CachedFont@touchgfx@@UBEPBEPBUGlyphNode@2@@Z ; touchgfx::CachedFont::getPixelData
PUBLIC	?getKerning@CachedFont@touchgfx@@UBECGPBUGlyphNode@2@@Z ; touchgfx::CachedFont::getKerning
PUBLIC	__JustMyCode_Default
EXTRN	?getGlyph@FontCache@touchgfx@@QBEPBUGlyphNode@2@GG@Z:PROC ; touchgfx::FontCache::getGlyph
EXTRN	?find@ConstFont@touchgfx@@QBEPBUGlyphNode@2@G@Z:PROC ; touchgfx::ConstFont::find
EXTRN	@__CheckForDebuggerJustMyCode@4:PROC
EXTRN	__RTC_CheckEsp:PROC
EXTRN	__RTC_InitBase:PROC
EXTRN	__RTC_Shutdown:PROC
;	COMDAT rtc$TMZ
rtc$TMZ	SEGMENT
__RTC_Shutdown.rtc$TMZ DD FLAT:__RTC_Shutdown
rtc$TMZ	ENDS
;	COMDAT rtc$IMZ
rtc$IMZ	SEGMENT
__RTC_InitBase.rtc$IMZ DD FLAT:__RTC_InitBase
rtc$IMZ	ENDS
; Function compile flags: /Odt
;	COMDAT __JustMyCode_Default
_TEXT	SEGMENT
__JustMyCode_Default PROC				; COMDAT
	push	ebp
	mov	ebp, esp
	pop	ebp
	ret	0
__JustMyCode_Default ENDP
_TEXT	ENDS
; Function compile flags: /Odtp /RTCsu /ZI
;	COMDAT ?getKerning@CachedFont@touchgfx@@UBECGPBUGlyphNode@2@@Z
_TEXT	SEGMENT
_this$ = -8						; size = 4
_prevChar$ = 8						; size = 2
_glyph$ = 12						; size = 4
?getKerning@CachedFont@touchgfx@@UBECGPBUGlyphNode@2@@Z PROC ; touchgfx::CachedFont::getKerning, COMDAT
; _this$ = ecx
; File C:\DT\Solutions\Una\una-watch\Apps\Utility2\GUI\Software\App\TouchGFX-GUI\generated\fonts\src\CachedFont.cpp
; Line 51
	push	ebp
	mov	ebp, esp
	sub	esp, 204				; 000000ccH
	push	ebx
	push	esi
	push	edi
	push	ecx
	lea	edi, DWORD PTR [ebp-12]
	mov	ecx, 3
	mov	eax, -858993460				; ccccccccH
	rep stosd
	pop	ecx
	mov	DWORD PTR _this$[ebp], ecx
	mov	ecx, OFFSET __8769B8DC_CachedFont@cpp
	call	@__CheckForDebuggerJustMyCode@4
	npad	1
; Line 53
	xor	al, al
; Line 54
	pop	edi
	pop	esi
	pop	ebx
	add	esp, 204				; 000000ccH
	cmp	ebp, esp
	call	__RTC_CheckEsp
	mov	esp, ebp
	pop	ebp
	ret	8
?getKerning@CachedFont@touchgfx@@UBECGPBUGlyphNode@2@@Z ENDP ; touchgfx::CachedFont::getKerning
_TEXT	ENDS
; Function compile flags: /Odtp /RTCsu /ZI
;	COMDAT ?getPixelData@CachedFont@touchgfx@@UBEPBEPBUGlyphNode@2@@Z
_TEXT	SEGMENT
tv86 = -224						; size = 4
tv84 = -220						; size = 4
_data$1 = -20						; size = 4
_this$ = -8						; size = 4
_glyph$ = 8						; size = 4
?getPixelData@CachedFont@touchgfx@@UBEPBEPBUGlyphNode@2@@Z PROC ; touchgfx::CachedFont::getPixelData, COMDAT
; _this$ = ecx
; File C:\DT\Solutions\Una\una-watch\Apps\Utility2\GUI\Software\App\TouchGFX-GUI\generated\fonts\src\CachedFont.cpp
; Line 9
	push	ebp
	mov	ebp, esp
	sub	esp, 224				; 000000e0H
	push	ebx
	push	esi
	push	edi
	push	ecx
	lea	edi, DWORD PTR [ebp-32]
	mov	ecx, 8
	mov	eax, -858993460				; ccccccccH
	rep stosd
	pop	ecx
	mov	DWORD PTR _this$[ebp], ecx
	mov	ecx, OFFSET __8769B8DC_CachedFont@cpp
	call	@__CheckForDebuggerJustMyCode@4
	npad	1
; Line 11
	mov	eax, DWORD PTR _glyph$[ebp]
	push	eax
	call	?isCached@FontCache@touchgfx@@SA_NPBUGlyphNode@2@@Z ; touchgfx::FontCache::isCached
	add	esp, 4
	movzx	ecx, al
	test	ecx, ecx
	je	SHORT $LN2@getPixelDa
; Line 13
	mov	eax, DWORD PTR _glyph$[ebp]
	push	eax
	call	?getPixelData@FontCache@touchgfx@@SAPBEPBUGlyphNode@2@@Z ; touchgfx::FontCache::getPixelData
	add	esp, 4
	mov	DWORD PTR _data$1[ebp], eax
; Line 14
	mov	eax, DWORD PTR _data$1[ebp]
	jmp	SHORT $LN1@getPixelDa
$LN2@getPixelDa:
; Line 16
	mov	eax, DWORD PTR _this$[ebp]
	mov	ecx, DWORD PTR [eax+52]
	mov	DWORD PTR tv84[ebp], ecx
	mov	edx, DWORD PTR _this$[ebp]
	mov	eax, DWORD PTR [edx+52]
	mov	ecx, DWORD PTR [eax]
	mov	edx, DWORD PTR [ecx+88]
	mov	DWORD PTR tv86[ebp], edx
	mov	esi, esp
	mov	eax, DWORD PTR _glyph$[ebp]
	push	eax
	mov	ecx, DWORD PTR tv84[ebp]
	call	DWORD PTR tv86[ebp]
	cmp	esi, esp
	call	__RTC_CheckEsp
$LN1@getPixelDa:
; Line 17
	pop	edi
	pop	esi
	pop	ebx
	add	esp, 224				; 000000e0H
	cmp	ebp, esp
	call	__RTC_CheckEsp
	mov	esp, ebp
	pop	ebp
	ret	4
?getPixelData@CachedFont@touchgfx@@UBEPBEPBUGlyphNode@2@@Z ENDP ; touchgfx::CachedFont::getPixelData
_TEXT	ENDS
; Function compile flags: /Odtp /RTCsu /ZI
;	COMDAT ?getGlyph@CachedFont@touchgfx@@UBEPBUGlyphNode@2@GAAPBEAAE@Z
_TEXT	SEGMENT
tv73 = -232						; size = 4
tv84 = -232						; size = 4
tv143 = -232						; size = 4
tv152 = -232						; size = 4
tv164 = -232						; size = 4
_fallbackChar$1 = -32					; size = 2
_n$ = -20						; size = 4
_this$ = -8						; size = 4
_unicode$ = 8						; size = 2
_pixelData$ = 12					; size = 4
_bitsPerPixel$ = 16					; size = 4
?getGlyph@CachedFont@touchgfx@@UBEPBUGlyphNode@2@GAAPBEAAE@Z PROC ; touchgfx::CachedFont::getGlyph, COMDAT
; _this$ = ecx
; File C:\DT\Solutions\Una\una-watch\Apps\Utility2\GUI\Software\App\TouchGFX-GUI\generated\fonts\src\CachedFont.cpp
; Line 20
	push	ebp
	mov	ebp, esp
	sub	esp, 232				; 000000e8H
	push	ebx
	push	esi
	push	edi
	push	ecx
	lea	edi, DWORD PTR [ebp-40]
	mov	ecx, 10					; 0000000aH
	mov	eax, -858993460				; ccccccccH
	rep stosd
	pop	ecx
	mov	DWORD PTR _this$[ebp], ecx
	mov	ecx, OFFSET __8769B8DC_CachedFont@cpp
	call	@__CheckForDebuggerJustMyCode@4
	npad	1
; Line 22
	mov	eax, DWORD PTR _this$[ebp]
	mov	ecx, DWORD PTR [eax+52]
	mov	DWORD PTR tv73[ebp], ecx
	movzx	edx, WORD PTR _unicode$[ebp]
	push	edx
	mov	ecx, DWORD PTR tv73[ebp]
	call	?find@ConstFont@touchgfx@@QBEPBUGlyphNode@2@G@Z ; touchgfx::ConstFont::find
	mov	DWORD PTR _n$[ebp], eax
; Line 24
	cmp	DWORD PTR _n$[ebp], 0
	jne	SHORT $LN2@getGlyph
	mov	eax, DWORD PTR _this$[ebp]
	cmp	DWORD PTR [eax+48], 0
	je	SHORT $LN2@getGlyph
; Line 27
	mov	eax, DWORD PTR _this$[ebp]
	mov	ecx, DWORD PTR [eax+48]
	mov	DWORD PTR tv84[ebp], ecx
	mov	edx, DWORD PTR _this$[ebp]
	movzx	eax, WORD PTR [edx+44]
	push	eax
	movzx	ecx, WORD PTR _unicode$[ebp]
	push	ecx
	mov	ecx, DWORD PTR tv84[ebp]
	call	?getGlyph@FontCache@touchgfx@@QBEPBUGlyphNode@2@GG@Z ; touchgfx::FontCache::getGlyph
	mov	DWORD PTR _n$[ebp], eax
$LN2@getGlyph:
; Line 31
	cmp	DWORD PTR _n$[ebp], 0
	jne	SHORT $LN4@getGlyph
	movzx	eax, WORD PTR _unicode$[ebp]
	test	eax, eax
	je	SHORT $LN4@getGlyph
	movzx	eax, WORD PTR _unicode$[ebp]
	cmp	eax, 10					; 0000000aH
	je	SHORT $LN4@getGlyph
; Line 33
	mov	eax, DWORD PTR _this$[ebp]
	mov	ecx, DWORD PTR [eax+52]
	mov	edx, DWORD PTR _this$[ebp]
	mov	eax, DWORD PTR [ecx]
	mov	esi, esp
	mov	ecx, DWORD PTR [edx+52]
	mov	edx, DWORD PTR [eax+12]
	call	edx
	cmp	esi, esp
	call	__RTC_CheckEsp
	mov	WORD PTR _fallbackChar$1[ebp], ax
; Line 34
	mov	eax, DWORD PTR _this$[ebp]
	mov	ecx, DWORD PTR [eax+52]
	mov	DWORD PTR tv143[ebp], ecx
	movzx	edx, WORD PTR _fallbackChar$1[ebp]
	push	edx
	mov	ecx, DWORD PTR tv143[ebp]
	call	?find@ConstFont@touchgfx@@QBEPBUGlyphNode@2@G@Z ; touchgfx::ConstFont::find
	mov	DWORD PTR _n$[ebp], eax
; Line 35
	cmp	DWORD PTR _n$[ebp], 0
	jne	SHORT $LN4@getGlyph
; Line 37
	mov	eax, DWORD PTR _this$[ebp]
	mov	ecx, DWORD PTR [eax+48]
	mov	DWORD PTR tv152[ebp], ecx
	mov	edx, DWORD PTR _this$[ebp]
	movzx	eax, WORD PTR [edx+44]
	push	eax
	movzx	ecx, WORD PTR _fallbackChar$1[ebp]
	push	ecx
	mov	ecx, DWORD PTR tv152[ebp]
	call	?getGlyph@FontCache@touchgfx@@QBEPBUGlyphNode@2@GG@Z ; touchgfx::FontCache::getGlyph
	mov	DWORD PTR _n$[ebp], eax
$LN4@getGlyph:
; Line 41
	cmp	DWORD PTR _n$[ebp], 0
	je	SHORT $LN5@getGlyph
; Line 43
	mov	eax, DWORD PTR _this$[ebp]
	mov	ecx, DWORD PTR [eax]
	mov	edx, DWORD PTR [ecx+88]
	mov	DWORD PTR tv164[ebp], edx
	mov	esi, esp
	mov	eax, DWORD PTR _n$[ebp]
	push	eax
	mov	ecx, DWORD PTR _this$[ebp]
	call	DWORD PTR tv164[ebp]
	cmp	esi, esp
	call	__RTC_CheckEsp
	mov	ecx, DWORD PTR _pixelData$[ebp]
	mov	DWORD PTR [ecx], eax
; Line 44
	mov	eax, DWORD PTR _this$[ebp]
	mov	edx, DWORD PTR [eax]
	mov	esi, esp
	mov	ecx, DWORD PTR _this$[ebp]
	mov	eax, DWORD PTR [edx+56]
	call	eax
	cmp	esi, esp
	call	__RTC_CheckEsp
	mov	ecx, DWORD PTR _bitsPerPixel$[ebp]
	mov	BYTE PTR [ecx], al
; Line 45
	mov	eax, DWORD PTR _n$[ebp]
	jmp	SHORT $LN1@getGlyph
$LN5@getGlyph:
; Line 47
	xor	eax, eax
$LN1@getGlyph:
; Line 48
	pop	edi
	pop	esi
	pop	ebx
	add	esp, 232				; 000000e8H
	cmp	ebp, esp
	call	__RTC_CheckEsp
	mov	esp, ebp
	pop	ebp
	ret	12					; 0000000cH
?getGlyph@CachedFont@touchgfx@@UBEPBUGlyphNode@2@GAAPBEAAE@Z ENDP ; touchgfx::CachedFont::getGlyph
_TEXT	ENDS
; Function compile flags: /Odtp /RTCsu /ZI
;	COMDAT ?isCached@FontCache@touchgfx@@SA_NPBUGlyphNode@2@@Z
_TEXT	SEGMENT
tv66 = -196						; size = 4
_g$ = 8							; size = 4
?isCached@FontCache@touchgfx@@SA_NPBUGlyphNode@2@@Z PROC ; touchgfx::FontCache::isCached, COMDAT
; File C:\DT\Solutions\Una\una-watch\Apps\Utility2\GUI\Software\App\TouchGFX-GUI\generated\fonts\include\fonts\FontCache.hpp
; Line 55
	push	ebp
	mov	ebp, esp
	sub	esp, 196				; 000000c4H
	push	ebx
	push	esi
	push	edi
	lea	edi, DWORD PTR [ebp-4]
	mov	ecx, 1
	mov	eax, -858993460				; ccccccccH
	rep stosd
	mov	ecx, OFFSET __5D518954_FontCache@hpp
	call	@__CheckForDebuggerJustMyCode@4
	npad	1
; Line 56
	mov	eax, DWORD PTR _g$[ebp]
	cmp	DWORD PTR [eax], -1
	jne	SHORT $LN3@isCached
	mov	DWORD PTR tv66[ebp], 1
	jmp	SHORT $LN4@isCached
$LN3@isCached:
	mov	DWORD PTR tv66[ebp], 0
$LN4@isCached:
	movzx	eax, BYTE PTR tv66[ebp]
; Line 57
	pop	edi
	pop	esi
	pop	ebx
	add	esp, 196				; 000000c4H
	cmp	ebp, esp
	call	__RTC_CheckEsp
	mov	esp, ebp
	pop	ebp
	ret	0
?isCached@FontCache@touchgfx@@SA_NPBUGlyphNode@2@@Z ENDP ; touchgfx::FontCache::isCached
_TEXT	ENDS
; Function compile flags: /Odtp /RTCsu /ZI
;	COMDAT ?getPixelData@FontCache@touchgfx@@SAPBEPBUGlyphNode@2@@Z
_TEXT	SEGMENT
_glyph$ = 8						; size = 4
?getPixelData@FontCache@touchgfx@@SAPBEPBUGlyphNode@2@@Z PROC ; touchgfx::FontCache::getPixelData, COMDAT
; File C:\DT\Solutions\Una\una-watch\Apps\Utility2\GUI\Software\App\TouchGFX-GUI\generated\fonts\include\fonts\FontCache.hpp
; Line 50
	push	ebp
	mov	ebp, esp
	sub	esp, 192				; 000000c0H
	push	ebx
	push	esi
	push	edi
	mov	edi, ebp
	xor	ecx, ecx
	mov	eax, -858993460				; ccccccccH
	rep stosd
	mov	ecx, OFFSET __5D518954_FontCache@hpp
	call	@__CheckForDebuggerJustMyCode@4
	npad	1
; Line 51
	mov	eax, DWORD PTR _glyph$[ebp]
	add	eax, 20					; 00000014H
; Line 52
	pop	edi
	pop	esi
	pop	ebx
	add	esp, 192				; 000000c0H
	cmp	ebp, esp
	call	__RTC_CheckEsp
	mov	esp, ebp
	pop	ebp
	ret	0
?getPixelData@FontCache@touchgfx@@SAPBEPBUGlyphNode@2@@Z ENDP ; touchgfx::FontCache::getPixelData
_TEXT	ENDS
END
