; Listing generated by Microsoft (R) Optimizing Compiler Version 19.42.34436.0 

	TITLE	C:\DT\Solutions\Una\una-watch\Apps\Utility2\GUI\Software\App\TouchGFX-GUI\build\Debug\obj\CompressedFontCache.obj
	.686P
	.XMM
	include listing.inc
	.model	flat

INCLUDELIB MSVCRTD
INCLUDELIB OLDNAMES

PUBLIC	?cacheClearCounter@CompressedFontCache@touchgfx@@2HA ; touchgfx::CompressedFontCache::cacheClearCounter
PUBLIC	?bitmapFontCache@CompressedFontCache@touchgfx@@0PAIA ; touchgfx::CompressedFontCache::bitmapFontCache
PUBLIC	?pixelsTop@CompressedFontCache@touchgfx@@0PAEA	; touchgfx::CompressedFontCache::pixelsTop
PUBLIC	?glyphsAllocated@CompressedFontCache@touchgfx@@0HA ; touchgfx::CompressedFontCache::glyphsAllocated
_BSS	SEGMENT
?cacheClearCounter@CompressedFontCache@touchgfx@@2HA DD 01H DUP (?) ; touchgfx::CompressedFontCache::cacheClearCounter
?bitmapFontCache@CompressedFontCache@touchgfx@@0PAIA DD 0400H DUP (?) ; touchgfx::CompressedFontCache::bitmapFontCache
?glyphsAllocated@CompressedFontCache@touchgfx@@0HA DD 01H DUP (?) ; touchgfx::CompressedFontCache::glyphsAllocated
_BSS	ENDS
msvcjmc	SEGMENT
__3A77C584_concurrencysal@h DB 01H
__7D61E6FE_sal@h DB 01H
__F85DFF2E_vadefs@h DB 01H
__E62C82FD_vcruntime@h DB 01H
__B193B045_corecrt@h DB 01H
__829D5E02_assert@h DB 01H
__80509148_stdint@h DB 01H
__CA6578A3_Config@hpp DB 01H
__26FA5A17_Types@hpp DB 01H
__B48F2F87_stdarg@h DB 01H
__614D25B1_Unicode@hpp DB 01H
__EEB25667_Font@hpp DB 01H
__67A47BAD_CompressedFontCache@hpp DB 01H
__283D6FFD_MCUInstrumentation@hpp DB 01H
__C646993E_ButtonController@hpp DB 01H
__834C84FB_TouchController@hpp DB 01H
__253B2C74_Bitmap@hpp DB 01H
__A7E77610_Event@hpp DB 01H
__93BF1F38_ClickEvent@hpp DB 01H
__98FEAE89_DragEvent@hpp DB 01H
__6D57A881_GestureEvent@hpp DB 01H
__EF94F1A4_Drawable@hpp DB 01H
__E59B061F_BlitOp@hpp DB 01H
__47F55FD8_winpackagefamily@h DB 01H
__43D6A374_winapifamily@h DB 01H
__1901F874_sdkddkver@h DB 01H
__175159AA_excpt@h DB 01H
__E6072EC9_specstrings_undef@h DB 01H
__445FE107_specstrings_strict@h DB 01H
__BD537E1B_sdv_driverspecs@h DB 01H
__3F5C3A3E_driverspecs@h DB 01H
__B2271095_specstrings@h DB 01H
__CEB01B85_corecrt_wctype@h DB 01H
__F4C5B92D_ctype@h DB 01H
__B0334AF2_kernelspecs@h DB 01H
__7BD7BC39_basetsd@h DB 01H
__8BCDFB61_errno@h DB 01H
__731D38DD_vcruntime_string@h DB 01H
__01D3FBD4_corecrt_memcpy_s@h DB 01H
__3457A0B2_corecrt_memory@h DB 01H
__AB90C308_corecrt_wstring@h DB 01H
__73A79D70_string@h DB 01H
__D7559D2D_guiddef@h DB 01H
__7547C931_pshpack4@h DB 01H
__7DDD4519_poppack@h DB 01H
__71CAB583_pshpack2@h DB 01H
__7C5D3055_pshpack8@h DB 01H
__738C0BDA_pshpack1@h DB 01H
__1C9F21B1_apiset@h DB 01H
__2F087542_ktmtypes@h DB 01H
__D973E9FE_winnt@h DB 01H
__98C9D0B3_minwindef@h DB 01H
__846ACC34_windef@h DB 01H
__B2833B1D_apisetcconv@h DB 01H
__65F67381_minwinbase@h DB 01H
__F79B608C_apiquery2@h DB 01H
__B4C7A98B_processenv@h DB 01H
__DF741256_fileapi@h DB 01H
__EE294ADE_fileapifromapp@h DB 01H
__2415F290_debugapi@h DB 01H
__3ABCAF99_utilapiset@h DB 01H
__DC675CCD_handleapi@h DB 01H
__1EE8BDBC_errhandlingapi@h DB 01H
__5536C2A0_fibersapi@h DB 01H
__03BC99EF_namedpipeapi@h DB 01H
__BFDA960B_profileapi@h DB 01H
__72D52E63_heapapi@h DB 01H
__CB61E9E6_ioapiset@h DB 01H
__0964D70A_synchapi@h DB 01H
__C5B6E0D5_interlockedapi@h DB 01H
__7A06A762_processthreadsapi@h DB 01H
__06601839_sysinfoapi@h DB 01H
__83C95515_memoryapi@h DB 01H
__10D4E8CE_enclaveapi@h DB 01H
__449E31C2_threadpoollegacyapiset@h DB 01H
__7261473A_threadpoolapiset@h DB 01H
__34DDE763_jobapi@h DB 01H
__24F9B6F8_jobapi2@h DB 01H
__9D32A781_wow64apiset@h DB 01H
__42631685_libloaderapi@h DB 01H
__E4FC10D9_securitybaseapi@h DB 01H
__431D9E98_namespaceapi@h DB 01H
__FFFFF160_systemtopologyapi@h DB 01H
__A82F39F5_processtopologyapi@h DB 01H
__09607D26_securityappcontainer@h DB 01H
__5A1E44E7_realtimeapiset@h DB 01H
__7E4B086B_winerror@h DB 01H
__FB5F7188_timezoneapi@h DB 01H
__F5FA337F_winbase@h DB 01H
__974A03B0_wingdi@h DB 01H
__78DBB10D_tvout@h DB 01H
__9D127808_winuser@h DB 01H
__A3AA936A_datetimeapi@h DB 01H
__4E5F6F88_winnls@h DB 01H
__1DF71788_stringapiset@h DB 01H
__64D832F9_wincontypes@h DB 01H
__6EC4454C_consoleapi@h DB 01H
__8F729203_consoleapi2@h DB 01H
__8EB0F834_consoleapi3@h DB 01H
__B08434F4_wincon@h DB 01H
__B0971967_verrsrc@h DB 01H
__62059676_winver@h DB 01H
__AE7275B3_reason@h DB 01H
__8D68512D_winreg@h DB 01H
__7580E811_wnnc@h DB 01H
__4755B33A_winnetwk@h DB 01H
__4756EC77_cderr@h DB 01H
__8490232D_dde@h DB 01H
__448B1044_ddeml@h DB 01H
__5E0CF316_dlgs@h DB 01H
__8964D6C1_lzexpand@h DB 01H
__F99DDC7B_mmsyscom@h DB 01H
__937F74CD_mciapi@h DB 01H
__C6F31038_mmiscapi@h DB 01H
__D8B21073_mmiscapi2@h DB 01H
__29FD8C93_playsoundapi@h DB 01H
__B482CFEB_mmeapi@h DB 01H
__FB357315_timeapi@h DB 01H
__3B6CEA41_joystickapi@h DB 01H
__44E0778D_mmsystem@h DB 01H
__7614C57D_nb30@h DB 01H
__7719C8EB_rpcdcep@h DB 01H
__A57FE916_rpcdce@h DB 01H
__51ACCA40_rpcnsi@h DB 01H
__A7E951E3_rpcnterr@h DB 01H
__EE9F4A51_rpcasync@h DB 01H
__40DD64C8_rpc@h DB 01H
__826CAF91_shellapi@h DB 01H
__F49EEF13_winperf@h DB 01H
__7A390FBF_inaddr@h DB 01H
__D8C726B5_winsock@h DB 01H
__8040ED55_bcrypt@h DB 01H
__308F6D16_ncrypt@h DB 01H
__8DF4BBA0_dpapi@h DB 01H
__4A6CF89C_wincrypt@h DB 01H
__5632BEFD_winefs@h DB 01H
__F5E5EF09_rpcnsip@h DB 01H
__D2675180_rpcsal@h DB 01H
__6B717CFB_rpcndr@h DB 01H
__FC933916_wtypesbase@h DB 01H
__133D53C0_wtypes@h DB 01H
__E6535C2B_winioctl@h DB 01H
__6F9DFF63_winsmcrd@h DB 01H
__038702D4_winscard@h DB 01H
__C8DE29C7_prsht@h DB 01H
__9595127A_winspool@h DB 01H
__FF268430_corecrt_malloc@h DB 01H
__887B5571_stddef@h DB 01H
__4795E95E_corecrt_search@h DB 01H
__2DE357AC_corecrt_wstdlib@h DB 01H
__3E26BF77_limits@h DB 01H
__F5D409D4_stdlib@h DB 01H
__C9A2E177_unknwnbase@h DB 01H
__CB9F573B_objidlbase@h DB 01H
__E6290D09_cguid@h DB 01H
__BA545668_combaseapi@h DB 01H
__0AF62775_unknwn@h DB 01H
__18794348_objidl@h DB 01H
__AEB97786_oaidl@h DB 01H
__8695B478_propidlbase@h DB 01H
__24C23182_coml2api@h DB 01H
__B9108AC0_oleidl@h DB 01H
__8AA73F42_servprov@h DB 01H
__57B03487_msxml@h DB 01H
__6580E4D7_urlmon@h DB 01H
__AA4CC487_propidl@h DB 01H
__4BC7EB53_objbase@h DB 01H
__2BB1770B_oleauto@h DB 01H
__EF9A2CA9_ole2@h DB 01H
__C1199D1A_commdlg@h DB 01H
__0B10BAC3_stralign@h DB 01H
__F5AD2830_winsvc@h DB 01H
__00A949C6_mcx@h DB 01H
__AE6FAD4A_ime_cmodes@h DB 01H
__0F1BF9AE_imm@h DB 01H
__0B5A2696_windows@h DB 01H
__DB288696_Atomic@hpp DB 01H
__BC9ACCE5_DMA@hpp DB 01H
__AE3A6B51_FrameBufferAllocator@hpp DB 01H
__85CF6DCE_UIEventListener@hpp DB 01H
__40BB96B7_Gestures@hpp DB 01H
__F4CD76EB_TextProvider@hpp DB 01H
__B7FF32C6_TextureMapTypes@hpp DB 01H
__4C86B5EF_Matrix3x3@hpp DB 01H
__AFD2B641_VGData@hpp DB 01H
__28F4793E_Widget@hpp DB 01H
__2FB3EB7E_VectorRenderer@hpp DB 01H
__8CA7D8FA_VectorFontRenderer@hpp DB 01H
__3159DE00_DebugPrinter@hpp DB 01H
__726B6D25_LCD@hpp DB 01H
__F468A25B_HAL@hpp DB 01H
__FEE9D44B_Paint@hpp DB 01H
__28487B8F_CompressedFontCache@cpp DB 01H
msvcjmc	ENDS
_DATA	SEGMENT
?pixelsTop@CompressedFontCache@touchgfx@@0PAEA DD FLAT:?bitmapFontCache@CompressedFontCache@touchgfx@@0PAIA ; touchgfx::CompressedFontCache::pixelsTop
_DATA	ENDS
PUBLIC	?width@GlyphNode@touchgfx@@QBEFXZ		; touchgfx::GlyphNode::width
PUBLIC	?height@GlyphNode@touchgfx@@QBEFXZ		; touchgfx::GlyphNode::height
PUBLIC	?clearCache@CompressedFontCache@touchgfx@@SAXXZ	; touchgfx::CompressedFontCache::clearCache
PUBLIC	?hasCachedGlyph@CompressedFontCache@touchgfx@@SAPBEPBUGlyphNode@2@@Z ; touchgfx::CompressedFontCache::hasCachedGlyph
PUBLIC	?unableToCache@CompressedFontCache@touchgfx@@SAXPBUGlyphNode@2@H@Z ; touchgfx::CompressedFontCache::unableToCache
PUBLIC	?cacheGlyph@CompressedFontCache@touchgfx@@SAPBEPBUGlyphNode@2@PBE@Z ; touchgfx::CompressedFontCache::cacheGlyph
PUBLIC	?decompressGlyph@CompressedFontCache@touchgfx@@CAPAEPAEPBUGlyphNode@2@PBE@Z ; touchgfx::CompressedFontCache::decompressGlyph
PUBLIC	?getInstance@HAL@touchgfx@@SAPAV12@XZ		; touchgfx::HAL::getInstance
PUBLIC	?lockUnlockFrameBuffer@HAL@touchgfx@@QAEXXZ	; touchgfx::HAL::lockUnlockFrameBuffer
PUBLIC	__JustMyCode_Default
EXTRN	?flushLine@paint@touchgfx@@YAXPAIH@Z:PROC	; touchgfx::paint::flushLine
EXTRN	?invalidateTextureCache@paint@touchgfx@@YAXXZ:PROC ; touchgfx::paint::invalidateTextureCache
EXTRN	@_RTC_CheckStackVars@8:PROC
EXTRN	@__CheckForDebuggerJustMyCode@4:PROC
EXTRN	__RTC_CheckEsp:PROC
EXTRN	__RTC_InitBase:PROC
EXTRN	__RTC_Shutdown:PROC
EXTRN	?instance@HAL@touchgfx@@0PAV12@A:DWORD		; touchgfx::HAL::instance
;	COMDAT rtc$TMZ
rtc$TMZ	SEGMENT
__RTC_Shutdown.rtc$TMZ DD FLAT:__RTC_Shutdown
rtc$TMZ	ENDS
;	COMDAT rtc$IMZ
rtc$IMZ	SEGMENT
__RTC_InitBase.rtc$IMZ DD FLAT:__RTC_InitBase
rtc$IMZ	ENDS
; Function compile flags: /Odt
;	COMDAT __JustMyCode_Default
_TEXT	SEGMENT
__JustMyCode_Default PROC				; COMDAT
	push	ebp
	mov	ebp, esp
	pop	ebp
	ret	0
__JustMyCode_Default ENDP
_TEXT	ENDS
; Function compile flags: /Odtp /RTCsu /ZI
;	COMDAT ?eof@NibWriter@?A0x22aa2b48@touchgfx@@QAE_NXZ
_TEXT	SEGMENT
tv67 = -208						; size = 4
_this$ = -8						; size = 4
?eof@NibWriter@?A0x22aa2b48@touchgfx@@QAE_NXZ PROC	; touchgfx::`anonymous namespace'::NibWriter::eof, COMDAT
; _this$ = ecx
; File C:\DT\Solutions\Una\una-watch\Apps\Utility2\GUI\Software\App\TouchGFX-GUI\generated\fonts\src\CompressedFontCache.cpp
; Line 63
	push	ebp
	mov	ebp, esp
	sub	esp, 208				; 000000d0H
	push	ebx
	push	esi
	push	edi
	push	ecx
	lea	edi, DWORD PTR [ebp-16]
	mov	ecx, 4
	mov	eax, -858993460				; ccccccccH
	rep stosd
	pop	ecx
	mov	DWORD PTR _this$[ebp], ecx
	mov	ecx, OFFSET __28487B8F_CompressedFontCache@cpp
	call	@__CheckForDebuggerJustMyCode@4
	npad	1
	mov	eax, DWORD PTR _this$[ebp]
	mov	ecx, DWORD PTR _this$[ebp]
	mov	edx, DWORD PTR [eax]
	cmp	edx, DWORD PTR [ecx+4]
	jb	SHORT $LN3@eof
	mov	DWORD PTR tv67[ebp], 1
	jmp	SHORT $LN4@eof
$LN3@eof:
	mov	DWORD PTR tv67[ebp], 0
$LN4@eof:
	movzx	eax, BYTE PTR tv67[ebp]
	pop	edi
	pop	esi
	pop	ebx
	add	esp, 208				; 000000d0H
	cmp	ebp, esp
	call	__RTC_CheckEsp
	mov	esp, ebp
	pop	ebp
	ret	0
?eof@NibWriter@?A0x22aa2b48@touchgfx@@QAE_NXZ ENDP	; touchgfx::`anonymous namespace'::NibWriter::eof
_TEXT	ENDS
; Function compile flags: /Odtp /RTCsu /ZI
;	COMDAT ?put@NibWriter@?A0x22aa2b48@touchgfx@@QAEXE@Z
_TEXT	SEGMENT
_this$ = -8						; size = 4
_v$ = 8							; size = 1
?put@NibWriter@?A0x22aa2b48@touchgfx@@QAEXE@Z PROC	; touchgfx::`anonymous namespace'::NibWriter::put, COMDAT
; _this$ = ecx
; File C:\DT\Solutions\Una\una-watch\Apps\Utility2\GUI\Software\App\TouchGFX-GUI\generated\fonts\src\CompressedFontCache.cpp
; Line 52
	push	ebp
	mov	ebp, esp
	sub	esp, 204				; 000000ccH
	push	ebx
	push	esi
	push	edi
	push	ecx
	lea	edi, DWORD PTR [ebp-12]
	mov	ecx, 3
	mov	eax, -858993460				; ccccccccH
	rep stosd
	pop	ecx
	mov	DWORD PTR _this$[ebp], ecx
	mov	ecx, OFFSET __28487B8F_CompressedFontCache@cpp
	call	@__CheckForDebuggerJustMyCode@4
	npad	1
; Line 53
	mov	eax, DWORD PTR _this$[ebp]
	cmp	DWORD PTR [eax+8], 0
	je	SHORT $LN2@put
; Line 55
	mov	eax, DWORD PTR _this$[ebp]
	mov	ecx, DWORD PTR [eax]
	mov	dl, BYTE PTR _v$[ebp]
	mov	BYTE PTR [ecx], dl
; Line 56
	mov	eax, DWORD PTR _this$[ebp]
	mov	DWORD PTR [eax+8], 0
; Line 57
	jmp	SHORT $LN1@put
$LN2@put:
; Line 59
	movzx	eax, BYTE PTR _v$[ebp]
	shl	eax, 4
	mov	ecx, DWORD PTR _this$[ebp]
	mov	edx, DWORD PTR [ecx]
	movzx	ecx, BYTE PTR [edx]
	or	ecx, eax
	mov	edx, DWORD PTR _this$[ebp]
	mov	eax, DWORD PTR [edx]
	mov	BYTE PTR [eax], cl
; Line 60
	mov	eax, DWORD PTR _this$[ebp]
	mov	ecx, DWORD PTR [eax]
	add	ecx, 1
	mov	edx, DWORD PTR _this$[ebp]
	mov	DWORD PTR [edx], ecx
; Line 61
	mov	eax, DWORD PTR _this$[ebp]
	mov	DWORD PTR [eax+8], 1
$LN1@put:
; Line 62
	pop	edi
	pop	esi
	pop	ebx
	add	esp, 204				; 000000ccH
	cmp	ebp, esp
	call	__RTC_CheckEsp
	mov	esp, ebp
	pop	ebp
	ret	4
?put@NibWriter@?A0x22aa2b48@touchgfx@@QAEXE@Z ENDP	; touchgfx::`anonymous namespace'::NibWriter::put
_TEXT	ENDS
; Function compile flags: /Odtp /RTCsu /ZI
;	COMDAT ??0NibWriter@?A0x22aa2b48@touchgfx@@QAE@PAEH@Z
_TEXT	SEGMENT
_this$ = -8						; size = 4
_buffer$ = 8						; size = 4
_size$ = 12						; size = 4
??0NibWriter@?A0x22aa2b48@touchgfx@@QAE@PAEH@Z PROC	; touchgfx::`anonymous namespace'::NibWriter::NibWriter, COMDAT
; _this$ = ecx
; File C:\DT\Solutions\Una\una-watch\Apps\Utility2\GUI\Software\App\TouchGFX-GUI\generated\fonts\src\CompressedFontCache.cpp
; Line 45
	push	ebp
	mov	ebp, esp
	sub	esp, 204				; 000000ccH
	push	ebx
	push	esi
	push	edi
	push	ecx
	lea	edi, DWORD PTR [ebp-12]
	mov	ecx, 3
	mov	eax, -858993460				; ccccccccH
	rep stosd
	pop	ecx
	mov	DWORD PTR _this$[ebp], ecx
	mov	ecx, OFFSET __28487B8F_CompressedFontCache@cpp
	call	@__CheckForDebuggerJustMyCode@4
	npad	1
; Line 46
	mov	eax, DWORD PTR _this$[ebp]
	mov	ecx, DWORD PTR _buffer$[ebp]
	mov	DWORD PTR [eax], ecx
	mov	eax, DWORD PTR _buffer$[ebp]
	add	eax, DWORD PTR _size$[ebp]
	mov	ecx, DWORD PTR _this$[ebp]
	mov	DWORD PTR [ecx+4], eax
	mov	eax, DWORD PTR _this$[ebp]
	mov	DWORD PTR [eax+8], 1
	mov	eax, DWORD PTR _this$[ebp]
	pop	edi
	pop	esi
	pop	ebx
	add	esp, 204				; 000000ccH
	cmp	ebp, esp
	call	__RTC_CheckEsp
	mov	esp, ebp
	pop	ebp
	ret	8
??0NibWriter@?A0x22aa2b48@touchgfx@@QAE@PAEH@Z ENDP	; touchgfx::`anonymous namespace'::NibWriter::NibWriter
_TEXT	ENDS
; Function compile flags: /Odtp /RTCsu /ZI
;	COMDAT ?getNext@NibReader@?A0x22aa2b48@touchgfx@@QAEEXZ
_TEXT	SEGMENT
_val$ = -29						; size = 1
_val$1 = -17						; size = 1
_this$ = -8						; size = 4
?getNext@NibReader@?A0x22aa2b48@touchgfx@@QAEEXZ PROC	; touchgfx::`anonymous namespace'::NibReader::getNext, COMDAT
; _this$ = ecx
; File C:\DT\Solutions\Una\una-watch\Apps\Utility2\GUI\Software\App\TouchGFX-GUI\generated\fonts\src\CompressedFontCache.cpp
; Line 29
	push	ebp
	mov	ebp, esp
	sub	esp, 228				; 000000e4H
	push	ebx
	push	esi
	push	edi
	push	ecx
	lea	edi, DWORD PTR [ebp-36]
	mov	ecx, 9
	mov	eax, -858993460				; ccccccccH
	rep stosd
	pop	ecx
	mov	DWORD PTR _this$[ebp], ecx
	mov	ecx, OFFSET __28487B8F_CompressedFontCache@cpp
	call	@__CheckForDebuggerJustMyCode@4
	npad	1
; Line 30
	mov	eax, DWORD PTR _this$[ebp]
	movzx	ecx, BYTE PTR [eax+8]
	test	ecx, ecx
	je	SHORT $LN2@getNext
; Line 32
	mov	eax, DWORD PTR _this$[ebp]
	mov	ecx, DWORD PTR [eax+4]
	mov	edx, DWORD PTR _this$[ebp]
	mov	eax, DWORD PTR [edx]
	movzx	ecx, BYTE PTR [eax+ecx]
	and	ecx, 15					; 0000000fH
	mov	BYTE PTR _val$1[ebp], cl
; Line 33
	mov	eax, DWORD PTR _this$[ebp]
	mov	BYTE PTR [eax+8], 0
; Line 34
	mov	al, BYTE PTR _val$1[ebp]
	jmp	SHORT $LN1@getNext
$LN2@getNext:
; Line 36
	mov	eax, DWORD PTR _this$[ebp]
	mov	ecx, DWORD PTR [eax+4]
	mov	edx, DWORD PTR _this$[ebp]
	mov	eax, DWORD PTR [edx]
	movzx	ecx, BYTE PTR [eax+ecx]
	sar	ecx, 4
	mov	BYTE PTR _val$[ebp], cl
; Line 37
	mov	eax, DWORD PTR _this$[ebp]
	mov	BYTE PTR [eax+8], 1
; Line 38
	mov	eax, DWORD PTR _this$[ebp]
	mov	ecx, DWORD PTR [eax+4]
	add	ecx, 1
	mov	edx, DWORD PTR _this$[ebp]
	mov	DWORD PTR [edx+4], ecx
; Line 39
	mov	al, BYTE PTR _val$[ebp]
$LN1@getNext:
; Line 40
	pop	edi
	pop	esi
	pop	ebx
	add	esp, 228				; 000000e4H
	cmp	ebp, esp
	call	__RTC_CheckEsp
	mov	esp, ebp
	pop	ebp
	ret	0
?getNext@NibReader@?A0x22aa2b48@touchgfx@@QAEEXZ ENDP	; touchgfx::`anonymous namespace'::NibReader::getNext
_TEXT	ENDS
; Function compile flags: /Odtp /RTCsu /ZI
;	COMDAT ??0NibReader@?A0x22aa2b48@touchgfx@@QAE@PBE@Z
_TEXT	SEGMENT
_this$ = -8						; size = 4
_buffer$ = 8						; size = 4
??0NibReader@?A0x22aa2b48@touchgfx@@QAE@PBE@Z PROC	; touchgfx::`anonymous namespace'::NibReader::NibReader, COMDAT
; _this$ = ecx
; File C:\DT\Solutions\Una\una-watch\Apps\Utility2\GUI\Software\App\TouchGFX-GUI\generated\fonts\src\CompressedFontCache.cpp
; Line 23
	push	ebp
	mov	ebp, esp
	sub	esp, 204				; 000000ccH
	push	ebx
	push	esi
	push	edi
	push	ecx
	lea	edi, DWORD PTR [ebp-12]
	mov	ecx, 3
	mov	eax, -858993460				; ccccccccH
	rep stosd
	pop	ecx
	mov	DWORD PTR _this$[ebp], ecx
	mov	ecx, OFFSET __28487B8F_CompressedFontCache@cpp
	call	@__CheckForDebuggerJustMyCode@4
	npad	1
; Line 22
	mov	eax, DWORD PTR _this$[ebp]
	mov	ecx, DWORD PTR _buffer$[ebp]
	mov	DWORD PTR [eax], ecx
	mov	eax, DWORD PTR _this$[ebp]
	mov	DWORD PTR [eax+4], 0
	mov	eax, DWORD PTR _this$[ebp]
	mov	BYTE PTR [eax+8], 1
; Line 23
	mov	eax, DWORD PTR _this$[ebp]
	pop	edi
	pop	esi
	pop	ebx
	add	esp, 204				; 000000ccH
	cmp	ebp, esp
	call	__RTC_CheckEsp
	mov	esp, ebp
	pop	ebp
	ret	4
??0NibReader@?A0x22aa2b48@touchgfx@@QAE@PBE@Z ENDP	; touchgfx::`anonymous namespace'::NibReader::NibReader
_TEXT	ENDS
; Function compile flags: /Odtp /RTCsu /ZI
;	COMDAT ?lockUnlockFrameBuffer@HAL@touchgfx@@QAEXXZ
_TEXT	SEGMENT
_this$ = -8						; size = 4
?lockUnlockFrameBuffer@HAL@touchgfx@@QAEXXZ PROC	; touchgfx::HAL::lockUnlockFrameBuffer, COMDAT
; _this$ = ecx
; File C:\DT\Solutions\Una\una-watch\Apps\Utility2\GUI\Software\App\TouchGFX-GUI\touchgfx\framework\include\touchgfx\hal\HAL.hpp
; Line 291
	push	ebp
	mov	ebp, esp
	sub	esp, 204				; 000000ccH
	push	ebx
	push	esi
	push	edi
	push	ecx
	lea	edi, DWORD PTR [ebp-12]
	mov	ecx, 3
	mov	eax, -858993460				; ccccccccH
	rep stosd
	pop	ecx
	mov	DWORD PTR _this$[ebp], ecx
	mov	ecx, OFFSET __F468A25B_HAL@hpp
	call	@__CheckForDebuggerJustMyCode@4
	npad	1
; Line 292
	mov	eax, DWORD PTR _this$[ebp]
	mov	edx, DWORD PTR [eax]
	mov	esi, esp
	mov	ecx, DWORD PTR _this$[ebp]
	mov	eax, DWORD PTR [edx+40]
	call	eax
	cmp	esi, esp
	call	__RTC_CheckEsp
	npad	1
; Line 293
	mov	eax, DWORD PTR _this$[ebp]
	mov	edx, DWORD PTR [eax]
	mov	esi, esp
	mov	ecx, DWORD PTR _this$[ebp]
	mov	eax, DWORD PTR [edx+44]
	call	eax
	cmp	esi, esp
	call	__RTC_CheckEsp
	npad	1
; Line 294
	pop	edi
	pop	esi
	pop	ebx
	add	esp, 204				; 000000ccH
	cmp	ebp, esp
	call	__RTC_CheckEsp
	mov	esp, ebp
	pop	ebp
	ret	0
?lockUnlockFrameBuffer@HAL@touchgfx@@QAEXXZ ENDP	; touchgfx::HAL::lockUnlockFrameBuffer
_TEXT	ENDS
; Function compile flags: /Odtp /RTCsu /ZI
;	COMDAT ?getInstance@HAL@touchgfx@@SAPAV12@XZ
_TEXT	SEGMENT
?getInstance@HAL@touchgfx@@SAPAV12@XZ PROC		; touchgfx::HAL::getInstance, COMDAT
; File C:\DT\Solutions\Una\una-watch\Apps\Utility2\GUI\Software\App\TouchGFX-GUI\touchgfx\framework\include\touchgfx\hal\HAL.hpp
; Line 116
	push	ebp
	mov	ebp, esp
	sub	esp, 192				; 000000c0H
	push	ebx
	push	esi
	push	edi
	mov	edi, ebp
	xor	ecx, ecx
	mov	eax, -858993460				; ccccccccH
	rep stosd
	mov	ecx, OFFSET __F468A25B_HAL@hpp
	call	@__CheckForDebuggerJustMyCode@4
	npad	1
; Line 117
	mov	eax, DWORD PTR ?instance@HAL@touchgfx@@0PAV12@A ; touchgfx::HAL::instance
; Line 118
	pop	edi
	pop	esi
	pop	ebx
	add	esp, 192				; 000000c0H
	cmp	ebp, esp
	call	__RTC_CheckEsp
	mov	esp, ebp
	pop	ebp
	ret	0
?getInstance@HAL@touchgfx@@SAPAV12@XZ ENDP		; touchgfx::HAL::getInstance
_TEXT	ENDS
; Function compile flags: /Odtp /RTCsu /ZI
;	COMDAT ?decompressGlyph@CompressedFontCache@touchgfx@@CAPAEPAEPBUGlyphNode@2@PBE@Z
_TEXT	SEGMENT
tv155 = -317						; size = 1
_count$1 = -120						; size = 4
_value$2 = -105						; size = 1
_zeroCount$3 = -96					; size = 4
_value$4 = -81						; size = 1
_algorithm$ = -72					; size = 4
_pixelsEnd$ = -60					; size = 4
_reader$ = -48						; size = 12
_writer$ = -28						; size = 12
_byteSize$ = -8						; size = 4
_pixelsTop$ = 8						; size = 4
_glyphNode$ = 12					; size = 4
_compressedData$ = 16					; size = 4
?decompressGlyph@CompressedFontCache@touchgfx@@CAPAEPAEPBUGlyphNode@2@PBE@Z PROC ; touchgfx::CompressedFontCache::decompressGlyph, COMDAT
; File C:\DT\Solutions\Una\una-watch\Apps\Utility2\GUI\Software\App\TouchGFX-GUI\generated\fonts\src\CompressedFontCache.cpp
; Line 68
	push	ebp
	mov	ebp, esp
	sub	esp, 320				; 00000140H
	push	ebx
	push	esi
	push	edi
	lea	edi, DWORD PTR [ebp-128]
	mov	ecx, 32					; 00000020H
	mov	eax, -858993460				; ccccccccH
	rep stosd
	mov	ecx, OFFSET __28487B8F_CompressedFontCache@cpp
	call	@__CheckForDebuggerJustMyCode@4
	npad	1
; Line 69
	mov	ecx, DWORD PTR _glyphNode$[ebp]
	call	?width@GlyphNode@touchgfx@@QBEFXZ	; touchgfx::GlyphNode::width
	cwde
	add	eax, 1
	cdq
	sub	eax, edx
	mov	esi, eax
	sar	esi, 1
	mov	ecx, DWORD PTR _glyphNode$[ebp]
	call	?height@GlyphNode@touchgfx@@QBEFXZ	; touchgfx::GlyphNode::height
	cwde
	imul	esi, eax
	mov	DWORD PTR _byteSize$[ebp], esi
; Line 70
	mov	eax, DWORD PTR _byteSize$[ebp]
	push	eax
	mov	ecx, DWORD PTR _pixelsTop$[ebp]
	push	ecx
	lea	ecx, DWORD PTR _writer$[ebp]
	call	??0NibWriter@?A0x22aa2b48@touchgfx@@QAE@PAEH@Z ; touchgfx::`anonymous namespace'::NibWriter::NibWriter
	npad	1
; Line 71
	mov	eax, DWORD PTR _compressedData$[ebp]
	push	eax
	lea	ecx, DWORD PTR _reader$[ebp]
	call	??0NibReader@?A0x22aa2b48@touchgfx@@QAE@PBE@Z ; touchgfx::`anonymous namespace'::NibReader::NibReader
	npad	1
; Line 72
	mov	eax, DWORD PTR _pixelsTop$[ebp]
	add	eax, DWORD PTR _byteSize$[ebp]
	mov	DWORD PTR _pixelsEnd$[ebp], eax
; Line 73
	mov	eax, DWORD PTR _glyphNode$[ebp]
	mov	ecx, DWORD PTR [eax]
	shr	ecx, 30					; 0000001eH
	mov	DWORD PTR _algorithm$[ebp], ecx
; Line 74
	cmp	DWORD PTR _algorithm$[ebp], 1
	jne	SHORT $LN12@decompress
$LN2@decompress:
; Line 77
	lea	ecx, DWORD PTR _writer$[ebp]
	call	?eof@NibWriter@?A0x22aa2b48@touchgfx@@QAE_NXZ ; touchgfx::`anonymous namespace'::NibWriter::eof
	movzx	eax, al
	test	eax, eax
	jne	SHORT $LN3@decompress
; Line 79
	lea	ecx, DWORD PTR _reader$[ebp]
	call	?getNext@NibReader@?A0x22aa2b48@touchgfx@@QAEEXZ ; touchgfx::`anonymous namespace'::NibReader::getNext
	mov	BYTE PTR _value$4[ebp], al
; Line 80
	movzx	eax, BYTE PTR _value$4[ebp]
	test	eax, eax
	jne	SHORT $LN5@decompress
; Line 82
	lea	ecx, DWORD PTR _reader$[ebp]
	call	?getNext@NibReader@?A0x22aa2b48@touchgfx@@QAEEXZ ; touchgfx::`anonymous namespace'::NibReader::getNext
	movzx	eax, al
	mov	DWORD PTR _zeroCount$3[ebp], eax
$LN4@decompress:
; Line 83
	cmp	DWORD PTR _zeroCount$3[ebp], 0
	je	SHORT $LN5@decompress
; Line 85
	push	0
	lea	ecx, DWORD PTR _writer$[ebp]
	call	?put@NibWriter@?A0x22aa2b48@touchgfx@@QAEXE@Z ; touchgfx::`anonymous namespace'::NibWriter::put
	npad	1
; Line 86
	mov	eax, DWORD PTR _zeroCount$3[ebp]
	sub	eax, 1
	mov	DWORD PTR _zeroCount$3[ebp], eax
; Line 87
	jmp	SHORT $LN4@decompress
$LN5@decompress:
; Line 89
	movzx	eax, BYTE PTR _value$4[ebp]
	push	eax
	lea	ecx, DWORD PTR _writer$[ebp]
	call	?put@NibWriter@?A0x22aa2b48@touchgfx@@QAEXE@Z ; touchgfx::`anonymous namespace'::NibWriter::put
	npad	1
; Line 90
	jmp	SHORT $LN2@decompress
$LN3@decompress:
; Line 91
	jmp	$LN11@decompress
$LN12@decompress:
; Line 92
	cmp	DWORD PTR _algorithm$[ebp], 2
	jne	SHORT $LN15@decompress
$LN6@decompress:
; Line 95
	lea	ecx, DWORD PTR _writer$[ebp]
	call	?eof@NibWriter@?A0x22aa2b48@touchgfx@@QAE_NXZ ; touchgfx::`anonymous namespace'::NibWriter::eof
	movzx	eax, al
	test	eax, eax
	jne	SHORT $LN7@decompress
; Line 97
	lea	ecx, DWORD PTR _reader$[ebp]
	call	?getNext@NibReader@?A0x22aa2b48@touchgfx@@QAEEXZ ; touchgfx::`anonymous namespace'::NibReader::getNext
	mov	BYTE PTR _value$2[ebp], al
; Line 98
	movzx	eax, BYTE PTR _value$2[ebp]
	test	eax, eax
	je	SHORT $LN18@decompress
	movzx	eax, BYTE PTR _value$2[ebp]
	cmp	eax, 15					; 0000000fH
	jne	SHORT $LN9@decompress
$LN18@decompress:
; Line 100
	lea	ecx, DWORD PTR _reader$[ebp]
	call	?getNext@NibReader@?A0x22aa2b48@touchgfx@@QAEEXZ ; touchgfx::`anonymous namespace'::NibReader::getNext
	movzx	eax, al
	mov	DWORD PTR _count$1[ebp], eax
$LN8@decompress:
; Line 101
	cmp	DWORD PTR _count$1[ebp], 0
	je	SHORT $LN9@decompress
; Line 103
	movzx	eax, BYTE PTR _value$2[ebp]
	push	eax
	lea	ecx, DWORD PTR _writer$[ebp]
	call	?put@NibWriter@?A0x22aa2b48@touchgfx@@QAEXE@Z ; touchgfx::`anonymous namespace'::NibWriter::put
	npad	1
; Line 104
	mov	eax, DWORD PTR _count$1[ebp]
	sub	eax, 1
	mov	DWORD PTR _count$1[ebp], eax
; Line 105
	jmp	SHORT $LN8@decompress
$LN9@decompress:
; Line 107
	movzx	eax, BYTE PTR _value$2[ebp]
	push	eax
	lea	ecx, DWORD PTR _writer$[ebp]
	call	?put@NibWriter@?A0x22aa2b48@touchgfx@@QAEXE@Z ; touchgfx::`anonymous namespace'::NibWriter::put
	npad	1
; Line 108
	jmp	SHORT $LN6@decompress
$LN7@decompress:
; Line 109
	jmp	SHORT $LN11@decompress
$LN15@decompress:
; Line 113
	mov	eax, DWORD PTR _pixelsTop$[ebp]
	cmp	eax, DWORD PTR _pixelsEnd$[ebp]
	jae	SHORT $LN11@decompress
; Line 115
	mov	eax, DWORD PTR _compressedData$[ebp]
	mov	cl, BYTE PTR [eax]
	mov	BYTE PTR tv155[ebp], cl
	mov	edx, DWORD PTR _compressedData$[ebp]
	add	edx, 1
	mov	DWORD PTR _compressedData$[ebp], edx
	mov	eax, DWORD PTR _pixelsTop$[ebp]
	mov	cl, BYTE PTR tv155[ebp]
	mov	BYTE PTR [eax], cl
	mov	edx, DWORD PTR _pixelsTop$[ebp]
	add	edx, 1
	mov	DWORD PTR _pixelsTop$[ebp], edx
; Line 116
	jmp	SHORT $LN15@decompress
$LN11@decompress:
; Line 119
	mov	eax, DWORD PTR _pixelsEnd$[ebp]
; Line 120
	push	edx
	mov	ecx, ebp
	push	eax
	lea	edx, DWORD PTR $LN23@decompress
	call	@_RTC_CheckStackVars@8
	pop	eax
	pop	edx
	pop	edi
	pop	esi
	pop	ebx
	add	esp, 320				; 00000140H
	cmp	ebp, esp
	call	__RTC_CheckEsp
	mov	esp, ebp
	pop	ebp
	ret	0
	npad	1
$LN23@decompress:
	DD	2
	DD	$LN22@decompress
$LN22@decompress:
	DD	-28					; ffffffe4H
	DD	12					; 0000000cH
	DD	$LN20@decompress
	DD	-48					; ffffffd0H
	DD	12					; 0000000cH
	DD	$LN21@decompress
$LN21@decompress:
	DB	114					; 00000072H
	DB	101					; 00000065H
	DB	97					; 00000061H
	DB	100					; 00000064H
	DB	101					; 00000065H
	DB	114					; 00000072H
	DB	0
$LN20@decompress:
	DB	119					; 00000077H
	DB	114					; 00000072H
	DB	105					; 00000069H
	DB	116					; 00000074H
	DB	101					; 00000065H
	DB	114					; 00000072H
	DB	0
?decompressGlyph@CompressedFontCache@touchgfx@@CAPAEPAEPBUGlyphNode@2@PBE@Z ENDP ; touchgfx::CompressedFontCache::decompressGlyph
_TEXT	ENDS
; Function compile flags: /Odtp /RTCsu /ZI
;	COMDAT ?cacheGlyph@CompressedFontCache@touchgfx@@SAPBEPBUGlyphNode@2@PBE@Z
_TEXT	SEGMENT
_key$ = -68						; size = 4
_alignmentOffset$ = -56					; size = 4
_rowStart$ = -44					; size = 4
_glyphData$ = -32					; size = 4
_end$ = -20						; size = 4
_byteSize$ = -8						; size = 4
_glyph$ = 8						; size = 4
_compressedData$ = 12					; size = 4
?cacheGlyph@CompressedFontCache@touchgfx@@SAPBEPBUGlyphNode@2@PBE@Z PROC ; touchgfx::CompressedFontCache::cacheGlyph, COMDAT
; File C:\DT\Solutions\Una\una-watch\Apps\Utility2\GUI\Software\App\TouchGFX-GUI\generated\fonts\src\CompressedFontCache.cpp
; Line 152
	push	ebp
	mov	ebp, esp
	sub	esp, 264				; 00000108H
	push	ebx
	push	esi
	push	edi
	lea	edi, DWORD PTR [ebp-72]
	mov	ecx, 18					; 00000012H
	mov	eax, -858993460				; ccccccccH
	rep stosd
	mov	ecx, OFFSET __28487B8F_CompressedFontCache@cpp
	call	@__CheckForDebuggerJustMyCode@4
	npad	1
; Line 153
	mov	ecx, DWORD PTR _glyph$[ebp]
	call	?width@GlyphNode@touchgfx@@QBEFXZ	; touchgfx::GlyphNode::width
	cwde
	add	eax, 1
	cdq
	sub	eax, edx
	mov	esi, eax
	sar	esi, 1
	mov	ecx, DWORD PTR _glyph$[ebp]
	call	?height@GlyphNode@touchgfx@@QBEFXZ	; touchgfx::GlyphNode::height
	cwde
	imul	esi, eax
	mov	DWORD PTR _byteSize$[ebp], esi
; Line 154
	mov	eax, DWORD PTR _byteSize$[ebp]
	add	eax, 8
	cmp	eax, 4096				; 00001000H
	jle	SHORT $LN2@cacheGlyph
; Line 156
	mov	eax, DWORD PTR _byteSize$[ebp]
	push	eax
	mov	ecx, DWORD PTR _glyph$[ebp]
	push	ecx
	call	?unableToCache@CompressedFontCache@touchgfx@@SAXPBUGlyphNode@2@H@Z ; touchgfx::CompressedFontCache::unableToCache
	add	esp, 8
; Line 157
	xor	eax, eax
	jmp	$LN1@cacheGlyph
$LN2@cacheGlyph:
; Line 159
	mov	eax, 4
	shl	eax, 10					; 0000000aH
	add	eax, OFFSET ?bitmapFontCache@CompressedFontCache@touchgfx@@0PAIA ; touchgfx::CompressedFontCache::bitmapFontCache
	mov	DWORD PTR _end$[ebp], eax
; Line 160
	mov	eax, DWORD PTR _byteSize$[ebp]
	mov	ecx, DWORD PTR ?pixelsTop@CompressedFontCache@touchgfx@@0PAEA ; touchgfx::CompressedFontCache::pixelsTop
	lea	edx, DWORD PTR [ecx+eax+8]
	mov	eax, DWORD PTR ?glyphsAllocated@CompressedFontCache@touchgfx@@0HA ; touchgfx::CompressedFontCache::glyphsAllocated
	neg	eax
	mov	ecx, DWORD PTR _end$[ebp]
	lea	eax, DWORD PTR [ecx+eax*8]
	cmp	edx, eax
	jbe	SHORT $LN3@cacheGlyph
; Line 163
	call	?clearCache@CompressedFontCache@touchgfx@@SAXXZ ; touchgfx::CompressedFontCache::clearCache
	npad	1
$LN3@cacheGlyph:
; Line 166
	mov	eax, DWORD PTR ?pixelsTop@CompressedFontCache@touchgfx@@0PAEA ; touchgfx::CompressedFontCache::pixelsTop
	mov	DWORD PTR _glyphData$[ebp], eax
; Line 167
	mov	eax, DWORD PTR _compressedData$[ebp]
	push	eax
	mov	ecx, DWORD PTR _glyph$[ebp]
	push	ecx
	mov	edx, DWORD PTR ?pixelsTop@CompressedFontCache@touchgfx@@0PAEA ; touchgfx::CompressedFontCache::pixelsTop
	push	edx
	call	?decompressGlyph@CompressedFontCache@touchgfx@@CAPAEPAEPBUGlyphNode@2@PBE@Z ; touchgfx::CompressedFontCache::decompressGlyph
	add	esp, 12					; 0000000cH
	mov	DWORD PTR ?pixelsTop@CompressedFontCache@touchgfx@@0PAEA, eax ; touchgfx::CompressedFontCache::pixelsTop
; Line 170
	mov	eax, DWORD PTR _glyphData$[ebp]
	and	eax, -32				; ffffffe0H
	mov	DWORD PTR _rowStart$[ebp], eax
; Line 171
	mov	eax, DWORD PTR _glyphData$[ebp]
	sub	eax, DWORD PTR _rowStart$[ebp]
	mov	DWORD PTR _alignmentOffset$[ebp], eax
; Line 172
	mov	eax, DWORD PTR _byteSize$[ebp]
	add	eax, DWORD PTR _alignmentOffset$[ebp]
	push	eax
	mov	ecx, DWORD PTR _rowStart$[ebp]
	push	ecx
	call	?flushLine@paint@touchgfx@@YAXPAIH@Z	; touchgfx::paint::flushLine
	add	esp, 8
; Line 173
	call	?invalidateTextureCache@paint@touchgfx@@YAXXZ ; touchgfx::paint::invalidateTextureCache
	npad	1
; Line 175
	mov	eax, DWORD PTR ?glyphsAllocated@CompressedFontCache@touchgfx@@0HA ; touchgfx::CompressedFontCache::glyphsAllocated
	add	eax, 1
	mov	DWORD PTR ?glyphsAllocated@CompressedFontCache@touchgfx@@0HA, eax ; touchgfx::CompressedFontCache::glyphsAllocated
; Line 177
	mov	eax, DWORD PTR ?glyphsAllocated@CompressedFontCache@touchgfx@@0HA ; touchgfx::CompressedFontCache::glyphsAllocated
	shl	eax, 3
	mov	ecx, DWORD PTR _end$[ebp]
	sub	ecx, eax
	mov	DWORD PTR _key$[ebp], ecx
; Line 178
	mov	eax, DWORD PTR _key$[ebp]
	mov	ecx, DWORD PTR _glyph$[ebp]
	mov	DWORD PTR [eax], ecx
; Line 179
	mov	eax, DWORD PTR _key$[ebp]
	mov	ecx, DWORD PTR _glyphData$[ebp]
	mov	DWORD PTR [eax+4], ecx
; Line 181
	mov	eax, DWORD PTR _glyphData$[ebp]
$LN1@cacheGlyph:
; Line 182
	pop	edi
	pop	esi
	pop	ebx
	add	esp, 264				; 00000108H
	cmp	ebp, esp
	call	__RTC_CheckEsp
	mov	esp, ebp
	pop	ebp
	ret	0
?cacheGlyph@CompressedFontCache@touchgfx@@SAPBEPBUGlyphNode@2@PBE@Z ENDP ; touchgfx::CompressedFontCache::cacheGlyph
_TEXT	ENDS
; Function compile flags: /Odtp /RTCsu /ZI
;	COMDAT ?unableToCache@CompressedFontCache@touchgfx@@SAXPBUGlyphNode@2@H@Z
_TEXT	SEGMENT
_glyphNode$ = 8						; size = 4
_byteSize$ = 12						; size = 4
?unableToCache@CompressedFontCache@touchgfx@@SAXPBUGlyphNode@2@H@Z PROC ; touchgfx::CompressedFontCache::unableToCache, COMDAT
; File C:\DT\Solutions\Una\una-watch\Apps\Utility2\GUI\Software\App\TouchGFX-GUI\generated\fonts\src\CompressedFontCache.cpp
; Line 132
	push	ebp
	mov	ebp, esp
	sub	esp, 192				; 000000c0H
	push	ebx
	push	esi
	push	edi
	mov	edi, ebp
	xor	ecx, ecx
	mov	eax, -858993460				; ccccccccH
	rep stosd
	mov	ecx, OFFSET __28487B8F_CompressedFontCache@cpp
	call	@__CheckForDebuggerJustMyCode@4
	npad	1
$LN2@unableToCa:
; Line 133
	mov	eax, 1
	test	eax, eax
	je	SHORT $LN3@unableToCa
	jmp	SHORT $LN2@unableToCa
$LN3@unableToCa:
; Line 134
	pop	edi
	pop	esi
	pop	ebx
	add	esp, 192				; 000000c0H
	cmp	ebp, esp
	call	__RTC_CheckEsp
	mov	esp, ebp
	pop	ebp
	ret	0
?unableToCache@CompressedFontCache@touchgfx@@SAXPBUGlyphNode@2@H@Z ENDP ; touchgfx::CompressedFontCache::unableToCache
_TEXT	ENDS
; Function compile flags: /Odtp /RTCsu /ZI
;	COMDAT ?hasCachedGlyph@CompressedFontCache@touchgfx@@SAPBEPBUGlyphNode@2@@Z
_TEXT	SEGMENT
_first$ = -20						; size = 4
_end$ = -8						; size = 4
_glyphNode$ = 8						; size = 4
?hasCachedGlyph@CompressedFontCache@touchgfx@@SAPBEPBUGlyphNode@2@@Z PROC ; touchgfx::CompressedFontCache::hasCachedGlyph, COMDAT
; File C:\DT\Solutions\Una\una-watch\Apps\Utility2\GUI\Software\App\TouchGFX-GUI\generated\fonts\src\CompressedFontCache.cpp
; Line 137
	push	ebp
	mov	ebp, esp
	sub	esp, 216				; 000000d8H
	push	ebx
	push	esi
	push	edi
	lea	edi, DWORD PTR [ebp-24]
	mov	ecx, 6
	mov	eax, -858993460				; ccccccccH
	rep stosd
	mov	ecx, OFFSET __28487B8F_CompressedFontCache@cpp
	call	@__CheckForDebuggerJustMyCode@4
	npad	1
; Line 138
	mov	eax, 4
	shl	eax, 10					; 0000000aH
	add	eax, OFFSET ?bitmapFontCache@CompressedFontCache@touchgfx@@0PAIA ; touchgfx::CompressedFontCache::bitmapFontCache
	mov	DWORD PTR _end$[ebp], eax
; Line 139
	mov	eax, DWORD PTR ?glyphsAllocated@CompressedFontCache@touchgfx@@0HA ; touchgfx::CompressedFontCache::glyphsAllocated
	shl	eax, 3
	mov	ecx, DWORD PTR _end$[ebp]
	sub	ecx, eax
	mov	DWORD PTR _first$[ebp], ecx
$LN2@hasCachedG:
; Line 140
	mov	eax, DWORD PTR _first$[ebp]
	cmp	eax, DWORD PTR _end$[ebp]
	jae	SHORT $LN3@hasCachedG
; Line 142
	mov	eax, DWORD PTR _first$[ebp]
	mov	ecx, DWORD PTR [eax]
	cmp	ecx, DWORD PTR _glyphNode$[ebp]
	jne	SHORT $LN4@hasCachedG
; Line 144
	mov	eax, DWORD PTR _first$[ebp]
	mov	eax, DWORD PTR [eax+4]
	jmp	SHORT $LN1@hasCachedG
$LN4@hasCachedG:
; Line 146
	mov	eax, DWORD PTR _first$[ebp]
	add	eax, 8
	mov	DWORD PTR _first$[ebp], eax
; Line 147
	jmp	SHORT $LN2@hasCachedG
$LN3@hasCachedG:
; Line 148
	xor	eax, eax
$LN1@hasCachedG:
; Line 149
	pop	edi
	pop	esi
	pop	ebx
	add	esp, 216				; 000000d8H
	cmp	ebp, esp
	call	__RTC_CheckEsp
	mov	esp, ebp
	pop	ebp
	ret	0
?hasCachedGlyph@CompressedFontCache@touchgfx@@SAPBEPBUGlyphNode@2@@Z ENDP ; touchgfx::CompressedFontCache::hasCachedGlyph
_TEXT	ENDS
; Function compile flags: /Odtp /RTCsu /ZI
;	COMDAT ?clearCache@CompressedFontCache@touchgfx@@SAXXZ
_TEXT	SEGMENT
?clearCache@CompressedFontCache@touchgfx@@SAXXZ PROC	; touchgfx::CompressedFontCache::clearCache, COMDAT
; File C:\DT\Solutions\Una\una-watch\Apps\Utility2\GUI\Software\App\TouchGFX-GUI\generated\fonts\src\CompressedFontCache.cpp
; Line 123
	push	ebp
	mov	ebp, esp
	sub	esp, 192				; 000000c0H
	push	ebx
	push	esi
	push	edi
	mov	edi, ebp
	xor	ecx, ecx
	mov	eax, -858993460				; ccccccccH
	rep stosd
	mov	ecx, OFFSET __28487B8F_CompressedFontCache@cpp
	call	@__CheckForDebuggerJustMyCode@4
	npad	1
; Line 125
	call	?getInstance@HAL@touchgfx@@SAPAV12@XZ	; touchgfx::HAL::getInstance
	mov	ecx, eax
	call	?lockUnlockFrameBuffer@HAL@touchgfx@@QAEXXZ ; touchgfx::HAL::lockUnlockFrameBuffer
	npad	1
; Line 126
	mov	DWORD PTR ?glyphsAllocated@CompressedFontCache@touchgfx@@0HA, 0 ; touchgfx::CompressedFontCache::glyphsAllocated
; Line 127
	mov	eax, DWORD PTR ?cacheClearCounter@CompressedFontCache@touchgfx@@2HA ; touchgfx::CompressedFontCache::cacheClearCounter
	add	eax, 1
	mov	DWORD PTR ?cacheClearCounter@CompressedFontCache@touchgfx@@2HA, eax ; touchgfx::CompressedFontCache::cacheClearCounter
; Line 128
	mov	DWORD PTR ?pixelsTop@CompressedFontCache@touchgfx@@0PAEA, OFFSET ?bitmapFontCache@CompressedFontCache@touchgfx@@0PAIA ; touchgfx::CompressedFontCache::pixelsTop, touchgfx::CompressedFontCache::bitmapFontCache
; Line 129
	pop	edi
	pop	esi
	pop	ebx
	add	esp, 192				; 000000c0H
	cmp	ebp, esp
	call	__RTC_CheckEsp
	mov	esp, ebp
	pop	ebp
	ret	0
?clearCache@CompressedFontCache@touchgfx@@SAXXZ ENDP	; touchgfx::CompressedFontCache::clearCache
_TEXT	ENDS
; Function compile flags: /Odtp /RTCsu /ZI
;	COMDAT ?height@GlyphNode@touchgfx@@QBEFXZ
_TEXT	SEGMENT
_this$ = -8						; size = 4
?height@GlyphNode@touchgfx@@QBEFXZ PROC			; touchgfx::GlyphNode::height, COMDAT
; _this$ = ecx
; File C:\DT\Solutions\Una\una-watch\Apps\Utility2\GUI\Software\App\TouchGFX-GUI\touchgfx\framework\include\touchgfx\Font.hpp
; Line 79
	push	ebp
	mov	ebp, esp
	sub	esp, 204				; 000000ccH
	push	ebx
	push	esi
	push	edi
	push	ecx
	lea	edi, DWORD PTR [ebp-12]
	mov	ecx, 3
	mov	eax, -858993460				; ccccccccH
	rep stosd
	pop	ecx
	mov	DWORD PTR _this$[ebp], ecx
	mov	ecx, OFFSET __EEB25667_Font@hpp
	call	@__CheckForDebuggerJustMyCode@4
	npad	1
; Line 80
	mov	eax, DWORD PTR _this$[ebp]
	movzx	eax, BYTE PTR [eax+13]
	and	eax, 16					; 00000010H
	shl	eax, 4
	mov	ecx, DWORD PTR _this$[ebp]
	movzx	edx, BYTE PTR [ecx+7]
	or	eax, edx
; Line 81
	pop	edi
	pop	esi
	pop	ebx
	add	esp, 204				; 000000ccH
	cmp	ebp, esp
	call	__RTC_CheckEsp
	mov	esp, ebp
	pop	ebp
	ret	0
?height@GlyphNode@touchgfx@@QBEFXZ ENDP			; touchgfx::GlyphNode::height
_TEXT	ENDS
; Function compile flags: /Odtp /RTCsu /ZI
;	COMDAT ?width@GlyphNode@touchgfx@@QBEFXZ
_TEXT	SEGMENT
_this$ = -8						; size = 4
?width@GlyphNode@touchgfx@@QBEFXZ PROC			; touchgfx::GlyphNode::width, COMDAT
; _this$ = ecx
; File C:\DT\Solutions\Una\una-watch\Apps\Utility2\GUI\Software\App\TouchGFX-GUI\touchgfx\framework\include\touchgfx\Font.hpp
; Line 69
	push	ebp
	mov	ebp, esp
	sub	esp, 204				; 000000ccH
	push	ebx
	push	esi
	push	edi
	push	ecx
	lea	edi, DWORD PTR [ebp-12]
	mov	ecx, 3
	mov	eax, -858993460				; ccccccccH
	rep stosd
	pop	ecx
	mov	DWORD PTR _this$[ebp], ecx
	mov	ecx, OFFSET __EEB25667_Font@hpp
	call	@__CheckForDebuggerJustMyCode@4
	npad	1
; Line 70
	mov	eax, DWORD PTR _this$[ebp]
	movzx	eax, BYTE PTR [eax+13]
	and	eax, 8
	shl	eax, 5
	mov	ecx, DWORD PTR _this$[ebp]
	movzx	edx, BYTE PTR [ecx+6]
	or	eax, edx
; Line 71
	pop	edi
	pop	esi
	pop	ebx
	add	esp, 204				; 000000ccH
	cmp	ebp, esp
	call	__RTC_CheckEsp
	mov	esp, ebp
	pop	ebp
	ret	0
?width@GlyphNode@touchgfx@@QBEFXZ ENDP			; touchgfx::GlyphNode::width
_TEXT	ENDS
END
