; Listing generated by Microsoft (R) Optimizing Compiler Version 19.42.34436.0 

	TITLE	C:\DT\Solutions\Una\una-watch\Apps\Utility2\GUI\Software\App\TouchGFX-GUI\build\Debug\obj\CompressedUnmappedFontCache.obj
	.686P
	.XMM
	include listing.inc
	.model	flat

INCLUDELIB MSVCRTD
INCLUDELIB OLDNAMES

PUBLIC	?cacheClearCounter@CompressedUnmappedFontCache@touchgfx@@2HA ; touchgfx::CompressedUnmappedFontCache::cacheClearCounter
PUBLIC	?bitmapFontCache@CompressedUnmappedFontCache@touchgfx@@0PAIA ; touchgfx::CompressedUnmappedFontCache::bitmapFontCache
PUBLIC	?pixelsTop@CompressedUnmappedFontCache@touchgfx@@0PAEA ; touchgfx::CompressedUnmappedFontCache::pixelsTop
PUBLIC	?glyphsAllocated@CompressedUnmappedFontCache@touchgfx@@0HA ; touchgfx::CompressedUnmappedFontCache::glyphsAllocated
_BSS	SEGMENT
?cacheClearCounter@CompressedUnmappedFontCache@touchgfx@@2HA DD 01H DUP (?) ; touchgfx::CompressedUnmappedFontCache::cacheClearCounter
?bitmapFontCache@CompressedUnmappedFontCache@touchgfx@@0PAIA DD 0400H DUP (?) ; touchgfx::CompressedUnmappedFontCache::bitmapFontCache
?glyphsAllocated@CompressedUnmappedFontCache@touchgfx@@0HA DD 01H DUP (?) ; touchgfx::CompressedUnmappedFontCache::glyphsAllocated
_BSS	ENDS
msvcjmc	SEGMENT
__3A77C584_concurrencysal@h DB 01H
__7D61E6FE_sal@h DB 01H
__F85DFF2E_vadefs@h DB 01H
__E62C82FD_vcruntime@h DB 01H
__B193B045_corecrt@h DB 01H
__829D5E02_assert@h DB 01H
__80509148_stdint@h DB 01H
__CA6578A3_Config@hpp DB 01H
__26FA5A17_Types@hpp DB 01H
__2D242BD6_FlashDataReader@hpp DB 01H
__B48F2F87_stdarg@h DB 01H
__614D25B1_Unicode@hpp DB 01H
__EEB25667_Font@hpp DB 01H
__59EB0767_CompressedUnmappedFontCache@hpp DB 01H
__283D6FFD_MCUInstrumentation@hpp DB 01H
__C646993E_ButtonController@hpp DB 01H
__834C84FB_TouchController@hpp DB 01H
__253B2C74_Bitmap@hpp DB 01H
__A7E77610_Event@hpp DB 01H
__93BF1F38_ClickEvent@hpp DB 01H
__98FEAE89_DragEvent@hpp DB 01H
__6D57A881_GestureEvent@hpp DB 01H
__EF94F1A4_Drawable@hpp DB 01H
__E59B061F_BlitOp@hpp DB 01H
__47F55FD8_winpackagefamily@h DB 01H
__43D6A374_winapifamily@h DB 01H
__1901F874_sdkddkver@h DB 01H
__175159AA_excpt@h DB 01H
__E6072EC9_specstrings_undef@h DB 01H
__445FE107_specstrings_strict@h DB 01H
__BD537E1B_sdv_driverspecs@h DB 01H
__3F5C3A3E_driverspecs@h DB 01H
__B2271095_specstrings@h DB 01H
__CEB01B85_corecrt_wctype@h DB 01H
__F4C5B92D_ctype@h DB 01H
__B0334AF2_kernelspecs@h DB 01H
__7BD7BC39_basetsd@h DB 01H
__8BCDFB61_errno@h DB 01H
__731D38DD_vcruntime_string@h DB 01H
__01D3FBD4_corecrt_memcpy_s@h DB 01H
__3457A0B2_corecrt_memory@h DB 01H
__AB90C308_corecrt_wstring@h DB 01H
__73A79D70_string@h DB 01H
__D7559D2D_guiddef@h DB 01H
__7547C931_pshpack4@h DB 01H
__7DDD4519_poppack@h DB 01H
__71CAB583_pshpack2@h DB 01H
__7C5D3055_pshpack8@h DB 01H
__738C0BDA_pshpack1@h DB 01H
__1C9F21B1_apiset@h DB 01H
__2F087542_ktmtypes@h DB 01H
__D973E9FE_winnt@h DB 01H
__98C9D0B3_minwindef@h DB 01H
__846ACC34_windef@h DB 01H
__B2833B1D_apisetcconv@h DB 01H
__65F67381_minwinbase@h DB 01H
__F79B608C_apiquery2@h DB 01H
__B4C7A98B_processenv@h DB 01H
__DF741256_fileapi@h DB 01H
__EE294ADE_fileapifromapp@h DB 01H
__2415F290_debugapi@h DB 01H
__3ABCAF99_utilapiset@h DB 01H
__DC675CCD_handleapi@h DB 01H
__1EE8BDBC_errhandlingapi@h DB 01H
__5536C2A0_fibersapi@h DB 01H
__03BC99EF_namedpipeapi@h DB 01H
__BFDA960B_profileapi@h DB 01H
__72D52E63_heapapi@h DB 01H
__CB61E9E6_ioapiset@h DB 01H
__0964D70A_synchapi@h DB 01H
__C5B6E0D5_interlockedapi@h DB 01H
__7A06A762_processthreadsapi@h DB 01H
__06601839_sysinfoapi@h DB 01H
__83C95515_memoryapi@h DB 01H
__10D4E8CE_enclaveapi@h DB 01H
__449E31C2_threadpoollegacyapiset@h DB 01H
__7261473A_threadpoolapiset@h DB 01H
__34DDE763_jobapi@h DB 01H
__24F9B6F8_jobapi2@h DB 01H
__9D32A781_wow64apiset@h DB 01H
__42631685_libloaderapi@h DB 01H
__E4FC10D9_securitybaseapi@h DB 01H
__431D9E98_namespaceapi@h DB 01H
__FFFFF160_systemtopologyapi@h DB 01H
__A82F39F5_processtopologyapi@h DB 01H
__09607D26_securityappcontainer@h DB 01H
__5A1E44E7_realtimeapiset@h DB 01H
__7E4B086B_winerror@h DB 01H
__FB5F7188_timezoneapi@h DB 01H
__F5FA337F_winbase@h DB 01H
__974A03B0_wingdi@h DB 01H
__78DBB10D_tvout@h DB 01H
__9D127808_winuser@h DB 01H
__A3AA936A_datetimeapi@h DB 01H
__4E5F6F88_winnls@h DB 01H
__1DF71788_stringapiset@h DB 01H
__64D832F9_wincontypes@h DB 01H
__6EC4454C_consoleapi@h DB 01H
__8F729203_consoleapi2@h DB 01H
__8EB0F834_consoleapi3@h DB 01H
__B08434F4_wincon@h DB 01H
__B0971967_verrsrc@h DB 01H
__62059676_winver@h DB 01H
__AE7275B3_reason@h DB 01H
__8D68512D_winreg@h DB 01H
__7580E811_wnnc@h DB 01H
__4755B33A_winnetwk@h DB 01H
__4756EC77_cderr@h DB 01H
__8490232D_dde@h DB 01H
__448B1044_ddeml@h DB 01H
__5E0CF316_dlgs@h DB 01H
__8964D6C1_lzexpand@h DB 01H
__F99DDC7B_mmsyscom@h DB 01H
__937F74CD_mciapi@h DB 01H
__C6F31038_mmiscapi@h DB 01H
__D8B21073_mmiscapi2@h DB 01H
__29FD8C93_playsoundapi@h DB 01H
__B482CFEB_mmeapi@h DB 01H
__FB357315_timeapi@h DB 01H
__3B6CEA41_joystickapi@h DB 01H
__44E0778D_mmsystem@h DB 01H
__7614C57D_nb30@h DB 01H
__7719C8EB_rpcdcep@h DB 01H
__A57FE916_rpcdce@h DB 01H
__51ACCA40_rpcnsi@h DB 01H
__A7E951E3_rpcnterr@h DB 01H
__EE9F4A51_rpcasync@h DB 01H
__40DD64C8_rpc@h DB 01H
__826CAF91_shellapi@h DB 01H
__F49EEF13_winperf@h DB 01H
__7A390FBF_inaddr@h DB 01H
__D8C726B5_winsock@h DB 01H
__8040ED55_bcrypt@h DB 01H
__308F6D16_ncrypt@h DB 01H
__8DF4BBA0_dpapi@h DB 01H
__4A6CF89C_wincrypt@h DB 01H
__5632BEFD_winefs@h DB 01H
__F5E5EF09_rpcnsip@h DB 01H
__D2675180_rpcsal@h DB 01H
__6B717CFB_rpcndr@h DB 01H
__FC933916_wtypesbase@h DB 01H
__133D53C0_wtypes@h DB 01H
__E6535C2B_winioctl@h DB 01H
__6F9DFF63_winsmcrd@h DB 01H
__038702D4_winscard@h DB 01H
__C8DE29C7_prsht@h DB 01H
__9595127A_winspool@h DB 01H
__FF268430_corecrt_malloc@h DB 01H
__887B5571_stddef@h DB 01H
__4795E95E_corecrt_search@h DB 01H
__2DE357AC_corecrt_wstdlib@h DB 01H
__3E26BF77_limits@h DB 01H
__F5D409D4_stdlib@h DB 01H
__C9A2E177_unknwnbase@h DB 01H
__CB9F573B_objidlbase@h DB 01H
__E6290D09_cguid@h DB 01H
__BA545668_combaseapi@h DB 01H
__0AF62775_unknwn@h DB 01H
__18794348_objidl@h DB 01H
__AEB97786_oaidl@h DB 01H
__8695B478_propidlbase@h DB 01H
__24C23182_coml2api@h DB 01H
__B9108AC0_oleidl@h DB 01H
__8AA73F42_servprov@h DB 01H
__57B03487_msxml@h DB 01H
__6580E4D7_urlmon@h DB 01H
__AA4CC487_propidl@h DB 01H
__4BC7EB53_objbase@h DB 01H
__2BB1770B_oleauto@h DB 01H
__EF9A2CA9_ole2@h DB 01H
__C1199D1A_commdlg@h DB 01H
__0B10BAC3_stralign@h DB 01H
__F5AD2830_winsvc@h DB 01H
__00A949C6_mcx@h DB 01H
__AE6FAD4A_ime_cmodes@h DB 01H
__0F1BF9AE_imm@h DB 01H
__0B5A2696_windows@h DB 01H
__DB288696_Atomic@hpp DB 01H
__BC9ACCE5_DMA@hpp DB 01H
__AE3A6B51_FrameBufferAllocator@hpp DB 01H
__85CF6DCE_UIEventListener@hpp DB 01H
__40BB96B7_Gestures@hpp DB 01H
__F4CD76EB_TextProvider@hpp DB 01H
__B7FF32C6_TextureMapTypes@hpp DB 01H
__4C86B5EF_Matrix3x3@hpp DB 01H
__AFD2B641_VGData@hpp DB 01H
__28F4793E_Widget@hpp DB 01H
__2FB3EB7E_VectorRenderer@hpp DB 01H
__8CA7D8FA_VectorFontRenderer@hpp DB 01H
__3159DE00_DebugPrinter@hpp DB 01H
__726B6D25_LCD@hpp DB 01H
__F468A25B_HAL@hpp DB 01H
__FEE9D44B_Paint@hpp DB 01H
__76E91E88_CompressedUnmappedFontCache@cpp DB 01H
msvcjmc	ENDS
_DATA	SEGMENT
?pixelsTop@CompressedUnmappedFontCache@touchgfx@@0PAEA DD FLAT:?bitmapFontCache@CompressedUnmappedFontCache@touchgfx@@0PAIA ; touchgfx::CompressedUnmappedFontCache::pixelsTop
_DATA	ENDS
PUBLIC	?width@GlyphNode@touchgfx@@QBEFXZ		; touchgfx::GlyphNode::width
PUBLIC	?height@GlyphNode@touchgfx@@QBEFXZ		; touchgfx::GlyphNode::height
PUBLIC	?clearCache@CompressedUnmappedFontCache@touchgfx@@SAXXZ ; touchgfx::CompressedUnmappedFontCache::clearCache
PUBLIC	?hasCachedGlyphNode@CompressedUnmappedFontCache@touchgfx@@SAPBUGlyphNode@2@PBU32@@Z ; touchgfx::CompressedUnmappedFontCache::hasCachedGlyphNode
PUBLIC	?hasCachedGlyphData@CompressedUnmappedFontCache@touchgfx@@SAPBUGlyphNode@2@PBU32@AAPBE@Z ; touchgfx::CompressedUnmappedFontCache::hasCachedGlyphData
PUBLIC	?unableToCache@CompressedUnmappedFontCache@touchgfx@@SAXPBUGlyphNode@2@H@Z ; touchgfx::CompressedUnmappedFontCache::unableToCache
PUBLIC	?cacheGlyphNode@CompressedUnmappedFontCache@touchgfx@@SAPAUGlyphNode@2@PBU32@@Z ; touchgfx::CompressedUnmappedFontCache::cacheGlyphNode
PUBLIC	?cacheGlyphData@CompressedUnmappedFontCache@touchgfx@@SAPBEPBUGlyphNode@2@PBEPAVFlashDataReader@2@@Z ; touchgfx::CompressedUnmappedFontCache::cacheGlyphData
PUBLIC	?decompressGlyph@CompressedUnmappedFontCache@touchgfx@@CAPAEPAEPBUGlyphNode@2@PBEPAVFlashDataReader@2@@Z ; touchgfx::CompressedUnmappedFontCache::decompressGlyph
PUBLIC	?getInstance@HAL@touchgfx@@SAPAV12@XZ		; touchgfx::HAL::getInstance
PUBLIC	?lockUnlockFrameBuffer@HAL@touchgfx@@QAEXXZ	; touchgfx::HAL::lockUnlockFrameBuffer
PUBLIC	__JustMyCode_Default
EXTRN	?flushLine@paint@touchgfx@@YAXPAIH@Z:PROC	; touchgfx::paint::flushLine
EXTRN	?invalidateTextureCache@paint@touchgfx@@YAXXZ:PROC ; touchgfx::paint::invalidateTextureCache
EXTRN	@_RTC_CheckStackVars@8:PROC
EXTRN	@__CheckForDebuggerJustMyCode@4:PROC
EXTRN	@__security_check_cookie@4:PROC
EXTRN	__RTC_CheckEsp:PROC
EXTRN	__RTC_InitBase:PROC
EXTRN	__RTC_Shutdown:PROC
EXTRN	?instance@HAL@touchgfx@@0PAV12@A:DWORD		; touchgfx::HAL::instance
EXTRN	___security_cookie:DWORD
;	COMDAT rtc$TMZ
rtc$TMZ	SEGMENT
__RTC_Shutdown.rtc$TMZ DD FLAT:__RTC_Shutdown
rtc$TMZ	ENDS
;	COMDAT rtc$IMZ
rtc$IMZ	SEGMENT
__RTC_InitBase.rtc$IMZ DD FLAT:__RTC_InitBase
rtc$IMZ	ENDS
;	COMDAT voltbl
voltbl	SEGMENT
_volmd	DW	025H
	DW	01c8H
voltbl	ENDS
; Function compile flags: /Odt
;	COMDAT __JustMyCode_Default
_TEXT	SEGMENT
__JustMyCode_Default PROC				; COMDAT
	push	ebp
	mov	ebp, esp
	pop	ebp
	ret	0
__JustMyCode_Default ENDP
_TEXT	ENDS
; Function compile flags: /Odtp /RTCsu /ZI
;	COMDAT ?eof@NibWriter@?A0xdce325fb@touchgfx@@QAE_NXZ
_TEXT	SEGMENT
tv67 = -208						; size = 4
_this$ = -8						; size = 4
?eof@NibWriter@?A0xdce325fb@touchgfx@@QAE_NXZ PROC	; touchgfx::`anonymous namespace'::NibWriter::eof, COMDAT
; _this$ = ecx
; File C:\DT\Solutions\Una\una-watch\Apps\Utility2\GUI\Software\App\TouchGFX-GUI\generated\fonts\src\CompressedUnmappedFontCache.cpp
; Line 81
	push	ebp
	mov	ebp, esp
	sub	esp, 208				; 000000d0H
	push	ebx
	push	esi
	push	edi
	push	ecx
	lea	edi, DWORD PTR [ebp-16]
	mov	ecx, 4
	mov	eax, -858993460				; ccccccccH
	rep stosd
	pop	ecx
	mov	DWORD PTR _this$[ebp], ecx
	mov	ecx, OFFSET __76E91E88_CompressedUnmappedFontCache@cpp
	call	@__CheckForDebuggerJustMyCode@4
	npad	1
	mov	eax, DWORD PTR _this$[ebp]
	mov	ecx, DWORD PTR _this$[ebp]
	mov	edx, DWORD PTR [eax]
	cmp	edx, DWORD PTR [ecx+4]
	jb	SHORT $LN3@eof
	mov	DWORD PTR tv67[ebp], 1
	jmp	SHORT $LN4@eof
$LN3@eof:
	mov	DWORD PTR tv67[ebp], 0
$LN4@eof:
	movzx	eax, BYTE PTR tv67[ebp]
	pop	edi
	pop	esi
	pop	ebx
	add	esp, 208				; 000000d0H
	cmp	ebp, esp
	call	__RTC_CheckEsp
	mov	esp, ebp
	pop	ebp
	ret	0
?eof@NibWriter@?A0xdce325fb@touchgfx@@QAE_NXZ ENDP	; touchgfx::`anonymous namespace'::NibWriter::eof
_TEXT	ENDS
; Function compile flags: /Odtp /RTCsu /ZI
;	COMDAT ?put@NibWriter@?A0xdce325fb@touchgfx@@QAEXE@Z
_TEXT	SEGMENT
_this$ = -8						; size = 4
_v$ = 8							; size = 1
?put@NibWriter@?A0xdce325fb@touchgfx@@QAEXE@Z PROC	; touchgfx::`anonymous namespace'::NibWriter::put, COMDAT
; _this$ = ecx
; File C:\DT\Solutions\Una\una-watch\Apps\Utility2\GUI\Software\App\TouchGFX-GUI\generated\fonts\src\CompressedUnmappedFontCache.cpp
; Line 70
	push	ebp
	mov	ebp, esp
	sub	esp, 204				; 000000ccH
	push	ebx
	push	esi
	push	edi
	push	ecx
	lea	edi, DWORD PTR [ebp-12]
	mov	ecx, 3
	mov	eax, -858993460				; ccccccccH
	rep stosd
	pop	ecx
	mov	DWORD PTR _this$[ebp], ecx
	mov	ecx, OFFSET __76E91E88_CompressedUnmappedFontCache@cpp
	call	@__CheckForDebuggerJustMyCode@4
	npad	1
; Line 71
	mov	eax, DWORD PTR _this$[ebp]
	cmp	DWORD PTR [eax+8], 0
	je	SHORT $LN2@put
; Line 73
	mov	eax, DWORD PTR _this$[ebp]
	mov	ecx, DWORD PTR [eax]
	mov	dl, BYTE PTR _v$[ebp]
	mov	BYTE PTR [ecx], dl
; Line 74
	mov	eax, DWORD PTR _this$[ebp]
	mov	DWORD PTR [eax+8], 0
; Line 75
	jmp	SHORT $LN1@put
$LN2@put:
; Line 77
	movzx	eax, BYTE PTR _v$[ebp]
	shl	eax, 4
	mov	ecx, DWORD PTR _this$[ebp]
	mov	edx, DWORD PTR [ecx]
	movzx	ecx, BYTE PTR [edx]
	or	ecx, eax
	mov	edx, DWORD PTR _this$[ebp]
	mov	eax, DWORD PTR [edx]
	mov	BYTE PTR [eax], cl
; Line 78
	mov	eax, DWORD PTR _this$[ebp]
	mov	ecx, DWORD PTR [eax]
	add	ecx, 1
	mov	edx, DWORD PTR _this$[ebp]
	mov	DWORD PTR [edx], ecx
; Line 79
	mov	eax, DWORD PTR _this$[ebp]
	mov	DWORD PTR [eax+8], 1
$LN1@put:
; Line 80
	pop	edi
	pop	esi
	pop	ebx
	add	esp, 204				; 000000ccH
	cmp	ebp, esp
	call	__RTC_CheckEsp
	mov	esp, ebp
	pop	ebp
	ret	4
?put@NibWriter@?A0xdce325fb@touchgfx@@QAEXE@Z ENDP	; touchgfx::`anonymous namespace'::NibWriter::put
_TEXT	ENDS
; Function compile flags: /Odtp /RTCsu /ZI
;	COMDAT ??0NibWriter@?A0xdce325fb@touchgfx@@QAE@PAEH@Z
_TEXT	SEGMENT
_this$ = -8						; size = 4
_buffer$ = 8						; size = 4
_size$ = 12						; size = 4
??0NibWriter@?A0xdce325fb@touchgfx@@QAE@PAEH@Z PROC	; touchgfx::`anonymous namespace'::NibWriter::NibWriter, COMDAT
; _this$ = ecx
; File C:\DT\Solutions\Una\una-watch\Apps\Utility2\GUI\Software\App\TouchGFX-GUI\generated\fonts\src\CompressedUnmappedFontCache.cpp
; Line 63
	push	ebp
	mov	ebp, esp
	sub	esp, 204				; 000000ccH
	push	ebx
	push	esi
	push	edi
	push	ecx
	lea	edi, DWORD PTR [ebp-12]
	mov	ecx, 3
	mov	eax, -858993460				; ccccccccH
	rep stosd
	pop	ecx
	mov	DWORD PTR _this$[ebp], ecx
	mov	ecx, OFFSET __76E91E88_CompressedUnmappedFontCache@cpp
	call	@__CheckForDebuggerJustMyCode@4
	npad	1
; Line 64
	mov	eax, DWORD PTR _this$[ebp]
	mov	ecx, DWORD PTR _buffer$[ebp]
	mov	DWORD PTR [eax], ecx
	mov	eax, DWORD PTR _buffer$[ebp]
	add	eax, DWORD PTR _size$[ebp]
	mov	ecx, DWORD PTR _this$[ebp]
	mov	DWORD PTR [ecx+4], eax
	mov	eax, DWORD PTR _this$[ebp]
	mov	DWORD PTR [eax+8], 1
	mov	eax, DWORD PTR _this$[ebp]
	pop	edi
	pop	esi
	pop	ebx
	add	esp, 204				; 000000ccH
	cmp	ebp, esp
	call	__RTC_CheckEsp
	mov	esp, ebp
	pop	ebp
	ret	8
??0NibWriter@?A0xdce325fb@touchgfx@@QAE@PAEH@Z ENDP	; touchgfx::`anonymous namespace'::NibWriter::NibWriter
_TEXT	ENDS
; Function compile flags: /Odtp /RTCsu /ZI
;	COMDAT ?getNext@NibUnmapReader@?A0xdce325fb@touchgfx@@QAEEXZ
_TEXT	SEGMENT
tv132 = -236						; size = 4
tv130 = -232						; size = 4
_val$ = -29						; size = 1
_val$1 = -17						; size = 1
_this$ = -8						; size = 4
?getNext@NibUnmapReader@?A0xdce325fb@touchgfx@@QAEEXZ PROC ; touchgfx::`anonymous namespace'::NibUnmapReader::getNext, COMDAT
; _this$ = ecx
; File C:\DT\Solutions\Una\una-watch\Apps\Utility2\GUI\Software\App\TouchGFX-GUI\generated\fonts\src\CompressedUnmappedFontCache.cpp
; Line 36
	push	ebp
	mov	ebp, esp
	sub	esp, 236				; 000000ecH
	push	ebx
	push	esi
	push	edi
	push	ecx
	lea	edi, DWORD PTR [ebp-44]
	mov	ecx, 11					; 0000000bH
	mov	eax, -858993460				; ccccccccH
	rep stosd
	pop	ecx
	mov	DWORD PTR _this$[ebp], ecx
	mov	ecx, OFFSET __76E91E88_CompressedUnmappedFontCache@cpp
	call	@__CheckForDebuggerJustMyCode@4
	npad	1
; Line 37
	mov	eax, DWORD PTR _this$[ebp]
	movzx	ecx, BYTE PTR [eax+32]
	test	ecx, ecx
	je	SHORT $LN2@getNext
; Line 39
	mov	eax, DWORD PTR _this$[ebp]
	mov	ecx, DWORD PTR [eax+28]
	mov	edx, DWORD PTR _this$[ebp]
	mov	eax, DWORD PTR _this$[ebp]
	mov	cl, BYTE PTR [eax+ecx+8]
	mov	BYTE PTR [edx+24], cl
; Line 40
	mov	eax, DWORD PTR _this$[ebp]
	movzx	ecx, BYTE PTR [eax+24]
	and	ecx, 15					; 0000000fH
	mov	BYTE PTR _val$1[ebp], cl
; Line 41
	mov	eax, DWORD PTR _this$[ebp]
	mov	BYTE PTR [eax+32], 0
; Line 42
	mov	al, BYTE PTR _val$1[ebp]
	jmp	$LN1@getNext
$LN2@getNext:
; Line 44
	mov	eax, DWORD PTR _this$[ebp]
	movzx	ecx, BYTE PTR [eax+24]
	sar	ecx, 4
	mov	BYTE PTR _val$[ebp], cl
; Line 45
	mov	eax, DWORD PTR _this$[ebp]
	mov	BYTE PTR [eax+32], 1
; Line 46
	mov	eax, DWORD PTR _this$[ebp]
	cmp	DWORD PTR [eax+28], 15			; 0000000fH
	jne	SHORT $LN3@getNext
; Line 48
	mov	eax, DWORD PTR _this$[ebp]
	mov	ecx, DWORD PTR [eax+4]
	mov	DWORD PTR tv130[ebp], ecx
	mov	edx, DWORD PTR _this$[ebp]
	mov	eax, DWORD PTR [edx+4]
	mov	ecx, DWORD PTR [eax]
	mov	edx, DWORD PTR [ecx+8]
	mov	DWORD PTR tv132[ebp], edx
	mov	esi, esp
	push	16					; 00000010H
	mov	eax, DWORD PTR _this$[ebp]
	add	eax, 8
	push	eax
	mov	ecx, DWORD PTR _this$[ebp]
	mov	edx, DWORD PTR [ecx]
	push	edx
	mov	ecx, DWORD PTR tv130[ebp]
	call	DWORD PTR tv132[ebp]
	cmp	esi, esp
	call	__RTC_CheckEsp
	npad	1
; Line 49
	mov	eax, DWORD PTR _this$[ebp]
	mov	ecx, DWORD PTR [eax]
	add	ecx, 16					; 00000010H
	mov	edx, DWORD PTR _this$[ebp]
	mov	DWORD PTR [edx], ecx
; Line 50
	mov	eax, DWORD PTR _this$[ebp]
	mov	DWORD PTR [eax+28], 0
; Line 51
	jmp	SHORT $LN4@getNext
$LN3@getNext:
; Line 54
	mov	eax, DWORD PTR _this$[ebp]
	mov	ecx, DWORD PTR [eax+28]
	add	ecx, 1
	mov	edx, DWORD PTR _this$[ebp]
	mov	DWORD PTR [edx+28], ecx
$LN4@getNext:
; Line 57
	mov	al, BYTE PTR _val$[ebp]
$LN1@getNext:
; Line 58
	pop	edi
	pop	esi
	pop	ebx
	add	esp, 236				; 000000ecH
	cmp	ebp, esp
	call	__RTC_CheckEsp
	mov	esp, ebp
	pop	ebp
	ret	0
?getNext@NibUnmapReader@?A0xdce325fb@touchgfx@@QAEEXZ ENDP ; touchgfx::`anonymous namespace'::NibUnmapReader::getNext
_TEXT	ENDS
; Function compile flags: /Odtp /RTCsu /ZI
;	COMDAT ??0NibUnmapReader@?A0xdce325fb@touchgfx@@QAE@PBEPAVFlashDataReader@2@@Z
_TEXT	SEGMENT
tv79 = -208						; size = 4
_this$ = -8						; size = 4
_srcAddress$ = 8					; size = 4
_reader$ = 12						; size = 4
??0NibUnmapReader@?A0xdce325fb@touchgfx@@QAE@PBEPAVFlashDataReader@2@@Z PROC ; touchgfx::`anonymous namespace'::NibUnmapReader::NibUnmapReader, COMDAT
; _this$ = ecx
; File C:\DT\Solutions\Una\una-watch\Apps\Utility2\GUI\Software\App\TouchGFX-GUI\generated\fonts\src\CompressedUnmappedFontCache.cpp
; Line 23
	push	ebp
	mov	ebp, esp
	sub	esp, 208				; 000000d0H
	push	ebx
	push	esi
	push	edi
	push	ecx
	lea	edi, DWORD PTR [ebp-16]
	mov	ecx, 4
	mov	eax, -858993460				; ccccccccH
	rep stosd
	pop	ecx
	mov	DWORD PTR _this$[ebp], ecx
	mov	ecx, OFFSET __76E91E88_CompressedUnmappedFontCache@cpp
	call	@__CheckForDebuggerJustMyCode@4
	npad	1
; Line 22
	mov	eax, DWORD PTR _this$[ebp]
	mov	ecx, DWORD PTR _srcAddress$[ebp]
	mov	DWORD PTR [eax], ecx
	mov	eax, DWORD PTR _this$[ebp]
	mov	ecx, DWORD PTR _reader$[ebp]
	mov	DWORD PTR [eax+4], ecx
	mov	eax, DWORD PTR _this$[ebp]
	mov	DWORD PTR [eax+28], 0
	mov	eax, DWORD PTR _this$[ebp]
	mov	BYTE PTR [eax+32], 1
; Line 24
	mov	eax, DWORD PTR _this$[ebp]
	mov	ecx, DWORD PTR [eax]
	add	ecx, 16					; 00000010H
	mov	edx, DWORD PTR _this$[ebp]
	mov	DWORD PTR [edx], ecx
; Line 25
	mov	eax, DWORD PTR _reader$[ebp]
	mov	ecx, DWORD PTR [eax]
	mov	edx, DWORD PTR [ecx+8]
	mov	DWORD PTR tv79[ebp], edx
	mov	esi, esp
	push	16					; 00000010H
	mov	eax, DWORD PTR _this$[ebp]
	add	eax, 8
	push	eax
	mov	ecx, DWORD PTR _srcAddress$[ebp]
	push	ecx
	mov	ecx, DWORD PTR _reader$[ebp]
	call	DWORD PTR tv79[ebp]
	cmp	esi, esp
	call	__RTC_CheckEsp
	npad	1
; Line 26
	mov	eax, DWORD PTR _this$[ebp]
	pop	edi
	pop	esi
	pop	ebx
	add	esp, 208				; 000000d0H
	cmp	ebp, esp
	call	__RTC_CheckEsp
	mov	esp, ebp
	pop	ebp
	ret	8
??0NibUnmapReader@?A0xdce325fb@touchgfx@@QAE@PBEPAVFlashDataReader@2@@Z ENDP ; touchgfx::`anonymous namespace'::NibUnmapReader::NibUnmapReader
_TEXT	ENDS
; Function compile flags: /Odtp /RTCsu /ZI
;	COMDAT ?lockUnlockFrameBuffer@HAL@touchgfx@@QAEXXZ
_TEXT	SEGMENT
_this$ = -8						; size = 4
?lockUnlockFrameBuffer@HAL@touchgfx@@QAEXXZ PROC	; touchgfx::HAL::lockUnlockFrameBuffer, COMDAT
; _this$ = ecx
; File C:\DT\Solutions\Una\una-watch\Apps\Utility2\GUI\Software\App\TouchGFX-GUI\touchgfx\framework\include\touchgfx\hal\HAL.hpp
; Line 291
	push	ebp
	mov	ebp, esp
	sub	esp, 204				; 000000ccH
	push	ebx
	push	esi
	push	edi
	push	ecx
	lea	edi, DWORD PTR [ebp-12]
	mov	ecx, 3
	mov	eax, -858993460				; ccccccccH
	rep stosd
	pop	ecx
	mov	DWORD PTR _this$[ebp], ecx
	mov	ecx, OFFSET __F468A25B_HAL@hpp
	call	@__CheckForDebuggerJustMyCode@4
	npad	1
; Line 292
	mov	eax, DWORD PTR _this$[ebp]
	mov	edx, DWORD PTR [eax]
	mov	esi, esp
	mov	ecx, DWORD PTR _this$[ebp]
	mov	eax, DWORD PTR [edx+40]
	call	eax
	cmp	esi, esp
	call	__RTC_CheckEsp
	npad	1
; Line 293
	mov	eax, DWORD PTR _this$[ebp]
	mov	edx, DWORD PTR [eax]
	mov	esi, esp
	mov	ecx, DWORD PTR _this$[ebp]
	mov	eax, DWORD PTR [edx+44]
	call	eax
	cmp	esi, esp
	call	__RTC_CheckEsp
	npad	1
; Line 294
	pop	edi
	pop	esi
	pop	ebx
	add	esp, 204				; 000000ccH
	cmp	ebp, esp
	call	__RTC_CheckEsp
	mov	esp, ebp
	pop	ebp
	ret	0
?lockUnlockFrameBuffer@HAL@touchgfx@@QAEXXZ ENDP	; touchgfx::HAL::lockUnlockFrameBuffer
_TEXT	ENDS
; Function compile flags: /Odtp /RTCsu /ZI
;	COMDAT ?getInstance@HAL@touchgfx@@SAPAV12@XZ
_TEXT	SEGMENT
?getInstance@HAL@touchgfx@@SAPAV12@XZ PROC		; touchgfx::HAL::getInstance, COMDAT
; File C:\DT\Solutions\Una\una-watch\Apps\Utility2\GUI\Software\App\TouchGFX-GUI\touchgfx\framework\include\touchgfx\hal\HAL.hpp
; Line 116
	push	ebp
	mov	ebp, esp
	sub	esp, 192				; 000000c0H
	push	ebx
	push	esi
	push	edi
	mov	edi, ebp
	xor	ecx, ecx
	mov	eax, -858993460				; ccccccccH
	rep stosd
	mov	ecx, OFFSET __F468A25B_HAL@hpp
	call	@__CheckForDebuggerJustMyCode@4
	npad	1
; Line 117
	mov	eax, DWORD PTR ?instance@HAL@touchgfx@@0PAV12@A ; touchgfx::HAL::instance
; Line 118
	pop	edi
	pop	esi
	pop	ebx
	add	esp, 192				; 000000c0H
	cmp	ebp, esp
	call	__RTC_CheckEsp
	mov	esp, ebp
	pop	ebp
	ret	0
?getInstance@HAL@touchgfx@@SAPAV12@XZ ENDP		; touchgfx::HAL::getInstance
_TEXT	ENDS
; Function compile flags: /Odtp /RTCsu /ZI
;	COMDAT ?decompressGlyph@CompressedUnmappedFontCache@touchgfx@@CAPAEPAEPBUGlyphNode@2@PBEPAVFlashDataReader@2@@Z
_TEXT	SEGMENT
tv159 = -348						; size = 4
_count$1 = -148						; size = 4
_value$2 = -133						; size = 1
_zeroCount$3 = -124					; size = 4
_value$4 = -109						; size = 1
_algorithm$ = -100					; size = 4
_pixelsEnd$ = -88					; size = 4
_reader$ = -76						; size = 36
_writer$ = -32						; size = 12
_byteSize$ = -12					; size = 4
__$ArrayPad$ = -4					; size = 4
_pixelsTop$ = 8						; size = 4
_glyphNode$ = 12					; size = 4
_compressedData$ = 16					; size = 4
_flashReader$ = 20					; size = 4
?decompressGlyph@CompressedUnmappedFontCache@touchgfx@@CAPAEPAEPBUGlyphNode@2@PBEPAVFlashDataReader@2@@Z PROC ; touchgfx::CompressedUnmappedFontCache::decompressGlyph, COMDAT
; File C:\DT\Solutions\Una\una-watch\Apps\Utility2\GUI\Software\App\TouchGFX-GUI\generated\fonts\src\CompressedUnmappedFontCache.cpp
; Line 86
	push	ebp
	mov	ebp, esp
	sub	esp, 348				; 0000015cH
	push	ebx
	push	esi
	push	edi
	lea	edi, DWORD PTR [ebp-156]
	mov	ecx, 39					; 00000027H
	mov	eax, -858993460				; ccccccccH
	rep stosd
	mov	eax, DWORD PTR ___security_cookie
	xor	eax, ebp
	mov	DWORD PTR __$ArrayPad$[ebp], eax
	mov	ecx, OFFSET __76E91E88_CompressedUnmappedFontCache@cpp
	call	@__CheckForDebuggerJustMyCode@4
	npad	1
; Line 87
	mov	ecx, DWORD PTR _glyphNode$[ebp]
	call	?width@GlyphNode@touchgfx@@QBEFXZ	; touchgfx::GlyphNode::width
	cwde
	add	eax, 1
	cdq
	sub	eax, edx
	mov	esi, eax
	sar	esi, 1
	mov	ecx, DWORD PTR _glyphNode$[ebp]
	call	?height@GlyphNode@touchgfx@@QBEFXZ	; touchgfx::GlyphNode::height
	cwde
	imul	esi, eax
	mov	DWORD PTR _byteSize$[ebp], esi
; Line 88
	mov	eax, DWORD PTR _byteSize$[ebp]
	push	eax
	mov	ecx, DWORD PTR _pixelsTop$[ebp]
	push	ecx
	lea	ecx, DWORD PTR _writer$[ebp]
	call	??0NibWriter@?A0xdce325fb@touchgfx@@QAE@PAEH@Z ; touchgfx::`anonymous namespace'::NibWriter::NibWriter
	npad	1
; Line 89
	mov	eax, DWORD PTR _flashReader$[ebp]
	push	eax
	mov	ecx, DWORD PTR _compressedData$[ebp]
	push	ecx
	lea	ecx, DWORD PTR _reader$[ebp]
	call	??0NibUnmapReader@?A0xdce325fb@touchgfx@@QAE@PBEPAVFlashDataReader@2@@Z ; touchgfx::`anonymous namespace'::NibUnmapReader::NibUnmapReader
	npad	1
; Line 90
	mov	eax, DWORD PTR _pixelsTop$[ebp]
	add	eax, DWORD PTR _byteSize$[ebp]
	mov	DWORD PTR _pixelsEnd$[ebp], eax
; Line 91
	mov	eax, DWORD PTR _glyphNode$[ebp]
	mov	ecx, DWORD PTR [eax]
	shr	ecx, 30					; 0000001eH
	mov	DWORD PTR _algorithm$[ebp], ecx
; Line 92
	cmp	DWORD PTR _algorithm$[ebp], 1
	jne	SHORT $LN10@decompress
$LN2@decompress:
; Line 95
	lea	ecx, DWORD PTR _writer$[ebp]
	call	?eof@NibWriter@?A0xdce325fb@touchgfx@@QAE_NXZ ; touchgfx::`anonymous namespace'::NibWriter::eof
	movzx	eax, al
	test	eax, eax
	jne	SHORT $LN3@decompress
; Line 97
	lea	ecx, DWORD PTR _reader$[ebp]
	call	?getNext@NibUnmapReader@?A0xdce325fb@touchgfx@@QAEEXZ ; touchgfx::`anonymous namespace'::NibUnmapReader::getNext
	mov	BYTE PTR _value$4[ebp], al
; Line 98
	movzx	eax, BYTE PTR _value$4[ebp]
	test	eax, eax
	jne	SHORT $LN5@decompress
; Line 100
	lea	ecx, DWORD PTR _reader$[ebp]
	call	?getNext@NibUnmapReader@?A0xdce325fb@touchgfx@@QAEEXZ ; touchgfx::`anonymous namespace'::NibUnmapReader::getNext
	movzx	eax, al
	mov	DWORD PTR _zeroCount$3[ebp], eax
$LN4@decompress:
; Line 101
	cmp	DWORD PTR _zeroCount$3[ebp], 0
	je	SHORT $LN5@decompress
; Line 103
	push	0
	lea	ecx, DWORD PTR _writer$[ebp]
	call	?put@NibWriter@?A0xdce325fb@touchgfx@@QAEXE@Z ; touchgfx::`anonymous namespace'::NibWriter::put
	npad	1
; Line 104
	mov	eax, DWORD PTR _zeroCount$3[ebp]
	sub	eax, 1
	mov	DWORD PTR _zeroCount$3[ebp], eax
; Line 105
	jmp	SHORT $LN4@decompress
$LN5@decompress:
; Line 107
	movzx	eax, BYTE PTR _value$4[ebp]
	push	eax
	lea	ecx, DWORD PTR _writer$[ebp]
	call	?put@NibWriter@?A0xdce325fb@touchgfx@@QAEXE@Z ; touchgfx::`anonymous namespace'::NibWriter::put
	npad	1
; Line 108
	jmp	SHORT $LN2@decompress
$LN3@decompress:
; Line 109
	jmp	$LN14@decompress
$LN10@decompress:
; Line 110
	cmp	DWORD PTR _algorithm$[ebp], 2
	jne	$LN13@decompress
$LN6@decompress:
; Line 113
	lea	ecx, DWORD PTR _writer$[ebp]
	call	?eof@NibWriter@?A0xdce325fb@touchgfx@@QAE_NXZ ; touchgfx::`anonymous namespace'::NibWriter::eof
	movzx	eax, al
	test	eax, eax
	jne	SHORT $LN7@decompress
; Line 115
	lea	ecx, DWORD PTR _reader$[ebp]
	call	?getNext@NibUnmapReader@?A0xdce325fb@touchgfx@@QAEEXZ ; touchgfx::`anonymous namespace'::NibUnmapReader::getNext
	mov	BYTE PTR _value$2[ebp], al
; Line 116
	movzx	eax, BYTE PTR _value$2[ebp]
	test	eax, eax
	je	SHORT $LN16@decompress
	movzx	eax, BYTE PTR _value$2[ebp]
	cmp	eax, 15					; 0000000fH
	jne	SHORT $LN9@decompress
$LN16@decompress:
; Line 118
	lea	ecx, DWORD PTR _reader$[ebp]
	call	?getNext@NibUnmapReader@?A0xdce325fb@touchgfx@@QAEEXZ ; touchgfx::`anonymous namespace'::NibUnmapReader::getNext
	movzx	eax, al
	mov	DWORD PTR _count$1[ebp], eax
$LN8@decompress:
; Line 119
	cmp	DWORD PTR _count$1[ebp], 0
	je	SHORT $LN9@decompress
; Line 121
	movzx	eax, BYTE PTR _value$2[ebp]
	push	eax
	lea	ecx, DWORD PTR _writer$[ebp]
	call	?put@NibWriter@?A0xdce325fb@touchgfx@@QAEXE@Z ; touchgfx::`anonymous namespace'::NibWriter::put
	npad	1
; Line 122
	mov	eax, DWORD PTR _count$1[ebp]
	sub	eax, 1
	mov	DWORD PTR _count$1[ebp], eax
; Line 123
	jmp	SHORT $LN8@decompress
$LN9@decompress:
; Line 125
	movzx	eax, BYTE PTR _value$2[ebp]
	push	eax
	lea	ecx, DWORD PTR _writer$[ebp]
	call	?put@NibWriter@?A0xdce325fb@touchgfx@@QAEXE@Z ; touchgfx::`anonymous namespace'::NibWriter::put
	npad	1
; Line 126
	jmp	$LN6@decompress
$LN7@decompress:
; Line 127
	jmp	SHORT $LN14@decompress
$LN13@decompress:
; Line 131
	mov	eax, DWORD PTR _flashReader$[ebp]
	mov	ecx, DWORD PTR [eax]
	mov	edx, DWORD PTR [ecx+8]
	mov	DWORD PTR tv159[ebp], edx
	mov	esi, esp
	mov	eax, DWORD PTR _byteSize$[ebp]
	push	eax
	mov	ecx, DWORD PTR _pixelsTop$[ebp]
	push	ecx
	mov	edx, DWORD PTR _compressedData$[ebp]
	push	edx
	mov	ecx, DWORD PTR _flashReader$[ebp]
	call	DWORD PTR tv159[ebp]
	cmp	esi, esp
	call	__RTC_CheckEsp
	npad	1
$LN14@decompress:
; Line 134
	mov	eax, DWORD PTR _pixelsEnd$[ebp]
; Line 135
	push	edx
	mov	ecx, ebp
	push	eax
	lea	edx, DWORD PTR $LN21@decompress
	call	@_RTC_CheckStackVars@8
	pop	eax
	pop	edx
	pop	edi
	pop	esi
	pop	ebx
	mov	ecx, DWORD PTR __$ArrayPad$[ebp]
	xor	ecx, ebp
	call	@__security_check_cookie@4
	add	esp, 348				; 0000015cH
	cmp	ebp, esp
	call	__RTC_CheckEsp
	mov	esp, ebp
	pop	ebp
	ret	0
	npad	1
$LN21@decompress:
	DD	2
	DD	$LN20@decompress
$LN20@decompress:
	DD	-32					; ffffffe0H
	DD	12					; 0000000cH
	DD	$LN18@decompress
	DD	-76					; ffffffb4H
	DD	36					; 00000024H
	DD	$LN19@decompress
$LN19@decompress:
	DB	114					; 00000072H
	DB	101					; 00000065H
	DB	97					; 00000061H
	DB	100					; 00000064H
	DB	101					; 00000065H
	DB	114					; 00000072H
	DB	0
$LN18@decompress:
	DB	119					; 00000077H
	DB	114					; 00000072H
	DB	105					; 00000069H
	DB	116					; 00000074H
	DB	101					; 00000065H
	DB	114					; 00000072H
	DB	0
?decompressGlyph@CompressedUnmappedFontCache@touchgfx@@CAPAEPAEPBUGlyphNode@2@PBEPAVFlashDataReader@2@@Z ENDP ; touchgfx::CompressedUnmappedFontCache::decompressGlyph
_TEXT	ENDS
; Function compile flags: /Odtp /RTCsu /ZI
;	COMDAT ?cacheGlyphData@CompressedUnmappedFontCache@touchgfx@@SAPBEPBUGlyphNode@2@PBEPAVFlashDataReader@2@@Z
_TEXT	SEGMENT
_alignmentOffset$ = -80					; size = 4
_rowStart$ = -68					; size = 4
_glyphData$ = -56					; size = 4
_cachedGn$1 = -44					; size = 4
_byteSize$ = -32					; size = 4
_it$ = -20						; size = 4
_end$ = -8						; size = 4
_glyph$ = 8						; size = 4
_compressedData$ = 12					; size = 4
_reader$ = 16						; size = 4
?cacheGlyphData@CompressedUnmappedFontCache@touchgfx@@SAPBEPBUGlyphNode@2@PBEPAVFlashDataReader@2@@Z PROC ; touchgfx::CompressedUnmappedFontCache::cacheGlyphData, COMDAT
; File C:\DT\Solutions\Una\una-watch\Apps\Utility2\GUI\Software\App\TouchGFX-GUI\generated\fonts\src\CompressedUnmappedFontCache.cpp
; Line 201
	push	ebp
	mov	ebp, esp
	sub	esp, 276				; 00000114H
	push	ebx
	push	esi
	push	edi
	lea	edi, DWORD PTR [ebp-84]
	mov	ecx, 21					; 00000015H
	mov	eax, -858993460				; ccccccccH
	rep stosd
	mov	ecx, OFFSET __76E91E88_CompressedUnmappedFontCache@cpp
	call	@__CheckForDebuggerJustMyCode@4
	npad	1
; Line 203
	mov	eax, 4
	shl	eax, 10					; 0000000aH
	add	eax, OFFSET ?bitmapFontCache@CompressedUnmappedFontCache@touchgfx@@0PAIA ; touchgfx::CompressedUnmappedFontCache::bitmapFontCache
	mov	DWORD PTR _end$[ebp], eax
; Line 204
	imul	eax, DWORD PTR ?glyphsAllocated@CompressedUnmappedFontCache@touchgfx@@0HA, 24 ; touchgfx::CompressedUnmappedFontCache::glyphsAllocated
	mov	ecx, DWORD PTR _end$[ebp]
	sub	ecx, eax
	mov	DWORD PTR _it$[ebp], ecx
$LN2@cacheGlyph:
; Line 205
	mov	eax, DWORD PTR _it$[ebp]
	cmp	eax, DWORD PTR _end$[ebp]
	jae	SHORT $LN3@cacheGlyph
; Line 207
	mov	eax, DWORD PTR _it$[ebp]
	mov	ecx, DWORD PTR [eax]
	cmp	ecx, DWORD PTR _glyph$[ebp]
	jne	SHORT $LN4@cacheGlyph
; Line 209
	jmp	SHORT $LN3@cacheGlyph
$LN4@cacheGlyph:
; Line 211
	mov	eax, DWORD PTR _it$[ebp]
	add	eax, 24					; 00000018H
	mov	DWORD PTR _it$[ebp], eax
; Line 212
	jmp	SHORT $LN2@cacheGlyph
$LN3@cacheGlyph:
; Line 214
	mov	eax, DWORD PTR _it$[ebp]
	cmp	eax, DWORD PTR _end$[ebp]
	jne	SHORT $LN5@cacheGlyph
; Line 217
	xor	eax, eax
	jmp	$LN1@cacheGlyph
$LN5@cacheGlyph:
; Line 220
	mov	ecx, DWORD PTR _it$[ebp]
	add	ecx, 4
	call	?width@GlyphNode@touchgfx@@QBEFXZ	; touchgfx::GlyphNode::width
	cwde
	add	eax, 1
	cdq
	sub	eax, edx
	mov	esi, eax
	sar	esi, 1
	mov	ecx, DWORD PTR _it$[ebp]
	add	ecx, 4
	call	?height@GlyphNode@touchgfx@@QBEFXZ	; touchgfx::GlyphNode::height
	cwde
	imul	esi, eax
	mov	DWORD PTR _byteSize$[ebp], esi
; Line 222
	mov	eax, DWORD PTR ?pixelsTop@CompressedUnmappedFontCache@touchgfx@@0PAEA ; touchgfx::CompressedUnmappedFontCache::pixelsTop
	add	eax, DWORD PTR _byteSize$[ebp]
	mov	ecx, DWORD PTR ?glyphsAllocated@CompressedUnmappedFontCache@touchgfx@@0HA ; touchgfx::CompressedUnmappedFontCache::glyphsAllocated
	neg	ecx
	imul	edx, ecx, 24
	add	edx, DWORD PTR _end$[ebp]
	cmp	eax, edx
	jbe	SHORT $LN6@cacheGlyph
; Line 225
	mov	eax, DWORD PTR _byteSize$[ebp]
	add	eax, 24					; 00000018H
	cmp	eax, 4096				; 00001000H
	jbe	SHORT $LN7@cacheGlyph
; Line 227
	mov	eax, DWORD PTR _byteSize$[ebp]
	push	eax
	mov	ecx, DWORD PTR _glyph$[ebp]
	push	ecx
	call	?unableToCache@CompressedUnmappedFontCache@touchgfx@@SAXPBUGlyphNode@2@H@Z ; touchgfx::CompressedUnmappedFontCache::unableToCache
	add	esp, 8
; Line 228
	xor	eax, eax
	jmp	$LN1@cacheGlyph
$LN7@cacheGlyph:
; Line 234
	mov	eax, DWORD PTR _it$[ebp]
	add	eax, 4
	mov	DWORD PTR _cachedGn$1[ebp], eax
; Line 237
	call	?clearCache@CompressedUnmappedFontCache@touchgfx@@SAXXZ ; touchgfx::CompressedUnmappedFontCache::clearCache
	npad	1
; Line 240
	mov	eax, DWORD PTR ?glyphsAllocated@CompressedUnmappedFontCache@touchgfx@@0HA ; touchgfx::CompressedUnmappedFontCache::glyphsAllocated
	add	eax, 1
	mov	DWORD PTR ?glyphsAllocated@CompressedUnmappedFontCache@touchgfx@@0HA, eax ; touchgfx::CompressedUnmappedFontCache::glyphsAllocated
; Line 241
	mov	eax, DWORD PTR _end$[ebp]
	sub	eax, 24					; 00000018H
	mov	DWORD PTR _it$[ebp], eax
; Line 242
	mov	eax, DWORD PTR _it$[ebp]
	mov	ecx, DWORD PTR _glyph$[ebp]
	mov	DWORD PTR [eax], ecx
; Line 243
	mov	eax, DWORD PTR _it$[ebp]
	mov	DWORD PTR [eax+20], 0
; Line 245
	mov	eax, DWORD PTR _it$[ebp]
	add	eax, 4
	mov	ecx, DWORD PTR _cachedGn$1[ebp]
	mov	edx, DWORD PTR [ecx]
	mov	DWORD PTR [eax], edx
	mov	edx, DWORD PTR [ecx+4]
	mov	DWORD PTR [eax+4], edx
	mov	edx, DWORD PTR [ecx+8]
	mov	DWORD PTR [eax+8], edx
	mov	cx, WORD PTR [ecx+12]
	mov	WORD PTR [eax+12], cx
$LN6@cacheGlyph:
; Line 249
	mov	eax, DWORD PTR ?pixelsTop@CompressedUnmappedFontCache@touchgfx@@0PAEA ; touchgfx::CompressedUnmappedFontCache::pixelsTop
	mov	DWORD PTR _glyphData$[ebp], eax
; Line 250
	mov	eax, DWORD PTR _reader$[ebp]
	push	eax
	mov	ecx, DWORD PTR _compressedData$[ebp]
	push	ecx
	mov	edx, DWORD PTR _it$[ebp]
	add	edx, 4
	push	edx
	mov	eax, DWORD PTR ?pixelsTop@CompressedUnmappedFontCache@touchgfx@@0PAEA ; touchgfx::CompressedUnmappedFontCache::pixelsTop
	push	eax
	call	?decompressGlyph@CompressedUnmappedFontCache@touchgfx@@CAPAEPAEPBUGlyphNode@2@PBEPAVFlashDataReader@2@@Z ; touchgfx::CompressedUnmappedFontCache::decompressGlyph
	add	esp, 16					; 00000010H
	mov	DWORD PTR ?pixelsTop@CompressedUnmappedFontCache@touchgfx@@0PAEA, eax ; touchgfx::CompressedUnmappedFontCache::pixelsTop
; Line 253
	mov	eax, DWORD PTR _glyphData$[ebp]
	and	eax, -32				; ffffffe0H
	mov	DWORD PTR _rowStart$[ebp], eax
; Line 254
	mov	eax, DWORD PTR _glyphData$[ebp]
	sub	eax, DWORD PTR _rowStart$[ebp]
	mov	DWORD PTR _alignmentOffset$[ebp], eax
; Line 255
	mov	eax, DWORD PTR _byteSize$[ebp]
	add	eax, DWORD PTR _alignmentOffset$[ebp]
	push	eax
	mov	ecx, DWORD PTR _rowStart$[ebp]
	push	ecx
	call	?flushLine@paint@touchgfx@@YAXPAIH@Z	; touchgfx::paint::flushLine
	add	esp, 8
; Line 256
	call	?invalidateTextureCache@paint@touchgfx@@YAXXZ ; touchgfx::paint::invalidateTextureCache
	npad	1
; Line 258
	mov	eax, DWORD PTR _it$[ebp]
	mov	ecx, DWORD PTR _glyphData$[ebp]
	mov	DWORD PTR [eax+20], ecx
; Line 260
	mov	eax, DWORD PTR _glyphData$[ebp]
$LN1@cacheGlyph:
; Line 261
	pop	edi
	pop	esi
	pop	ebx
	add	esp, 276				; 00000114H
	cmp	ebp, esp
	call	__RTC_CheckEsp
	mov	esp, ebp
	pop	ebp
	ret	0
?cacheGlyphData@CompressedUnmappedFontCache@touchgfx@@SAPBEPBUGlyphNode@2@PBEPAVFlashDataReader@2@@Z ENDP ; touchgfx::CompressedUnmappedFontCache::cacheGlyphData
_TEXT	ENDS
; Function compile flags: /Odtp /RTCsu /ZI
;	COMDAT ?cacheGlyphNode@CompressedUnmappedFontCache@touchgfx@@SAPAUGlyphNode@2@PBU32@@Z
_TEXT	SEGMENT
_key$ = -20						; size = 4
_end$ = -8						; size = 4
_glyph$ = 8						; size = 4
?cacheGlyphNode@CompressedUnmappedFontCache@touchgfx@@SAPAUGlyphNode@2@PBU32@@Z PROC ; touchgfx::CompressedUnmappedFontCache::cacheGlyphNode, COMDAT
; File C:\DT\Solutions\Una\una-watch\Apps\Utility2\GUI\Software\App\TouchGFX-GUI\generated\fonts\src\CompressedUnmappedFontCache.cpp
; Line 184
	push	ebp
	mov	ebp, esp
	sub	esp, 216				; 000000d8H
	push	ebx
	push	esi
	push	edi
	lea	edi, DWORD PTR [ebp-24]
	mov	ecx, 6
	mov	eax, -858993460				; ccccccccH
	rep stosd
	mov	ecx, OFFSET __76E91E88_CompressedUnmappedFontCache@cpp
	call	@__CheckForDebuggerJustMyCode@4
	npad	1
; Line 185
	mov	eax, 4
	shl	eax, 10					; 0000000aH
	add	eax, OFFSET ?bitmapFontCache@CompressedUnmappedFontCache@touchgfx@@0PAIA ; touchgfx::CompressedUnmappedFontCache::bitmapFontCache
	mov	DWORD PTR _end$[ebp], eax
; Line 186
	mov	eax, DWORD PTR ?pixelsTop@CompressedUnmappedFontCache@touchgfx@@0PAEA ; touchgfx::CompressedUnmappedFontCache::pixelsTop
	add	eax, 24					; 00000018H
	mov	ecx, DWORD PTR ?glyphsAllocated@CompressedUnmappedFontCache@touchgfx@@0HA ; touchgfx::CompressedUnmappedFontCache::glyphsAllocated
	neg	ecx
	imul	edx, ecx, 24
	add	edx, DWORD PTR _end$[ebp]
	cmp	eax, edx
	jbe	SHORT $LN2@cacheGlyph
; Line 189
	call	?clearCache@CompressedUnmappedFontCache@touchgfx@@SAXXZ ; touchgfx::CompressedUnmappedFontCache::clearCache
	npad	1
$LN2@cacheGlyph:
; Line 192
	mov	eax, DWORD PTR ?glyphsAllocated@CompressedUnmappedFontCache@touchgfx@@0HA ; touchgfx::CompressedUnmappedFontCache::glyphsAllocated
	add	eax, 1
	mov	DWORD PTR ?glyphsAllocated@CompressedUnmappedFontCache@touchgfx@@0HA, eax ; touchgfx::CompressedUnmappedFontCache::glyphsAllocated
; Line 193
	imul	eax, DWORD PTR ?glyphsAllocated@CompressedUnmappedFontCache@touchgfx@@0HA, 24 ; touchgfx::CompressedUnmappedFontCache::glyphsAllocated
	mov	ecx, DWORD PTR _end$[ebp]
	sub	ecx, eax
	mov	DWORD PTR _key$[ebp], ecx
; Line 194
	mov	eax, DWORD PTR _key$[ebp]
	mov	ecx, DWORD PTR _glyph$[ebp]
	mov	DWORD PTR [eax], ecx
; Line 195
	mov	eax, DWORD PTR _key$[ebp]
	mov	DWORD PTR [eax+20], 0
; Line 197
	mov	eax, DWORD PTR _key$[ebp]
	add	eax, 4
; Line 198
	pop	edi
	pop	esi
	pop	ebx
	add	esp, 216				; 000000d8H
	cmp	ebp, esp
	call	__RTC_CheckEsp
	mov	esp, ebp
	pop	ebp
	ret	0
?cacheGlyphNode@CompressedUnmappedFontCache@touchgfx@@SAPAUGlyphNode@2@PBU32@@Z ENDP ; touchgfx::CompressedUnmappedFontCache::cacheGlyphNode
_TEXT	ENDS
; Function compile flags: /Odtp /RTCsu /ZI
;	COMDAT ?unableToCache@CompressedUnmappedFontCache@touchgfx@@SAXPBUGlyphNode@2@H@Z
_TEXT	SEGMENT
_glyphNode$ = 8						; size = 4
_byteSize$ = 12						; size = 4
?unableToCache@CompressedUnmappedFontCache@touchgfx@@SAXPBUGlyphNode@2@H@Z PROC ; touchgfx::CompressedUnmappedFontCache::unableToCache, COMDAT
; File C:\DT\Solutions\Una\una-watch\Apps\Utility2\GUI\Software\App\TouchGFX-GUI\generated\fonts\src\CompressedUnmappedFontCache.cpp
; Line 147
	push	ebp
	mov	ebp, esp
	sub	esp, 192				; 000000c0H
	push	ebx
	push	esi
	push	edi
	mov	edi, ebp
	xor	ecx, ecx
	mov	eax, -858993460				; ccccccccH
	rep stosd
	mov	ecx, OFFSET __76E91E88_CompressedUnmappedFontCache@cpp
	call	@__CheckForDebuggerJustMyCode@4
	npad	1
$LN2@unableToCa:
; Line 148
	mov	eax, 1
	test	eax, eax
	je	SHORT $LN3@unableToCa
	jmp	SHORT $LN2@unableToCa
$LN3@unableToCa:
; Line 149
	pop	edi
	pop	esi
	pop	ebx
	add	esp, 192				; 000000c0H
	cmp	ebp, esp
	call	__RTC_CheckEsp
	mov	esp, ebp
	pop	ebp
	ret	0
?unableToCache@CompressedUnmappedFontCache@touchgfx@@SAXPBUGlyphNode@2@H@Z ENDP ; touchgfx::CompressedUnmappedFontCache::unableToCache
_TEXT	ENDS
; Function compile flags: /Odtp /RTCsu /ZI
;	COMDAT ?hasCachedGlyphData@CompressedUnmappedFontCache@touchgfx@@SAPBUGlyphNode@2@PBU32@AAPBE@Z
_TEXT	SEGMENT
_first$ = -20						; size = 4
_end$ = -8						; size = 4
_glyphNode$ = 8						; size = 4
_pixelData$ = 12					; size = 4
?hasCachedGlyphData@CompressedUnmappedFontCache@touchgfx@@SAPBUGlyphNode@2@PBU32@AAPBE@Z PROC ; touchgfx::CompressedUnmappedFontCache::hasCachedGlyphData, COMDAT
; File C:\DT\Solutions\Una\una-watch\Apps\Utility2\GUI\Software\App\TouchGFX-GUI\generated\fonts\src\CompressedUnmappedFontCache.cpp
; Line 167
	push	ebp
	mov	ebp, esp
	sub	esp, 216				; 000000d8H
	push	ebx
	push	esi
	push	edi
	lea	edi, DWORD PTR [ebp-24]
	mov	ecx, 6
	mov	eax, -858993460				; ccccccccH
	rep stosd
	mov	ecx, OFFSET __76E91E88_CompressedUnmappedFontCache@cpp
	call	@__CheckForDebuggerJustMyCode@4
	npad	1
; Line 168
	mov	eax, 4
	shl	eax, 10					; 0000000aH
	add	eax, OFFSET ?bitmapFontCache@CompressedUnmappedFontCache@touchgfx@@0PAIA ; touchgfx::CompressedUnmappedFontCache::bitmapFontCache
	mov	DWORD PTR _end$[ebp], eax
; Line 169
	imul	eax, DWORD PTR ?glyphsAllocated@CompressedUnmappedFontCache@touchgfx@@0HA, 24 ; touchgfx::CompressedUnmappedFontCache::glyphsAllocated
	mov	ecx, DWORD PTR _end$[ebp]
	sub	ecx, eax
	mov	DWORD PTR _first$[ebp], ecx
$LN2@hasCachedG:
; Line 170
	mov	eax, DWORD PTR _first$[ebp]
	cmp	eax, DWORD PTR _end$[ebp]
	jae	SHORT $LN3@hasCachedG
; Line 172
	mov	eax, DWORD PTR _first$[ebp]
	mov	ecx, DWORD PTR [eax]
	cmp	ecx, DWORD PTR _glyphNode$[ebp]
	jne	SHORT $LN4@hasCachedG
; Line 175
	mov	eax, DWORD PTR _pixelData$[ebp]
	mov	ecx, DWORD PTR _first$[ebp]
	mov	edx, DWORD PTR [ecx+20]
	mov	DWORD PTR [eax], edx
; Line 176
	mov	eax, DWORD PTR _first$[ebp]
	add	eax, 4
	jmp	SHORT $LN1@hasCachedG
$LN4@hasCachedG:
; Line 178
	mov	eax, DWORD PTR _first$[ebp]
	add	eax, 24					; 00000018H
	mov	DWORD PTR _first$[ebp], eax
; Line 179
	jmp	SHORT $LN2@hasCachedG
$LN3@hasCachedG:
; Line 180
	xor	eax, eax
$LN1@hasCachedG:
; Line 181
	pop	edi
	pop	esi
	pop	ebx
	add	esp, 216				; 000000d8H
	cmp	ebp, esp
	call	__RTC_CheckEsp
	mov	esp, ebp
	pop	ebp
	ret	0
?hasCachedGlyphData@CompressedUnmappedFontCache@touchgfx@@SAPBUGlyphNode@2@PBU32@AAPBE@Z ENDP ; touchgfx::CompressedUnmappedFontCache::hasCachedGlyphData
_TEXT	ENDS
; Function compile flags: /Odtp /RTCsu /ZI
;	COMDAT ?hasCachedGlyphNode@CompressedUnmappedFontCache@touchgfx@@SAPBUGlyphNode@2@PBU32@@Z
_TEXT	SEGMENT
_first$ = -20						; size = 4
_end$ = -8						; size = 4
_glyphNode$ = 8						; size = 4
?hasCachedGlyphNode@CompressedUnmappedFontCache@touchgfx@@SAPBUGlyphNode@2@PBU32@@Z PROC ; touchgfx::CompressedUnmappedFontCache::hasCachedGlyphNode, COMDAT
; File C:\DT\Solutions\Una\una-watch\Apps\Utility2\GUI\Software\App\TouchGFX-GUI\generated\fonts\src\CompressedUnmappedFontCache.cpp
; Line 152
	push	ebp
	mov	ebp, esp
	sub	esp, 216				; 000000d8H
	push	ebx
	push	esi
	push	edi
	lea	edi, DWORD PTR [ebp-24]
	mov	ecx, 6
	mov	eax, -858993460				; ccccccccH
	rep stosd
	mov	ecx, OFFSET __76E91E88_CompressedUnmappedFontCache@cpp
	call	@__CheckForDebuggerJustMyCode@4
	npad	1
; Line 153
	mov	eax, 4
	shl	eax, 10					; 0000000aH
	add	eax, OFFSET ?bitmapFontCache@CompressedUnmappedFontCache@touchgfx@@0PAIA ; touchgfx::CompressedUnmappedFontCache::bitmapFontCache
	mov	DWORD PTR _end$[ebp], eax
; Line 154
	imul	eax, DWORD PTR ?glyphsAllocated@CompressedUnmappedFontCache@touchgfx@@0HA, 24 ; touchgfx::CompressedUnmappedFontCache::glyphsAllocated
	mov	ecx, DWORD PTR _end$[ebp]
	sub	ecx, eax
	mov	DWORD PTR _first$[ebp], ecx
$LN2@hasCachedG:
; Line 155
	mov	eax, DWORD PTR _first$[ebp]
	cmp	eax, DWORD PTR _end$[ebp]
	jae	SHORT $LN3@hasCachedG
; Line 157
	mov	eax, DWORD PTR _first$[ebp]
	mov	ecx, DWORD PTR [eax]
	cmp	ecx, DWORD PTR _glyphNode$[ebp]
	jne	SHORT $LN4@hasCachedG
; Line 159
	mov	eax, DWORD PTR _first$[ebp]
	add	eax, 4
	jmp	SHORT $LN1@hasCachedG
$LN4@hasCachedG:
; Line 161
	mov	eax, DWORD PTR _first$[ebp]
	add	eax, 24					; 00000018H
	mov	DWORD PTR _first$[ebp], eax
; Line 162
	jmp	SHORT $LN2@hasCachedG
$LN3@hasCachedG:
; Line 163
	xor	eax, eax
$LN1@hasCachedG:
; Line 164
	pop	edi
	pop	esi
	pop	ebx
	add	esp, 216				; 000000d8H
	cmp	ebp, esp
	call	__RTC_CheckEsp
	mov	esp, ebp
	pop	ebp
	ret	0
?hasCachedGlyphNode@CompressedUnmappedFontCache@touchgfx@@SAPBUGlyphNode@2@PBU32@@Z ENDP ; touchgfx::CompressedUnmappedFontCache::hasCachedGlyphNode
_TEXT	ENDS
; Function compile flags: /Odtp /RTCsu /ZI
;	COMDAT ?clearCache@CompressedUnmappedFontCache@touchgfx@@SAXXZ
_TEXT	SEGMENT
?clearCache@CompressedUnmappedFontCache@touchgfx@@SAXXZ PROC ; touchgfx::CompressedUnmappedFontCache::clearCache, COMDAT
; File C:\DT\Solutions\Una\una-watch\Apps\Utility2\GUI\Software\App\TouchGFX-GUI\generated\fonts\src\CompressedUnmappedFontCache.cpp
; Line 138
	push	ebp
	mov	ebp, esp
	sub	esp, 192				; 000000c0H
	push	ebx
	push	esi
	push	edi
	mov	edi, ebp
	xor	ecx, ecx
	mov	eax, -858993460				; ccccccccH
	rep stosd
	mov	ecx, OFFSET __76E91E88_CompressedUnmappedFontCache@cpp
	call	@__CheckForDebuggerJustMyCode@4
	npad	1
; Line 140
	call	?getInstance@HAL@touchgfx@@SAPAV12@XZ	; touchgfx::HAL::getInstance
	mov	ecx, eax
	call	?lockUnlockFrameBuffer@HAL@touchgfx@@QAEXXZ ; touchgfx::HAL::lockUnlockFrameBuffer
	npad	1
; Line 141
	mov	DWORD PTR ?glyphsAllocated@CompressedUnmappedFontCache@touchgfx@@0HA, 0 ; touchgfx::CompressedUnmappedFontCache::glyphsAllocated
; Line 142
	mov	eax, DWORD PTR ?cacheClearCounter@CompressedUnmappedFontCache@touchgfx@@2HA ; touchgfx::CompressedUnmappedFontCache::cacheClearCounter
	add	eax, 1
	mov	DWORD PTR ?cacheClearCounter@CompressedUnmappedFontCache@touchgfx@@2HA, eax ; touchgfx::CompressedUnmappedFontCache::cacheClearCounter
; Line 143
	mov	DWORD PTR ?pixelsTop@CompressedUnmappedFontCache@touchgfx@@0PAEA, OFFSET ?bitmapFontCache@CompressedUnmappedFontCache@touchgfx@@0PAIA ; touchgfx::CompressedUnmappedFontCache::pixelsTop, touchgfx::CompressedUnmappedFontCache::bitmapFontCache
; Line 144
	pop	edi
	pop	esi
	pop	ebx
	add	esp, 192				; 000000c0H
	cmp	ebp, esp
	call	__RTC_CheckEsp
	mov	esp, ebp
	pop	ebp
	ret	0
?clearCache@CompressedUnmappedFontCache@touchgfx@@SAXXZ ENDP ; touchgfx::CompressedUnmappedFontCache::clearCache
_TEXT	ENDS
; Function compile flags: /Odtp /RTCsu /ZI
;	COMDAT ?height@GlyphNode@touchgfx@@QBEFXZ
_TEXT	SEGMENT
_this$ = -8						; size = 4
?height@GlyphNode@touchgfx@@QBEFXZ PROC			; touchgfx::GlyphNode::height, COMDAT
; _this$ = ecx
; File C:\DT\Solutions\Una\una-watch\Apps\Utility2\GUI\Software\App\TouchGFX-GUI\touchgfx\framework\include\touchgfx\Font.hpp
; Line 79
	push	ebp
	mov	ebp, esp
	sub	esp, 204				; 000000ccH
	push	ebx
	push	esi
	push	edi
	push	ecx
	lea	edi, DWORD PTR [ebp-12]
	mov	ecx, 3
	mov	eax, -858993460				; ccccccccH
	rep stosd
	pop	ecx
	mov	DWORD PTR _this$[ebp], ecx
	mov	ecx, OFFSET __EEB25667_Font@hpp
	call	@__CheckForDebuggerJustMyCode@4
	npad	1
; Line 80
	mov	eax, DWORD PTR _this$[ebp]
	movzx	eax, BYTE PTR [eax+13]
	and	eax, 16					; 00000010H
	shl	eax, 4
	mov	ecx, DWORD PTR _this$[ebp]
	movzx	edx, BYTE PTR [ecx+7]
	or	eax, edx
; Line 81
	pop	edi
	pop	esi
	pop	ebx
	add	esp, 204				; 000000ccH
	cmp	ebp, esp
	call	__RTC_CheckEsp
	mov	esp, ebp
	pop	ebp
	ret	0
?height@GlyphNode@touchgfx@@QBEFXZ ENDP			; touchgfx::GlyphNode::height
_TEXT	ENDS
; Function compile flags: /Odtp /RTCsu /ZI
;	COMDAT ?width@GlyphNode@touchgfx@@QBEFXZ
_TEXT	SEGMENT
_this$ = -8						; size = 4
?width@GlyphNode@touchgfx@@QBEFXZ PROC			; touchgfx::GlyphNode::width, COMDAT
; _this$ = ecx
; File C:\DT\Solutions\Una\una-watch\Apps\Utility2\GUI\Software\App\TouchGFX-GUI\touchgfx\framework\include\touchgfx\Font.hpp
; Line 69
	push	ebp
	mov	ebp, esp
	sub	esp, 204				; 000000ccH
	push	ebx
	push	esi
	push	edi
	push	ecx
	lea	edi, DWORD PTR [ebp-12]
	mov	ecx, 3
	mov	eax, -858993460				; ccccccccH
	rep stosd
	pop	ecx
	mov	DWORD PTR _this$[ebp], ecx
	mov	ecx, OFFSET __EEB25667_Font@hpp
	call	@__CheckForDebuggerJustMyCode@4
	npad	1
; Line 70
	mov	eax, DWORD PTR _this$[ebp]
	movzx	eax, BYTE PTR [eax+13]
	and	eax, 8
	shl	eax, 5
	mov	ecx, DWORD PTR _this$[ebp]
	movzx	edx, BYTE PTR [ecx+6]
	or	eax, edx
; Line 71
	pop	edi
	pop	esi
	pop	ebx
	add	esp, 204				; 000000ccH
	cmp	ebp, esp
	call	__RTC_CheckEsp
	mov	esp, ebp
	pop	ebp
	ret	0
?width@GlyphNode@touchgfx@@QBEFXZ ENDP			; touchgfx::GlyphNode::width
_TEXT	ENDS
END
