; Listing generated by Microsoft (R) Optimizing Compiler Version 19.42.34436.0 

	TITLE	C:\DT\Solutions\Una\una-watch\Apps\Utility2\GUI\Software\App\TouchGFX-GUI\build\Debug\obj\Font_Poppins_Italic_20_2bpp_0.obj
	.686P
	.XMM
	include listing.inc
	.model	flat

INCLUDELIB MSVCRTD
INCLUDELIB OLDNAMES

PUBLIC	?unicodes_Poppins_Italic_20_2bpp_0@@3QBEB	; unicodes_Poppins_Italic_20_2bpp_0
msvcjmc	SEGMENT
__3A77C584_concurrencysal@h DB 01H
__7D61E6FE_sal@h DB 01H
__F85DFF2E_vadefs@h DB 01H
__E62C82FD_vcruntime@h DB 01H
__B193B045_corecrt@h DB 01H
__829D5E02_assert@h DB 01H
__80509148_stdint@h DB 01H
__CA6578A3_Config@hpp DB 01H
__26FA5A17_Types@hpp DB 01H
__BC2A3BE4_Font_Poppins_Italic_20_2bpp_0@cpp DB 01H
msvcjmc	ENDS
CONST	SEGMENT
?unicodes_Poppins_Italic_20_2bpp_0@@3QBEB DB 0e0H	; unicodes_Poppins_Italic_20_2bpp_0
	DB	0c1H
	DB	03H
	DB	0fH
	DB	02cH
	DB	074H
	DB	0d0H
	DB	081H
	DB	03H
	DB	0eH
	DB	02cH
	DB	070H
	DB	00H
	DB	00H
	DB	01H
	DB	01fH
	DB	03cH
	DB	00H
	DB	08eH
	DB	03aH
	DB	0abH
	DB	0dcH
	DB	035H
	DB	00H
	DB	040H
	DB	07H
	DB	078H
	DB	00H
	DB	00H
	DB	0fH
	DB	0b0H
	DB	00H
	DB	00H
	DB	01dH
	DB	0d0H
	DB	01H
	DB	00H
	DB	038H
	DB	080H
	DB	03H
	DB	0d0H
	DB	0ffH
	DB	0ffH
	DB	0ffH
	DB	042H
	DB	0eaH
	DB	0aaH
	DB	0afH
	DB	06H
	DB	080H
	DB	03H
	DB	03cH
	DB	00H
	DB	040H
	DB	0bH
	DB	074H
	DB	00H
	DB	00H
	DB	01eH
	DB	0e0H
	DB	00H
	DB	0a4H
	DB	0beH
	DB	0eaH
	DB	06bH
	DB	0e0H
	DB	0ffH
	DB	0ffH
	DB	0ffH
	DB	01H
	DB	0e0H
	DB	00H
	DB	0eH
	DB	00H
	DB	0c0H
	DB	02H
	DB	02cH
	DB	00H
	DB	040H
	DB	07H
	DB	078H
	DB	00H
	DB	00H
	DB	0fH
	DB	0b0H
	DB	00H
	DB	00H
	DB	00H
	DB	010H
	DB	00H
	DB	00H
	DB	03H
	DB	040H
	DB	0ffH
	DB	02H
	DB	0aeH
	DB	0beH
	DB	078H
	DB	018H
	DB	0cfH
	DB	083H
	DB	051H
	DB	03cH
	DB	0cH
	DB	0c0H
	DB	0dbH
	DB	00H
	DB	0f4H
	DB	01fH
	DB	00H
	DB	0e4H
	DB	01fH
	DB	00H
	DB	0d6H
	DB	03H
	DB	070H
	DB	078H
	DB	0aH
	DB	083H
	DB	0f3H
	DB	034H
	DB	02dH
	DB	0beH
	DB	0bbH
	DB	080H
	DB	0ffH
	DB	02H
	DB	080H
	DB	01H
	DB	00H
	DB	04H
	DB	00H
	DB	0d0H
	DB	0bH
	DB	0b0H
	DB	078H
	DB	01dH
	DB	038H
	DB	01cH
	DB	028H
	DB	01eH
	DB	01dH
	DB	05cH
	DB	07H
	DB	01cH
	DB	0deH
	DB	02H
	DB	0f8H
	DB	0e7H
	DB	00H
	DB	00H
	DB	078H
	DB	00H
	DB	00H
	DB	01dH
	DB	00H
	DB	00H
	DB	08bH
	DB	01fH
	DB	080H
	DB	0b7H
	DB	039H
	DB	0e0H
	DB	035H
	DB	074H
	DB	074H
	DB	028H
	DB	034H
	DB	02cH
	DB	038H
	DB	02cH
	DB	0eH
	DB	0e0H
	DB	07H
	DB	00H
	DB	0e4H
	DB	0bH
	DB	00H
	DB	0d0H
	DB	0ebH
	DB	02H
	DB	00H
	DB	0fH
	DB	03cH
	DB	00H
	DB	0b4H
	DB	00H
	DB	00H
	DB	00H
	DB	0fH
	DB	00H
	DB	00H
	DB	0e0H
	DB	02H
	DB	00H
	DB	080H
	DB	07fH
	DB	00H
	DB	040H
	DB	01fH
	DB	01fH
	DB	0b4H
	DB	03cH
	DB	0d0H
	DB	0c3H
	DB	0d3H
	DB	01H
	DB	0f4H
	DB	01eH
	DB	01eH
	DB	00H
	DB	07eH
	DB	0d0H
	DB	02H
	DB	0e0H
	DB	0bH
	DB	0bcH
	DB	0e5H
	DB	0f7H
	DB	01H
	DB	0feH
	DB	06H
	DB	07dH
	DB	0eeH
	DB	07aH
	DB	00H
	DB	0e0H
	DB	01H
	DB	0e0H
	DB	01H
	DB	0e0H
	DB	01H
	DB	0d0H
	DB	02H
	DB	0c0H
	DB	03H
	DB	080H
	DB	07H
	DB	00H
	DB	0bH
	DB	00H
	DB	01dH
	DB	00H
	DB	038H
	DB	00H
	DB	0b0H
	DB	00H
	DB	0d0H
	DB	01H
	DB	080H
	DB	07H
	DB	00H
	DB	0eH
	DB	00H
	DB	038H
	DB	00H
	DB	0e0H
	DB	00H
	DB	080H
	DB	03H
	DB	00H
	DB	01eH
	DB	00H
	DB	074H
	DB	00H
	DB	0d0H
	DB	02H
	DB	00H
	DB	0fH
	DB	00H
	DB	0b4H
	DB	00H
	DB	080H
	DB	07H
	DB	00H
	DB	00H
	DB	01eH
	DB	00H
	DB	0f0H
	DB	00H
	DB	080H
	DB	07H
	DB	00H
	DB	03cH
	DB	00H
	DB	0e0H
	DB	00H
	DB	080H
	DB	07H
	DB	00H
	DB	01dH
	DB	00H
	DB	0b4H
	DB	00H
	DB	0d0H
	DB	01H
	DB	040H
	DB	07H
	DB	00H
	DB	01dH
	DB	00H
	DB	038H
	DB	00H
	DB	0e0H
	DB	00H
	DB	0c0H
	DB	02H
	DB	040H
	DB	07H
	DB	00H
	DB	0fH
	DB	00H
	DB	01dH
	DB	00H
	DB	03cH
	DB	00H
	DB	078H
	DB	00H
	DB	0b4H
	DB	00H
	DB	0b4H
	DB	00H
	DB	0b4H
	DB	00H
	DB	00H
	DB	040H
	DB	03H
	DB	044H
	DB	012H
	DB	0adH
	DB	07aH
	DB	0e0H
	DB	07H
	DB	0f9H
	DB	01eH
	DB	0caH
	DB	028H
	DB	0d0H
	DB	00H
	DB	050H
	DB	00H
	DB	00H
	DB	02cH
	DB	00H
	DB	00H
	DB	0bH
	DB	00H
	DB	0d0H
	DB	01H
	DB	00H
	DB	074H
	DB	00H
	DB	0aaH
	DB	0afH
	DB	0daH
	DB	0ffH
	DB	0ffH
	DB	03H
	DB	0b0H
	DB	00H
	DB	00H
	DB	02dH
	DB	00H
	DB	040H
	DB	07H
	DB	00H
	DB	0e0H
	DB	01H
	DB	00H
	DB	080H
	DB	081H
	DB	07H
	DB	0bH
	DB	0dH
	DB	02cH
	DB	034H
	DB	00H
	DB	0a9H
	DB	0aaH
	DB	0f9H
	DB	0ffH
	DB	07H
	DB	084H
	DB	0e7H
	DB	01H
	DB	00H
	DB	00H
	DB	074H
	DB	00H
	DB	00H
	DB	038H
	DB	00H
	DB	00H
	DB	02dH
	DB	00H
	DB	00H
	DB	0eH
	DB	00H
	DB	00H
	DB	0bH
	DB	00H
	DB	080H
	DB	07H
	DB	00H
	DB	0c0H
	DB	03H
	DB	00H
	DB	0d0H
	DB	01H
	DB	00H
	DB	0e0H
	DB	00H
	DB	00H
	DB	0b4H
	DB	00H
	DB	00H
	DB	038H
	DB	00H
	DB	00H
	DB	02cH
	DB	00H
	DB	00H
	DB	01eH
	DB	00H
	DB	00H
	DB	0fH
	DB	00H
	DB	040H
	DB	07H
	DB	00H
	DB	080H
	DB	03H
	DB	00H
	DB	0d0H
	DB	02H
	DB	00H
	DB	0e0H
	DB	00H
	DB	00H
	DB	0b0H
	DB	00H
	DB	00H
	DB	074H
	DB	00H
	DB	00H
	DB	03cH
	DB	00H
	DB	00H
	DB	01dH
	DB	00H
	DB	00H
	DB	00H
	DB	0feH
	DB	06H
	DB	0f0H
	DB	0eaH
	DB	03H
	DB	01eH
	DB	0e0H
	DB	0d2H
	DB	02H
	DB	0b0H
	DB	038H
	DB	00H
	DB	02cH
	DB	0bH
	DB	00H
	DB	0dbH
	DB	01H
	DB	0c0H
	DB	076H
	DB	00H
	DB	0b4H
	DB	0eH
	DB	00H
	DB	09dH
	DB	03H
	DB	080H
	DB	0e3H
	DB	00H
	DB	0b0H
	DB	078H
	DB	00H
	DB	01dH
	DB	02dH
	DB	0d0H
	DB	02H
	DB	0bfH
	DB	03eH
	DB	040H
	DB	0feH
	DB	02H
	DB	00H
	DB	0fcH
	DB	0a3H
	DB	0bH
	DB	02dH
	DB	074H
	DB	0e0H
	DB	081H
	DB	03H
	DB	0fH
	DB	02dH
	DB	074H
	DB	0e0H
	DB	081H
	DB	03H
	DB	0fH
	DB	02cH
	DB	0b4H
	DB	00H
	DB	00H
	DB	0f9H
	DB	06H
	DB	0d0H
	DB	0ebH
	DB	0bH
	DB	02dH
	DB	0c0H
	DB	083H
	DB	03H
	DB	0e0H
	DB	0b0H
	DB	00H
	DB	03cH
	DB	00H
	DB	00H
	DB	0bH
	DB	00H
	DB	0e0H
	DB	01H
	DB	00H
	DB	02dH
	DB	00H
	DB	0d0H
	DB	02H
	DB	00H
	DB	02dH
	DB	00H
	DB	0e0H
	DB	02H
	DB	00H
	DB	02eH
	DB	00H
	DB	0f4H
	DB	01H
	DB	040H
	DB	0afH
	DB	0aaH
	DB	0f1H
	DB	0ffH
	DB	0bfH
	DB	00H
	DB	00H
	DB	0f9H
	DB	0bH
	DB	040H
	DB	0afH
	DB	02fH
	DB	0d0H
	DB	02H
	DB	078H
	DB	0e0H
	DB	00H
	DB	078H
	DB	00H
	DB	00H
	DB	038H
	DB	00H
	DB	00H
	DB	01dH
	DB	00H
	DB	0e8H
	DB	07H
	DB	00H
	DB	0fdH
	DB	02H
	DB	00H
	DB	040H
	DB	0bH
	DB	00H
	DB	00H
	DB	01eH
	DB	04H
	DB	00H
	DB	01dH
	DB	02dH
	DB	00H
	DB	0eH
	DB	03cH
	DB	040H
	DB	0bH
	DB	0f8H
	DB	0eaH
	DB	03H
	DB	090H
	DB	06fH
	DB	00H
	DB	00H
	DB	00H
	DB	07dH
	DB	00H
	DB	00H
	DB	07fH
	DB	00H
	DB	0c0H
	DB	03bH
	DB	00H
	DB	0e0H
	DB	038H
	DB	00H
	DB	078H
	DB	02cH
	DB	00H
	DB	01eH
	DB	02dH
	DB	080H
	DB	07H
	DB	01dH
	DB	0d0H
	DB	01H
	DB	01eH
	DB	0b4H
	DB	00H
	DB	0eH
	DB	0bdH
	DB	0aaH
	DB	06fH
	DB	0feH
	DB	0ffH
	DB	0bfH
	DB	00H
	DB	040H
	DB	07H
	DB	00H
	DB	080H
	DB	07H
	DB	00H
	DB	080H
	DB	03H
	DB	0e0H
	DB	0ffH
	DB	03fH
	DB	0bcH
	DB	0aaH
	DB	06H
	DB	0bH
	DB	00H
	DB	0d0H
	DB	01H
	DB	00H
	DB	074H
	DB	00H
	DB	00H
	DB	0eH
	DB	019H
	DB	080H
	DB	0fbH
	DB	07fH
	DB	0f0H
	DB	06H
	DB	03dH
	DB	028H
	DB	00H
	DB	01eH
	DB	00H
	DB	040H
	DB	07H
	DB	00H
	DB	0e0H
	DB	038H
	DB	00H
	DB	02cH
	DB	01eH
	DB	080H
	DB	047H
	DB	0afH
	DB	07eH
	DB	040H
	DB	0feH
	DB	06H
	DB	00H
	DB	00H
	DB	0f9H
	DB	06H
	DB	0e0H
	DB	0eaH
	DB	07H
	DB	01dH
	DB	0d0H
	DB	0c2H
	DB	02H
	DB	0a0H
	DB	034H
	DB	00H
	DB	00H
	DB	0aH
	DB	015H
	DB	0c0H
	DB	0faH
	DB	07fH
	DB	0f4H
	DB	06H
	DB	03dH
	DB	02dH
	DB	00H
	DB	05eH
	DB	07H
	DB	040H
	DB	0e7H
	DB	00H
	DB	0e0H
	DB	035H
	DB	00H
	DB	03cH
	DB	02dH
	DB	080H
	DB	07H
	DB	0aeH
	DB	0beH
	DB	00H
	DB	0feH
	DB	06H
	DB	00H
	DB	0ffH
	DB	0ffH
	DB	0abH
	DB	0aaH
	DB	07aH
	DB	00H
	DB	0c0H
	DB	02H
	DB	00H
	DB	01eH
	DB	00H
	DB	0b4H
	DB	00H
	DB	080H
	DB	03H
	DB	00H
	DB	01dH
	DB	00H
	DB	0f0H
	DB	00H
	DB	080H
	DB	07H
	DB	00H
	DB	02cH
	DB	00H
	DB	0e0H
	DB	01H
	DB	040H
	DB	0bH
	DB	00H
	DB	03cH
	DB	00H
	DB	0e0H
	DB	01H
	DB	00H
	DB	0fH
	DB	00H
	DB	00H
	DB	00H
	DB	0f8H
	DB	01bH
	DB	040H
	DB	0afH
	DB	07eH
	DB	0c0H
	DB	07H
	DB	0f4H
	DB	0d0H
	DB	01H
	DB	0e0H
	DB	0e0H
	DB	01H
	DB	0f0H
	DB	0d0H
	DB	01H
	DB	074H
	DB	0c0H
	DB	047H
	DB	02eH
	DB	040H
	DB	0ffH
	DB	0bH
	DB	0e0H
	DB	056H
	DB	02eH
	DB	078H
	DB	00H
	DB	038H
	DB	02cH
	DB	00H
	DB	078H
	DB	02dH
	DB	00H
	DB	03cH
	DB	03cH
	DB	00H
	DB	01eH
	DB	0f8H
	DB	0eaH
	DB	0bH
	DB	090H
	DB	0bfH
	DB	01H
	DB	00H
	DB	0feH
	DB	06H
	DB	0f0H
	DB	0eaH
	DB	07H
	DB	01eH
	DB	0d0H
	DB	0d2H
	DB	01H
	DB	0b0H
	DB	038H
	DB	00H
	DB	038H
	DB	0fH
	DB	00H
	DB	0cbH
	DB	03H
	DB	0d0H
	DB	0e2H
	DB	01H
	DB	0bdH
	DB	0f4H
	DB	0eaH
	DB	01eH
	DB	0e4H
	DB	05bH
	DB	03H
	DB	00H
	DB	0a0H
	DB	064H
	DB	00H
	DB	01cH
	DB	02dH
	DB	080H
	DB	03H
	DB	0afH
	DB	07eH
	DB	00H
	DB	0feH
	DB	02H
	DB	00H
	DB	0deH
	DB	057H
	DB	00H
	DB	00H
	DB	00H
	DB	00H
	DB	084H
	DB	0e7H
	DB	01H
	DB	040H
	DB	07H
	DB	078H
	DB	040H
	DB	01H
	DB	00H
	DB	00H
	DB	00H
	DB	00H
	DB	00H
	DB	00H
	DB	00H
	DB	0a0H
	DB	040H
	DB	0bH
	DB	038H
	DB	0d0H
	DB	01H
	DB	0aH
	DB	010H
	DB	00H
	DB	00H
	DB	07dH
	DB	040H
	DB	0bH
	DB	0e0H
	DB	02H
	DB	078H
	DB	00H
	DB	01eH
	DB	00H
	DB	07dH
	DB	00H
	DB	0f4H
	DB	00H
	DB	0d0H
	DB	03H
	DB	040H
	DB	0bH
	DB	0fdH
	DB	0ffH
	DB	07fH
	DB	0aaH
	DB	0aaH
	DB	0aH
	DB	00H
	DB	00H
	DB	00H
	DB	00H
	DB	00H
	DB	0aaH
	DB	0aaH
	DB	0daH
	DB	0ffH
	DB	0ffH
	DB	07H
	DB	0b8H
	DB	00H
	DB	0b8H
	DB	00H
	DB	0b8H
	DB	00H
	DB	078H
	DB	00H
	DB	03dH
	DB	0d0H
	DB	03H
	DB	02eH
	DB	0e0H
	DB	02H
	DB	01fH
	DB	00H
	DB	080H
	DB	0bfH
	DB	040H
	DB	0afH
	DB	02eH
	DB	03cH
	DB	080H
	DB	0d7H
	DB	01H
	DB	074H
	DB	00H
	DB	080H
	DB	07H
	DB	00H
	DB	02cH
	DB	00H
	DB	0f5H
	DB	01H
	DB	0ffH
	DB	02H
	DB	0b0H
	DB	00H
	DB	040H
	DB	07H
	DB	00H
	DB	00H
	DB	00H
	DB	040H
	DB	01H
	DB	00H
	DB	07cH
	DB	00H
	DB	0c0H
	DB	02H
	DB	00H
	DB	00H
	DB	090H
	DB	0feH
	DB	06H
	DB	00H
	DB	080H
	DB	05bH
	DB	0e5H
	DB	07H
	DB	040H
	DB	0bH
	DB	00H
	DB	0e0H
	DB	01H
	DB	02dH
	DB	00H
	DB	00H
	DB	038H
	DB	0b0H
	DB	080H
	DB	07fH
	DB	0bH
	DB	087H
	DB	03H
	DB	05fH
	DB	07eH
	DB	0b0H
	DB	02cH
	DB	038H
	DB	080H
	DB	07H
	DB	0daH
	DB	0d1H
	DB	01H
	DB	038H
	DB	0a0H
	DB	0dH
	DB	01dH
	DB	080H
	DB	03H
	DB	0ebH
	DB	0e0H
	DB	00H
	DB	02cH
	DB	074H
	DB	0eH
	DB	01dH
	DB	0d0H
	DB	082H
	DB	0e3H
	DB	0c0H
	DB	097H
	DB	07aH
	DB	01eH
	DB	01dH
	DB	0e4H
	DB	04bH
	DB	06eH
	DB	0c0H
	DB	02H
	DB	00H
	DB	00H
	DB	00H
	DB	0b4H
	DB	00H
	DB	00H
	DB	00H
	DB	00H
	DB	06dH
	DB	040H
	DB	06H
	DB	00H
	DB	040H
	DB	0feH
	DB	06fH
	DB	00H
	DB	00H
	DB	00H
	DB	04H
	DB	00H
	DB	00H
	DB	00H
	DB	0c0H
	DB	07H
	DB	00H
	DB	0e0H
	DB	07H
	DB	00H
	DB	0f4H
	DB	0bH
	DB	00H
	DB	078H
	DB	0fH
	DB	00H
	DB	02dH
	DB	0fH
	DB	00H
	DB	01eH
	DB	01eH
	DB	040H
	DB	0bH
	DB	01eH
	DB	0c0H
	DB	07H
	DB	02dH
	DB	0d0H
	DB	02H
	DB	02dH
	DB	0f0H
	DB	01H
	DB	03cH
	DB	0f4H
	DB	0ffH
	DB	03fH
	DB	07cH
	DB	055H
	DB	079H
	DB	01eH
	DB	00H
	DB	0b4H
	DB	0fH
	DB	00H
	DB	0b4H
	DB	0c0H
	DB	0ffH
	DB	01bH
	DB	0d0H
	DB	056H
	DB	07eH
	DB	0d0H
	DB	01H
	DB	0b4H
	DB	0e0H
	DB	01H
	DB	0b0H
	DB	0e0H
	DB	00H
	DB	074H
	DB	0f0H
	DB	040H
	DB	02eH
	DB	0f0H
	DB	0ffH
	DB	07H
	DB	0b4H
	DB	055H
	DB	01fH
	DB	078H
	DB	00H
	DB	02cH
	DB	038H
	DB	00H
	DB	03cH
	DB	03cH
	DB	00H
	DB	02cH
	DB	02cH
	DB	00H
	DB	01eH
	DB	06dH
	DB	0a5H
	DB	0bH
	DB	0fdH
	DB	0bfH
	DB	01H
	DB	00H
	DB	0e4H
	DB	06fH
	DB	00H
	DB	0f4H
	DB	0ebH
	DB	02fH
	DB	0e0H
	DB	06H
	DB	0d0H
	DB	047H
	DB	0bH
	DB	00H
	DB	0b4H
	DB	03cH
	DB	00H
	DB	00H
	DB	0d0H
	DB	01H
	DB	00H
	DB	00H
	DB	0eH
	DB	00H
	DB	00H
	DB	0f0H
	DB	00H
	DB	00H
	DB	00H
	DB	0fH
	DB	00H
	DB	00H
	DB	0f0H
	DB	00H
	DB	00H
	DB	00H
	DB	01eH
	DB	00H
	DB	0e0H
	DB	0d2H
	DB	07H
	DB	080H
	DB	0bH
	DB	0f4H
	DB	0abH
	DB	02fH
	DB	00H
	DB	0f8H
	DB	02bH
	DB	00H
	DB	0c0H
	DB	0ffH
	DB	01bH
	DB	00H
	DB	06dH
	DB	0e5H
	DB	0fH
	DB	0d0H
	DB	01H
	DB	0e0H
	DB	02H
	DB	01eH
	DB	00H
	DB	078H
	DB	0e0H
	DB	00H
	DB	040H
	DB	0bH
	DB	0fH
	DB	00H
	DB	0b4H
	DB	0b0H
	DB	00H
	DB	040H
	DB	04bH
	DB	07H
	DB	00H
	DB	074H
	DB	078H
	DB	00H
	DB	080H
	DB	083H
	DB	03H
	DB	00H
	DB	02dH
	DB	03cH
	DB	00H
	DB	0f0H
	DB	0c0H
	DB	02H
	DB	0d0H
	DB	07H
	DB	06dH
	DB	0a5H
	DB	01bH
	DB	0d0H
	DB	0ffH
	DB	01bH
	DB	00H
	DB	0c0H
	DB	0ffH
	DB	01fH
	DB	0b4H
	DB	055H
	DB	01H
	DB	01dH
	DB	00H
	DB	080H
	DB	07H
	DB	00H
	DB	0e0H
	DB	00H
	DB	00H
	DB	02cH
	DB	00H
	DB	00H
	DB	0ffH
	DB	02fH
	DB	0d0H
	DB	056H
	DB	01H
	DB	078H
	DB	00H
	DB	00H
	DB	0eH
	DB	00H
	DB	0c0H
	DB	03H
	DB	00H
	DB	0b0H
	DB	00H
	DB	00H
	DB	06dH
	DB	055H
	DB	040H
	DB	0ffH
	DB	03fH
	DB	00H
	DB	0c0H
	DB	0ffH
	DB	02fH
	DB	0b4H
	DB	055H
	DB	05H
	DB	01dH
	DB	00H
	DB	080H
	DB	07H
	DB	00H
	DB	0e0H
	DB	00H
	DB	00H
	DB	02cH
	DB	00H
	DB	00H
	DB	0ffH
	DB	02fH
	DB	0d0H
	DB	056H
	DB	01H
	DB	078H
	DB	00H
	DB	00H
	DB	0eH
	DB	00H
	DB	0c0H
	DB	03H
	DB	00H
	DB	0b0H
	DB	00H
	DB	00H
	DB	02dH
	DB	00H
	DB	040H
	DB	07H
	DB	00H
	DB	00H
	DB	00H
	DB	0e4H
	DB	06fH
	DB	00H
	DB	0f4H
	DB	0ebH
	DB	01fH
	DB	0e0H
	DB	06H
	DB	0d0H
	DB	047H
	DB	0bH
	DB	00H
	DB	0b8H
	DB	03cH
	DB	00H
	DB	00H
	DB	0d5H
	DB	01H
	DB	00H
	DB	00H
	DB	0eH
	DB	00H
	DB	00H
	DB	0f0H
	DB	00H
	DB	0feH
	DB	0ffH
	DB	0fH
	DB	050H
	DB	095H
	DB	0fbH
	DB	00H
	DB	00H
	DB	078H
	DB	01eH
	DB	00H
	DB	0e0H
	DB	0d2H
	DB	07H
	DB	080H
	DB	0bH
	DB	0f4H
	DB	0abH
	DB	02fH
	DB	00H
	DB	0f8H
	DB	02bH
	DB	00H
	DB	0c0H
	DB	02H
	DB	040H
	DB	0bH
	DB	02dH
	DB	00H
	DB	074H
	DB	0d0H
	DB	01H
	DB	080H
	DB	07H
	DB	0eH
	DB	00H
	DB	038H
	DB	0e0H
	DB	00H
	DB	0c0H
	DB	03H
	DB	0bH
	DB	00H
	DB	02dH
	DB	0f0H
	DB	0ffH
	DB	0ffH
	DB	042H
	DB	05bH
	DB	055H
	DB	01eH
	DB	078H
	DB	00H
	DB	0e0H
	DB	081H
	DB	03H
	DB	00H
	DB	0eH
	DB	03cH
	DB	00H
	DB	0f0H
	DB	0c0H
	DB	02H
	DB	00H
	DB	0bH
	DB	02dH
	DB	00H
	DB	0b4H
	DB	0d0H
	DB	01H
	DB	040H
	DB	07H
	DB	0c0H
	DB	042H
	DB	0bH
	DB	01dH
	DB	078H
	DB	0e0H
	DB	0c0H
	DB	03H
	DB	0bH
	DB	01dH
	DB	078H
	DB	0e0H
	DB	0c0H
	DB	03H
	DB	0bH
	DB	02dH
	DB	074H
	DB	00H
	DB	00H
	DB	00H
	DB	0fH
	DB	00H
	DB	0b0H
	DB	00H
	DB	040H
	DB	0bH
	DB	00H
	DB	074H
	DB	00H
	DB	080H
	DB	07H
	DB	00H
	DB	038H
	DB	00H
	DB	0c0H
	DB	03H
	DB	00H
	DB	02cH
	DB	00H
	DB	0d0H
	DB	01H
	DB	00H
	DB	01eH
	DB	01dH
	DB	0e0H
	DB	0e0H
	DB	041H
	DB	0bH
	DB	0bdH
	DB	03eH
	DB	040H
	DB	0beH
	DB	00H
	DB	0c0H
	DB	02H
	DB	0f0H
	DB	041H
	DB	0bH
	DB	0f0H
	DB	01H
	DB	01dH
	DB	0f4H
	DB	01H
	DB	078H
	DB	0f4H
	DB	01H
	DB	0e0H
	DB	0f4H
	DB	00H
	DB	0c0H
	DB	0f7H
	DB	00H
	DB	00H
	DB	0bfH
	DB	00H
	DB	00H
	DB	0fdH
	DB	02H
	DB	00H
	DB	078H
	DB	01fH
	DB	00H
	DB	0e0H
	DB	0f4H
	DB	01H
	DB	0c0H
	DB	043H
	DB	0fH
	DB	00H
	DB	0bH
	DB	0b8H
	DB	00H
	DB	02dH
	DB	0c0H
	DB	07H
	DB	074H
	DB	00H
	DB	03dH
	DB	00H
	DB	0c0H
	DB	02H
	DB	0d0H
	DB	02H
	DB	0d0H
	DB	01H
	DB	0e0H
	DB	01H
	DB	0e0H
	DB	00H
	DB	0f0H
	DB	00H
	DB	0b0H
	DB	00H
	DB	074H
	DB	00H
	DB	078H
	DB	00H
	DB	038H
	DB	00H
	DB	03cH
	DB	00H
	DB	02cH
	DB	00H
	DB	06dH
	DB	015H
	DB	0fdH
	DB	07fH
	DB	0c0H
	DB	03H
	DB	00H
	DB	0d0H
	DB	043H
	DB	01fH
	DB	00H
	DB	080H
	DB	0bH
	DB	0bdH
	DB	00H
	DB	040H
	DB	02fH
	DB	0f8H
	DB	03H
	DB	00H
	DB	07fH
	DB	0e0H
	DB	0eH
	DB	00H
	DB	0eeH
	DB	0c1H
	DB	076H
	DB	00H
	DB	09dH
	DB	03H
	DB	0cbH
	DB	02H
	DB	028H
	DB	0fH
	DB	01dH
	DB	0eH
	DB	074H
	DB	02cH
	DB	078H
	DB	078H
	DB	0b0H
	DB	0b4H
	DB	0e0H
	DB	0d0H
	DB	0e1H
	DB	0d0H
	DB	0c1H
	DB	03H
	DB	0dbH
	DB	081H
	DB	07H
	DB	0bH
	DB	0f8H
	DB	02H
	DB	0eH
	DB	02dH
	DB	0d0H
	DB	07H
	DB	03cH
	DB	074H
	DB	040H
	DB	0bH
	DB	0b0H
	DB	00H
	DB	0c0H
	DB	03H
	DB	00H
	DB	0fH
	DB	0bdH
	DB	00H
	DB	0b0H
	DB	0d0H
	DB	0fH
	DB	040H
	DB	0bH
	DB	0eeH
	DB	02H
	DB	074H
	DB	0e0H
	DB	03cH
	DB	080H
	DB	03H
	DB	04fH
	DB	07H
	DB	038H
	DB	0b0H
	DB	0f0H
	DB	0c0H
	DB	042H
	DB	07H
	DB	01dH
	DB	02dH
	DB	078H
	DB	0c0H
	DB	0d3H
	DB	081H
	DB	03H
	DB	078H
	DB	01eH
	DB	03cH
	DB	00H
	DB	0efH
	DB	0c0H
	DB	02H
	DB	0e0H
	DB	0fH
	DB	02dH
	DB	00H
	DB	0bcH
	DB	0d0H
	DB	01H
	DB	080H
	DB	0bH
	DB	00H
	DB	0e8H
	DB	06fH
	DB	00H
	DB	0f4H
	DB	0ebH
	DB	01fH
	DB	0e0H
	DB	06H
	DB	0d0H
	DB	047H
	DB	0bH
	DB	00H
	DB	0b4H
	DB	03cH
	DB	00H
	DB	00H
	DB	0efH
	DB	01H
	DB	00H
	DB	0e0H
	DB	0eH
	DB	00H
	DB	00H
	DB	0ffH
	DB	00H
	DB	00H
	DB	0f0H
	DB	0fH
	DB	00H
	DB	040H
	DB	0ebH
	DB	00H
	DB	00H
	DB	078H
	DB	02eH
	DB	00H
	DB	0e0H
	DB	0c2H
	DB	07H
	DB	080H
	DB	0bH
	DB	0f4H
	DB	0abH
	DB	02fH
	DB	00H
	DB	0f8H
	DB	06fH
	DB	00H
	DB	0c0H
	DB	0ffH
	DB	01bH
	DB	0d0H
	DB	056H
	DB	03eH
	DB	0d0H
	DB	01H
	DB	0b4H
	DB	0e0H
	DB	01H
	DB	0b4H
	DB	0e0H
	DB	00H
	DB	074H
	DB	0f0H
	DB	00H
	DB	038H
	DB	0b0H
	DB	040H
	DB	01eH
	DB	0f4H
	DB	0ffH
	DB	07H
	DB	0b8H
	DB	015H
	DB	00H
	DB	038H
	DB	00H
	DB	00H
	DB	03cH
	DB	00H
	DB	00H
	DB	02cH
	DB	00H
	DB	00H
	DB	02dH
	DB	00H
	DB	00H
	DB	01dH
	DB	00H
	DB	00H
	DB	00H
	DB	0e8H
	DB	06fH
	DB	00H
	DB	0f4H
	DB	0ebH
	DB	01fH
	DB	0e0H
	DB	06H
	DB	0d0H
	DB	047H
	DB	0bH
	DB	00H
	DB	0b4H
	DB	03cH
	DB	00H
	DB	00H
	DB	0efH
	DB	01H
	DB	00H
	DB	0e0H
	DB	0eH
	DB	00H
	DB	00H
	DB	0ffH
	DB	00H
	DB	00H
	DB	0f0H
	DB	0fH
	DB	00H
	DB	040H
	DB	0ebH
	DB	00H
	DB	00H
	DB	078H
	DB	02eH
	DB	00H
	DB	0e0H
	DB	0c2H
	DB	07H
	DB	080H
	DB	0bH
	DB	0f4H
	DB	0abH
	DB	02fH
	DB	00H
	DB	0f8H
	DB	0fbH
	DB	00H
	DB	00H
	DB	00H
	DB	03dH
	DB	00H
	DB	00H
	DB	080H
	DB	0bH
	DB	00H
	DB	00H
	DB	090H
	DB	01H
	DB	0c0H
	DB	0ffH
	DB	01bH
	DB	0d0H
	DB	056H
	DB	03eH
	DB	0d0H
	DB	01H
	DB	0b4H
	DB	0e0H
	DB	01H
	DB	0b4H
	DB	0e0H
	DB	00H
	DB	074H
	DB	0f0H
	DB	00H
	DB	03cH
	DB	0b0H
	DB	040H
	DB	01eH
	DB	0f4H
	DB	0ffH
	DB	07H
	DB	0b8H
	DB	0b9H
	DB	00H
	DB	038H
	DB	0f0H
	DB	00H
	DB	03cH
	DB	0e0H
	DB	02H
	DB	02cH
	DB	0c0H
	DB	03H
	DB	02dH
	DB	080H
	DB	07H
	DB	01dH
	DB	040H
	DB	0bH
	DB	080H
	DB	0bfH
	DB	041H
	DB	0afH
	DB	07eH
	DB	03cH
	DB	040H
	DB	0cbH
	DB	02H
	DB	060H
	DB	03cH
	DB	00H
	DB	080H
	DB	01bH
	DB	00H
	DB	0e0H
	DB	01bH
	DB	00H
	DB	0e4H
	DB	0bH
	DB	00H
	DB	0e0H
	DB	02H
	DB	00H
	DB	03cH
	DB	0aH
	DB	080H
	DB	0f3H
	DB	00H
	DB	03dH
	DB	0bdH
	DB	0faH
	DB	041H
	DB	0feH
	DB	02H
	DB	0ffH
	DB	0ffH
	DB	057H
	DB	0b9H
	DB	015H
	DB	080H
	DB	07H
	DB	00H
	DB	038H
	DB	00H
	DB	0c0H
	DB	03H
	DB	00H
	DB	02cH
	DB	00H
	DB	0d0H
	DB	02H
	DB	00H
	DB	01dH
	DB	00H
	DB	0e0H
	DB	01H
	DB	00H
	DB	0eH
	DB	00H
	DB	0f0H
	DB	00H
	DB	00H
	DB	0bH
	DB	00H
	DB	0b4H
	DB	00H
	DB	040H
	DB	07H
	DB	00H
	DB	0b0H
	DB	00H
	DB	0d0H
	DB	0d1H
	DB	02H
	DB	080H
	DB	047H
	DB	07H
	DB	00H
	DB	0eH
	DB	0eH
	DB	00H
	DB	03cH
	DB	03cH
	DB	00H
	DB	0b0H
	DB	0b0H
	DB	00H
	DB	0d0H
	DB	0d1H
	DB	02H
	DB	080H
	DB	047H
	DB	07H
	DB	00H
	DB	0eH
	DB	01eH
	DB	00H
	DB	03cH
	DB	038H
	DB	00H
	DB	0b4H
	DB	0e0H
	DB	01H
	DB	0e0H
	DB	041H
	DB	0bH
	DB	0d0H
	DB	02H
	DB	0fcH
	DB	0faH
	DB	02H
	DB	080H
	DB	0bfH
	DB	01H
	DB	00H
	DB	0fH
	DB	00H
	DB	0e0H
	DB	039H
	DB	00H
	DB	0d0H
	DB	0e2H
	DB	01H
	DB	080H
	DB	043H
	DB	07H
	DB	040H
	DB	0bH
	DB	02dH
	DB	00H
	DB	0fH
	DB	0f0H
	DB	00H
	DB	01dH
	DB	080H
	DB	03H
	DB	03cH
	DB	00H
	DB	01eH
	DB	074H
	DB	00H
	DB	074H
	DB	0b0H
	DB	00H
	DB	0d0H
	DB	0e2H
	DB	01H
	DB	00H
	DB	0cbH
	DB	02H
	DB	00H
	DB	0b8H
	DB	07H
	DB	00H
	DB	0e0H
	DB	0bH
	DB	00H
	DB	040H
	DB	0fH
	DB	00H
	DB	00H
	DB	0fH
	DB	00H
	DB	01fH
	DB	00H
	DB	0deH
	DB	03H
	DB	0d0H
	DB	07H
	DB	0c0H
	DB	0f2H
	DB	00H
	DB	0fcH
	DB	02H
	DB	078H
	DB	038H
	DB	040H
	DB	0bbH
	DB	00H
	DB	0fH
	DB	01eH
	DB	0e0H
	DB	02cH
	DB	0d0H
	DB	081H
	DB	07H
	DB	01dH
	DB	0bH
	DB	03cH
	DB	0d0H
	DB	081H
	DB	0c3H
	DB	043H
	DB	07H
	DB	074H
	DB	074H
	DB	0e0H
	DB	0e0H
	DB	00H
	DB	02dH
	DB	0eH
	DB	038H
	DB	02cH
	DB	00H
	DB	0cbH
	DB	02H
	DB	09eH
	DB	03H
	DB	0c0H
	DB	03aH
	DB	040H
	DB	0b7H
	DB	00H
	DB	0f0H
	DB	0bH
	DB	0d0H
	DB	0eH
	DB	00H
	DB	0f8H
	DB	00H
	DB	0f4H
	DB	02H
	DB	00H
	DB	02eH
	DB	00H
	DB	07cH
	DB	00H
	DB	00H
	DB	0d0H
	DB	02H
	DB	0d0H
	DB	02H
	DB	0fH
	DB	0d0H
	DB	02H
	DB	078H
	DB	0c0H
	DB	03H
	DB	0c0H
	DB	083H
	DB	07H
	DB	00H
	DB	05eH
	DB	07H
	DB	00H
	DB	0f4H
	DB	0bH
	DB	00H
	DB	080H
	DB	0bH
	DB	00H
	DB	00H
	DB	02fH
	DB	00H
	DB	00H
	DB	0feH
	DB	00H
	DB	00H
	DB	09eH
	DB	0bH
	DB	00H
	DB	02dH
	DB	03cH
	DB	00H
	DB	02dH
	DB	0e0H
	DB	01H
	DB	03cH
	DB	040H
	DB	0fH
	DB	078H
	DB	00H
	DB	078H
	DB	00H
	DB	0fH
	DB	00H
	DB	09eH
	DB	07H
	DB	0d0H
	DB	0d2H
	DB	02H
	DB	03cH
	DB	0f0H
	DB	080H
	DB	07H
	DB	078H
	DB	0b4H
	DB	00H
	DB	02dH
	DB	0fH
	DB	00H
	DB	0efH
	DB	01H
	DB	080H
	DB	02fH
	DB	00H
	DB	0d0H
	DB	03H
	DB	00H
	DB	0b4H
	DB	00H
	DB	00H
	DB	01dH
	DB	00H
	DB	080H
	DB	07H
	DB	00H
	DB	0e0H
	DB	00H
	DB	00H
	DB	02cH
	DB	00H
	DB	00H
	DB	0e0H
	DB	0ffH
	DB	07fH
	DB	090H
	DB	0aaH
	DB	03eH
	DB	00H
	DB	00H
	DB	01fH
	DB	00H
	DB	080H
	DB	07H
	DB	00H
	DB	0d0H
	DB	02H
	DB	00H
	DB	0b4H
	DB	00H
	DB	00H
	DB	03cH
	DB	00H
	DB	00H
	DB	01eH
	DB	00H
	DB	080H
	DB	07H
	DB	00H
	DB	0d0H
	DB	02H
	DB	00H
	DB	0b4H
	DB	00H
	DB	00H
	DB	03cH
	DB	00H
	DB	00H
	DB	0aeH
	DB	0aaH
	DB	02H
	DB	0ffH
	DB	0ffH
	DB	03H
	DB	00H
	DB	07fH
	DB	040H
	DB	06bH
	DB	080H
	DB	07H
	DB	080H
	DB	03H
	DB	0c0H
	DB	03H
	DB	0c0H
	DB	02H
	DB	0d0H
	DB	02H
	DB	0d0H
	DB	01H
	DB	0e0H
	DB	00H
	DB	0e0H
	DB	00H
	DB	0b0H
	DB	00H
	DB	0b0H
	DB	00H
	DB	074H
	DB	00H
	DB	074H
	DB	00H
	DB	038H
	DB	00H
	DB	03cH
	DB	00H
	DB	02cH
	DB	00H
	DB	02dH
	DB	00H
	DB	01dH
	DB	00H
	DB	01eH
	DB	00H
	DB	06eH
	DB	00H
	DB	0bfH
	DB	00H
	DB	01dH
	DB	01dH
	DB	02dH
	DB	02cH
	DB	02cH
	DB	02cH
	DB	03cH
	DB	03cH
	DB	038H
	DB	038H
	DB	078H
	DB	078H
	DB	074H
	DB	074H
	DB	074H
	DB	0b4H
	DB	0b0H
	DB	0b0H
	DB	0b0H
	DB	0f0H
	DB	0e0H
	DB	0e0H
	DB	00H
	DB	0feH
	DB	00H
	DB	0f5H
	DB	00H
	DB	0b0H
	DB	00H
	DB	074H
	DB	00H
	DB	074H
	DB	00H
	DB	038H
	DB	00H
	DB	038H
	DB	00H
	DB	02cH
	DB	00H
	DB	02cH
	DB	00H
	DB	01dH
	DB	00H
	DB	01dH
	DB	00H
	DB	0eH
	DB	00H
	DB	0fH
	DB	00H
	DB	0bH
	DB	040H
	DB	0bH
	DB	040H
	DB	07H
	DB	080H
	DB	03H
	DB	080H
	DB	03H
	DB	0c0H
	DB	02H
	DB	0c0H
	DB	02H
	DB	0e8H
	DB	01H
	DB	0fdH
	DB	01H
	DB	00H
	DB	080H
	DB	01H
	DB	00H
	DB	0e0H
	DB	03H
	DB	00H
	DB	0f4H
	DB	03H
	DB	00H
	DB	07cH
	DB	07H
	DB	00H
	DB	05eH
	DB	0bH
	DB	040H
	DB	0bH
	DB	0fH
	DB	0c0H
	DB	03H
	DB	01eH
	DB	0e0H
	DB	01H
	DB	01dH
	DB	0b0H
	DB	00H
	DB	02cH
	DB	038H
	DB	00H
	DB	03cH
	DB	02dH
	DB	00H
	DB	078H
	DB	0a8H
	DB	0aaH
	DB	06aH
	DB	0fdH
	DB	0ffH
	DB	07fH
	DB	0bH
	DB	07eH
	DB	0a0H
	DB	00H
	DB	0f9H
	DB	0c6H
	DB	02H
	DB	0beH
	DB	07eH
	DB	0bH
	DB	01eH
	DB	080H
	DB	01fH
	DB	02eH
	DB	00H
	DB	07cH
	DB	03cH
	DB	00H
	DB	0f0H
	DB	0b4H
	DB	00H
	DB	0c0H
	DB	0d3H
	DB	02H
	DB	040H
	DB	04bH
	DB	0bH
	DB	00H
	DB	02eH
	DB	07cH
	DB	00H
	DB	07eH
	DB	0d0H
	DB	09bH
	DB	0efH
	DB	01H
	DB	0f9H
	DB	086H
	DB	03H
	DB	0c0H
	DB	03H
	DB	00H
	DB	00H
	DB	0bH
	DB	00H
	DB	00H
	DB	02dH
	DB	00H
	DB	00H
	DB	074H
	DB	00H
	DB	00H
	DB	0e0H
	DB	0e5H
	DB	02fH
	DB	080H
	DB	0b7H
	DB	0faH
	DB	02H
	DB	07fH
	DB	00H
	DB	01fH
	DB	07dH
	DB	00H
	DB	0b4H
	DB	0b4H
	DB	00H
	DB	0d0H
	DB	0e2H
	DB	01H
	DB	040H
	DB	08bH
	DB	07H
	DB	00H
	DB	01eH
	DB	01fH
	DB	00H
	DB	03cH
	DB	0fcH
	DB	01H
	DB	07dH
	DB	0b4H
	DB	0afH
	DB	07eH
	DB	0d0H
	DB	0e1H
	DB	02fH
	DB	00H
	DB	00H
	DB	0f9H
	DB	06H
	DB	080H
	DB	0abH
	DB	02fH
	DB	0e0H
	DB	01H
	DB	07cH
	DB	078H
	DB	00H
	DB	064H
	DB	03cH
	DB	00H
	DB	00H
	DB	02dH
	DB	00H
	DB	00H
	DB	02dH
	DB	00H
	DB	00H
	DB	02dH
	DB	00H
	DB	019H
	DB	07cH
	DB	00H
	DB	01fH
	DB	0f4H
	DB	0eaH
	DB	07H
	DB	090H
	DB	0afH
	DB	00H
	DB	00H
	DB	00H
	DB	040H
	DB	07H
	DB	00H
	DB	00H
	DB	078H
	DB	00H
	DB	00H
	DB	080H
	DB	03H
	DB	00H
	DB	00H
	DB	03cH
	DB	00H
	DB	0f9H
	DB	0c6H
	DB	02H
	DB	0f8H
	DB	0faH
	DB	02dH
	DB	0e0H
	DB	01H
	DB	0f8H
	DB	081H
	DB	0bH
	DB	00H
	DB	01fH
	DB	03cH
	DB	00H
	DB	0f0H
	DB	0d0H
	DB	02H
	DB	00H
	DB	0fH
	DB	02dH
	DB	00H
	DB	0b4H
	DB	0d0H
	DB	02H
	DB	080H
	DB	0bH
	DB	07cH
	DB	00H
	DB	07eH
	DB	040H
	DB	06fH
	DB	0beH
	DB	07H
	DB	090H
	DB	06fH
	DB	038H
	DB	00H
	DB	00H
	DB	0f9H
	DB	07H
	DB	080H
	DB	0abH
	DB	02fH
	DB	0e0H
	DB	01H
	DB	078H
	DB	078H
	DB	00H
	DB	0b4H
	DB	03cH
	DB	00H
	DB	0b4H
	DB	0fdH
	DB	0ffH
	DB	07fH
	DB	06dH
	DB	055H
	DB	015H
	DB	02dH
	DB	00H
	DB	014H
	DB	07cH
	DB	00H
	DB	01eH
	DB	0f4H
	DB	0eaH
	DB	07H
	DB	090H
	DB	0bfH
	DB	00H
	DB	040H
	DB	01eH
	DB	0f4H
	DB	06H
	DB	0eH
	DB	0c0H
	DB	02H
	DB	0feH
	DB	04bH
	DB	06eH
	DB	081H
	DB	07H
	DB	0f0H
	DB	00H
	DB	02cH
	DB	040H
	DB	0bH
	DB	0d0H
	DB	01H
	DB	078H
	DB	00H
	DB	0eH
	DB	0c0H
	DB	03H
	DB	0b0H
	DB	00H
	DB	00H
	DB	00H
	DB	0f9H
	DB	0c6H
	DB	02H
	DB	06eH
	DB	0b9H
	DB	0bH
	DB	01eH
	DB	080H
	DB	01fH
	DB	01eH
	DB	00H
	DB	07cH
	DB	03cH
	DB	00H
	DB	0f0H
	DB	0b4H
	DB	00H
	DB	0c0H
	DB	0d3H
	DB	02H
	DB	040H
	DB	04bH
	DB	0bH
	DB	00H
	DB	02eH
	DB	07cH
	DB	00H
	DB	07eH
	DB	0d0H
	DB	0abH
	DB	0ebH
	DB	01H
	DB	0f9H
	DB	086H
	DB	03H
	DB	00H
	DB	00H
	DB	0bH
	DB	0aH
	DB	00H
	DB	01dH
	DB	0b8H
	DB	00H
	DB	02dH
	DB	0d0H
	DB	0afH
	DB	02fH
	DB	00H
	DB	0f8H
	DB	01bH
	DB	00H
	DB	0c0H
	DB	03H
	DB	00H
	DB	0c0H
	DB	02H
	DB	00H
	DB	0d0H
	DB	02H
	DB	00H
	DB	0d0H
	DB	01H
	DB	00H
	DB	0e0H
	DB	0e5H
	DB	0bH
	DB	0e0H
	DB	0aeH
	DB	03fH
	DB	0f0H
	DB	02H
	DB	078H
	DB	0f4H
	DB	00H
	DB	0b4H
	DB	0b4H
	DB	00H
	DB	074H
	DB	078H
	DB	00H
	DB	074H
	DB	038H
	DB	00H
	DB	038H
	DB	03cH
	DB	00H
	DB	038H
	DB	02cH
	DB	00H
	DB	02cH
	DB	02dH
	DB	00H
	DB	02dH
	DB	01dH
	DB	00H
	DB	01dH
	DB	080H
	DB	043H
	DB	0fH
	DB	014H
	DB	00H
	DB	0e0H
	DB	081H
	DB	03H
	DB	0fH
	DB	02cH
	DB	074H
	DB	0e0H
	DB	081H
	DB	03H
	DB	0fH
	DB	02cH
	DB	0b4H
	DB	0d0H
	DB	01H
	DB	00H
	DB	0e0H
	DB	00H
	DB	0f4H
	DB	00H
	DB	050H
	DB	00H
	DB	00H
	DB	00H
	DB	078H
	DB	00H
	DB	038H
	DB	00H
	DB	03cH
	DB	00H
	DB	02cH
	DB	00H
	DB	02dH
	DB	00H
	DB	01dH
	DB	00H
	DB	01eH
	DB	00H
	DB	0eH
	DB	00H
	DB	0bH
	DB	040H
	DB	0bH
	DB	040H
	DB	07H
	DB	080H
	DB	07H
	DB	080H
	DB	03H
	DB	0c0H
	DB	03H
	DB	0e8H
	DB	01H
	DB	0bdH
	DB	00H
	DB	0c0H
	DB	03H
	DB	00H
	DB	0b0H
	DB	00H
	DB	00H
	DB	02dH
	DB	00H
	DB	040H
	DB	07H
	DB	00H
	DB	0e0H
	DB	01H
	DB	01fH
	DB	038H
	DB	0f0H
	DB	01H
	DB	04bH
	DB	01fH
	DB	0d0H
	DB	0f6H
	DB	01H
	DB	0b4H
	DB	0fH
	DB	00H
	DB	0feH
	DB	00H
	DB	080H
	DB	0bbH
	DB	00H
	DB	0f0H
	DB	078H
	DB	00H
	DB	02cH
	DB	07dH
	DB	040H
	DB	0bH
	DB	03dH
	DB	0d0H
	DB	01H
	DB	02eH
	DB	00H
	DB	0c0H
	DB	03H
	DB	0bH
	DB	02dH
	DB	074H
	DB	0e0H
	DB	081H
	DB	03H
	DB	0bH
	DB	02dH
	DB	074H
	DB	0e0H
	DB	081H
	DB	03H
	DB	0fH
	DB	02cH
	DB	0b4H
	DB	0d0H
	DB	01H
	DB	0e0H
	DB	0e5H
	DB	0bH
	DB	0f8H
	DB	0bH
	DB	0e0H
	DB	05bH
	DB	07eH
	DB	05bH
	DB	02eH
	DB	0f0H
	DB	02H
	DB	0f8H
	DB	01H
	DB	078H
	DB	0f0H
	DB	00H
	DB	0b4H
	DB	00H
	DB	078H
	DB	0b4H
	DB	00H
	DB	074H
	DB	00H
	DB	078H
	DB	078H
	DB	00H
	DB	078H
	DB	00H
	DB	038H
	DB	038H
	DB	00H
	DB	038H
	DB	00H
	DB	03cH
	DB	03cH
	DB	00H
	DB	03cH
	DB	00H
	DB	02cH
	DB	02cH
	DB	00H
	DB	02cH
	DB	00H
	DB	02dH
	DB	02dH
	DB	00H
	DB	02dH
	DB	00H
	DB	01dH
	DB	01dH
	DB	00H
	DB	01dH
	DB	00H
	DB	01eH
	DB	0e0H
	DB	0e5H
	DB	0bH
	DB	0e0H
	DB	05bH
	DB	03eH
	DB	0f0H
	DB	02H
	DB	078H
	DB	0f0H
	DB	00H
	DB	0b4H
	DB	0b4H
	DB	00H
	DB	074H
	DB	078H
	DB	00H
	DB	074H
	DB	038H
	DB	00H
	DB	038H
	DB	03cH
	DB	00H
	DB	03cH
	DB	02cH
	DB	00H
	DB	02cH
	DB	02dH
	DB	00H
	DB	02dH
	DB	01dH
	DB	00H
	DB	01dH
	DB	00H
	DB	0f9H
	DB	0bH
	DB	080H
	DB	0afH
	DB	03fH
	DB	0e0H
	DB	01H
	DB	0b8H
	DB	078H
	DB	00H
	DB	0f0H
	DB	03cH
	DB	00H
	DB	0f0H
	DB	02dH
	DB	00H
	DB	0f0H
	DB	02dH
	DB	00H
	DB	0b4H
	DB	02dH
	DB	00H
	DB	078H
	DB	07cH
	DB	00H
	DB	02eH
	DB	0f4H
	DB	0eaH
	DB	0bH
	DB	090H
	DB	0bfH
	DB	01H
	DB	080H
	DB	097H
	DB	0bfH
	DB	00H
	DB	078H
	DB	0abH
	DB	02fH
	DB	0c0H
	DB	01fH
	DB	0c0H
	DB	07H
	DB	07dH
	DB	00H
	DB	0b4H
	DB	0d0H
	DB	02H
	DB	040H
	DB	0bH
	DB	01eH
	DB	00H
	DB	0b4H
	DB	0e0H
	DB	01H
	DB	080H
	DB	07H
	DB	01fH
	DB	00H
	DB	03cH
	DB	0f0H
	DB	07H
	DB	0f4H
	DB	041H
	DB	0ebH
	DB	0eaH
	DB	07H
	DB	074H
	DB	0f8H
	DB	0bH
	DB	080H
	DB	07H
	DB	00H
	DB	00H
	DB	038H
	DB	00H
	DB	00H
	DB	0c0H
	DB	03H
	DB	00H
	DB	00H
	DB	02cH
	DB	00H
	DB	00H
	DB	0d0H
	DB	02H
	DB	00H
	DB	00H
	DB	00H
	DB	0f9H
	DB	0c6H
	DB	02H
	DB	0beH
	DB	07eH
	DB	0bH
	DB	01eH
	DB	080H
	DB	01fH
	DB	02eH
	DB	00H
	DB	07cH
	DB	03cH
	DB	00H
	DB	0f0H
	DB	0b4H
	DB	00H
	DB	0c0H
	DB	0d3H
	DB	02H
	DB	040H
	DB	04bH
	DB	0bH
	DB	00H
	DB	02eH
	DB	07cH
	DB	00H
	DB	07eH
	DB	0d0H
	DB	0abH
	DB	0ebH
	DB	01H
	DB	0f9H
	DB	086H
	DB	03H
	DB	00H
	DB	00H
	DB	0fH
	DB	00H
	DB	00H
	DB	02cH
	DB	00H
	DB	00H
	DB	074H
	DB	00H
	DB	00H
	DB	0e0H
	DB	01H
	DB	00H
	DB	080H
	DB	03H
	DB	0e0H
	DB	0a5H
	DB	0e0H
	DB	0beH
	DB	0f0H
	DB	06H
	DB	0f0H
	DB	00H
	DB	0b4H
	DB	00H
	DB	078H
	DB	00H
	DB	038H
	DB	00H
	DB	03cH
	DB	00H
	DB	02cH
	DB	00H
	DB	02dH
	DB	00H
	DB	01dH
	DB	00H
	DB	080H
	DB	0bfH
	DB	00H
	DB	06fH
	DB	03eH
	DB	074H
	DB	040H
	DB	047H
	DB	07H
	DB	010H
	DB	0f0H
	DB	02H
	DB	00H
	DB	0f8H
	DB	06H
	DB	00H
	DB	0f8H
	DB	041H
	DB	00H
	DB	02dH
	DB	01dH
	DB	0d0H
	DB	0c2H
	DB	09bH
	DB	01fH
	DB	0e0H
	DB	06fH
	DB	00H
	DB	0e0H
	DB	00H
	DB	03cH
	DB	00H
	DB	0bH
	DB	0f8H
	DB	07fH
	DB	0b9H
	DB	05H
	DB	01eH
	DB	080H
	DB	03H
	DB	0f0H
	DB	00H
	DB	02cH
	DB	040H
	DB	0bH
	DB	0d0H
	DB	01H
	DB	078H
	DB	00H
	DB	0aeH
	DB	01H
	DB	0beH
	DB	00H
	DB	038H
	DB	00H
	DB	038H
	DB	0fH
	DB	00H
	DB	0cfH
	DB	02H
	DB	0c0H
	DB	0b6H
	DB	00H
	DB	0b4H
	DB	01dH
	DB	00H
	DB	09dH
	DB	07H
	DB	080H
	DB	0e7H
	DB	00H
	DB	0f0H
	DB	03cH
	DB	00H
	DB	03dH
	DB	01eH
	DB	080H
	DB	04bH
	DB	06fH
	DB	0feH
	DB	041H
	DB	0beH
	DB	075H
	DB	00H
	DB	01eH
	DB	00H
	DB	0adH
	DB	07H
	DB	0c0H
	DB	0d3H
	DB	02H
	DB	074H
	DB	0b0H
	DB	00H
	DB	0fH
	DB	03cH
	DB	0e0H
	DB	01H
	DB	01eH
	DB	02cH
	DB	040H
	DB	087H
	DB	07H
	DB	0d0H
	DB	0b6H
	DB	00H
	DB	0b0H
	DB	0eH
	DB	00H
	DB	0f8H
	DB	02H
	DB	00H
	DB	03eH
	DB	00H
	DB	00H
	DB	0eH
	DB	0c0H
	DB	07H
	DB	0b0H
	DB	0eH
	DB	0d0H
	DB	07H
	DB	074H
	DB	01eH
	DB	0b0H
	DB	07H
	DB	03cH
	DB	01dH
	DB	074H
	DB	0bH
	DB	01dH
	DB	01dH
	DB	02cH
	DB	0bH
	DB	0eH
	DB	02cH
	DB	01dH
	DB	04bH
	DB	07H
	DB	02cH
	DB	0aH
	DB	08eH
	DB	03H
	DB	068H
	DB	07H
	DB	0ceH
	DB	01H
	DB	0b8H
	DB	02H
	DB	0edH
	DB	00H
	DB	0f8H
	DB	01H
	DB	07dH
	DB	00H
	DB	0b4H
	DB	00H
	DB	03dH
	DB	00H
	DB	0e0H
	DB	01H
	DB	02cH
	DB	0f0H
	DB	0c0H
	DB	03H
	DB	078H
	DB	078H
	DB	00H
	DB	06dH
	DB	07H
	DB	00H
	DB	0beH
	DB	00H
	DB	040H
	DB	0fH
	DB	00H
	DB	0f0H
	DB	07H
	DB	00H
	DB	0deH
	DB	02H
	DB	0e0H
	DB	0f0H
	DB	00H
	DB	01eH
	DB	0b4H
	DB	0d0H
	DB	02H
	DB	03cH
	DB	00H
	DB	01eH
	DB	00H
	DB	06dH
	DB	0bH
	DB	080H
	DB	0d3H
	DB	02H
	DB	074H
	DB	0f0H
	DB	00H
	DB	0bH
	DB	038H
	DB	0e0H
	DB	01H
	DB	01eH
	DB	02cH
	DB	040H
	DB	08bH
	DB	03H
	DB	0c0H
	DB	076H
	DB	00H
	DB	0f0H
	DB	0eH
	DB	00H
	DB	0f8H
	DB	01H
	DB	00H
	DB	02dH
	DB	00H
	DB	080H
	DB	03H
	DB	00H
	DB	0b4H
	DB	00H
	DB	00H
	DB	0fH
	DB	00H
	DB	0e0H
	DB	01H
	DB	00H
	DB	02cH
	DB	00H
	DB	00H
	DB	0f4H
	DB	0ffH
	DB	053H
	DB	095H
	DB	0bH
	DB	00H
	DB	0fH
	DB	00H
	DB	01fH
	DB	00H
	DB	01eH
	DB	00H
	DB	02eH
	DB	00H
	DB	02dH
	DB	00H
	DB	02dH
	DB	00H
	DB	03cH
	DB	00H
	DB	0bcH
	DB	055H
	DB	0f1H
	DB	0ffH
	DB	07H
	DB	00H
	DB	0f8H
	DB	00H
	DB	0afH
	DB	040H
	DB	07H
	DB	080H
	DB	07H
	DB	080H
	DB	03H
	DB	080H
	DB	03H
	DB	080H
	DB	03H
	DB	0c0H
	DB	03H
	DB	0c0H
	DB	02H
	DB	0e0H
	DB	01H
	DB	07dH
	DB	00H
	DB	07dH
	DB	00H
	DB	0b4H
	DB	00H
	DB	0b0H
	DB	00H
	DB	0b4H
	DB	00H
	DB	074H
	DB	00H
	DB	038H
	DB	00H
	DB	02cH
	DB	00H
	DB	02dH
	DB	00H
	DB	01dH
	DB	00H
	DB	0bdH
	DB	01H
	DB	0f8H
	DB	01H
	DB	040H
	DB	0bH
	DB	074H
	DB	080H
	DB	07H
	DB	038H
	DB	0c0H
	DB	02H
	DB	02dH
	DB	0d0H
	DB	01H
	DB	01eH
	DB	0e0H
	DB	00H
	DB	0fH
	DB	0b0H
	DB	040H
	DB	0bH
	DB	074H
	DB	080H
	DB	07H
	DB	038H
	DB	0c0H
	DB	03H
	DB	02cH
	DB	0d0H
	DB	02H
	DB	00H
	DB	07dH
	DB	00H
	DB	0e4H
	DB	07H
	DB	00H
	DB	01eH
	DB	00H
	DB	038H
	DB	00H
	DB	0f0H
	DB	00H
	DB	0c0H
	DB	02H
	DB	040H
	DB	07H
	DB	00H
	DB	0eH
	DB	00H
	DB	03cH
	DB	00H
	DB	0e0H
	DB	01H
	DB	040H
	DB	01fH
	DB	00H
	DB	07dH
	DB	00H
	DB	02dH
	DB	00H
	DB	038H
	DB	00H
	DB	0f0H
	DB	00H
	DB	0c0H
	DB	02H
	DB	00H
	DB	0bH
	DB	00H
	DB	02dH
	DB	00H
	DB	074H
	DB	00H
	DB	0e0H
	DB	01H
	DB	0e8H
	DB	02H
	DB	0f4H
	DB	02H
	DB	00H
	DB	0e0H
	DB	07H
	DB	08aH
	DB	0fbH
	DB	07aH
	DB	01dH
	DB	0f8H
	DB	01H
CONST	ENDS
PUBLIC	__JustMyCode_Default
; Function compile flags: /Odt
;	COMDAT __JustMyCode_Default
_TEXT	SEGMENT
__JustMyCode_Default PROC				; COMDAT
	push	ebp
	mov	ebp, esp
	pop	ebp
	ret	0
__JustMyCode_Default ENDP
_TEXT	ENDS
END
