; Listing generated by Microsoft (R) Optimizing Compiler Version 19.42.34436.0 

	TITLE	C:\DT\Solutions\Una\una-watch\Apps\Utility2\GUI\Software\App\TouchGFX-GUI\build\Debug\obj\Font_Poppins_SemiBold_20_2bpp_0.obj
	.686P
	.XMM
	include listing.inc
	.model	flat

INCLUDELIB MSVCRTD
INCLUDELIB OLDNAMES

PUBLIC	?unicodes_Poppins_SemiBold_20_2bpp_0@@3QBEB	; unicodes_Poppins_SemiBold_20_2bpp_0
msvcjmc	SEGMENT
__3A77C584_concurrencysal@h DB 01H
__7D61E6FE_sal@h DB 01H
__F85DFF2E_vadefs@h DB 01H
__E62C82FD_vcruntime@h DB 01H
__B193B045_corecrt@h DB 01H
__829D5E02_assert@h DB 01H
__80509148_stdint@h DB 01H
__CA6578A3_Config@hpp DB 01H
__26FA5A17_Types@hpp DB 01H
__D8772245_Font_Poppins_SemiBold_20_2bpp_0@cpp DB 01H
msvcjmc	ENDS
CONST	SEGMENT
?unicodes_Poppins_SemiBold_20_2bpp_0@@3QBEB DB 03fH	; unicodes_Poppins_SemiBold_20_2bpp_0
	DB	03fH
	DB	03fH
	DB	03fH
	DB	03fH
	DB	02eH
	DB	02eH
	DB	02eH
	DB	02eH
	DB	015H
	DB	00H
	DB	03eH
	DB	07fH
	DB	02eH
	DB	03dH
	DB	02fH
	DB	08fH
	DB	0c7H
	DB	0e3H
	DB	0f1H
	DB	078H
	DB	00H
	DB	0a0H
	DB	01H
	DB	019H
	DB	00H
	DB	0d0H
	DB	07H
	DB	0bcH
	DB	00H
	DB	040H
	DB	01fH
	DB	0f0H
	DB	02H
	DB	00H
	DB	03eH
	DB	0d0H
	DB	07H
	DB	0f4H
	DB	0ffH
	DB	0ffH
	DB	0ffH
	DB	0d2H
	DB	0ffH
	DB	0ffH
	DB	0ffH
	DB	0bH
	DB	0e5H
	DB	05bH
	DB	0bdH
	DB	015H
	DB	080H
	DB	0fH
	DB	0f4H
	DB	01H
	DB	00H
	DB	03eH
	DB	0e0H
	DB	03H
	DB	0f4H
	DB	0ffH
	DB	0ffH
	DB	0ffH
	DB	0d2H
	DB	0ffH
	DB	0ffH
	DB	0ffH
	DB	04bH
	DB	0e5H
	DB	05bH
	DB	0beH
	DB	015H
	DB	080H
	DB	0fH
	DB	0f4H
	DB	01H
	DB	00H
	DB	02fH
	DB	0e0H
	DB	03H
	DB	00H
	DB	0bcH
	DB	080H
	DB	0fH
	DB	00H
	DB	00H
	DB	09H
	DB	00H
	DB	090H
	DB	07H
	DB	040H
	DB	0ffH
	DB	02fH
	DB	0f4H
	DB	0ffH
	DB	02fH
	DB	07eH
	DB	0d9H
	DB	0cfH
	DB	04fH
	DB	052H
	DB	0e1H
	DB	09bH
	DB	00H
	DB	0f4H
	DB	07fH
	DB	00H
	DB	0f4H
	DB	0ffH
	DB	02H
	DB	090H
	DB	0ffH
	DB	02H
	DB	090H
	DB	0fcH
	DB	0a5H
	DB	024H
	DB	07eH
	DB	07eH
	DB	0c9H
	DB	04fH
	DB	0ffH
	DB	0ffH
	DB	042H
	DB	0ffH
	DB	02fH
	DB	00H
	DB	079H
	DB	00H
	DB	00H
	DB	09H
	DB	00H
	DB	0e0H
	DB	0bH
	DB	0d0H
	DB	07H
	DB	0b8H
	DB	02fH
	DB	0f0H
	DB	02H
	DB	03cH
	DB	03cH
	DB	0f8H
	DB	01H
	DB	02dH
	DB	03cH
	DB	0bcH
	DB	00H
	DB	03cH
	DB	03dH
	DB	03eH
	DB	00H
	DB	0f8H
	DB	05fH
	DB	01fH
	DB	00H
	DB	090H
	DB	086H
	DB	0fH
	DB	00H
	DB	00H
	DB	0d0H
	DB	07H
	DB	00H
	DB	00H
	DB	0f0H
	DB	092H
	DB	01fH
	DB	00H
	DB	0f4H
	DB	0f1H
	DB	07eH
	DB	00H
	DB	0bcH
	DB	0b4H
	DB	0b4H
	DB	00H
	DB	03eH
	DB	0b4H
	DB	0b4H
	DB	040H
	DB	02fH
	DB	0f0H
	DB	079H
	DB	080H
	DB	0fH
	DB	090H
	DB	01fH
	DB	00H
	DB	0f9H
	DB	06H
	DB	00H
	DB	0e0H
	DB	0ffH
	DB	07H
	DB	00H
	DB	0bcH
	DB	0f5H
	DB	02H
	DB	040H
	DB	02fH
	DB	054H
	DB	00H
	DB	0c0H
	DB	0fH
	DB	00H
	DB	00H
	DB	0d0H
	DB	0fH
	DB	00H
	DB	00H
	DB	0feH
	DB	0fH
	DB	054H
	DB	0e0H
	DB	0dbH
	DB	0fH
	DB	03fH
	DB	0bcH
	DB	0d0H
	DB	0efH
	DB	047H
	DB	02fH
	DB	0d0H
	DB	0bfH
	DB	0d0H
	DB	0bH
	DB	0d0H
	DB	01fH
	DB	0f0H
	DB	05bH
	DB	0feH
	DB	01fH
	DB	0f4H
	DB	0ffH
	DB	0efH
	DB	01fH
	DB	0e0H
	DB	0afH
	DB	0d0H
	DB	0fH
	DB	03dH
	DB	0cfH
	DB	0f3H
	DB	00H
	DB	03eH
	DB	0e0H
	DB	07H
	DB	0beH
	DB	0c0H
	DB	0fH
	DB	0f8H
	DB	01H
	DB	03fH
	DB	0d0H
	DB	0bH
	DB	0f4H
	DB	01H
	DB	03eH
	DB	080H
	DB	0fH
	DB	0f0H
	DB	03H
	DB	0fcH
	DB	00H
	DB	03eH
	DB	080H
	DB	0fH
	DB	0e0H
	DB	07H
	DB	0f4H
	DB	01H
	DB	0bcH
	DB	00H
	DB	07eH
	DB	040H
	DB	02fH
	DB	080H
	DB	01fH
	DB	0c0H
	DB	0fH
	DB	0d0H
	DB	0bH
	DB	0bdH
	DB	00H
	DB	0f8H
	DB	01H
	DB	0e0H
	DB	07H
	DB	0d0H
	DB	0bH
	DB	080H
	DB	01fH
	DB	040H
	DB	02fH
	DB	00H
	DB	03fH
	DB	00H
	DB	07eH
	DB	00H
	DB	07dH
	DB	00H
	DB	07dH
	DB	00H
	DB	0bdH
	DB	00H
	DB	0bcH
	DB	00H
	DB	0bdH
	DB	00H
	DB	07dH
	DB	00H
	DB	07eH
	DB	00H
	DB	03eH
	DB	00H
	DB	02fH
	DB	080H
	DB	01fH
	DB	0c0H
	DB	0fH
	DB	0e0H
	DB	07H
	DB	0f4H
	DB	02H
	DB	0fcH
	DB	00H
	DB	040H
	DB	01H
	DB	080H
	DB	03H
	DB	0acH
	DB	077H
	DB	0f9H
	DB	0bfH
	DB	0e4H
	DB	01fH
	DB	0bdH
	DB	0bfH
	DB	098H
	DB	063H
	DB	080H
	DB	03H
	DB	00H
	DB	03eH
	DB	00H
	DB	080H
	DB	0fH
	DB	00H
	DB	0e0H
	DB	03H
	DB	00H
	DB	0f8H
	DB	00H
	DB	0fdH
	DB	0ffH
	DB	07fH
	DB	0ffH
	DB	0ffH
	DB	04fH
	DB	0e5H
	DB	057H
	DB	01H
	DB	0f8H
	DB	00H
	DB	00H
	DB	03eH
	DB	00H
	DB	080H
	DB	0fH
	DB	00H
	DB	054H
	DB	0f8H
	DB	0bcH
	DB	03cH
	DB	02dH
	DB	01eH
	DB	055H
	DB	055H
	DB	0f9H
	DB	0ffH
	DB	0efH
	DB	0ffH
	DB	03fH
	DB	03eH
	DB	07fH
	DB	02eH
	DB	00H
	DB	0bcH
	DB	00H
	DB	0bdH
	DB	00H
	DB	07dH
	DB	00H
	DB	03eH
	DB	00H
	DB	02fH
	DB	040H
	DB	02fH
	DB	040H
	DB	01fH
	DB	080H
	DB	0fH
	DB	0c0H
	DB	0bH
	DB	0d0H
	DB	0bH
	DB	0d0H
	DB	07H
	DB	0e0H
	DB	03H
	DB	0f0H
	DB	02H
	DB	0f4H
	DB	02H
	DB	0f4H
	DB	01H
	DB	0f8H
	DB	00H
	DB	0bcH
	DB	00H
	DB	0bcH
	DB	00H
	DB	07dH
	DB	00H
	DB	03eH
	DB	00H
	DB	03fH
	DB	00H
	DB	02fH
	DB	00H
	DB	040H
	DB	059H
	DB	00H
	DB	0f8H
	DB	0bfH
	DB	080H
	DB	0ffH
	DB	0bfH
	DB	0f4H
	DB	047H
	DB	03fH
	DB	07eH
	DB	040H
	DB	09fH
	DB	0fH
	DB	0c0H
	DB	0fbH
	DB	03H
	DB	0f0H
	DB	0beH
	DB	00H
	DB	0fcH
	DB	03fH
	DB	00H
	DB	0afH
	DB	0fH
	DB	0c0H
	DB	0ebH
	DB	03H
	DB	0f4H
	DB	0f6H
	DB	02H
	DB	07eH
	DB	0fcH
	DB	0eaH
	DB	0fH
	DB	0fdH
	DB	0ffH
	DB	01H
	DB	0f9H
	DB	01bH
	DB	00H
	DB	0fdH
	DB	0dbH
	DB	0bfH
	DB	0e8H
	DB	0bH
	DB	0bdH
	DB	0d0H
	DB	0bH
	DB	0bdH
	DB	0d0H
	DB	0bH
	DB	0bdH
	DB	0d0H
	DB	0bH
	DB	0bdH
	DB	0d0H
	DB	0bH
	DB	0bdH
	DB	0d0H
	DB	0bH
	DB	0bdH
	DB	040H
	DB	05H
	DB	040H
	DB	0ffH
	DB	0bH
	DB	0fdH
	DB	0ffH
	DB	0e2H
	DB	047H
	DB	07fH
	DB	02fH
	DB	0d0H
	DB	057H
	DB	01H
	DB	07dH
	DB	00H
	DB	0e0H
	DB	07H
	DB	040H
	DB	02fH
	DB	00H
	DB	0fcH
	DB	01H
	DB	0f0H
	DB	07H
	DB	0d0H
	DB	01fH
	DB	040H
	DB	07fH
	DB	00H
	DB	0feH
	DB	055H
	DB	0f5H
	DB	0ffH
	DB	0bfH
	DB	0ffH
	DB	0ffH
	DB	0bH
	DB	0e0H
	DB	06fH
	DB	080H
	DB	0ffH
	DB	02fH
	DB	0beH
	DB	0f5H
	DB	0e7H
	DB	03H
	DB	0bdH
	DB	00H
	DB	0d0H
	DB	07H
	DB	040H
	DB	03eH
	DB	080H
	DB	0ffH
	DB	01H
	DB	0f8H
	DB	01bH
	DB	00H
	DB	0f5H
	DB	07H
	DB	00H
	DB	0bcH
	DB	01aH
	DB	0c0H
	DB	0fbH
	DB	03H
	DB	0bcH
	DB	0beH
	DB	0e5H
	DB	0c7H
	DB	0ffH
	DB	02fH
	DB	090H
	DB	06fH
	DB	00H
	DB	00H
	DB	0f0H
	DB	0bH
	DB	00H
	DB	0f8H
	DB	0bH
	DB	00H
	DB	0fdH
	DB	0bH
	DB	00H
	DB	0efH
	DB	0bH
	DB	080H
	DB	0cfH
	DB	0bH
	DB	0d0H
	DB	0c7H
	DB	0bH
	DB	0f0H
	DB	0c2H
	DB	0bH
	DB	0f8H
	DB	0c0H
	DB	0bH
	DB	07eH
	DB	0c0H
	DB	0bH
	DB	0ffH
	DB	0ffH
	DB	0bfH
	DB	0ffH
	DB	0ffH
	DB	0bfH
	DB	055H
	DB	0d5H
	DB	05fH
	DB	00H
	DB	0c0H
	DB	0bH
	DB	00H
	DB	0c0H
	DB	0bH
	DB	054H
	DB	055H
	DB	045H
	DB	0ffH
	DB	0ffH
	DB	0d3H
	DB	0ffH
	DB	0ffH
	DB	0f4H
	DB	01H
	DB	00H
	DB	07dH
	DB	00H
	DB	040H
	DB	09fH
	DB	06fH
	DB	0d0H
	DB	0ffH
	DB	0bfH
	DB	0f4H
	DB	05bH
	DB	07fH
	DB	0bcH
	DB	040H
	DB	02fH
	DB	00H
	DB	0c0H
	DB	0bH
	DB	00H
	DB	0f0H
	DB	0f6H
	DB	02H
	DB	0bdH
	DB	0fcH
	DB	0d6H
	DB	01fH
	DB	0fdH
	DB	0ffH
	DB	02H
	DB	0f8H
	DB	01bH
	DB	00H
	DB	00H
	DB	04H
	DB	00H
	DB	0f4H
	DB	07fH
	DB	040H
	DB	0ffH
	DB	07fH
	DB	0f0H
	DB	047H
	DB	03fH
	DB	07dH
	DB	040H
	DB	04aH
	DB	0fH
	DB	05H
	DB	0e0H
	DB	0f7H
	DB	02fH
	DB	0f8H
	DB	0ffH
	DB	02fH
	DB	0feH
	DB	091H
	DB	09fH
	DB	01fH
	DB	0d0H
	DB	0dbH
	DB	03H
	DB	0f0H
	DB	0f6H
	DB	01H
	DB	07dH
	DB	0f8H
	DB	0d6H
	DB	0fH
	DB	0fdH
	DB	0ffH
	DB	01H
	DB	0f8H
	DB	01bH
	DB	00H
	DB	054H
	DB	055H
	DB	045H
	DB	0ffH
	DB	0ffH
	DB	0d7H
	DB	0ffH
	DB	0ffH
	DB	01H
	DB	00H
	DB	03eH
	DB	00H
	DB	0c0H
	DB	0bH
	DB	00H
	DB	0f8H
	DB	00H
	DB	00H
	DB	02fH
	DB	00H
	DB	0d0H
	DB	07H
	DB	00H
	DB	0bcH
	DB	00H
	DB	040H
	DB	01fH
	DB	00H
	DB	0e0H
	DB	03H
	DB	00H
	DB	0bdH
	DB	00H
	DB	080H
	DB	0fH
	DB	00H
	DB	0f0H
	DB	02H
	DB	00H
	DB	07eH
	DB	00H
	DB	00H
	DB	090H
	DB	0bfH
	DB	01H
	DB	0feH
	DB	0ffH
	DB	0d1H
	DB	05fH
	DB	0fdH
	DB	0f4H
	DB	01H
	DB	07eH
	DB	07dH
	DB	040H
	DB	01fH
	DB	06fH
	DB	0f4H
	DB	02H
	DB	0ffH
	DB	02fH
	DB	0e0H
	DB	0ffH
	DB	01fH
	DB	0bdH
	DB	0d0H
	DB	09fH
	DB	0fH
	DB	0d0H
	DB	0ebH
	DB	03H
	DB	0f0H
	DB	0faH
	DB	01H
	DB	0bdH
	DB	0fdH
	DB	0e5H
	DB	01fH
	DB	0feH
	DB	0ffH
	DB	01H
	DB	0f9H
	DB	01bH
	DB	00H
	DB	00H
	DB	015H
	DB	00H
	DB	0f8H
	DB	07fH
	DB	080H
	DB	0ffH
	DB	07fH
	DB	0f4H
	DB	046H
	DB	02fH
	DB	07eH
	DB	080H
	DB	08fH
	DB	0fH
	DB	0d0H
	DB	0e7H
	DB	07H
	DB	0f8H
	DB	0f5H
	DB	097H
	DB	07fH
	DB	0f8H
	DB	0ffH
	DB	01fH
	DB	0e4H
	DB	0dbH
	DB	07H
	DB	00H
	DB	0f4H
	DB	0a5H
	DB	01H
	DB	03eH
	DB	0fcH
	DB	0d5H
	DB	0bH
	DB	0fdH
	DB	0ffH
	DB	00H
	DB	0f9H
	DB	0bH
	DB	00H
	DB	02eH
	DB	07fH
	DB	03eH
	DB	00H
	DB	00H
	DB	00H
	DB	00H
	DB	00H
	DB	03eH
	DB	07fH
	DB	02eH
	DB	07dH
	DB	0beH
	DB	07dH
	DB	00H
	DB	00H
	DB	00H
	DB	00H
	DB	00H
	DB	0bcH
	DB	07dH
	DB	03dH
	DB	01eH
	DB	0fH
	DB	05H
	DB	00H
	DB	0a9H
	DB	040H
	DB	07fH
	DB	0d0H
	DB	01fH
	DB	0f4H
	DB	07H
	DB	0fdH
	DB	01H
	DB	0f8H
	DB	03H
	DB	0e0H
	DB	0fH
	DB	080H
	DB	03fH
	DB	00H
	DB	0feH
	DB	0ffH
	DB	0ffH
	DB	0efH
	DB	0ffH
	DB	0ffH
	DB	05bH
	DB	055H
	DB	055H
	DB	01H
	DB	00H
	DB	00H
	DB	055H
	DB	055H
	DB	0d5H
	DB	0ffH
	DB	0ffH
	DB	0fbH
	DB	0ffH
	DB	0ffH
	DB	02H
	DB	0aaH
	DB	00H
	DB	0fcH
	DB	02H
	DB	0f0H
	DB	0bH
	DB	0c0H
	DB	02fH
	DB	00H
	DB	07fH
	DB	080H
	DB	02fH
	DB	0e0H
	DB	0bH
	DB	0f8H
	DB	02H
	DB	0beH
	DB	00H
	DB	090H
	DB	0bfH
	DB	040H
	DB	0ffH
	DB	03fH
	DB	0fcH
	DB	0e5H
	DB	0dbH
	DB	07H
	DB	0fcH
	DB	00H
	DB	0c0H
	DB	0fH
	DB	040H
	DB	0beH
	DB	0d0H
	DB	0ffH
	DB	03H
	DB	0fdH
	DB	06H
	DB	0d0H
	DB	07H
	DB	00H
	DB	014H
	DB	00H
	DB	00H
	DB	00H
	DB	00H
	DB	07dH
	DB	00H
	DB	0e0H
	DB	0bH
	DB	00H
	DB	07dH
	DB	00H
	DB	00H
	DB	040H
	DB	0aaH
	DB	01aH
	DB	00H
	DB	00H
	DB	0fdH
	DB	0ffH
	DB	02fH
	DB	00H
	DB	0e0H
	DB	01bH
	DB	050H
	DB	03fH
	DB	00H
	DB	07fH
	DB	00H
	DB	00H
	DB	02eH
	DB	0e0H
	DB	042H
	DB	06fH
	DB	05fH
	DB	0fH
	DB	03dH
	DB	0f8H
	DB	0ffH
	DB	083H
	DB	0c7H
	DB	087H
	DB	01fH
	DB	0fdH
	DB	0e0H
	DB	0f6H
	DB	0f0H
	DB	02H
	DB	02eH
	DB	0b8H
	DB	02dH
	DB	07dH
	DB	080H
	DB	0bH
	DB	09eH
	DB	04bH
	DB	01fH
	DB	0f0H
	DB	0c1H
	DB	0e3H
	DB	0d2H
	DB	07H
	DB	07eH
	DB	0b8H
	DB	0b4H
	DB	0f0H
	DB	0ffH
	DB	0feH
	DB	0fH
	DB	03dH
	DB	0e0H
	DB	0bH
	DB	0beH
	DB	00H
	DB	02eH
	DB	00H
	DB	00H
	DB	00H
	DB	040H
	DB	07fH
	DB	00H
	DB	05H
	DB	00H
	DB	040H
	DB	0ffH
	DB	0ffH
	DB	03H
	DB	00H
	DB	00H
	DB	0f9H
	DB	06fH
	DB	00H
	DB	00H
	DB	00H
	DB	0f8H
	DB	03H
	DB	00H
	DB	0c0H
	DB	07fH
	DB	00H
	DB	00H
	DB	0fdH
	DB	0bH
	DB	00H
	DB	0e0H
	DB	0fbH
	DB	00H
	DB	00H
	DB	06fH
	DB	01fH
	DB	00H
	DB	0f4H
	DB	0f1H
	DB	02H
	DB	080H
	DB	0fH
	DB	03eH
	DB	00H
	DB	0bcH
	DB	0d0H
	DB	07H
	DB	0e0H
	DB	07H
	DB	0fcH
	DB	00H
	DB	0ffH
	DB	0ffH
	DB	01fH
	DB	0f4H
	DB	0ffH
	DB	0ffH
	DB	082H
	DB	05fH
	DB	055H
	DB	03fH
	DB	0fcH
	DB	00H
	DB	0e0H
	DB	0d7H
	DB	0bH
	DB	00H
	DB	0bdH
	DB	0feH
	DB	0ffH
	DB	082H
	DB	0ffH
	DB	0ffH
	DB	0e3H
	DB	057H
	DB	0fdH
	DB	0f9H
	DB	01H
	DB	0bdH
	DB	07eH
	DB	040H
	DB	0afH
	DB	01fH
	DB	0e0H
	DB	0e7H
	DB	0ffH
	DB	07fH
	DB	0f8H
	DB	0ffH
	DB	01fH
	DB	07eH
	DB	090H
	DB	09fH
	DB	01fH
	DB	0c0H
	DB	0efH
	DB	07H
	DB	0f0H
	DB	0fbH
	DB	055H
	DB	0beH
	DB	0feH
	DB	0ffH
	DB	09fH
	DB	0ffH
	DB	0bfH
	DB	00H
	DB	00H
	DB	0f9H
	DB	02bH
	DB	00H
	DB	0f8H
	DB	0ffH
	DB	01fH
	DB	0e0H
	DB	0afH
	DB	0feH
	DB	047H
	DB	03fH
	DB	00H
	DB	0feH
	DB	0f8H
	DB	01H
	DB	040H
	DB	0c5H
	DB	0bH
	DB	00H
	DB	00H
	DB	0bdH
	DB	00H
	DB	00H
	DB	0d0H
	DB	0bH
	DB	00H
	DB	00H
	DB	0bcH
	DB	00H
	DB	00H
	DB	0c0H
	DB	01fH
	DB	00H
	DB	054H
	DB	0f4H
	DB	03H
	DB	0e0H
	DB	0fH
	DB	0feH
	DB	0a6H
	DB	07fH
	DB	080H
	DB	0ffH
	DB	0ffH
	DB	01H
	DB	090H
	DB	0bfH
	DB	02H
	DB	0feH
	DB	0bfH
	DB	01H
	DB	0f8H
	DB	0ffH
	DB	07fH
	DB	0e0H
	DB	057H
	DB	0f9H
	DB	083H
	DB	01fH
	DB	080H
	DB	02fH
	DB	07eH
	DB	00H
	DB	0f8H
	DB	0f9H
	DB	01H
	DB	0d0H
	DB	0e7H
	DB	07H
	DB	040H
	DB	0afH
	DB	01fH
	DB	00H
	DB	0bdH
	DB	07eH
	DB	00H
	DB	0f4H
	DB	0f9H
	DB	01H
	DB	0e0H
	DB	0e7H
	DB	07H
	DB	0e0H
	DB	08bH
	DB	05fH
	DB	0e5H
	DB	0fH
	DB	0feH
	DB	0ffH
	DB	01fH
	DB	0f8H
	DB	0ffH
	DB	06H
	DB	00H
	DB	0feH
	DB	0ffH
	DB	0f9H
	DB	0ffH
	DB	0e7H
	DB	057H
	DB	085H
	DB	01fH
	DB	00H
	DB	07eH
	DB	00H
	DB	0f8H
	DB	01H
	DB	0e0H
	DB	0ffH
	DB	08fH
	DB	0ffH
	DB	03fH
	DB	07eH
	DB	00H
	DB	0f8H
	DB	01H
	DB	0e0H
	DB	07H
	DB	080H
	DB	05fH
	DB	015H
	DB	0feH
	DB	0ffH
	DB	0f9H
	DB	0ffH
	DB	07H
	DB	0feH
	DB	0ffH
	DB	0fbH
	DB	0ffH
	DB	0efH
	DB	057H
	DB	095H
	DB	01fH
	DB	00H
	DB	07eH
	DB	00H
	DB	0f8H
	DB	01H
	DB	0e0H
	DB	0ffH
	DB	08bH
	DB	0ffH
	DB	02fH
	DB	07eH
	DB	00H
	DB	0f8H
	DB	01H
	DB	0e0H
	DB	07H
	DB	080H
	DB	01fH
	DB	00H
	DB	07eH
	DB	00H
	DB	0f8H
	DB	01H
	DB	00H
	DB	00H
	DB	0f9H
	DB	02bH
	DB	00H
	DB	0e0H
	DB	0ffH
	DB	07fH
	DB	00H
	DB	0feH
	DB	0eaH
	DB	07fH
	DB	0d0H
	DB	01fH
	DB	080H
	DB	03fH
	DB	0f8H
	DB	01H
	DB	00H
	DB	05H
	DB	02fH
	DB	00H
	DB	00H
	DB	0d0H
	DB	0bH
	DB	0fcH
	DB	0ffH
	DB	0f6H
	DB	02H
	DB	0ffH
	DB	0bfH
	DB	0bcH
	DB	00H
	DB	040H
	DB	02fH
	DB	07fH
	DB	00H
	DB	0e0H
	DB	047H
	DB	03fH
	DB	00H
	DB	0fdH
	DB	080H
	DB	0bfH
	DB	0eaH
	DB	01fH
	DB	080H
	DB	0ffH
	DB	0ffH
	DB	01H
	DB	040H
	DB	0feH
	DB	06H
	DB	00H
	DB	07eH
	DB	00H
	DB	0fcH
	DB	07eH
	DB	00H
	DB	0fcH
	DB	07eH
	DB	00H
	DB	0fcH
	DB	07eH
	DB	00H
	DB	0fcH
	DB	07eH
	DB	00H
	DB	0fcH
	DB	07eH
	DB	00H
	DB	0fcH
	DB	0feH
	DB	0ffH
	DB	0ffH
	DB	0feH
	DB	0ffH
	DB	0ffH
	DB	07eH
	DB	055H
	DB	0fdH
	DB	07eH
	DB	00H
	DB	0fcH
	DB	07eH
	DB	00H
	DB	0fcH
	DB	07eH
	DB	00H
	DB	0fcH
	DB	07eH
	DB	00H
	DB	0fcH
	DB	07eH
	DB	00H
	DB	0fcH
	DB	07eH
	DB	07eH
	DB	07eH
	DB	07eH
	DB	07eH
	DB	07eH
	DB	07eH
	DB	07eH
	DB	07eH
	DB	07eH
	DB	07eH
	DB	07eH
	DB	07eH
	DB	07eH
	DB	00H
	DB	0d0H
	DB	0bH
	DB	00H
	DB	0bdH
	DB	00H
	DB	0d0H
	DB	0bH
	DB	00H
	DB	0bdH
	DB	00H
	DB	0d0H
	DB	0bH
	DB	00H
	DB	0bdH
	DB	00H
	DB	0d0H
	DB	0bH
	DB	00H
	DB	0bdH
	DB	00H
	DB	0d0H
	DB	04bH
	DB	05H
	DB	0bdH
	DB	0bdH
	DB	0d0H
	DB	0c7H
	DB	0afH
	DB	07fH
	DB	0f4H
	DB	0ffH
	DB	02H
	DB	0f9H
	DB	07H
	DB	07eH
	DB	040H
	DB	07fH
	DB	07eH
	DB	0c0H
	DB	01fH
	DB	07eH
	DB	0e0H
	DB	0bH
	DB	07eH
	DB	0f8H
	DB	02H
	DB	07eH
	DB	0fdH
	DB	00H
	DB	07eH
	DB	03fH
	DB	00H
	DB	0feH
	DB	01fH
	DB	00H
	DB	0feH
	DB	01fH
	DB	00H
	DB	07eH
	DB	07fH
	DB	00H
	DB	07eH
	DB	0fdH
	DB	00H
	DB	07eH
	DB	0f8H
	DB	02H
	DB	07eH
	DB	0e0H
	DB	0bH
	DB	07eH
	DB	0c0H
	DB	02fH
	DB	07eH
	DB	040H
	DB	07fH
	DB	07eH
	DB	00H
	DB	07eH
	DB	00H
	DB	07eH
	DB	00H
	DB	07eH
	DB	00H
	DB	07eH
	DB	00H
	DB	07eH
	DB	00H
	DB	07eH
	DB	00H
	DB	07eH
	DB	00H
	DB	07eH
	DB	00H
	DB	07eH
	DB	00H
	DB	07eH
	DB	00H
	DB	07eH
	DB	015H
	DB	0feH
	DB	0bfH
	DB	0feH
	DB	0bfH
	DB	0beH
	DB	00H
	DB	00H
	DB	0beH
	DB	0feH
	DB	01H
	DB	040H
	DB	0bfH
	DB	0feH
	DB	02H
	DB	080H
	DB	0bfH
	DB	0feH
	DB	03H
	DB	0c0H
	DB	0bfH
	DB	0feH
	DB	07H
	DB	0d0H
	DB	0bfH
	DB	0beH
	DB	0fH
	DB	0f0H
	DB	0beH
	DB	07eH
	DB	01fH
	DB	0f4H
	DB	0bdH
	DB	07eH
	DB	02eH
	DB	0b8H
	DB	0bdH
	DB	07eH
	DB	07dH
	DB	07dH
	DB	0bdH
	DB	07eH
	DB	0bcH
	DB	03eH
	DB	0bdH
	DB	07eH
	DB	0f8H
	DB	01fH
	DB	0bdH
	DB	07eH
	DB	0f0H
	DB	0fH
	DB	0bdH
	DB	07eH
	DB	0e0H
	DB	0bH
	DB	0bdH
	DB	07eH
	DB	0d0H
	DB	07H
	DB	0bdH
	DB	0beH
	DB	00H
	DB	0f4H
	DB	0f9H
	DB	07H
	DB	0d0H
	DB	0e7H
	DB	02fH
	DB	040H
	DB	09fH
	DB	0ffH
	DB	01H
	DB	07dH
	DB	0feH
	DB	01fH
	DB	0f4H
	DB	0f9H
	DB	0bdH
	DB	0d0H
	DB	0e7H
	DB	0d7H
	DB	047H
	DB	09fH
	DB	01fH
	DB	03eH
	DB	07dH
	DB	07eH
	DB	0f0H
	DB	0f6H
	DB	0f9H
	DB	041H
	DB	0ffH
	DB	0e7H
	DB	07H
	DB	0f8H
	DB	09fH
	DB	01fH
	DB	0c0H
	DB	07fH
	DB	07eH
	DB	00H
	DB	0fdH
	DB	0f9H
	DB	01H
	DB	0e0H
	DB	07H
	DB	00H
	DB	0f9H
	DB	01bH
	DB	00H
	DB	0e0H
	DB	0ffH
	DB	07fH
	DB	00H
	DB	0feH
	DB	0aaH
	DB	07fH
	DB	0d0H
	DB	0fH
	DB	040H
	DB	03fH
	DB	0f8H
	DB	01H
	DB	080H
	DB	02fH
	DB	02fH
	DB	00H
	DB	0c0H
	DB	0dbH
	DB	0bH
	DB	00H
	DB	0f0H
	DB	0f7H
	DB	02H
	DB	00H
	DB	0fcH
	DB	0bcH
	DB	00H
	DB	00H
	DB	02fH
	DB	07eH
	DB	00H
	DB	0e0H
	DB	04bH
	DB	03fH
	DB	00H
	DB	0fdH
	DB	080H
	DB	0bfH
	DB	0e9H
	DB	01fH
	DB	080H
	DB	0ffH
	DB	0ffH
	DB	01H
	DB	040H
	DB	0feH
	DB	06H
	DB	00H
	DB	0feH
	DB	0bfH
	DB	081H
	DB	0ffH
	DB	0ffH
	DB	0e1H
	DB	057H
	DB	0fdH
	DB	0f8H
	DB	01H
	DB	07eH
	DB	07eH
	DB	040H
	DB	0afH
	DB	01fH
	DB	0e0H
	DB	0e7H
	DB	057H
	DB	0fdH
	DB	0f8H
	DB	0ffH
	DB	01fH
	DB	0feH
	DB	0bfH
	DB	081H
	DB	01fH
	DB	00H
	DB	0e0H
	DB	07H
	DB	00H
	DB	0f8H
	DB	01H
	DB	00H
	DB	07eH
	DB	00H
	DB	080H
	DB	01fH
	DB	00H
	DB	00H
	DB	00H
	DB	0f9H
	DB	01bH
	DB	00H
	DB	0e0H
	DB	0ffH
	DB	07fH
	DB	00H
	DB	0feH
	DB	0aaH
	DB	07fH
	DB	0d0H
	DB	0fH
	DB	040H
	DB	03fH
	DB	0f8H
	DB	01H
	DB	080H
	DB	02fH
	DB	02fH
	DB	00H
	DB	0c0H
	DB	0dbH
	DB	0bH
	DB	00H
	DB	0f0H
	DB	0f7H
	DB	02H
	DB	00H
	DB	0fcH
	DB	0bcH
	DB	00H
	DB	00H
	DB	02fH
	DB	07eH
	DB	00H
	DB	0e0H
	DB	04bH
	DB	03fH
	DB	00H
	DB	0fdH
	DB	080H
	DB	0bfH
	DB	0e9H
	DB	01fH
	DB	080H
	DB	0ffH
	DB	0ffH
	DB	01H
	DB	040H
	DB	0feH
	DB	0bfH
	DB	00H
	DB	00H
	DB	00H
	DB	0beH
	DB	00H
	DB	00H
	DB	00H
	DB	07fH
	DB	00H
	DB	00H
	DB	040H
	DB	01aH
	DB	0feH
	DB	0bfH
	DB	081H
	DB	0ffH
	DB	0ffH
	DB	0e1H
	DB	057H
	DB	0fdH
	DB	0f9H
	DB	01H
	DB	0bdH
	DB	07eH
	DB	040H
	DB	0afH
	DB	01fH
	DB	0d0H
	DB	0ebH
	DB	07H
	DB	0fdH
	DB	0f9H
	DB	0ffH
	DB	02fH
	DB	0feH
	DB	0ffH
	DB	081H
	DB	05fH
	DB	03fH
	DB	0e0H
	DB	087H
	DB	02fH
	DB	0f8H
	DB	0c1H
	DB	01fH
	DB	07eH
	DB	0d0H
	DB	08bH
	DB	01fH
	DB	0e0H
	DB	07H
	DB	0a0H
	DB	0bfH
	DB	0c0H
	DB	0ffH
	DB	03fH
	DB	0beH
	DB	0f5H
	DB	0fbH
	DB	03H
	DB	0bdH
	DB	07fH
	DB	00H
	DB	0e0H
	DB	06fH
	DB	00H
	DB	0f8H
	DB	0bfH
	DB	00H
	DB	0f9H
	DB	07fH
	DB	00H
	DB	0f4H
	DB	0fH
	DB	00H
	DB	0fcH
	DB	07fH
	DB	0c0H
	DB	0efH
	DB	05fH
	DB	0beH
	DB	0f8H
	DB	0ffH
	DB	03H
	DB	0f9H
	DB	0bH
	DB	0fdH
	DB	0ffH
	DB	07fH
	DB	0ffH
	DB	0ffH
	DB	04fH
	DB	0e5H
	DB	057H
	DB	01H
	DB	0f8H
	DB	00H
	DB	00H
	DB	03eH
	DB	00H
	DB	080H
	DB	0fH
	DB	00H
	DB	0e0H
	DB	03H
	DB	00H
	DB	0f8H
	DB	00H
	DB	00H
	DB	03eH
	DB	00H
	DB	080H
	DB	0fH
	DB	00H
	DB	0e0H
	DB	03H
	DB	00H
	DB	0f8H
	DB	00H
	DB	00H
	DB	03eH
	DB	00H
	DB	080H
	DB	0fH
	DB	00H
	DB	03eH
	DB	00H
	DB	0bdH
	DB	03eH
	DB	00H
	DB	0bdH
	DB	03eH
	DB	00H
	DB	0bdH
	DB	03eH
	DB	00H
	DB	0bdH
	DB	03eH
	DB	00H
	DB	0bdH
	DB	03eH
	DB	00H
	DB	0bdH
	DB	03eH
	DB	00H
	DB	0bdH
	DB	03eH
	DB	00H
	DB	0bdH
	DB	03eH
	DB	00H
	DB	0bdH
	DB	07eH
	DB	00H
	DB	0bdH
	DB	0bdH
	DB	00H
	DB	07eH
	DB	0fcH
	DB	0ebH
	DB	02fH
	DB	0f4H
	DB	0ffH
	DB	0fH
	DB	080H
	DB	0bfH
	DB	01H
	DB	07eH
	DB	00H
	DB	0d0H
	DB	0dbH
	DB	0bH
	DB	00H
	DB	07eH
	DB	0f8H
	DB	00H
	DB	0f0H
	DB	043H
	DB	01fH
	DB	040H
	DB	02fH
	DB	0f0H
	DB	03H
	DB	0f8H
	DB	01H
	DB	07eH
	DB	0c0H
	DB	0fH
	DB	0d0H
	DB	0bH
	DB	0bdH
	DB	00H
	DB	0fcH
	DB	0e0H
	DB	07H
	DB	080H
	DB	01fH
	DB	02fH
	DB	00H
	DB	0f4H
	DB	0f6H
	DB	01H
	DB	00H
	DB	0bfH
	DB	0fH
	DB	00H
	DB	0e0H
	DB	0bfH
	DB	00H
	DB	00H
	DB	0fcH
	DB	07H
	DB	00H
	DB	080H
	DB	03fH
	DB	00H
	DB	0bdH
	DB	00H
	DB	0fdH
	DB	00H
	DB	0fcH
	DB	0bcH
	DB	00H
	DB	0feH
	DB	01H
	DB	0bdH
	DB	0fcH
	DB	00H
	DB	0ffH
	DB	01H
	DB	07eH
	DB	0f8H
	DB	041H
	DB	0ffH
	DB	02H
	DB	03eH
	DB	0f4H
	DB	041H
	DB	0efH
	DB	03H
	DB	02fH
	DB	0f0H
	DB	082H
	DB	0dbH
	DB	047H
	DB	02fH
	DB	0e0H
	DB	0c3H
	DB	0cbH
	DB	047H
	DB	01fH
	DB	0e0H
	DB	0d3H
	DB	0c7H
	DB	08bH
	DB	0fH
	DB	0d0H
	DB	0d7H
	DB	083H
	DB	0cfH
	DB	0bH
	DB	0c0H
	DB	0ebH
	DB	042H
	DB	0dfH
	DB	07H
	DB	080H
	DB	0ffH
	DB	01H
	DB	0ffH
	DB	03H
	DB	040H
	DB	0ffH
	DB	01H
	DB	0feH
	DB	03H
	DB	040H
	DB	0ffH
	DB	00H
	DB	0feH
	DB	02H
	DB	00H
	DB	0bfH
	DB	00H
	DB	0fdH
	DB	01H
	DB	07fH
	DB	00H
	DB	0beH
	DB	0fdH
	DB	00H
	DB	03fH
	DB	0f8H
	DB	082H
	DB	01fH
	DB	0f0H
	DB	0d7H
	DB	0bH
	DB	0d0H
	DB	0ffH
	DB	03H
	DB	080H
	DB	0ffH
	DB	01H
	DB	00H
	DB	0bfH
	DB	00H
	DB	00H
	DB	0bfH
	DB	00H
	DB	080H
	DB	0ffH
	DB	01H
	DB	0d0H
	DB	0fbH
	DB	03H
	DB	0f0H
	DB	0e3H
	DB	0bH
	DB	0f8H
	DB	0c1H
	DB	01fH
	DB	0fdH
	DB	040H
	DB	03fH
	DB	07fH
	DB	00H
	DB	0beH
	DB	0beH
	DB	00H
	DB	0fcH
	DB	0f1H
	DB	03H
	DB	0f4H
	DB	042H
	DB	02fH
	DB	0e0H
	DB	07H
	DB	0fcH
	DB	0d0H
	DB	0bH
	DB	0d0H
	DB	087H
	DB	0fH
	DB	00H
	DB	07fH
	DB	02fH
	DB	00H
	DB	0f4H
	DB	03fH
	DB	00H
	DB	0c0H
	DB	0bfH
	DB	00H
	DB	00H
	DB	0fdH
	DB	00H
	DB	00H
	DB	0f0H
	DB	02H
	DB	00H
	DB	0c0H
	DB	0bH
	DB	00H
	DB	00H
	DB	02fH
	DB	00H
	DB	00H
	DB	0bcH
	DB	00H
	DB	00H
	DB	0f0H
	DB	02H
	DB	00H
	DB	0ffH
	DB	0ffH
	DB	0fbH
	DB	0ffH
	DB	0bfH
	DB	055H
	DB	0f5H
	DB	07H
	DB	080H
	DB	02fH
	DB	00H
	DB	0fdH
	DB	00H
	DB	0e0H
	DB	07H
	DB	080H
	DB	02fH
	DB	00H
	DB	0fdH
	DB	00H
	DB	0e0H
	DB	07H
	DB	040H
	DB	02fH
	DB	00H
	DB	0fcH
	DB	00H
	DB	0e0H
	DB	05bH
	DB	015H
	DB	0ffH
	DB	0ffH
	DB	0fbH
	DB	0ffH
	DB	0bfH
	DB	0fdH
	DB	0dbH
	DB	0bfH
	DB	07dH
	DB	0d5H
	DB	07H
	DB	07dH
	DB	0d0H
	DB	07H
	DB	07dH
	DB	0d0H
	DB	07H
	DB	07dH
	DB	0d0H
	DB	07H
	DB	07dH
	DB	0d0H
	DB	07H
	DB	07dH
	DB	0d0H
	DB	07H
	DB	07dH
	DB	0d0H
	DB	07H
	DB	07dH
	DB	0d0H
	DB	07H
	DB	07dH
	DB	0d0H
	DB	05bH
	DB	0fdH
	DB	0dbH
	DB	0bfH
	DB	07dH
	DB	00H
	DB	0f0H
	DB	02H
	DB	0c0H
	DB	0fH
	DB	00H
	DB	03eH
	DB	00H
	DB	0f4H
	DB	01H
	DB	0c0H
	DB	0bH
	DB	00H
	DB	03fH
	DB	00H
	DB	0f8H
	DB	00H
	DB	0d0H
	DB	07H
	DB	00H
	DB	02fH
	DB	00H
	DB	0f8H
	DB	00H
	DB	0e0H
	DB	07H
	DB	040H
	DB	01fH
	DB	00H
	DB	0bcH
	DB	00H
	DB	0e0H
	DB	03H
	DB	080H
	DB	01fH
	DB	00H
	DB	07dH
	DB	00H
	DB	0f0H
	DB	02H
	DB	080H
	DB	0fH
	DB	00H
	DB	07dH
	DB	00H
	DB	0f4H
	DB	02H
	DB	0c0H
	DB	0bH
	DB	0feH
	DB	0e7H
	DB	07fH
	DB	0e5H
	DB	07H
	DB	07dH
	DB	0d0H
	DB	07H
	DB	07dH
	DB	0d0H
	DB	07H
	DB	07dH
	DB	0d0H
	DB	07H
	DB	07dH
	DB	0d0H
	DB	07H
	DB	07dH
	DB	0d0H
	DB	07H
	DB	07dH
	DB	0d0H
	DB	07H
	DB	07dH
	DB	0d0H
	DB	07H
	DB	07dH
	DB	0d0H
	DB	057H
	DB	07eH
	DB	0feH
	DB	0e7H
	DB	07fH
	DB	00H
	DB	029H
	DB	00H
	DB	00H
	DB	0bfH
	DB	00H
	DB	040H
	DB	0ffH
	DB	00H
	DB	0c0H
	DB	0ffH
	DB	02H
	DB	0d0H
	DB	0f7H
	DB	03H
	DB	0e0H
	DB	0d3H
	DB	07H
	DB	0f4H
	DB	0c2H
	DB	0fH
	DB	0f8H
	DB	080H
	DB	01fH
	DB	0bdH
	DB	00H
	DB	02fH
	DB	07eH
	DB	00H
	DB	07eH
	DB	02fH
	DB	00H
	DB	0bdH
	DB	0aaH
	DB	0aaH
	DB	0aaH
	DB	0ffH
	DB	0ffH
	DB	0ffH
	DB	0ffH
	DB	0ffH
	DB	0ffH
	DB	06H
	DB	0b8H
	DB	0d1H
	DB	02fH
	DB	0b4H
	DB	00H
	DB	01H
	DB	040H
	DB	0beH
	DB	0f8H
	DB	081H
	DB	0ffH
	DB	0efH
	DB	087H
	DB	0bfH
	DB	0f9H
	DB	01fH
	DB	07fH
	DB	040H
	DB	07fH
	DB	0bdH
	DB	00H
	DB	0f8H
	DB	0f5H
	DB	02H
	DB	0e0H
	DB	0d7H
	DB	0bH
	DB	080H
	DB	01fH
	DB	03fH
	DB	040H
	DB	07fH
	DB	0f8H
	DB	057H
	DB	0ffH
	DB	081H
	DB	0ffH
	DB	0ffH
	DB	07H
	DB	0e4H
	DB	09bH
	DB	01fH
	DB	029H
	DB	00H
	DB	00H
	DB	07eH
	DB	00H
	DB	00H
	DB	07eH
	DB	00H
	DB	00H
	DB	07eH
	DB	00H
	DB	00H
	DB	07eH
	DB	0f9H
	DB	06H
	DB	0beH
	DB	0ffH
	DB	01fH
	DB	0feH
	DB	09bH
	DB	03fH
	DB	0beH
	DB	00H
	DB	0beH
	DB	07eH
	DB	00H
	DB	0bcH
	DB	07eH
	DB	00H
	DB	0fcH
	DB	07eH
	DB	00H
	DB	0bcH
	DB	0beH
	DB	00H
	DB	0beH
	DB	0feH
	DB	097H
	DB	03fH
	DB	0beH
	DB	0ffH
	DB	01fH
	DB	07eH
	DB	0f9H
	DB	06H
	DB	040H
	DB	0beH
	DB	02H
	DB	0f8H
	DB	0ffH
	DB	083H
	DB	07fH
	DB	0f9H
	DB	0f2H
	DB	03H
	DB	0a8H
	DB	0bdH
	DB	00H
	DB	040H
	DB	02fH
	DB	00H
	DB	0d0H
	DB	0bH
	DB	00H
	DB	0f0H
	DB	03H
	DB	0a8H
	DB	0f8H
	DB	097H
	DB	02fH
	DB	0f8H
	DB	0ffH
	DB	03H
	DB	0e4H
	DB	02fH
	DB	00H
	DB	00H
	DB	00H
	DB	054H
	DB	00H
	DB	00H
	DB	0e0H
	DB	07H
	DB	00H
	DB	080H
	DB	01fH
	DB	00H
	DB	00H
	DB	07eH
	DB	040H
	DB	0beH
	DB	0f8H
	DB	081H
	DB	0ffH
	DB	0efH
	DB	087H
	DB	0bfH
	DB	0f9H
	DB	01fH
	DB	07fH
	DB	040H
	DB	07fH
	DB	0bdH
	DB	00H
	DB	0f8H
	DB	0f5H
	DB	02H
	DB	0e0H
	DB	0d7H
	DB	0bH
	DB	080H
	DB	01fH
	DB	03fH
	DB	040H
	DB	07fH
	DB	0f8H
	DB	057H
	DB	0ffH
	DB	081H
	DB	0ffH
	DB	0ffH
	DB	07H
	DB	0e4H
	DB	09bH
	DB	01fH
	DB	040H
	DB	0feH
	DB	02H
	DB	0e0H
	DB	0ffH
	DB	01fH
	DB	0f8H
	DB	096H
	DB	03fH
	DB	0bcH
	DB	00H
	DB	07dH
	DB	0fdH
	DB	0aaH
	DB	0bfH
	DB	0fdH
	DB	0ffH
	DB	0bfH
	DB	0bdH
	DB	00H
	DB	00H
	DB	0fcH
	DB	00H
	DB	02aH
	DB	0f8H
	DB	097H
	DB	02fH
	DB	0e0H
	DB	0ffH
	DB	0fH
	DB	040H
	DB	0feH
	DB	02H
	DB	00H
	DB	04H
	DB	0e0H
	DB	07H
	DB	0ffH
	DB	0d1H
	DB	0bH
	DB	0f4H
	DB	082H
	DB	0ffH
	DB	0e7H
	DB	0ffH
	DB	0d1H
	DB	01bH
	DB	0f4H
	DB	02H
	DB	0bdH
	DB	040H
	DB	02fH
	DB	0d0H
	DB	0bH
	DB	0f4H
	DB	02H
	DB	0bdH
	DB	040H
	DB	02fH
	DB	0d0H
	DB	0bH
	DB	040H
	DB	0beH
	DB	0f9H
	DB	081H
	DB	0ffH
	DB	0ffH
	DB	087H
	DB	07fH
	DB	0f5H
	DB	01fH
	DB	03fH
	DB	040H
	DB	07fH
	DB	0bdH
	DB	00H
	DB	0f8H
	DB	0f5H
	DB	02H
	DB	0e0H
	DB	0d7H
	DB	0bH
	DB	080H
	DB	01fH
	DB	07fH
	DB	040H
	DB	07fH
	DB	0f8H
	DB	09bH
	DB	0ffH
	DB	081H
	DB	0ffH
	DB	0efH
	DB	07H
	DB	0e4H
	DB	08bH
	DB	01fH
	DB	00H
	DB	00H
	DB	03eH
	DB	0f8H
	DB	01H
	DB	0fcH
	DB	0d0H
	DB	06fH
	DB	0feH
	DB	02H
	DB	0feH
	DB	0ffH
	DB	02H
	DB	090H
	DB	0bfH
	DB	01H
	DB	015H
	DB	00H
	DB	080H
	DB	01fH
	DB	00H
	DB	0e0H
	DB	07H
	DB	00H
	DB	0f8H
	DB	01H
	DB	00H
	DB	07eH
	DB	0feH
	DB	082H
	DB	0ffH
	DB	0ffH
	DB	0e3H
	DB	06fH
	DB	0fdH
	DB	0faH
	DB	02H
	DB	0bdH
	DB	07eH
	DB	00H
	DB	0bfH
	DB	01fH
	DB	0c0H
	DB	0efH
	DB	07H
	DB	0f0H
	DB	0fbH
	DB	01H
	DB	0fcH
	DB	07eH
	DB	00H
	DB	0bfH
	DB	01fH
	DB	0c0H
	DB	0efH
	DB	07H
	DB	0f0H
	DB	03H
	DB	07eH
	DB	07fH
	DB	02dH
	DB	00H
	DB	07eH
	DB	07eH
	DB	07eH
	DB	07eH
	DB	07eH
	DB	07eH
	DB	07eH
	DB	07eH
	DB	07eH
	DB	07eH
	DB	07eH
	DB	0e0H
	DB	07H
	DB	07fH
	DB	0d0H
	DB	02H
	DB	00H
	DB	0e0H
	DB	07H
	DB	07eH
	DB	0e0H
	DB	07H
	DB	07eH
	DB	0e0H
	DB	07H
	DB	07eH
	DB	0e0H
	DB	07H
	DB	07eH
	DB	0e0H
	DB	07H
	DB	07eH
	DB	0e0H
	DB	07H
	DB	07eH
	DB	0e0H
	DB	057H
	DB	03fH
	DB	0feH
	DB	0e2H
	DB	0bH
	DB	015H
	DB	00H
	DB	080H
	DB	01fH
	DB	00H
	DB	0e0H
	DB	07H
	DB	00H
	DB	0f8H
	DB	01H
	DB	00H
	DB	07eH
	DB	0d0H
	DB	08fH
	DB	01fH
	DB	0fdH
	DB	0e1H
	DB	0c7H
	DB	01fH
	DB	0f8H
	DB	0f9H
	DB	01H
	DB	0beH
	DB	02fH
	DB	080H
	DB	0ffH
	DB	03H
	DB	0e0H
	DB	0fbH
	DB	02H
	DB	0f8H
	DB	0f9H
	DB	01H
	DB	07eH
	DB	0fcH
	DB	081H
	DB	01fH
	DB	0fdH
	DB	0e1H
	DB	07H
	DB	0fdH
	DB	01H
	DB	015H
	DB	07eH
	DB	07eH
	DB	07eH
	DB	07eH
	DB	07eH
	DB	07eH
	DB	07eH
	DB	07eH
	DB	07eH
	DB	07eH
	DB	07eH
	DB	07eH
	DB	07eH
	DB	07eH
	DB	07eH
	DB	0feH
	DB	042H
	DB	0beH
	DB	081H
	DB	0ffH
	DB	0ffH
	DB	0f7H
	DB	0ffH
	DB	0e2H
	DB	06fH
	DB	0fdH
	DB	05fH
	DB	0fdH
	DB	0f9H
	DB	02H
	DB	0fdH
	DB	01H
	DB	0bdH
	DB	07eH
	DB	00H
	DB	03fH
	DB	040H
	DB	0afH
	DB	01fH
	DB	0c0H
	DB	0fH
	DB	0c0H
	DB	0ebH
	DB	07H
	DB	0f0H
	DB	03H
	DB	0f0H
	DB	0faH
	DB	01H
	DB	0fcH
	DB	00H
	DB	0bcH
	DB	07eH
	DB	00H
	DB	03fH
	DB	00H
	DB	0afH
	DB	01fH
	DB	0c0H
	DB	0fH
	DB	0c0H
	DB	0ebH
	DB	07H
	DB	0f0H
	DB	03H
	DB	0f0H
	DB	02H
	DB	07eH
	DB	0feH
	DB	082H
	DB	0ffH
	DB	0ffH
	DB	0e3H
	DB	05fH
	DB	0fdH
	DB	0faH
	DB	01H
	DB	0bdH
	DB	07eH
	DB	00H
	DB	0bfH
	DB	01fH
	DB	0c0H
	DB	0efH
	DB	07H
	DB	0f0H
	DB	0fbH
	DB	01H
	DB	0fcH
	DB	07eH
	DB	00H
	DB	0bfH
	DB	01fH
	DB	0c0H
	DB	0efH
	DB	07H
	DB	0f0H
	DB	03H
	DB	040H
	DB	0feH
	DB	06H
	DB	0e0H
	DB	0ffH
	DB	01fH
	DB	0f4H
	DB	09bH
	DB	07fH
	DB	0fcH
	DB	01H
	DB	0bdH
	DB	0bdH
	DB	00H
	DB	0fcH
	DB	0bdH
	DB	00H
	DB	0f8H
	DB	0bdH
	DB	00H
	DB	0fcH
	DB	0fcH
	DB	00H
	DB	0bdH
	DB	0f4H
	DB	09bH
	DB	07fH
	DB	0e0H
	DB	0ffH
	DB	01fH
	DB	040H
	DB	0feH
	DB	02H
	DB	07eH
	DB	0f9H
	DB	06H
	DB	0beH
	DB	0ffH
	DB	01fH
	DB	0feH
	DB	09bH
	DB	03fH
	DB	0beH
	DB	00H
	DB	0beH
	DB	07eH
	DB	00H
	DB	0bcH
	DB	07eH
	DB	00H
	DB	0fcH
	DB	07eH
	DB	00H
	DB	0bcH
	DB	0beH
	DB	00H
	DB	0beH
	DB	0feH
	DB	097H
	DB	03fH
	DB	0beH
	DB	0ffH
	DB	01fH
	DB	07eH
	DB	0f9H
	DB	06H
	DB	07eH
	DB	00H
	DB	00H
	DB	07eH
	DB	00H
	DB	00H
	DB	07eH
	DB	00H
	DB	00H
	DB	07eH
	DB	00H
	DB	00H
	DB	07eH
	DB	00H
	DB	00H
	DB	040H
	DB	0beH
	DB	0f9H
	DB	081H
	DB	0ffH
	DB	0ffH
	DB	087H
	DB	0bfH
	DB	0f9H
	DB	01fH
	DB	07fH
	DB	040H
	DB	07fH
	DB	0bdH
	DB	00H
	DB	0f8H
	DB	0f5H
	DB	02H
	DB	0e0H
	DB	0d7H
	DB	0bH
	DB	080H
	DB	01fH
	DB	07fH
	DB	040H
	DB	07fH
	DB	0f8H
	DB	09bH
	DB	0ffH
	DB	081H
	DB	0ffH
	DB	0efH
	DB	07H
	DB	0e4H
	DB	08bH
	DB	01fH
	DB	00H
	DB	00H
	DB	07eH
	DB	00H
	DB	00H
	DB	0f8H
	DB	01H
	DB	00H
	DB	0e0H
	DB	07H
	DB	00H
	DB	080H
	DB	01fH
	DB	00H
	DB	00H
	DB	07eH
	DB	07eH
	DB	0adH
	DB	0efH
	DB	0ebH
	DB	0ffH
	DB	0f9H
	DB	02H
	DB	07eH
	DB	080H
	DB	01fH
	DB	0e0H
	DB	07H
	DB	0f8H
	DB	01H
	DB	07eH
	DB	080H
	DB	01fH
	DB	0e0H
	DB	07H
	DB	00H
	DB	0e4H
	DB	02fH
	DB	0f4H
	DB	0ffH
	DB	0e3H
	DB	097H
	DB	0efH
	DB	0fH
	DB	064H
	DB	0feH
	DB	06H
	DB	0e0H
	DB	0ffH
	DB	02H
	DB	0e4H
	DB	0afH
	DB	06H
	DB	0f8H
	DB	07fH
	DB	0f5H
	DB	0f7H
	DB	0ffH
	DB	07H
	DB	0feH
	DB	06H
	DB	0f4H
	DB	02H
	DB	0bdH
	DB	040H
	DB	02fH
	DB	0f8H
	DB	0ffH
	DB	0feH
	DB	03fH
	DB	0bdH
	DB	045H
	DB	02fH
	DB	0d0H
	DB	0bH
	DB	0f4H
	DB	02H
	DB	0bdH
	DB	040H
	DB	02fH
	DB	0c0H
	DB	05fH
	DB	0e0H
	DB	03fH
	DB	0e0H
	DB	0fH
	DB	03eH
	DB	00H
	DB	0bfH
	DB	0fH
	DB	0c0H
	DB	0efH
	DB	03H
	DB	0f0H
	DB	0fbH
	DB	00H
	DB	0fcH
	DB	03eH
	DB	00H
	DB	0bfH
	DB	0fH
	DB	0c0H
	DB	0efH
	DB	03H
	DB	0f0H
	DB	0fbH
	DB	01H
	DB	0fdH
	DB	0fdH
	DB	0d5H
	DB	03fH
	DB	0feH
	DB	0ffH
	DB	0fH
	DB	0fdH
	DB	0f2H
	DB	03H
	DB	07eH
	DB	00H
	DB	0bdH
	DB	0bdH
	DB	00H
	DB	07eH
	DB	0fcH
	DB	00H
	DB	03fH
	DB	0f8H
	DB	041H
	DB	01fH
	DB	0f0H
	DB	082H
	DB	0fH
	DB	0e0H
	DB	0c3H
	DB	0bH
	DB	0d0H
	DB	0d7H
	DB	07H
	DB	0c0H
	DB	0ebH
	DB	03H
	DB	080H
	DB	0ffH
	DB	02H
	DB	040H
	DB	0ffH
	DB	01H
	DB	00H
	DB	0ffH
	DB	00H
	DB	03eH
	DB	0c0H
	DB	0fH
	DB	0f0H
	DB	0f6H
	DB	041H
	DB	07fH
	DB	0d0H
	DB	0c7H
	DB	0bH
	DB	0feH
	DB	082H
	DB	0fH
	DB	02eH
	DB	0f8H
	DB	0fH
	DB	02eH
	DB	0f8H
	DB	0f0H
	DB	03dH
	DB	07cH
	DB	0d0H
	DB	0d7H
	DB	0f3H
	DB	0f5H
	DB	00H
	DB	09fH
	DB	08bH
	DB	0dbH
	DB	02H
	DB	0b8H
	DB	01fH
	DB	0bdH
	DB	0bH
	DB	0d0H
	DB	03fH
	DB	0f4H
	DB	01fH
	DB	00H
	DB	0bfH
	DB	0c0H
	DB	03fH
	DB	00H
	DB	0f8H
	DB	02H
	DB	0beH
	DB	00H
	DB	0beH
	DB	080H
	DB	01fH
	DB	07eH
	DB	0f4H
	DB	042H
	DB	03fH
	DB	03fH
	DB	080H
	DB	0ffH
	DB	07H
	DB	080H
	DB	0bfH
	DB	00H
	DB	0d0H
	DB	0fH
	DB	00H
	DB	0f8H
	DB	0bH
	DB	080H
	DB	0ffH
	DB	07H
	DB	0f4H
	DB	0f6H
	DB	03H
	DB	03eH
	DB	0f8H
	DB	0d2H
	DB	07H
	DB	0f8H
	DB	01H
	DB	07eH
	DB	00H
	DB	0bdH
	DB	0bdH
	DB	00H
	DB	07eH
	DB	0fcH
	DB	01H
	DB	03fH
	DB	0f4H
	DB	042H
	DB	01fH
	DB	0f0H
	DB	083H
	DB	0fH
	DB	0e0H
	DB	0c7H
	DB	0bH
	DB	0d0H
	DB	0dbH
	DB	07H
	DB	080H
	DB	0ffH
	DB	02H
	DB	040H
	DB	0ffH
	DB	01H
	DB	00H
	DB	0ffH
	DB	00H
	DB	00H
	DB	07eH
	DB	00H
	DB	00H
	DB	03fH
	DB	00H
	DB	040H
	DB	02fH
	DB	00H
	DB	080H
	DB	01fH
	DB	00H
	DB	0d0H
	DB	0bH
	DB	00H
	DB	0e0H
	DB	07H
	DB	00H
	DB	0fdH
	DB	0ffH
	DB	0f6H
	DB	0ffH
	DB	04bH
	DB	095H
	DB	02fH
	DB	040H
	DB	02fH
	DB	00H
	DB	03fH
	DB	00H
	DB	07eH
	DB	00H
	DB	0beH
	DB	00H
	DB	0bdH
	DB	00H
	DB	0fcH
	DB	055H
	DB	0f5H
	DB	0ffH
	DB	0dfH
	DB	0ffH
	DB	03fH
	DB	080H
	DB	02fH
	DB	0f8H
	DB	0bH
	DB	07fH
	DB	0d0H
	DB	07H
	DB	0f4H
	DB	02H
	DB	0bcH
	DB	00H
	DB	02fH
	DB	0c0H
	DB	0bH
	DB	0f0H
	DB	02H
	DB	0beH
	DB	0e0H
	DB	0bH
	DB	0f8H
	DB	02H
	DB	0f8H
	DB	02H
	DB	0bcH
	DB	00H
	DB	02fH
	DB	0c0H
	DB	0bH
	DB	0f0H
	DB	02H
	DB	0bdH
	DB	040H
	DB	01fH
	DB	0c0H
	DB	05fH
	DB	0e0H
	DB	02fH
	DB	0e0H
	DB	0bH
	DB	0bdH
	DB	0bdH
	DB	0bdH
	DB	0bdH
	DB	0bdH
	DB	0bdH
	DB	0bdH
	DB	0bdH
	DB	0bdH
	DB	0bdH
	DB	0bdH
	DB	0bdH
	DB	0bdH
	DB	0bdH
	DB	0bdH
	DB	0bdH
	DB	0bdH
	DB	0bdH
	DB	0bdH
	DB	040H
	DB	0ffH
	DB	040H
	DB	07eH
	DB	040H
	DB	01fH
	DB	0d0H
	DB	07H
	DB	0f4H
	DB	01H
	DB	03eH
	DB	080H
	DB	0fH
	DB	0e0H
	DB	03H
	DB	0f4H
	DB	02H
	DB	0f8H
	DB	03H
	DB	0feH
	DB	0d0H
	DB	0bH
	DB	0f8H
	DB	00H
	DB	03eH
	DB	080H
	DB	0fH
	DB	0d0H
	DB	07H
	DB	0f4H
	DB	01H
	DB	07dH
	DB	090H
	DB	01fH
	DB	0fdH
	DB	043H
	DB	02fH
	DB	00H
	DB	040H
	DB	05H
	DB	014H
	DB	0fdH
	DB	09bH
	DB	0cfH
	DB	0ffH
	DB	0ffH
	DB	0f5H
	DB	090H
	DB	01fH
CONST	ENDS
PUBLIC	__JustMyCode_Default
; Function compile flags: /Odt
;	COMDAT __JustMyCode_Default
_TEXT	SEGMENT
__JustMyCode_Default PROC				; COMDAT
	push	ebp
	mov	ebp, esp
	pop	ebp
	ret	0
__JustMyCode_Default ENDP
_TEXT	ENDS
END
