; Listing generated by Microsoft (R) Optimizing Compiler Version 19.42.34436.0 

	TITLE	C:\DT\Solutions\Una\una-watch\Apps\Utility2\GUI\Software\App\TouchGFX-GUI\build\Debug\obj\image_Button_L1A.obj
	.686P
	.XMM
	include listing.inc
	.model	flat

INCLUDELIB MSVCRTD
INCLUDELIB OLDNAMES

PUBLIC	?image_button_l1a@@3QBEB			; image_button_l1a
msvcjmc	SEGMENT
__CA6578A3_Config@hpp DB 01H
__47F4D525_image_Button_L1A@cpp DB 01H
msvcjmc	ENDS
CONST	SEGMENT
?image_button_l1a@@3QBEB DB 00H				; image_button_l1a
	DB	0bH
	DB	04aH
	DB	0aH
	DB	00H
	DB	00H
	DB	00H
	DB	00H
	DB	00H
	DB	00H
	DB	00H
	DB	00H
	DB	00H
	DB	00H
	DB	00H
	DB	00H
	DB	00H
	DB	00H
	DB	00H
	DB	00H
	DB	00H
	DB	00H
	DB	00H
	DB	00H
	DB	00H
	DB	00H
	DB	00H
	DB	00H
	DB	00H
	DB	00H
	DB	00H
	DB	00H
	DB	00H
	DB	00H
	DB	00H
	DB	04bH
	DB	0cbH
	DB	0cbH
	DB	0cbH
	DB	08bH
	DB	0aH
	DB	00H
	DB	00H
	DB	00H
	DB	00H
	DB	00H
	DB	00H
	DB	00H
	DB	00H
	DB	00H
	DB	00H
	DB	00H
	DB	00H
	DB	00H
	DB	00H
	DB	00H
	DB	00H
	DB	00H
	DB	00H
	DB	00H
	DB	00H
	DB	00H
	DB	00H
	DB	00H
	DB	00H
	DB	00H
	DB	00H
	DB	00H
	DB	00H
	DB	00H
	DB	0cbH
	DB	0cbH
	DB	0cbH
	DB	0cbH
	DB	0cbH
	DB	0cbH
	DB	0aH
	DB	00H
	DB	00H
	DB	00H
	DB	00H
	DB	00H
	DB	00H
	DB	00H
	DB	00H
	DB	00H
	DB	00H
	DB	00H
	DB	00H
	DB	00H
	DB	00H
	DB	00H
	DB	00H
	DB	00H
	DB	00H
	DB	00H
	DB	00H
	DB	00H
	DB	00H
	DB	00H
	DB	00H
	DB	00H
	DB	00H
	DB	00H
	DB	00H
	DB	0cbH
	DB	0cbH
	DB	0cbH
	DB	0cbH
	DB	0cbH
	DB	0cbH
	DB	0cbH
	DB	04bH
	DB	00H
	DB	00H
	DB	00H
	DB	00H
	DB	00H
	DB	00H
	DB	00H
	DB	00H
	DB	00H
	DB	00H
	DB	00H
	DB	00H
	DB	00H
	DB	00H
	DB	00H
	DB	00H
	DB	00H
	DB	00H
	DB	00H
	DB	00H
	DB	00H
	DB	00H
	DB	00H
	DB	00H
	DB	00H
	DB	00H
	DB	00H
	DB	08aH
	DB	0cbH
	DB	0cbH
	DB	0cbH
	DB	0cbH
	DB	0cbH
	DB	0cbH
	DB	0cbH
	DB	08bH
	DB	0bH
	DB	00H
	DB	00H
	DB	00H
	DB	00H
	DB	00H
	DB	00H
	DB	00H
	DB	00H
	DB	00H
	DB	00H
	DB	00H
	DB	00H
	DB	00H
	DB	00H
	DB	00H
	DB	00H
	DB	00H
	DB	00H
	DB	00H
	DB	00H
	DB	00H
	DB	00H
	DB	00H
	DB	00H
	DB	00H
	DB	0bH
	DB	08bH
	DB	0cbH
	DB	0cbH
	DB	0cbH
	DB	0cbH
	DB	0cbH
	DB	0cbH
	DB	0cbH
	DB	0cbH
	DB	0bH
	DB	00H
	DB	00H
	DB	00H
	DB	00H
	DB	00H
	DB	00H
	DB	00H
	DB	00H
	DB	00H
	DB	00H
	DB	00H
	DB	00H
	DB	00H
	DB	00H
	DB	00H
	DB	00H
	DB	00H
	DB	00H
	DB	00H
	DB	00H
	DB	00H
	DB	00H
	DB	00H
	DB	00H
	DB	00H
	DB	00H
	DB	04bH
	DB	0cbH
	DB	0cbH
	DB	0cbH
	DB	0cbH
	DB	0cbH
	DB	0cbH
	DB	0cbH
	DB	0cbH
	DB	04aH
	DB	0bH
	DB	00H
	DB	00H
	DB	00H
	DB	00H
	DB	00H
	DB	00H
	DB	00H
	DB	00H
	DB	00H
	DB	00H
	DB	00H
	DB	00H
	DB	00H
	DB	00H
	DB	00H
	DB	00H
	DB	00H
	DB	00H
	DB	00H
	DB	00H
	DB	00H
	DB	00H
	DB	00H
	DB	00H
	DB	00H
	DB	0bH
	DB	0cbH
	DB	0cbH
	DB	0cbH
	DB	0cbH
	DB	0cbH
	DB	0cbH
	DB	0cbH
	DB	0cbH
	DB	0cbH
	DB	0bH
	DB	00H
	DB	00H
	DB	00H
	DB	00H
	DB	00H
	DB	00H
	DB	00H
	DB	00H
	DB	00H
	DB	00H
	DB	00H
	DB	00H
	DB	00H
	DB	00H
	DB	00H
	DB	00H
	DB	00H
	DB	00H
	DB	00H
	DB	00H
	DB	00H
	DB	00H
	DB	00H
	DB	00H
	DB	00H
	DB	0bH
	DB	08bH
	DB	0cbH
	DB	0cbH
	DB	0cbH
	DB	0cbH
	DB	0cbH
	DB	0cbH
	DB	0cbH
	DB	0caH
	DB	08bH
	DB	0bH
	DB	00H
	DB	00H
	DB	00H
	DB	00H
	DB	00H
	DB	00H
	DB	00H
	DB	00H
	DB	00H
	DB	00H
	DB	00H
	DB	00H
	DB	00H
	DB	00H
	DB	00H
	DB	00H
	DB	00H
	DB	00H
	DB	00H
	DB	00H
	DB	00H
	DB	00H
	DB	00H
	DB	00H
	DB	00H
	DB	04bH
	DB	0cbH
	DB	0cbH
	DB	0cbH
	DB	0cbH
	DB	0cbH
	DB	0cbH
	DB	0cbH
	DB	0cbH
	DB	0cbH
	DB	06H
	DB	00H
	DB	00H
	DB	00H
	DB	00H
	DB	00H
	DB	00H
	DB	00H
	DB	00H
	DB	00H
	DB	00H
	DB	00H
	DB	00H
	DB	00H
	DB	00H
	DB	00H
	DB	00H
	DB	00H
	DB	00H
	DB	00H
	DB	00H
	DB	00H
	DB	00H
	DB	00H
	DB	00H
	DB	00H
	DB	0aH
	DB	0caH
	DB	0cbH
	DB	0cbH
	DB	0cbH
	DB	0cbH
	DB	0cbH
	DB	0cbH
	DB	0cbH
	DB	0cbH
	DB	08bH
	DB	0bH
	DB	00H
	DB	00H
	DB	00H
	DB	00H
	DB	00H
	DB	00H
	DB	00H
	DB	00H
	DB	00H
	DB	00H
	DB	00H
	DB	00H
	DB	00H
	DB	00H
	DB	00H
	DB	00H
	DB	00H
	DB	00H
	DB	00H
	DB	00H
	DB	00H
	DB	00H
	DB	00H
	DB	00H
	DB	00H
	DB	04bH
	DB	0c6H
	DB	0cbH
	DB	0cbH
	DB	0cbH
	DB	0cbH
	DB	0cbH
	DB	0cbH
	DB	0cbH
	DB	0c6H
	DB	04aH
	DB	0bH
	DB	00H
	DB	00H
	DB	00H
	DB	00H
	DB	00H
	DB	00H
	DB	00H
	DB	00H
	DB	00H
	DB	00H
	DB	00H
	DB	00H
	DB	00H
	DB	00H
	DB	00H
	DB	00H
	DB	00H
	DB	00H
	DB	00H
	DB	00H
	DB	00H
	DB	00H
	DB	00H
	DB	00H
	DB	0bH
	DB	08bH
	DB	0cbH
	DB	0cbH
	DB	0cbH
	DB	0cbH
	DB	0cbH
	DB	0cbH
	DB	0cbH
	DB	0cbH
	DB	0cbH
	DB	04bH
	DB	0bH
	DB	00H
	DB	00H
	DB	00H
	DB	00H
	DB	00H
	DB	00H
	DB	00H
	DB	00H
	DB	00H
	DB	00H
	DB	00H
	DB	00H
	DB	00H
	DB	00H
	DB	00H
	DB	00H
	DB	00H
	DB	00H
	DB	00H
	DB	00H
	DB	00H
	DB	00H
	DB	00H
	DB	00H
	DB	04bH
	DB	0caH
	DB	0cbH
	DB	0cbH
	DB	0cbH
	DB	0cbH
	DB	0cbH
	DB	0cbH
	DB	0cbH
	DB	0cbH
	DB	0cbH
	DB	04bH
	DB	0bH
	DB	00H
	DB	00H
	DB	00H
	DB	00H
	DB	00H
	DB	00H
	DB	00H
	DB	00H
	DB	00H
	DB	00H
	DB	00H
	DB	00H
	DB	00H
	DB	00H
	DB	00H
	DB	00H
	DB	00H
	DB	00H
	DB	00H
	DB	00H
	DB	00H
	DB	00H
	DB	00H
	DB	0bH
	DB	08bH
	DB	0cbH
	DB	0cbH
	DB	0cbH
	DB	0cbH
	DB	0cbH
	DB	0cbH
	DB	0cbH
	DB	0cbH
	DB	0cbH
	DB	0caH
	DB	04bH
	DB	0bH
	DB	00H
	DB	00H
	DB	00H
	DB	00H
	DB	00H
	DB	00H
	DB	00H
	DB	00H
	DB	00H
	DB	00H
	DB	00H
	DB	00H
	DB	00H
	DB	00H
	DB	00H
	DB	00H
	DB	00H
	DB	00H
	DB	00H
	DB	00H
	DB	00H
	DB	00H
	DB	00H
	DB	0bH
	DB	08bH
	DB	0cbH
	DB	0cbH
	DB	0cbH
	DB	0cbH
	DB	0cbH
	DB	0cbH
	DB	0cbH
	DB	0cbH
	DB	0cbH
	DB	0cbH
	DB	04bH
	DB	0bH
	DB	00H
	DB	00H
	DB	00H
	DB	00H
	DB	00H
	DB	00H
	DB	00H
	DB	00H
	DB	00H
	DB	00H
	DB	00H
	DB	00H
	DB	00H
	DB	00H
	DB	00H
	DB	00H
	DB	00H
	DB	00H
	DB	00H
	DB	00H
	DB	00H
	DB	00H
	DB	00H
	DB	0bH
	DB	0cbH
	DB	0cbH
	DB	0cbH
	DB	0cbH
	DB	0cbH
	DB	0cbH
	DB	0cbH
	DB	0cbH
	DB	0cbH
	DB	0cbH
	DB	0cbH
	DB	08bH
	DB	0bH
	DB	00H
	DB	00H
	DB	00H
	DB	00H
	DB	00H
	DB	00H
	DB	00H
	DB	00H
	DB	00H
	DB	00H
	DB	00H
	DB	00H
	DB	00H
	DB	00H
	DB	00H
	DB	00H
	DB	00H
	DB	00H
	DB	00H
	DB	00H
	DB	00H
	DB	00H
	DB	00H
	DB	04bH
	DB	0cbH
	DB	0cbH
	DB	0cbH
	DB	0cbH
	DB	0cbH
	DB	0cbH
	DB	0cbH
	DB	0cbH
	DB	0cbH
	DB	0cbH
	DB	0cbH
	DB	08bH
	DB	04bH
	DB	00H
	DB	00H
	DB	00H
	DB	00H
	DB	00H
	DB	00H
	DB	00H
	DB	00H
	DB	00H
	DB	00H
	DB	00H
	DB	00H
	DB	00H
	DB	00H
	DB	00H
	DB	00H
	DB	00H
	DB	00H
	DB	00H
	DB	00H
	DB	00H
	DB	00H
	DB	0bH
	DB	04bH
	DB	0caH
	DB	0cbH
	DB	0cbH
	DB	0cbH
	DB	0cbH
	DB	0cbH
	DB	0cbH
	DB	0cbH
	DB	0cbH
	DB	0cbH
	DB	0cbH
	DB	0cbH
	DB	0aH
	DB	00H
	DB	00H
	DB	00H
	DB	00H
	DB	00H
	DB	00H
	DB	00H
	DB	00H
	DB	00H
	DB	00H
	DB	00H
	DB	00H
	DB	00H
	DB	00H
	DB	00H
	DB	00H
	DB	00H
	DB	00H
	DB	00H
	DB	00H
	DB	00H
	DB	00H
	DB	0bH
	DB	04bH
	DB	0cbH
	DB	0cbH
	DB	0cbH
	DB	0cbH
	DB	0cbH
	DB	0cbH
	DB	0cbH
	DB	0cbH
	DB	0cbH
	DB	0cbH
	DB	08aH
	DB	00H
	DB	00H
	DB	00H
	DB	00H
	DB	00H
	DB	00H
	DB	00H
	DB	00H
	DB	00H
	DB	00H
	DB	00H
	DB	00H
	DB	00H
	DB	00H
	DB	00H
	DB	00H
	DB	00H
	DB	00H
	DB	00H
	DB	00H
	DB	00H
	DB	00H
	DB	00H
	DB	00H
	DB	00H
	DB	04bH
	DB	08bH
	DB	0cbH
	DB	0cbH
	DB	0cbH
	DB	0cbH
	DB	0cbH
	DB	0cbH
	DB	0cbH
	DB	0caH
	DB	00H
	DB	00H
	DB	00H
	DB	00H
	DB	00H
	DB	00H
	DB	00H
	DB	00H
	DB	00H
	DB	00H
	DB	00H
	DB	00H
	DB	00H
	DB	00H
	DB	00H
	DB	00H
	DB	00H
	DB	00H
	DB	00H
	DB	00H
	DB	00H
	DB	00H
	DB	00H
	DB	00H
	DB	00H
	DB	00H
	DB	00H
	DB	0aH
	DB	08bH
	DB	0cbH
	DB	0cbH
	DB	0cbH
	DB	0cbH
	DB	0cbH
	DB	08bH
	DB	00H
	DB	00H
	DB	00H
	DB	00H
	DB	00H
	DB	00H
	DB	00H
	DB	00H
	DB	00H
	DB	00H
	DB	00H
	DB	00H
	DB	00H
	DB	00H
	DB	00H
	DB	00H
	DB	00H
	DB	00H
	DB	00H
	DB	00H
	DB	00H
	DB	00H
	DB	00H
	DB	00H
	DB	00H
	DB	00H
	DB	00H
	DB	00H
	DB	00H
	DB	0bH
	DB	04aH
	DB	0caH
	DB	0cbH
	DB	08bH
	DB	0bH
CONST	ENDS
END
