; Listing generated by Microsoft (R) Optimizing Compiler Version 19.42.34436.0 

	TITLE	C:\DT\Solutions\Una\una-watch\Apps\Utility2\GUI\Software\App\TouchGFX-GUI\build\Debug\obj\image_Button_L1R.obj
	.686P
	.XMM
	include listing.inc
	.model	flat

INCLUDELIB MSVCRTD
INCLUDELIB OLDNAMES

PUBLIC	?image_button_l1r@@3QBEB			; image_button_l1r
msvcjmc	SEGMENT
__CA6578A3_Config@hpp DB 01H
__60B43877_image_Button_L1R@cpp DB 01H
msvcjmc	ENDS
CONST	SEGMENT
?image_button_l1r@@3QBEB DB 00H				; image_button_l1r
	DB	03H
	DB	03H
	DB	03H
	DB	00H
	DB	00H
	DB	00H
	DB	00H
	DB	00H
	DB	00H
	DB	00H
	DB	00H
	DB	00H
	DB	00H
	DB	00H
	DB	00H
	DB	00H
	DB	00H
	DB	00H
	DB	00H
	DB	00H
	DB	00H
	DB	00H
	DB	00H
	DB	00H
	DB	00H
	DB	00H
	DB	00H
	DB	00H
	DB	00H
	DB	00H
	DB	00H
	DB	00H
	DB	00H
	DB	00H
	DB	043H
	DB	0c3H
	DB	0c3H
	DB	0c3H
	DB	043H
	DB	00H
	DB	00H
	DB	00H
	DB	00H
	DB	00H
	DB	00H
	DB	00H
	DB	00H
	DB	00H
	DB	00H
	DB	00H
	DB	00H
	DB	00H
	DB	00H
	DB	00H
	DB	00H
	DB	00H
	DB	00H
	DB	00H
	DB	00H
	DB	00H
	DB	00H
	DB	00H
	DB	00H
	DB	00H
	DB	00H
	DB	00H
	DB	00H
	DB	00H
	DB	00H
	DB	0c3H
	DB	0c3H
	DB	0c3H
	DB	0c3H
	DB	0c3H
	DB	083H
	DB	03H
	DB	00H
	DB	00H
	DB	00H
	DB	00H
	DB	00H
	DB	00H
	DB	00H
	DB	00H
	DB	00H
	DB	00H
	DB	00H
	DB	00H
	DB	00H
	DB	00H
	DB	00H
	DB	00H
	DB	00H
	DB	00H
	DB	00H
	DB	00H
	DB	00H
	DB	00H
	DB	00H
	DB	00H
	DB	00H
	DB	00H
	DB	00H
	DB	00H
	DB	0c2H
	DB	0c3H
	DB	0c3H
	DB	0c3H
	DB	0c3H
	DB	0c3H
	DB	0c2H
	DB	02H
	DB	00H
	DB	00H
	DB	00H
	DB	00H
	DB	00H
	DB	00H
	DB	00H
	DB	00H
	DB	00H
	DB	00H
	DB	00H
	DB	00H
	DB	00H
	DB	00H
	DB	00H
	DB	00H
	DB	00H
	DB	00H
	DB	00H
	DB	00H
	DB	00H
	DB	00H
	DB	00H
	DB	00H
	DB	00H
	DB	00H
	DB	00H
	DB	083H
	DB	0c3H
	DB	0c3H
	DB	0c3H
	DB	0c3H
	DB	0c3H
	DB	0c3H
	DB	0c3H
	DB	043H
	DB	00H
	DB	00H
	DB	00H
	DB	00H
	DB	00H
	DB	00H
	DB	00H
	DB	00H
	DB	00H
	DB	00H
	DB	00H
	DB	00H
	DB	00H
	DB	00H
	DB	00H
	DB	00H
	DB	00H
	DB	00H
	DB	00H
	DB	00H
	DB	00H
	DB	00H
	DB	00H
	DB	00H
	DB	00H
	DB	00H
	DB	00H
	DB	043H
	DB	0c3H
	DB	0c3H
	DB	0c3H
	DB	0c3H
	DB	0c3H
	DB	0c3H
	DB	0c3H
	DB	082H
	DB	02H
	DB	00H
	DB	00H
	DB	00H
	DB	00H
	DB	00H
	DB	00H
	DB	00H
	DB	00H
	DB	00H
	DB	00H
	DB	00H
	DB	00H
	DB	00H
	DB	00H
	DB	00H
	DB	00H
	DB	00H
	DB	00H
	DB	00H
	DB	00H
	DB	00H
	DB	00H
	DB	00H
	DB	00H
	DB	00H
	DB	00H
	DB	02H
	DB	0c3H
	DB	0c3H
	DB	0c3H
	DB	0c3H
	DB	0c3H
	DB	0c3H
	DB	0c3H
	DB	0c3H
	DB	03H
	DB	00H
	DB	00H
	DB	00H
	DB	00H
	DB	00H
	DB	00H
	DB	00H
	DB	00H
	DB	00H
	DB	00H
	DB	00H
	DB	00H
	DB	00H
	DB	00H
	DB	00H
	DB	00H
	DB	00H
	DB	00H
	DB	00H
	DB	00H
	DB	00H
	DB	00H
	DB	00H
	DB	00H
	DB	00H
	DB	00H
	DB	03H
	DB	083H
	DB	0c3H
	DB	0c3H
	DB	0c3H
	DB	0c3H
	DB	0c3H
	DB	0c3H
	DB	0c3H
	DB	083H
	DB	02H
	DB	00H
	DB	00H
	DB	00H
	DB	00H
	DB	00H
	DB	00H
	DB	00H
	DB	00H
	DB	00H
	DB	00H
	DB	00H
	DB	00H
	DB	00H
	DB	00H
	DB	00H
	DB	00H
	DB	00H
	DB	00H
	DB	00H
	DB	00H
	DB	00H
	DB	00H
	DB	00H
	DB	00H
	DB	00H
	DB	03H
	DB	043H
	DB	0c3H
	DB	0c3H
	DB	0c3H
	DB	0c3H
	DB	0c3H
	DB	0c3H
	DB	0c3H
	DB	0c3H
	DB	042H
	DB	00H
	DB	00H
	DB	00H
	DB	00H
	DB	00H
	DB	00H
	DB	00H
	DB	00H
	DB	00H
	DB	00H
	DB	00H
	DB	00H
	DB	00H
	DB	00H
	DB	00H
	DB	00H
	DB	00H
	DB	00H
	DB	00H
	DB	00H
	DB	00H
	DB	00H
	DB	00H
	DB	00H
	DB	00H
	DB	00H
	DB	042H
	DB	0c2H
	DB	0c3H
	DB	0c3H
	DB	0c3H
	DB	0c3H
	DB	0c3H
	DB	0c3H
	DB	0c3H
	DB	083H
	DB	02H
	DB	00H
	DB	00H
	DB	00H
	DB	00H
	DB	00H
	DB	00H
	DB	00H
	DB	00H
	DB	00H
	DB	00H
	DB	00H
	DB	00H
	DB	00H
	DB	00H
	DB	00H
	DB	00H
	DB	00H
	DB	00H
	DB	00H
	DB	00H
	DB	00H
	DB	00H
	DB	00H
	DB	00H
	DB	00H
	DB	03H
	DB	083H
	DB	0c3H
	DB	0c3H
	DB	0c3H
	DB	0c3H
	DB	0c3H
	DB	0c3H
	DB	0c3H
	DB	0c3H
	DB	043H
	DB	03H
	DB	00H
	DB	00H
	DB	00H
	DB	00H
	DB	00H
	DB	00H
	DB	00H
	DB	00H
	DB	00H
	DB	00H
	DB	00H
	DB	00H
	DB	00H
	DB	00H
	DB	00H
	DB	00H
	DB	00H
	DB	00H
	DB	00H
	DB	00H
	DB	00H
	DB	00H
	DB	00H
	DB	00H
	DB	00H
	DB	043H
	DB	0c2H
	DB	0c3H
	DB	0c3H
	DB	0c3H
	DB	0c3H
	DB	0c3H
	DB	0c3H
	DB	0c3H
	DB	0c3H
	DB	043H
	DB	00H
	DB	00H
	DB	00H
	DB	00H
	DB	00H
	DB	00H
	DB	00H
	DB	00H
	DB	00H
	DB	00H
	DB	00H
	DB	00H
	DB	00H
	DB	00H
	DB	00H
	DB	00H
	DB	00H
	DB	00H
	DB	00H
	DB	00H
	DB	00H
	DB	00H
	DB	00H
	DB	00H
	DB	00H
	DB	03H
	DB	083H
	DB	0c3H
	DB	0c3H
	DB	0c3H
	DB	0c3H
	DB	0c3H
	DB	0c3H
	DB	0c3H
	DB	0c3H
	DB	0c3H
	DB	043H
	DB	00H
	DB	00H
	DB	00H
	DB	00H
	DB	00H
	DB	00H
	DB	00H
	DB	00H
	DB	00H
	DB	00H
	DB	00H
	DB	00H
	DB	00H
	DB	00H
	DB	00H
	DB	00H
	DB	00H
	DB	00H
	DB	00H
	DB	00H
	DB	00H
	DB	00H
	DB	00H
	DB	00H
	DB	00H
	DB	03H
	DB	0c3H
	DB	0c3H
	DB	0c3H
	DB	0c3H
	DB	0c3H
	DB	0c3H
	DB	0c3H
	DB	0c3H
	DB	0c3H
	DB	0c3H
	DB	03H
	DB	00H
	DB	00H
	DB	00H
	DB	00H
	DB	00H
	DB	00H
	DB	00H
	DB	00H
	DB	00H
	DB	00H
	DB	00H
	DB	00H
	DB	00H
	DB	00H
	DB	00H
	DB	00H
	DB	00H
	DB	00H
	DB	00H
	DB	00H
	DB	00H
	DB	00H
	DB	00H
	DB	00H
	DB	02H
	DB	043H
	DB	0c2H
	DB	0c3H
	DB	0c3H
	DB	0c3H
	DB	0c3H
	DB	0c3H
	DB	0c3H
	DB	0c3H
	DB	0c3H
	DB	083H
	DB	03H
	DB	00H
	DB	00H
	DB	00H
	DB	00H
	DB	00H
	DB	00H
	DB	00H
	DB	00H
	DB	00H
	DB	00H
	DB	00H
	DB	00H
	DB	00H
	DB	00H
	DB	00H
	DB	00H
	DB	00H
	DB	00H
	DB	00H
	DB	00H
	DB	00H
	DB	00H
	DB	00H
	DB	00H
	DB	02H
	DB	083H
	DB	0c3H
	DB	0c3H
	DB	0c3H
	DB	0c3H
	DB	0c3H
	DB	0c3H
	DB	0c3H
	DB	0c3H
	DB	0c3H
	DB	083H
	DB	043H
	DB	03H
	DB	00H
	DB	00H
	DB	00H
	DB	00H
	DB	00H
	DB	00H
	DB	00H
	DB	00H
	DB	00H
	DB	00H
	DB	00H
	DB	00H
	DB	00H
	DB	00H
	DB	00H
	DB	00H
	DB	00H
	DB	00H
	DB	00H
	DB	00H
	DB	00H
	DB	00H
	DB	00H
	DB	03H
	DB	083H
	DB	0c3H
	DB	0c3H
	DB	0c3H
	DB	0c3H
	DB	0c3H
	DB	0c3H
	DB	0c3H
	DB	0c3H
	DB	0c3H
	DB	0c3H
	DB	042H
	DB	03H
	DB	00H
	DB	00H
	DB	00H
	DB	00H
	DB	00H
	DB	00H
	DB	00H
	DB	00H
	DB	00H
	DB	00H
	DB	00H
	DB	00H
	DB	00H
	DB	00H
	DB	00H
	DB	00H
	DB	00H
	DB	00H
	DB	00H
	DB	00H
	DB	00H
	DB	00H
	DB	00H
	DB	02H
	DB	0c3H
	DB	0c3H
	DB	0c3H
	DB	0c3H
	DB	0c3H
	DB	0c3H
	DB	0c3H
	DB	0c3H
	DB	0c3H
	DB	0c3H
	DB	0c3H
	DB	082H
	DB	03H
	DB	00H
	DB	00H
	DB	00H
	DB	00H
	DB	00H
	DB	00H
	DB	00H
	DB	00H
	DB	00H
	DB	00H
	DB	00H
	DB	00H
	DB	00H
	DB	00H
	DB	00H
	DB	00H
	DB	00H
	DB	00H
	DB	00H
	DB	00H
	DB	00H
	DB	00H
	DB	00H
	DB	043H
	DB	0c3H
	DB	0c3H
	DB	0c3H
	DB	0c3H
	DB	0c3H
	DB	0c3H
	DB	0c3H
	DB	0c3H
	DB	0c3H
	DB	0c3H
	DB	0c3H
	DB	083H
	DB	03H
	DB	00H
	DB	00H
	DB	00H
	DB	00H
	DB	00H
	DB	00H
	DB	00H
	DB	00H
	DB	00H
	DB	00H
	DB	00H
	DB	00H
	DB	00H
	DB	00H
	DB	00H
	DB	00H
	DB	00H
	DB	00H
	DB	00H
	DB	00H
	DB	00H
	DB	00H
	DB	00H
	DB	043H
	DB	083H
	DB	0c3H
	DB	0c3H
	DB	0c3H
	DB	0c3H
	DB	0c3H
	DB	0c3H
	DB	0c3H
	DB	0c3H
	DB	0c3H
	DB	083H
	DB	00H
	DB	00H
	DB	00H
	DB	00H
	DB	00H
	DB	00H
	DB	00H
	DB	00H
	DB	00H
	DB	00H
	DB	00H
	DB	00H
	DB	00H
	DB	00H
	DB	00H
	DB	00H
	DB	00H
	DB	00H
	DB	00H
	DB	00H
	DB	00H
	DB	00H
	DB	00H
	DB	00H
	DB	00H
	DB	03H
	DB	083H
	DB	0c3H
	DB	0c3H
	DB	0c3H
	DB	0c3H
	DB	0c3H
	DB	0c3H
	DB	0c3H
	DB	0c2H
	DB	00H
	DB	00H
	DB	00H
	DB	00H
	DB	00H
	DB	00H
	DB	00H
	DB	00H
	DB	00H
	DB	00H
	DB	00H
	DB	00H
	DB	00H
	DB	00H
	DB	00H
	DB	00H
	DB	00H
	DB	00H
	DB	00H
	DB	00H
	DB	00H
	DB	00H
	DB	00H
	DB	00H
	DB	00H
	DB	00H
	DB	00H
	DB	03H
	DB	083H
	DB	0c3H
	DB	0c3H
	DB	0c3H
	DB	0c3H
	DB	0c3H
	DB	083H
	DB	00H
	DB	00H
	DB	00H
	DB	00H
	DB	00H
	DB	00H
	DB	00H
	DB	00H
	DB	00H
	DB	00H
	DB	00H
	DB	00H
	DB	00H
	DB	00H
	DB	00H
	DB	00H
	DB	00H
	DB	00H
	DB	00H
	DB	00H
	DB	00H
	DB	00H
	DB	00H
	DB	00H
	DB	00H
	DB	00H
	DB	00H
	DB	00H
	DB	00H
	DB	03H
	DB	042H
	DB	0c3H
	DB	0c2H
	DB	0c3H
	DB	03H
CONST	ENDS
END
