; Listing generated by Microsoft (R) Optimizing Compiler Version 19.42.34436.0 

	TITLE	C:\DT\Solutions\Una\una-watch\Apps\Utility2\GUI\Software\App\TouchGFX-GUI\build\Debug\obj\image_BatteryBig_gray3.obj
	.686P
	.XMM
	include listing.inc
	.model	flat

INCLUDELIB MSVCRTD
INCLUDELIB OLDNAMES

PUBLIC	?image_batterybig_gray3@@3QBEB			; image_batterybig_gray3
msvcjmc	SEGMENT
__CA6578A3_Config@hpp DB 01H
__86B48682_image_BatteryBig_gray3@cpp DB 01H
msvcjmc	ENDS
CONST	SEGMENT
?image_batterybig_gray3@@3QBEB DB 00H			; image_batterybig_gray3
	DB	00H
	DB	00H
	DB	00H
	DB	00H
	DB	00H
	DB	040H
	DB	0c0H
	DB	0d5H
	DB	0d5H
	DB	0d5H
	DB	0d5H
	DB	0d5H
	DB	0d5H
	DB	0d5H
	DB	0d5H
	DB	0d5H
	DB	0d5H
	DB	0d5H
	DB	0d5H
	DB	0d5H
	DB	040H
	DB	00H
	DB	00H
	DB	00H
	DB	00H
	DB	00H
	DB	00H
	DB	00H
	DB	00H
	DB	00H
	DB	00H
	DB	00H
	DB	00H
	DB	0c0H
	DB	0d5H
	DB	0d5H
	DB	0d5H
	DB	0d5H
	DB	0d5H
	DB	0d5H
	DB	0d5H
	DB	0d5H
	DB	0d5H
	DB	0d5H
	DB	0d5H
	DB	0d5H
	DB	0d5H
	DB	0d5H
	DB	0c0H
	DB	00H
	DB	00H
	DB	00H
	DB	00H
	DB	00H
	DB	00H
	DB	00H
	DB	00H
	DB	080H
	DB	0c0H
	DB	0d5H
	DB	0d5H
	DB	0d5H
	DB	0d5H
	DB	0d5H
	DB	0d5H
	DB	0d5H
	DB	0d5H
	DB	0d5H
	DB	0d5H
	DB	0d5H
	DB	0d5H
	DB	0d5H
	DB	0d5H
	DB	0d5H
	DB	0d5H
	DB	0d5H
	DB	0d5H
	DB	0d5H
	DB	0d5H
	DB	0d5H
	DB	080H
	DB	015H
	DB	00H
	DB	00H
	DB	0c0H
	DB	0d5H
	DB	0d5H
	DB	0d5H
	DB	0d5H
	DB	0d5H
	DB	0d5H
	DB	0d5H
	DB	0d5H
	DB	0d5H
	DB	0d5H
	DB	0d5H
	DB	0d5H
	DB	0d5H
	DB	0d5H
	DB	0d5H
	DB	0d5H
	DB	0d5H
	DB	0d5H
	DB	0d5H
	DB	0d5H
	DB	0d5H
	DB	0d5H
	DB	0d5H
	DB	0d5H
	DB	0d5H
	DB	00H
	DB	080H
	DB	0d5H
	DB	0d5H
	DB	0d5H
	DB	0d5H
	DB	0d5H
	DB	0d5H
	DB	0d5H
	DB	0d5H
	DB	0d5H
	DB	0d5H
	DB	0d5H
	DB	0d5H
	DB	0d5H
	DB	0d5H
	DB	0d5H
	DB	0d5H
	DB	0d5H
	DB	0d5H
	DB	0d5H
	DB	0d5H
	DB	0d5H
	DB	0d5H
	DB	0d5H
	DB	0d5H
	DB	0d5H
	DB	0d5H
	DB	095H
	DB	0d5H
	DB	0d5H
	DB	0d5H
	DB	0d5H
	DB	0d5H
	DB	0d5H
	DB	0d5H
	DB	0d5H
	DB	0d5H
	DB	0d5H
	DB	0d5H
	DB	0d5H
	DB	0d5H
	DB	0d5H
	DB	0d5H
	DB	0d5H
	DB	0d5H
	DB	0d5H
	DB	0d5H
	DB	0d5H
	DB	0d5H
	DB	0d5H
	DB	0d5H
	DB	0d5H
	DB	0d5H
	DB	0d5H
	DB	0d5H
	DB	0d5H
	DB	0d5H
	DB	0d5H
	DB	0d5H
	DB	0d5H
	DB	0d5H
	DB	0d5H
	DB	0d5H
	DB	0d5H
	DB	0d5H
	DB	0d5H
	DB	0d5H
	DB	0d5H
	DB	0d5H
	DB	0d5H
	DB	0d5H
	DB	0d5H
	DB	0d5H
	DB	0d5H
	DB	0d5H
	DB	0d5H
	DB	0d5H
	DB	0d5H
	DB	0d5H
	DB	0d5H
	DB	0d5H
	DB	0d5H
	DB	0d5H
	DB	0d5H
	DB	0d5H
	DB	0d5H
	DB	0d5H
	DB	0d5H
	DB	0d5H
	DB	0d5H
	DB	0d5H
	DB	0d5H
	DB	0d5H
	DB	0d5H
	DB	0d5H
	DB	0d5H
	DB	0d5H
	DB	0d5H
	DB	0d5H
	DB	0d5H
	DB	0d5H
	DB	0d5H
	DB	0d5H
	DB	0d5H
	DB	0d5H
	DB	0d5H
	DB	0d5H
	DB	0d5H
	DB	0d5H
	DB	0d5H
	DB	0d5H
	DB	0d5H
	DB	0d5H
	DB	0d5H
	DB	0d5H
	DB	0d5H
	DB	0d5H
	DB	0d5H
	DB	0d5H
	DB	0d5H
	DB	0d5H
	DB	0d5H
	DB	0d5H
	DB	0d5H
	DB	0d5H
	DB	0d5H
	DB	0d5H
	DB	0d5H
	DB	0d5H
	DB	0d5H
	DB	0d5H
	DB	0d5H
	DB	0d5H
	DB	0d5H
	DB	0d5H
	DB	0d5H
	DB	0d5H
	DB	0d5H
	DB	0d5H
	DB	0d5H
	DB	0d5H
	DB	0d5H
	DB	0d5H
	DB	0d5H
	DB	0d5H
	DB	0d5H
	DB	0d5H
	DB	0d5H
	DB	0d5H
	DB	0d5H
	DB	0d5H
	DB	0d5H
	DB	0d5H
	DB	0d5H
	DB	0d5H
	DB	0d5H
	DB	0d5H
	DB	0d5H
	DB	0d5H
	DB	0d5H
	DB	0d5H
	DB	0d5H
	DB	0d5H
	DB	0d5H
	DB	0d5H
	DB	0d5H
	DB	0d5H
	DB	0d5H
	DB	0d5H
	DB	0d5H
	DB	0d5H
	DB	0d5H
	DB	0d5H
	DB	0d5H
	DB	0d5H
	DB	0d5H
	DB	0d5H
	DB	0d5H
	DB	0d5H
	DB	0d5H
	DB	0d5H
	DB	0d5H
	DB	0d5H
	DB	0d5H
	DB	0d5H
	DB	0d5H
	DB	0d5H
	DB	0d5H
	DB	0d5H
	DB	0d5H
	DB	0d5H
	DB	0d5H
	DB	0d5H
	DB	0d5H
	DB	0d5H
	DB	0d5H
	DB	0d5H
	DB	0d5H
	DB	0d5H
	DB	0d5H
	DB	0d5H
	DB	0d5H
	DB	0d5H
	DB	0d5H
	DB	0d5H
	DB	0d5H
	DB	0d5H
	DB	0d5H
	DB	0d5H
	DB	0d5H
	DB	0d5H
	DB	0d5H
	DB	0d5H
	DB	0d5H
	DB	0d5H
	DB	0d5H
	DB	0d5H
	DB	0d5H
	DB	0d5H
	DB	0d5H
	DB	0d5H
	DB	0d5H
	DB	0d5H
	DB	0d5H
	DB	0d5H
	DB	0d5H
	DB	0d5H
	DB	0d5H
	DB	0d5H
	DB	0d5H
	DB	0d5H
	DB	0d5H
	DB	0d5H
	DB	0d5H
	DB	0d5H
	DB	0d5H
	DB	0d5H
	DB	0d5H
	DB	0d5H
	DB	0d5H
	DB	0d5H
	DB	0d5H
	DB	0d5H
	DB	0d5H
	DB	0d5H
	DB	0d5H
	DB	0d5H
	DB	0d5H
	DB	0d5H
	DB	0d5H
	DB	0d5H
	DB	0d5H
	DB	0d5H
	DB	0d5H
	DB	0d5H
	DB	0d5H
	DB	0d5H
	DB	0d5H
	DB	0d5H
	DB	0d5H
	DB	0d5H
	DB	0d5H
	DB	0d5H
	DB	0d5H
	DB	0d5H
	DB	0d5H
	DB	0d5H
	DB	0d5H
	DB	0d5H
	DB	0d5H
	DB	0d5H
	DB	0d5H
	DB	0d5H
	DB	0d5H
	DB	0d5H
	DB	0d5H
	DB	0d5H
	DB	0d5H
	DB	0d5H
	DB	0d5H
	DB	0d5H
	DB	0d5H
	DB	0d5H
	DB	0d5H
	DB	0d5H
	DB	0d5H
	DB	0d5H
	DB	0d5H
	DB	0d5H
	DB	0d5H
	DB	0d5H
	DB	0d5H
	DB	0d5H
	DB	0d5H
	DB	0d5H
	DB	0d5H
	DB	0d5H
	DB	0d5H
	DB	0d5H
	DB	0d5H
	DB	0d5H
	DB	0d5H
	DB	0d5H
	DB	0d5H
	DB	0d5H
	DB	0d5H
	DB	0d5H
	DB	0d5H
	DB	0d5H
	DB	0d5H
	DB	0d5H
	DB	0d5H
	DB	0d5H
	DB	0d5H
	DB	0d5H
	DB	0d5H
	DB	0d5H
	DB	0d5H
	DB	0d5H
	DB	0d5H
	DB	0d5H
	DB	0d5H
	DB	0d5H
	DB	0d5H
	DB	0d5H
	DB	0d5H
	DB	0d5H
	DB	0d5H
	DB	0d5H
	DB	0d5H
	DB	0d5H
	DB	0d5H
	DB	0d5H
	DB	0d5H
	DB	0d5H
	DB	0d5H
	DB	0d5H
	DB	0d5H
	DB	0d5H
	DB	0d5H
	DB	0d5H
	DB	0d5H
	DB	0d5H
	DB	0d5H
	DB	0d5H
	DB	0d5H
	DB	0d5H
	DB	0d5H
	DB	0d5H
	DB	0d5H
	DB	0d5H
	DB	0d5H
	DB	0d5H
	DB	0d5H
	DB	0d5H
	DB	0d5H
	DB	0d5H
	DB	0d5H
	DB	0d5H
	DB	0d5H
	DB	0d5H
	DB	0d5H
	DB	0d5H
	DB	0d5H
	DB	0d5H
	DB	0d5H
	DB	0d5H
	DB	0d5H
	DB	0d5H
	DB	0d5H
	DB	0d5H
	DB	0d5H
	DB	0d5H
	DB	0d5H
	DB	0d5H
	DB	0d5H
	DB	0d5H
	DB	0d5H
	DB	0d5H
	DB	0d5H
	DB	0d5H
	DB	0d5H
	DB	0d5H
	DB	0d5H
	DB	0d5H
	DB	0d5H
	DB	0d5H
	DB	0d5H
	DB	0d5H
	DB	0d5H
	DB	0d5H
	DB	0d5H
	DB	0d5H
	DB	0d5H
	DB	0d5H
	DB	0d5H
	DB	0d5H
	DB	0d5H
	DB	0d5H
	DB	0d5H
	DB	0d5H
	DB	0d5H
	DB	0d5H
	DB	0d5H
	DB	0d5H
	DB	0d5H
	DB	0d5H
	DB	0d5H
	DB	0d5H
	DB	0d5H
	DB	0d5H
	DB	0d5H
	DB	0d5H
	DB	0d5H
	DB	0d5H
	DB	0d5H
	DB	0d5H
	DB	0d5H
	DB	0d5H
	DB	0d5H
	DB	0d5H
	DB	0d5H
	DB	0d5H
	DB	0d5H
	DB	0d5H
	DB	0d5H
	DB	0d5H
	DB	0d5H
	DB	0d5H
	DB	0d5H
	DB	0d5H
	DB	0d5H
	DB	0d5H
	DB	0d5H
	DB	0d5H
	DB	0d5H
	DB	0d5H
	DB	0d5H
	DB	0d5H
	DB	0d5H
	DB	0d5H
	DB	0d5H
	DB	0d5H
	DB	0d5H
	DB	0d5H
	DB	0d5H
	DB	0d5H
	DB	0d5H
	DB	0d5H
	DB	0d5H
	DB	0d5H
	DB	0d5H
	DB	0d5H
	DB	0d5H
	DB	0d5H
	DB	0d5H
	DB	0d5H
	DB	0d5H
	DB	0d5H
	DB	0d5H
	DB	0d5H
	DB	0d5H
	DB	0d5H
	DB	0d5H
	DB	0d5H
	DB	0d5H
	DB	0d5H
	DB	0d5H
	DB	0d5H
	DB	0d5H
	DB	0d5H
	DB	0d5H
	DB	0d5H
	DB	0d5H
	DB	0d5H
	DB	0d5H
	DB	055H
	DB	0d5H
	DB	0d5H
	DB	0d5H
	DB	0d5H
	DB	0d5H
	DB	0d5H
	DB	0d5H
	DB	0d5H
	DB	0d5H
	DB	0d5H
	DB	0d5H
	DB	0d5H
	DB	0d5H
	DB	0d5H
	DB	0d5H
	DB	0d5H
	DB	0d5H
	DB	0d5H
	DB	0d5H
	DB	0d5H
	DB	0d5H
	DB	0d5H
	DB	0d5H
	DB	0d5H
	DB	0d5H
	DB	0c0H
	DB	055H
CONST	ENDS
END
