; Listing generated by Microsoft (R) Optimizing Compiler Version 19.42.34436.0 

	TITLE	C:\DT\Solutions\Una\una-watch\Apps\Utility2\GUI\Software\App\TouchGFX-GUI\build\Debug\obj\Texts.obj
	.686P
	.XMM
	include listing.inc
	.model	flat

INCLUDELIB MSVCRTD
INCLUDELIB OLDNAMES

PUBLIC	?currentLanguage@Texts@touchgfx@@0GA		; touchgfx::Texts::currentLanguage
PUBLIC	?texts_all_languages@@3QBGB			; texts_all_languages
EXTRN	?indicesGb@@3QBIB:BYTE				; indicesGb
_BSS	SEGMENT
?currentLanguage@Texts@touchgfx@@0GA DW 01H DUP (?)	; touchgfx::Texts::currentLanguage
_BSS	ENDS
msvcjmc	SEGMENT
__3A77C584_concurrencysal@h DB 01H
__7D61E6FE_sal@h DB 01H
__F85DFF2E_vadefs@h DB 01H
__E62C82FD_vcruntime@h DB 01H
__B48F2F87_stdarg@h DB 01H
__B193B045_corecrt@h DB 01H
__829D5E02_assert@h DB 01H
__80509148_stdint@h DB 01H
__CA6578A3_Config@hpp DB 01H
__26FA5A17_Types@hpp DB 01H
__614D25B1_Unicode@hpp DB 01H
__EEB25667_Font@hpp DB 01H
__F4CD76EB_TextProvider@hpp DB 01H
__F80C1609_Texts@hpp DB 01H
__F5EBA356_TypedText@hpp DB 01H
__283D6FFD_MCUInstrumentation@hpp DB 01H
__C646993E_ButtonController@hpp DB 01H
__834C84FB_TouchController@hpp DB 01H
__253B2C74_Bitmap@hpp DB 01H
__A7E77610_Event@hpp DB 01H
__93BF1F38_ClickEvent@hpp DB 01H
__98FEAE89_DragEvent@hpp DB 01H
__6D57A881_GestureEvent@hpp DB 01H
__EF94F1A4_Drawable@hpp DB 01H
__E59B061F_BlitOp@hpp DB 01H
__47F55FD8_winpackagefamily@h DB 01H
__43D6A374_winapifamily@h DB 01H
__1901F874_sdkddkver@h DB 01H
__175159AA_excpt@h DB 01H
__E6072EC9_specstrings_undef@h DB 01H
__445FE107_specstrings_strict@h DB 01H
__BD537E1B_sdv_driverspecs@h DB 01H
__3F5C3A3E_driverspecs@h DB 01H
__B2271095_specstrings@h DB 01H
__CEB01B85_corecrt_wctype@h DB 01H
__F4C5B92D_ctype@h DB 01H
__B0334AF2_kernelspecs@h DB 01H
__7BD7BC39_basetsd@h DB 01H
__8BCDFB61_errno@h DB 01H
__731D38DD_vcruntime_string@h DB 01H
__01D3FBD4_corecrt_memcpy_s@h DB 01H
__3457A0B2_corecrt_memory@h DB 01H
__AB90C308_corecrt_wstring@h DB 01H
__73A79D70_string@h DB 01H
__D7559D2D_guiddef@h DB 01H
__7547C931_pshpack4@h DB 01H
__7DDD4519_poppack@h DB 01H
__71CAB583_pshpack2@h DB 01H
__7C5D3055_pshpack8@h DB 01H
__738C0BDA_pshpack1@h DB 01H
__1C9F21B1_apiset@h DB 01H
__2F087542_ktmtypes@h DB 01H
__D973E9FE_winnt@h DB 01H
__98C9D0B3_minwindef@h DB 01H
__846ACC34_windef@h DB 01H
__B2833B1D_apisetcconv@h DB 01H
__65F67381_minwinbase@h DB 01H
__F79B608C_apiquery2@h DB 01H
__B4C7A98B_processenv@h DB 01H
__DF741256_fileapi@h DB 01H
__EE294ADE_fileapifromapp@h DB 01H
__2415F290_debugapi@h DB 01H
__3ABCAF99_utilapiset@h DB 01H
__DC675CCD_handleapi@h DB 01H
__1EE8BDBC_errhandlingapi@h DB 01H
__5536C2A0_fibersapi@h DB 01H
__03BC99EF_namedpipeapi@h DB 01H
__BFDA960B_profileapi@h DB 01H
__72D52E63_heapapi@h DB 01H
__CB61E9E6_ioapiset@h DB 01H
__0964D70A_synchapi@h DB 01H
__C5B6E0D5_interlockedapi@h DB 01H
__7A06A762_processthreadsapi@h DB 01H
__06601839_sysinfoapi@h DB 01H
__83C95515_memoryapi@h DB 01H
__10D4E8CE_enclaveapi@h DB 01H
__449E31C2_threadpoollegacyapiset@h DB 01H
__7261473A_threadpoolapiset@h DB 01H
__34DDE763_jobapi@h DB 01H
__24F9B6F8_jobapi2@h DB 01H
__9D32A781_wow64apiset@h DB 01H
__42631685_libloaderapi@h DB 01H
__E4FC10D9_securitybaseapi@h DB 01H
__431D9E98_namespaceapi@h DB 01H
__FFFFF160_systemtopologyapi@h DB 01H
__A82F39F5_processtopologyapi@h DB 01H
__09607D26_securityappcontainer@h DB 01H
__5A1E44E7_realtimeapiset@h DB 01H
__7E4B086B_winerror@h DB 01H
__FB5F7188_timezoneapi@h DB 01H
__F5FA337F_winbase@h DB 01H
__974A03B0_wingdi@h DB 01H
__78DBB10D_tvout@h DB 01H
__9D127808_winuser@h DB 01H
__A3AA936A_datetimeapi@h DB 01H
__4E5F6F88_winnls@h DB 01H
__1DF71788_stringapiset@h DB 01H
__64D832F9_wincontypes@h DB 01H
__6EC4454C_consoleapi@h DB 01H
__8F729203_consoleapi2@h DB 01H
__8EB0F834_consoleapi3@h DB 01H
__B08434F4_wincon@h DB 01H
__B0971967_verrsrc@h DB 01H
__62059676_winver@h DB 01H
__AE7275B3_reason@h DB 01H
__8D68512D_winreg@h DB 01H
__7580E811_wnnc@h DB 01H
__4755B33A_winnetwk@h DB 01H
__4756EC77_cderr@h DB 01H
__8490232D_dde@h DB 01H
__448B1044_ddeml@h DB 01H
__5E0CF316_dlgs@h DB 01H
__8964D6C1_lzexpand@h DB 01H
__F99DDC7B_mmsyscom@h DB 01H
__937F74CD_mciapi@h DB 01H
__C6F31038_mmiscapi@h DB 01H
__D8B21073_mmiscapi2@h DB 01H
__29FD8C93_playsoundapi@h DB 01H
__B482CFEB_mmeapi@h DB 01H
__FB357315_timeapi@h DB 01H
__3B6CEA41_joystickapi@h DB 01H
__44E0778D_mmsystem@h DB 01H
__7614C57D_nb30@h DB 01H
__7719C8EB_rpcdcep@h DB 01H
__A57FE916_rpcdce@h DB 01H
__51ACCA40_rpcnsi@h DB 01H
__A7E951E3_rpcnterr@h DB 01H
__EE9F4A51_rpcasync@h DB 01H
__40DD64C8_rpc@h DB 01H
__826CAF91_shellapi@h DB 01H
__F49EEF13_winperf@h DB 01H
__7A390FBF_inaddr@h DB 01H
__D8C726B5_winsock@h DB 01H
__8040ED55_bcrypt@h DB 01H
__308F6D16_ncrypt@h DB 01H
__8DF4BBA0_dpapi@h DB 01H
__4A6CF89C_wincrypt@h DB 01H
__5632BEFD_winefs@h DB 01H
__F5E5EF09_rpcnsip@h DB 01H
__D2675180_rpcsal@h DB 01H
__6B717CFB_rpcndr@h DB 01H
__FC933916_wtypesbase@h DB 01H
__133D53C0_wtypes@h DB 01H
__E6535C2B_winioctl@h DB 01H
__6F9DFF63_winsmcrd@h DB 01H
__038702D4_winscard@h DB 01H
__C8DE29C7_prsht@h DB 01H
__9595127A_winspool@h DB 01H
__FF268430_corecrt_malloc@h DB 01H
__887B5571_stddef@h DB 01H
__4795E95E_corecrt_search@h DB 01H
__2DE357AC_corecrt_wstdlib@h DB 01H
__3E26BF77_limits@h DB 01H
__F5D409D4_stdlib@h DB 01H
__C9A2E177_unknwnbase@h DB 01H
__CB9F573B_objidlbase@h DB 01H
__E6290D09_cguid@h DB 01H
__BA545668_combaseapi@h DB 01H
__0AF62775_unknwn@h DB 01H
__18794348_objidl@h DB 01H
__AEB97786_oaidl@h DB 01H
__8695B478_propidlbase@h DB 01H
__24C23182_coml2api@h DB 01H
__B9108AC0_oleidl@h DB 01H
__8AA73F42_servprov@h DB 01H
__57B03487_msxml@h DB 01H
__6580E4D7_urlmon@h DB 01H
__AA4CC487_propidl@h DB 01H
__4BC7EB53_objbase@h DB 01H
__2BB1770B_oleauto@h DB 01H
__EF9A2CA9_ole2@h DB 01H
__C1199D1A_commdlg@h DB 01H
__0B10BAC3_stralign@h DB 01H
__F5AD2830_winsvc@h DB 01H
__00A949C6_mcx@h DB 01H
__AE6FAD4A_ime_cmodes@h DB 01H
__0F1BF9AE_imm@h DB 01H
__0B5A2696_windows@h DB 01H
__DB288696_Atomic@hpp DB 01H
__BC9ACCE5_DMA@hpp DB 01H
__AE3A6B51_FrameBufferAllocator@hpp DB 01H
__85CF6DCE_UIEventListener@hpp DB 01H
__40BB96B7_Gestures@hpp DB 01H
__B7FF32C6_TextureMapTypes@hpp DB 01H
__4C86B5EF_Matrix3x3@hpp DB 01H
__AFD2B641_VGData@hpp DB 01H
__28F4793E_Widget@hpp DB 01H
__2FB3EB7E_VectorRenderer@hpp DB 01H
__8CA7D8FA_VectorFontRenderer@hpp DB 01H
__3159DE00_DebugPrinter@hpp DB 01H
__726B6D25_LCD@hpp DB 01H
__F468A25B_HAL@hpp DB 01H
__EE07DCCC_TypedTextDatabase@hpp DB 01H
__0E4D0C4D_Texts@cpp DB 01H
msvcjmc	ENDS
CONST	SEGMENT
?texts_all_languages@@3QBGB DW 053H			; texts_all_languages
	DW	068H
	DW	075H
	DW	074H
	DW	074H
	DW	069H
	DW	06eH
	DW	067H
	DW	0aH
	DW	064H
	DW	06fH
	DW	077H
	DW	06eH
	DW	00H
	DW	04cH
	DW	06fH
	DW	077H
	DW	0aH
	DW	042H
	DW	061H
	DW	074H
	DW	074H
	DW	065H
	DW	072H
	DW	079H
	DW	0aH
	DW	00H
	DW	043H
	DW	068H
	DW	061H
	DW	072H
	DW	067H
	DW	069H
	DW	06eH
	DW	067H
	DW	00H
	DW	054H
	DW	075H
	DW	072H
	DW	06eH
	DW	020H
	DW	06fH
	DW	066H
	DW	066H
	DW	00H
	DW	02H
	DW	00H
	DW	043H
	DW	068H
	DW	061H
	DW	072H
	DW	067H
	DW	065H
	DW	064H
	DW	00H
	DW	02H
	DW	0aH
	DW	00H
	DW	041H
	DW	070H
	DW	072H
	DW	00H
	DW	041H
	DW	075H
	DW	067H
	DW	00H
	DW	044H
	DW	065H
	DW	063H
	DW	00H
	DW	046H
	DW	065H
	DW	062H
	DW	00H
	DW	046H
	DW	072H
	DW	069H
	DW	00H
	DW	04aH
	DW	061H
	DW	06eH
	DW	00H
	DW	04aH
	DW	075H
	DW	06cH
	DW	00H
	DW	04aH
	DW	075H
	DW	06eH
	DW	00H
	DW	04dH
	DW	061H
	DW	072H
	DW	00H
	DW	04dH
	DW	061H
	DW	079H
	DW	00H
	DW	04dH
	DW	06fH
	DW	06eH
	DW	00H
	DW	04eH
	DW	06fH
	DW	076H
	DW	00H
	DW	04fH
	DW	063H
	DW	074H
	DW	00H
	DW	053H
	DW	061H
	DW	074H
	DW	00H
	DW	053H
	DW	065H
	DW	070H
	DW	00H
	DW	053H
	DW	075H
	DW	06eH
	DW	00H
	DW	054H
	DW	068H
	DW	075H
	DW	00H
	DW	054H
	DW	075H
	DW	065H
	DW	00H
	DW	057H
	DW	065H
	DW	064H
	DW	00H
	DW	025H
	DW	00H
	DW	030H
	DW	00H
?staticLanguageIndices@@3QBQBIB DD FLAT:?indicesGb@@3QBIB ; staticLanguageIndices
CONST	ENDS
PUBLIC	?getStringWidth@Font@touchgfx@@UBAGPBGZZ	; touchgfx::Font::getStringWidth
PUBLIC	?getStringWidth@Font@touchgfx@@UBAGEPBGZZ	; touchgfx::Font::getStringWidth
PUBLIC	?getNextLigature@TextProvider@touchgfx@@QAEGE@Z	; touchgfx::TextProvider::getNextLigature
PUBLIC	?peekChar@?$circularBuffer@$09@TextProvider@touchgfx@@QAEGXZ ; touchgfx::TextProvider::circularBuffer<10>::peekChar
PUBLIC	?peekChar@?$circularBuffer@$09@TextProvider@touchgfx@@QAEGG@Z ; touchgfx::TextProvider::circularBuffer<10>::peekChar
PUBLIC	?replaceAt0@?$circularBuffer@$09@TextProvider@touchgfx@@QAEXG@Z ; touchgfx::TextProvider::circularBuffer<10>::replaceAt0
PUBLIC	?replaceAt1@?$circularBuffer@$09@TextProvider@touchgfx@@QAEXG@Z ; touchgfx::TextProvider::circularBuffer<10>::replaceAt1
PUBLIC	?initializeInternal@TextProvider@touchgfx@@AAEXXZ ; touchgfx::TextProvider::initializeInternal
PUBLIC	?setLanguage@Texts@touchgfx@@SAXG@Z		; touchgfx::Texts::setLanguage
PUBLIC	?getText@Texts@touchgfx@@QBEPBGG@Z		; touchgfx::Texts::getText
PUBLIC	?setTranslation@Texts@touchgfx@@SAXGPBX@Z	; touchgfx::Texts::setTranslation
PUBLIC	?registerTypedTextDatabase@TypedText@touchgfx@@SAXPBUTypedTextData@12@PBQBVFont@2@G@Z ; touchgfx::TypedText::registerTypedTextDatabase
PUBLIC	?drawString@LCD@touchgfx@@QAAXVRect@2@ABV32@ABUStringVisuals@12@PBGZZ ; touchgfx::LCD::drawString
PUBLIC	__JustMyCode_Default
PUBLIC	??_C@_1PO@EKHDOOD@?$AAC?$AA?3?$AA?2?$AAD?$AAT?$AA?2?$AAS?$AAo?$AAl?$AAu?$AAt?$AAi?$AAo?$AAn?$AAs@ ; `string'
PUBLIC	??_C@_1BC@PANDKMKI@?$AAu?$AAs?$AAe?$AAd?$AA?5?$AA?$DO?$AA?5?$AA1@ ; `string'
PUBLIC	??_C@_1BM@HFPAENLG@?$AAo?$AAf?$AAf?$AAs?$AAe?$AAt?$AA?5?$AA?$DM?$AA?5?$AAu?$AAs?$AAe?$AAd@ ; `string'
PUBLIC	??_C@_1BC@EIGPMLMN@?$AAu?$AAs?$AAe?$AAd?$AA?5?$AA?$DO?$AA?5?$AA0@ ; `string'
EXTRN	__imp___wassert:PROC
EXTRN	?getStringWidthLTR@Font@touchgfx@@IBEGEPBGPAD@Z:PROC ; touchgfx::Font::getStringWidthLTR
EXTRN	?getNextChar@TextProvider@touchgfx@@QAEGXZ:PROC	; touchgfx::TextProvider::getNextChar
EXTRN	?fillInputBuffer@TextProvider@touchgfx@@AAEXXZ:PROC ; touchgfx::TextProvider::fillInputBuffer
EXTRN	?substituteGlyphs@TextProvider@touchgfx@@AAEXXZ:PROC ; touchgfx::TextProvider::substituteGlyphs
EXTRN	?drawStringLTR@LCD@touchgfx@@IAEXABVRect@2@0ABUStringVisuals@12@PBGPAD@Z:PROC ; touchgfx::LCD::drawStringLTR
EXTRN	?getFonts@TypedTextDatabase@@YAPAPBVFont@touchgfx@@XZ:PROC ; TypedTextDatabase::getFonts
EXTRN	?getInstanceSize@TypedTextDatabase@@YAGXZ:PROC	; TypedTextDatabase::getInstanceSize
EXTRN	@__CheckForDebuggerJustMyCode@4:PROC
EXTRN	__RTC_CheckEsp:PROC
EXTRN	__RTC_InitBase:PROC
EXTRN	__RTC_Shutdown:PROC
EXTRN	?typedTexts@TypedText@touchgfx@@0PBUTypedTextData@12@B:DWORD ; touchgfx::TypedText::typedTexts
EXTRN	?fonts@TypedText@touchgfx@@0PBQBVFont@2@B:DWORD	; touchgfx::TypedText::fonts
EXTRN	?numberOfTypedTexts@TypedText@touchgfx@@0GA:WORD ; touchgfx::TypedText::numberOfTypedTexts
EXTRN	?typedTextDatabaseArray@@3QBQBUTypedTextData@TypedText@touchgfx@@B:BYTE ; typedTextDatabaseArray
_BSS	SEGMENT
	ALIGN	4

?languagesArray@@3PAPBUTranslationHeader@@A DD 01H DUP (?) ; languagesArray
?currentLanguagePtr@@3PBGB DD 01H DUP (?)		; currentLanguagePtr
?currentLanguageIndices@@3PBIB DD 01H DUP (?)		; currentLanguageIndices
_BSS	ENDS
;	COMDAT rtc$TMZ
rtc$TMZ	SEGMENT
__RTC_Shutdown.rtc$TMZ DD FLAT:__RTC_Shutdown
rtc$TMZ	ENDS
;	COMDAT rtc$IMZ
rtc$IMZ	SEGMENT
__RTC_InitBase.rtc$IMZ DD FLAT:__RTC_InitBase
rtc$IMZ	ENDS
;	COMDAT ??_C@_1BC@EIGPMLMN@?$AAu?$AAs?$AAe?$AAd?$AA?5?$AA?$DO?$AA?5?$AA0@
CONST	SEGMENT
??_C@_1BC@EIGPMLMN@?$AAu?$AAs?$AAe?$AAd?$AA?5?$AA?$DO?$AA?5?$AA0@ DB 'u', 00H
	DB	's', 00H, 'e', 00H, 'd', 00H, ' ', 00H, '>', 00H, ' ', 00H, '0'
	DB	00H, 00H, 00H				; `string'
CONST	ENDS
;	COMDAT ??_C@_1BM@HFPAENLG@?$AAo?$AAf?$AAf?$AAs?$AAe?$AAt?$AA?5?$AA?$DM?$AA?5?$AAu?$AAs?$AAe?$AAd@
CONST	SEGMENT
??_C@_1BM@HFPAENLG@?$AAo?$AAf?$AAf?$AAs?$AAe?$AAt?$AA?5?$AA?$DM?$AA?5?$AAu?$AAs?$AAe?$AAd@ DB 'o'
	DB	00H, 'f', 00H, 'f', 00H, 's', 00H, 'e', 00H, 't', 00H, ' ', 00H
	DB	'<', 00H, ' ', 00H, 'u', 00H, 's', 00H, 'e', 00H, 'd', 00H, 00H
	DB	00H						; `string'
CONST	ENDS
;	COMDAT ??_C@_1BC@PANDKMKI@?$AAu?$AAs?$AAe?$AAd?$AA?5?$AA?$DO?$AA?5?$AA1@
CONST	SEGMENT
??_C@_1BC@PANDKMKI@?$AAu?$AAs?$AAe?$AAd?$AA?5?$AA?$DO?$AA?5?$AA1@ DB 'u', 00H
	DB	's', 00H, 'e', 00H, 'd', 00H, ' ', 00H, '>', 00H, ' ', 00H, '1'
	DB	00H, 00H, 00H				; `string'
CONST	ENDS
;	COMDAT ??_C@_1PO@EKHDOOD@?$AAC?$AA?3?$AA?2?$AAD?$AAT?$AA?2?$AAS?$AAo?$AAl?$AAu?$AAt?$AAi?$AAo?$AAn?$AAs@
CONST	SEGMENT
??_C@_1PO@EKHDOOD@?$AAC?$AA?3?$AA?2?$AAD?$AAT?$AA?2?$AAS?$AAo?$AAl?$AAu?$AAt?$AAi?$AAo?$AAn?$AAs@ DB 'C'
	DB	00H, ':', 00H, '\', 00H, 'D', 00H, 'T', 00H, '\', 00H, 'S', 00H
	DB	'o', 00H, 'l', 00H, 'u', 00H, 't', 00H, 'i', 00H, 'o', 00H, 'n'
	DB	00H, 's', 00H, '\', 00H, 'U', 00H, 'n', 00H, 'a', 00H, '\', 00H
	DB	'u', 00H, 'n', 00H, 'a', 00H, '-', 00H, 'w', 00H, 'a', 00H, 't'
	DB	00H, 'c', 00H, 'h', 00H, '\', 00H, 'A', 00H, 'p', 00H, 'p', 00H
	DB	's', 00H, '\', 00H, 'U', 00H, 't', 00H, 'i', 00H, 'l', 00H, 'i'
	DB	00H, 't', 00H, 'y', 00H, '2', 00H, '\', 00H, 'G', 00H, 'U', 00H
	DB	'I', 00H, '\', 00H, 'S', 00H, 'o', 00H, 'f', 00H, 't', 00H, 'w'
	DB	00H, 'a', 00H, 'r', 00H, 'e', 00H, '\', 00H, 'A', 00H, 'p', 00H
	DB	'p', 00H, '\', 00H, 'T', 00H, 'o', 00H, 'u', 00H, 'c', 00H, 'h'
	DB	00H, 'G', 00H, 'F', 00H, 'X', 00H, '-', 00H, 'G', 00H, 'U', 00H
	DB	'I', 00H, '\', 00H, 't', 00H, 'o', 00H, 'u', 00H, 'c', 00H, 'h'
	DB	00H, 'g', 00H, 'f', 00H, 'x', 00H, '\', 00H, 'f', 00H, 'r', 00H
	DB	'a', 00H, 'm', 00H, 'e', 00H, 'w', 00H, 'o', 00H, 'r', 00H, 'k'
	DB	00H, '\', 00H, 'i', 00H, 'n', 00H, 'c', 00H, 'l', 00H, 'u', 00H
	DB	'd', 00H, 'e', 00H, '\', 00H, 't', 00H, 'o', 00H, 'u', 00H, 'c'
	DB	00H, 'h', 00H, 'g', 00H, 'f', 00H, 'x', 00H, '\', 00H, 'T', 00H
	DB	'e', 00H, 'x', 00H, 't', 00H, 'P', 00H, 'r', 00H, 'o', 00H, 'v'
	DB	00H, 'i', 00H, 'd', 00H, 'e', 00H, 'r', 00H, '.', 00H, 'h', 00H
	DB	'p', 00H, 'p', 00H, 00H, 00H			; `string'
CONST	ENDS
; Function compile flags: /Odt
;	COMDAT __JustMyCode_Default
_TEXT	SEGMENT
__JustMyCode_Default PROC				; COMDAT
	push	ebp
	mov	ebp, esp
	pop	ebp
	ret	0
__JustMyCode_Default ENDP
_TEXT	ENDS
; Function compile flags: /Odtp /RTCsu /ZI
;	COMDAT ?drawString@LCD@touchgfx@@QAAXVRect@2@ABV32@ABUStringVisuals@12@PBGZZ
_TEXT	SEGMENT
_pArg$ = -8						; size = 4
_this$ = 8						; size = 4
_widgetArea$ = 12					; size = 8
_invalidatedArea$ = 20					; size = 4
_stringVisuals$ = 24					; size = 4
_format$ = 28						; size = 4
?drawString@LCD@touchgfx@@QAAXVRect@2@ABV32@ABUStringVisuals@12@PBGZZ PROC ; touchgfx::LCD::drawString, COMDAT
; File C:\DT\Solutions\Una\una-watch\Apps\Utility2\GUI\Software\App\TouchGFX-GUI\generated\texts\src\Texts.cpp
; Line 51
	push	ebp
	mov	ebp, esp
	sub	esp, 216				; 000000d8H
	push	ebx
	push	esi
	push	edi
	lea	edi, DWORD PTR [ebp-24]
	mov	ecx, 6
	mov	eax, -858993460				; ccccccccH
	rep stosd
	mov	ecx, OFFSET __0E4D0C4D_Texts@cpp
	call	@__CheckForDebuggerJustMyCode@4
	npad	1
; Line 53
	lea	eax, DWORD PTR _format$[ebp+4]
	mov	DWORD PTR _pArg$[ebp], eax
; Line 54
	mov	eax, DWORD PTR _pArg$[ebp]
	push	eax
	mov	ecx, DWORD PTR _format$[ebp]
	push	ecx
	mov	edx, DWORD PTR _stringVisuals$[ebp]
	push	edx
	mov	eax, DWORD PTR _invalidatedArea$[ebp]
	push	eax
	lea	ecx, DWORD PTR _widgetArea$[ebp]
	push	ecx
	mov	ecx, DWORD PTR _this$[ebp]
	call	?drawStringLTR@LCD@touchgfx@@IAEXABVRect@2@0ABUStringVisuals@12@PBGPAD@Z ; touchgfx::LCD::drawStringLTR
	npad	1
; Line 55
	mov	DWORD PTR _pArg$[ebp], 0
; Line 56
	pop	edi
	pop	esi
	pop	ebx
	add	esp, 216				; 000000d8H
	cmp	ebp, esp
	call	__RTC_CheckEsp
	mov	esp, ebp
	pop	ebp
	ret	0
?drawString@LCD@touchgfx@@QAAXVRect@2@ABV32@ABUStringVisuals@12@PBGZZ ENDP ; touchgfx::LCD::drawString
_TEXT	ENDS
; Function compile flags: /Odtp /RTCsu /ZI
;	COMDAT ?registerTypedTextDatabase@TypedText@touchgfx@@SAXPBUTypedTextData@12@PBQBVFont@2@G@Z
_TEXT	SEGMENT
_data$ = 8						; size = 4
_f$ = 12						; size = 4
_n$ = 16						; size = 2
?registerTypedTextDatabase@TypedText@touchgfx@@SAXPBUTypedTextData@12@PBQBVFont@2@G@Z PROC ; touchgfx::TypedText::registerTypedTextDatabase, COMDAT
; File C:\DT\Solutions\Una\una-watch\Apps\Utility2\GUI\Software\App\TouchGFX-GUI\touchgfx\framework\include\touchgfx\TypedText.hpp
; Line 159
	push	ebp
	mov	ebp, esp
	sub	esp, 192				; 000000c0H
	push	ebx
	push	esi
	push	edi
	mov	edi, ebp
	xor	ecx, ecx
	mov	eax, -858993460				; ccccccccH
	rep stosd
	mov	ecx, OFFSET __F5EBA356_TypedText@hpp
	call	@__CheckForDebuggerJustMyCode@4
	npad	1
; Line 160
	mov	eax, DWORD PTR _data$[ebp]
	mov	DWORD PTR ?typedTexts@TypedText@touchgfx@@0PBUTypedTextData@12@B, eax ; touchgfx::TypedText::typedTexts
; Line 161
	mov	eax, DWORD PTR _f$[ebp]
	mov	DWORD PTR ?fonts@TypedText@touchgfx@@0PBQBVFont@2@B, eax ; touchgfx::TypedText::fonts
; Line 162
	mov	ax, WORD PTR _n$[ebp]
	mov	WORD PTR ?numberOfTypedTexts@TypedText@touchgfx@@0GA, ax ; touchgfx::TypedText::numberOfTypedTexts
; Line 163
	pop	edi
	pop	esi
	pop	ebx
	add	esp, 192				; 000000c0H
	cmp	ebp, esp
	call	__RTC_CheckEsp
	mov	esp, ebp
	pop	ebp
	ret	0
?registerTypedTextDatabase@TypedText@touchgfx@@SAXPBUTypedTextData@12@PBQBVFont@2@G@Z ENDP ; touchgfx::TypedText::registerTypedTextDatabase
_TEXT	ENDS
; Function compile flags: /Odtp /RTCsu /ZI
;	COMDAT ?setTranslation@Texts@touchgfx@@SAXGPBX@Z
_TEXT	SEGMENT
_id$ = 8						; size = 2
_translation$ = 12					; size = 4
?setTranslation@Texts@touchgfx@@SAXGPBX@Z PROC		; touchgfx::Texts::setTranslation, COMDAT
; File C:\DT\Solutions\Una\una-watch\Apps\Utility2\GUI\Software\App\TouchGFX-GUI\generated\texts\src\Texts.cpp
; Line 145
	push	ebp
	mov	ebp, esp
	sub	esp, 192				; 000000c0H
	push	ebx
	push	esi
	push	edi
	mov	edi, ebp
	xor	ecx, ecx
	mov	eax, -858993460				; ccccccccH
	rep stosd
	mov	ecx, OFFSET __0E4D0C4D_Texts@cpp
	call	@__CheckForDebuggerJustMyCode@4
	npad	1
; Line 146
	movzx	eax, WORD PTR _id$[ebp]
	mov	ecx, DWORD PTR _translation$[ebp]
	mov	DWORD PTR ?languagesArray@@3PAPBUTranslationHeader@@A[eax*4], ecx
; Line 147
	pop	edi
	pop	esi
	pop	ebx
	add	esp, 192				; 000000c0H
	cmp	ebp, esp
	call	__RTC_CheckEsp
	mov	esp, ebp
	pop	ebp
	ret	0
?setTranslation@Texts@touchgfx@@SAXGPBX@Z ENDP		; touchgfx::Texts::setTranslation
_TEXT	ENDS
; Function compile flags: /Odtp /RTCsu /ZI
;	COMDAT ?getText@Texts@touchgfx@@QBEPBGG@Z
_TEXT	SEGMENT
_this$ = -8						; size = 4
_id$ = 8						; size = 2
?getText@Texts@touchgfx@@QBEPBGG@Z PROC			; touchgfx::Texts::getText, COMDAT
; _this$ = ecx
; File C:\DT\Solutions\Una\una-watch\Apps\Utility2\GUI\Software\App\TouchGFX-GUI\generated\texts\src\Texts.cpp
; Line 150
	push	ebp
	mov	ebp, esp
	sub	esp, 204				; 000000ccH
	push	ebx
	push	esi
	push	edi
	push	ecx
	lea	edi, DWORD PTR [ebp-12]
	mov	ecx, 3
	mov	eax, -858993460				; ccccccccH
	rep stosd
	pop	ecx
	mov	DWORD PTR _this$[ebp], ecx
	mov	ecx, OFFSET __0E4D0C4D_Texts@cpp
	call	@__CheckForDebuggerJustMyCode@4
	npad	1
; Line 151
	movzx	eax, WORD PTR _id$[ebp]
	mov	ecx, DWORD PTR ?currentLanguageIndices@@3PBIB
	mov	edx, DWORD PTR [ecx+eax*4]
	mov	eax, DWORD PTR ?currentLanguagePtr@@3PBGB
	lea	eax, DWORD PTR [eax+edx*2]
; Line 152
	pop	edi
	pop	esi
	pop	ebx
	add	esp, 204				; 000000ccH
	cmp	ebp, esp
	call	__RTC_CheckEsp
	mov	esp, ebp
	pop	ebp
	ret	4
?getText@Texts@touchgfx@@QBEPBGG@Z ENDP			; touchgfx::Texts::getText
_TEXT	ENDS
; Function compile flags: /Odtp /RTCsu /ZI
;	COMDAT ?setLanguage@Texts@touchgfx@@SAXG@Z
_TEXT	SEGMENT
tv92 = -224						; size = 4
tv94 = -218						; size = 2
_translation$1 = -20					; size = 4
_currentLanguageTypedText$ = -8				; size = 4
_id$ = 8						; size = 2
?setLanguage@Texts@touchgfx@@SAXG@Z PROC		; touchgfx::Texts::setLanguage, COMDAT
; File C:\DT\Solutions\Una\una-watch\Apps\Utility2\GUI\Software\App\TouchGFX-GUI\generated\texts\src\Texts.cpp
; Line 115
	push	ebp
	mov	ebp, esp
	sub	esp, 224				; 000000e0H
	push	ebx
	push	esi
	push	edi
	lea	edi, DWORD PTR [ebp-32]
	mov	ecx, 8
	mov	eax, -858993460				; ccccccccH
	rep stosd
	mov	ecx, OFFSET __0E4D0C4D_Texts@cpp
	call	@__CheckForDebuggerJustMyCode@4
	npad	1
; Line 116
	mov	DWORD PTR _currentLanguageTypedText$[ebp], 0
; Line 117
	movzx	eax, WORD PTR _id$[ebp]
	cmp	eax, 1
	jge	SHORT $LN4@setLanguag
; Line 119
	movzx	eax, WORD PTR _id$[ebp]
	cmp	DWORD PTR ?languagesArray@@3PAPBUTranslationHeader@@A[eax*4], 0
	je	SHORT $LN3@setLanguag
; Line 122
	movzx	eax, WORD PTR _id$[ebp]
	mov	ecx, DWORD PTR ?languagesArray@@3PAPBUTranslationHeader@@A[eax*4]
	mov	DWORD PTR _translation$1[ebp], ecx
; Line 123
	mov	eax, DWORD PTR _translation$1[ebp]
	mov	ecx, DWORD PTR _translation$1[ebp]
	add	ecx, DWORD PTR [eax]
	mov	DWORD PTR ?currentLanguagePtr@@3PBGB, ecx
; Line 124
	mov	eax, DWORD PTR _translation$1[ebp]
	mov	ecx, DWORD PTR _translation$1[ebp]
	add	ecx, DWORD PTR [eax+4]
	mov	DWORD PTR ?currentLanguageIndices@@3PBIB, ecx
; Line 125
	mov	eax, DWORD PTR _translation$1[ebp]
	mov	ecx, DWORD PTR _translation$1[ebp]
	add	ecx, DWORD PTR [eax+8]
	mov	DWORD PTR _currentLanguageTypedText$[ebp], ecx
; Line 126
	jmp	SHORT $LN4@setLanguag
$LN3@setLanguag:
; Line 130
	mov	DWORD PTR ?currentLanguagePtr@@3PBGB, OFFSET ?texts_all_languages@@3QBGB ; texts_all_languages
; Line 131
	movzx	eax, WORD PTR _id$[ebp]
	mov	ecx, DWORD PTR ?staticLanguageIndices@@3QBQBIB[eax*4]
	mov	DWORD PTR ?currentLanguageIndices@@3PBIB, ecx
; Line 132
	movzx	eax, WORD PTR _id$[ebp]
	mov	ecx, DWORD PTR ?typedTextDatabaseArray@@3QBQBUTypedTextData@TypedText@touchgfx@@B[eax*4]
	mov	DWORD PTR _currentLanguageTypedText$[ebp], ecx
$LN4@setLanguag:
; Line 136
	cmp	DWORD PTR _currentLanguageTypedText$[ebp], 0
	je	SHORT $LN5@setLanguag
; Line 138
	mov	ax, WORD PTR _id$[ebp]
	mov	WORD PTR ?currentLanguage@Texts@touchgfx@@0GA, ax ; touchgfx::Texts::currentLanguage
; Line 139
	call	?getInstanceSize@TypedTextDatabase@@YAGXZ ; TypedTextDatabase::getInstanceSize
	mov	WORD PTR tv94[ebp], ax
	call	?getFonts@TypedTextDatabase@@YAPAPBVFont@touchgfx@@XZ ; TypedTextDatabase::getFonts
	mov	DWORD PTR tv92[ebp], eax
	movzx	eax, WORD PTR tv94[ebp]
	push	eax
	mov	ecx, DWORD PTR tv92[ebp]
	push	ecx
	mov	edx, DWORD PTR _currentLanguageTypedText$[ebp]
	push	edx
	call	?registerTypedTextDatabase@TypedText@touchgfx@@SAXPBUTypedTextData@12@PBQBVFont@2@G@Z ; touchgfx::TypedText::registerTypedTextDatabase
	add	esp, 12					; 0000000cH
$LN5@setLanguag:
; Line 142
	pop	edi
	pop	esi
	pop	ebx
	add	esp, 224				; 000000e0H
	cmp	ebp, esp
	call	__RTC_CheckEsp
	mov	esp, ebp
	pop	ebp
	ret	0
?setLanguage@Texts@touchgfx@@SAXG@Z ENDP		; touchgfx::Texts::setLanguage
_TEXT	ENDS
; Function compile flags: /Odtp /RTCsu /ZI
;	COMDAT ?initializeInternal@TextProvider@touchgfx@@AAEXXZ
_TEXT	SEGMENT
_this$ = -8						; size = 4
?initializeInternal@TextProvider@touchgfx@@AAEXXZ PROC	; touchgfx::TextProvider::initializeInternal, COMDAT
; _this$ = ecx
; File C:\DT\Solutions\Una\una-watch\Apps\Utility2\GUI\Software\App\TouchGFX-GUI\generated\texts\src\Texts.cpp
; Line 46
	push	ebp
	mov	ebp, esp
	sub	esp, 204				; 000000ccH
	push	ebx
	push	esi
	push	edi
	push	ecx
	lea	edi, DWORD PTR [ebp-12]
	mov	ecx, 3
	mov	eax, -858993460				; ccccccccH
	rep stosd
	pop	ecx
	mov	DWORD PTR _this$[ebp], ecx
	mov	ecx, OFFSET __0E4D0C4D_Texts@cpp
	call	@__CheckForDebuggerJustMyCode@4
	npad	1
; Line 47
	mov	ecx, DWORD PTR _this$[ebp]
	call	?fillInputBuffer@TextProvider@touchgfx@@AAEXXZ ; touchgfx::TextProvider::fillInputBuffer
	npad	1
; Line 48
	pop	edi
	pop	esi
	pop	ebx
	add	esp, 204				; 000000ccH
	cmp	ebp, esp
	call	__RTC_CheckEsp
	mov	esp, ebp
	pop	ebp
	ret	0
?initializeInternal@TextProvider@touchgfx@@AAEXXZ ENDP	; touchgfx::TextProvider::initializeInternal
_TEXT	ENDS
; Function compile flags: /Odtp /RTCsu /ZI
;	COMDAT ?replaceAt1@?$circularBuffer@$09@TextProvider@touchgfx@@QAEXG@Z
_TEXT	SEGMENT
tv79 = -228						; size = 4
tv82 = -224						; size = 4
tv85 = -218						; size = 2
_index$ = -20						; size = 2
_this$ = -8						; size = 4
_newChar$ = 8						; size = 2
?replaceAt1@?$circularBuffer@$09@TextProvider@touchgfx@@QAEXG@Z PROC ; touchgfx::TextProvider::circularBuffer<10>::replaceAt1, COMDAT
; _this$ = ecx
; File C:\DT\Solutions\Una\una-watch\Apps\Utility2\GUI\Software\App\TouchGFX-GUI\touchgfx\framework\include\touchgfx\TextProvider.hpp
; Line 283
	push	ebp
	mov	ebp, esp
	sub	esp, 228				; 000000e4H
	push	ebx
	push	esi
	push	edi
	push	ecx
	lea	edi, DWORD PTR [ebp-36]
	mov	ecx, 9
	mov	eax, -858993460				; ccccccccH
	rep stosd
	pop	ecx
	mov	DWORD PTR _this$[ebp], ecx
	mov	ecx, OFFSET __F4CD76EB_TextProvider@hpp
	call	@__CheckForDebuggerJustMyCode@4
	npad	1
; Line 284
	mov	eax, DWORD PTR _this$[ebp]
	movzx	ecx, WORD PTR [eax+22]
	cmp	ecx, 1
	jg	SHORT $LN3@replaceAt1
	mov	esi, esp
	push	284					; 0000011cH
	push	OFFSET ??_C@_1PO@EKHDOOD@?$AAC?$AA?3?$AA?2?$AAD?$AAT?$AA?2?$AAS?$AAo?$AAl?$AAu?$AAt?$AAi?$AAo?$AAn?$AAs@
	push	OFFSET ??_C@_1BC@PANDKMKI@?$AAu?$AAs?$AAe?$AAd?$AA?5?$AA?$DO?$AA?5?$AA1@
	call	DWORD PTR __imp___wassert
	add	esp, 12					; 0000000cH
	cmp	esi, esp
	call	__RTC_CheckEsp
$LN3@replaceAt1:
; Line 285
	mov	eax, DWORD PTR _this$[ebp]
	movzx	ecx, WORD PTR [eax+20]
	add	ecx, 1
	mov	WORD PTR _index$[ebp], cx
; Line 286
	mov	ax, WORD PTR _newChar$[ebp]
	mov	WORD PTR tv85[ebp], ax
	mov	ecx, DWORD PTR _this$[ebp]
	mov	DWORD PTR tv82[ebp], ecx
	movzx	edx, WORD PTR _index$[ebp]
	cmp	edx, 10					; 0000000aH
	jae	SHORT $LN4@replaceAt1
	movzx	eax, WORD PTR _index$[ebp]
	mov	DWORD PTR tv79[ebp], eax
	jmp	SHORT $LN5@replaceAt1
$LN4@replaceAt1:
	mov	DWORD PTR tv79[ebp], 0
$LN5@replaceAt1:
	mov	ecx, DWORD PTR tv79[ebp]
	mov	edx, DWORD PTR tv82[ebp]
	mov	ax, WORD PTR tv85[ebp]
	mov	WORD PTR [edx+ecx*2], ax
; Line 287
	pop	edi
	pop	esi
	pop	ebx
	add	esp, 228				; 000000e4H
	cmp	ebp, esp
	call	__RTC_CheckEsp
	mov	esp, ebp
	pop	ebp
	ret	4
?replaceAt1@?$circularBuffer@$09@TextProvider@touchgfx@@QAEXG@Z ENDP ; touchgfx::TextProvider::circularBuffer<10>::replaceAt1
_TEXT	ENDS
; Function compile flags: /Odtp /RTCsu /ZI
;	COMDAT ?replaceAt0@?$circularBuffer@$09@TextProvider@touchgfx@@QAEXG@Z
_TEXT	SEGMENT
_this$ = -8						; size = 4
_newChar$ = 8						; size = 2
?replaceAt0@?$circularBuffer@$09@TextProvider@touchgfx@@QAEXG@Z PROC ; touchgfx::TextProvider::circularBuffer<10>::replaceAt0, COMDAT
; _this$ = ecx
; File C:\DT\Solutions\Una\una-watch\Apps\Utility2\GUI\Software\App\TouchGFX-GUI\touchgfx\framework\include\touchgfx\TextProvider.hpp
; Line 278
	push	ebp
	mov	ebp, esp
	sub	esp, 204				; 000000ccH
	push	ebx
	push	esi
	push	edi
	push	ecx
	lea	edi, DWORD PTR [ebp-12]
	mov	ecx, 3
	mov	eax, -858993460				; ccccccccH
	rep stosd
	pop	ecx
	mov	DWORD PTR _this$[ebp], ecx
	mov	ecx, OFFSET __F4CD76EB_TextProvider@hpp
	call	@__CheckForDebuggerJustMyCode@4
	npad	1
; Line 279
	mov	eax, DWORD PTR _this$[ebp]
	movzx	ecx, WORD PTR [eax+20]
	mov	edx, DWORD PTR _this$[ebp]
	mov	ax, WORD PTR _newChar$[ebp]
	mov	WORD PTR [edx+ecx*2], ax
; Line 280
	pop	edi
	pop	esi
	pop	ebx
	add	esp, 204				; 000000ccH
	cmp	ebp, esp
	call	__RTC_CheckEsp
	mov	esp, ebp
	pop	ebp
	ret	4
?replaceAt0@?$circularBuffer@$09@TextProvider@touchgfx@@QAEXG@Z ENDP ; touchgfx::TextProvider::circularBuffer<10>::replaceAt0
_TEXT	ENDS
; Function compile flags: /Odtp /RTCsu /ZI
;	COMDAT ?peekChar@?$circularBuffer@$09@TextProvider@touchgfx@@QAEGG@Z
_TEXT	SEGMENT
tv83 = -224						; size = 4
tv86 = -220						; size = 4
_index$ = -20						; size = 2
_this$ = -8						; size = 4
_offset$ = 8						; size = 2
?peekChar@?$circularBuffer@$09@TextProvider@touchgfx@@QAEGG@Z PROC ; touchgfx::TextProvider::circularBuffer<10>::peekChar, COMDAT
; _this$ = ecx
; File C:\DT\Solutions\Una\una-watch\Apps\Utility2\GUI\Software\App\TouchGFX-GUI\touchgfx\framework\include\touchgfx\TextProvider.hpp
; Line 202
	push	ebp
	mov	ebp, esp
	sub	esp, 224				; 000000e0H
	push	ebx
	push	esi
	push	edi
	push	ecx
	lea	edi, DWORD PTR [ebp-32]
	mov	ecx, 8
	mov	eax, -858993460				; ccccccccH
	rep stosd
	pop	ecx
	mov	DWORD PTR _this$[ebp], ecx
	mov	ecx, OFFSET __F4CD76EB_TextProvider@hpp
	call	@__CheckForDebuggerJustMyCode@4
	npad	1
; Line 203
	movzx	eax, WORD PTR _offset$[ebp]
	mov	ecx, DWORD PTR _this$[ebp]
	movzx	edx, WORD PTR [ecx+22]
	cmp	eax, edx
	jl	SHORT $LN3@peekChar
	mov	esi, esp
	push	203					; 000000cbH
	push	OFFSET ??_C@_1PO@EKHDOOD@?$AAC?$AA?3?$AA?2?$AAD?$AAT?$AA?2?$AAS?$AAo?$AAl?$AAu?$AAt?$AAi?$AAo?$AAn?$AAs@
	push	OFFSET ??_C@_1BM@HFPAENLG@?$AAo?$AAf?$AAf?$AAs?$AAe?$AAt?$AA?5?$AA?$DM?$AA?5?$AAu?$AAs?$AAe?$AAd@
	call	DWORD PTR __imp___wassert
	add	esp, 12					; 0000000cH
	cmp	esi, esp
	call	__RTC_CheckEsp
$LN3@peekChar:
; Line 204
	mov	eax, DWORD PTR _this$[ebp]
	movzx	ecx, WORD PTR [eax+20]
	movzx	edx, WORD PTR _offset$[ebp]
	add	ecx, edx
	mov	WORD PTR _index$[ebp], cx
; Line 205
	mov	eax, DWORD PTR _this$[ebp]
	mov	DWORD PTR tv86[ebp], eax
	movzx	ecx, WORD PTR _index$[ebp]
	cmp	ecx, 10					; 0000000aH
	jae	SHORT $LN4@peekChar
	movzx	edx, WORD PTR _index$[ebp]
	mov	DWORD PTR tv83[ebp], edx
	jmp	SHORT $LN5@peekChar
$LN4@peekChar:
	movzx	eax, WORD PTR _index$[ebp]
	sub	eax, 10					; 0000000aH
	mov	DWORD PTR tv83[ebp], eax
$LN5@peekChar:
	mov	ecx, DWORD PTR tv83[ebp]
	mov	edx, DWORD PTR tv86[ebp]
	movzx	eax, WORD PTR [edx+ecx*2]
; Line 206
	pop	edi
	pop	esi
	pop	ebx
	add	esp, 224				; 000000e0H
	cmp	ebp, esp
	call	__RTC_CheckEsp
	mov	esp, ebp
	pop	ebp
	ret	4
?peekChar@?$circularBuffer@$09@TextProvider@touchgfx@@QAEGG@Z ENDP ; touchgfx::TextProvider::circularBuffer<10>::peekChar
_TEXT	ENDS
; Function compile flags: /Odtp /RTCsu /ZI
;	COMDAT ?peekChar@?$circularBuffer@$09@TextProvider@touchgfx@@QAEGXZ
_TEXT	SEGMENT
_this$ = -8						; size = 4
?peekChar@?$circularBuffer@$09@TextProvider@touchgfx@@QAEGXZ PROC ; touchgfx::TextProvider::circularBuffer<10>::peekChar, COMDAT
; _this$ = ecx
; File C:\DT\Solutions\Una\una-watch\Apps\Utility2\GUI\Software\App\TouchGFX-GUI\touchgfx\framework\include\touchgfx\TextProvider.hpp
; Line 196
	push	ebp
	mov	ebp, esp
	sub	esp, 204				; 000000ccH
	push	ebx
	push	esi
	push	edi
	push	ecx
	lea	edi, DWORD PTR [ebp-12]
	mov	ecx, 3
	mov	eax, -858993460				; ccccccccH
	rep stosd
	pop	ecx
	mov	DWORD PTR _this$[ebp], ecx
	mov	ecx, OFFSET __F4CD76EB_TextProvider@hpp
	call	@__CheckForDebuggerJustMyCode@4
	npad	1
; Line 197
	mov	eax, DWORD PTR _this$[ebp]
	movzx	ecx, WORD PTR [eax+22]
	test	ecx, ecx
	jg	SHORT $LN3@peekChar
	mov	esi, esp
	push	197					; 000000c5H
	push	OFFSET ??_C@_1PO@EKHDOOD@?$AAC?$AA?3?$AA?2?$AAD?$AAT?$AA?2?$AAS?$AAo?$AAl?$AAu?$AAt?$AAi?$AAo?$AAn?$AAs@
	push	OFFSET ??_C@_1BC@EIGPMLMN@?$AAu?$AAs?$AAe?$AAd?$AA?5?$AA?$DO?$AA?5?$AA0@
	call	DWORD PTR __imp___wassert
	add	esp, 12					; 0000000cH
	cmp	esi, esp
	call	__RTC_CheckEsp
$LN3@peekChar:
; Line 198
	mov	eax, DWORD PTR _this$[ebp]
	movzx	ecx, WORD PTR [eax+20]
	mov	edx, DWORD PTR _this$[ebp]
	movzx	eax, WORD PTR [edx+ecx*2]
; Line 199
	pop	edi
	pop	esi
	pop	ebx
	add	esp, 204				; 000000ccH
	cmp	ebp, esp
	call	__RTC_CheckEsp
	mov	esp, ebp
	pop	ebp
	ret	0
?peekChar@?$circularBuffer@$09@TextProvider@touchgfx@@QAEGXZ ENDP ; touchgfx::TextProvider::circularBuffer<10>::peekChar
_TEXT	ENDS
; Function compile flags: /Odtp /RTCsu /ZI
;	COMDAT ?getNextLigature@TextProvider@touchgfx@@QAEGE@Z
_TEXT	SEGMENT
tv77 = -208						; size = 4
tv87 = -208						; size = 4
tv92 = -208						; size = 4
_this$ = -8						; size = 4
_direction$ = 8						; size = 1
?getNextLigature@TextProvider@touchgfx@@QAEGE@Z PROC	; touchgfx::TextProvider::getNextLigature, COMDAT
; _this$ = ecx
; File C:\DT\Solutions\Una\una-watch\Apps\Utility2\GUI\Software\App\TouchGFX-GUI\generated\texts\src\Texts.cpp
; Line 32
	push	ebp
	mov	ebp, esp
	sub	esp, 208				; 000000d0H
	push	ebx
	push	esi
	push	edi
	push	ecx
	lea	edi, DWORD PTR [ebp-16]
	mov	ecx, 4
	mov	eax, -858993460				; ccccccccH
	rep stosd
	pop	ecx
	mov	DWORD PTR _this$[ebp], ecx
	mov	ecx, OFFSET __0E4D0C4D_Texts@cpp
	call	@__CheckForDebuggerJustMyCode@4
	npad	1
; Line 33
	mov	eax, DWORD PTR _this$[ebp]
	cmp	DWORD PTR [eax+68], 0
	je	$LN3@getNextLig
	mov	ecx, DWORD PTR _this$[ebp]
	add	ecx, 34					; 00000022H
	call	?peekChar@?$circularBuffer@$09@TextProvider@touchgfx@@QAEGXZ ; touchgfx::TextProvider::circularBuffer<10>::peekChar
	movzx	eax, ax
	test	eax, eax
	je	SHORT $LN3@getNextLig
; Line 35
	mov	ecx, DWORD PTR _this$[ebp]
	call	?substituteGlyphs@TextProvider@touchgfx@@AAEXXZ ; touchgfx::TextProvider::substituteGlyphs
	npad	1
; Line 36
	mov	eax, DWORD PTR _this$[ebp]
	add	eax, 34					; 00000022H
	mov	DWORD PTR tv77[ebp], eax
	push	1
	mov	ecx, DWORD PTR tv77[ebp]
	call	?peekChar@?$circularBuffer@$09@TextProvider@touchgfx@@QAEGG@Z ; touchgfx::TextProvider::circularBuffer<10>::peekChar
	movzx	ecx, ax
	cmp	ecx, 2367				; 0000093fH
	jne	SHORT $LN3@getNextLig
; Line 38
	mov	eax, DWORD PTR _this$[ebp]
	add	eax, 34					; 00000022H
	mov	DWORD PTR tv87[ebp], eax
	mov	ecx, DWORD PTR _this$[ebp]
	add	ecx, 34					; 00000022H
	call	?peekChar@?$circularBuffer@$09@TextProvider@touchgfx@@QAEGXZ ; touchgfx::TextProvider::circularBuffer<10>::peekChar
	movzx	ecx, ax
	push	ecx
	mov	ecx, DWORD PTR tv87[ebp]
	call	?replaceAt1@?$circularBuffer@$09@TextProvider@touchgfx@@QAEXG@Z ; touchgfx::TextProvider::circularBuffer<10>::replaceAt1
	npad	1
; Line 39
	mov	eax, DWORD PTR _this$[ebp]
	add	eax, 34					; 00000022H
	mov	DWORD PTR tv92[ebp], eax
	push	2367					; 0000093fH
	mov	ecx, DWORD PTR tv92[ebp]
	call	?replaceAt0@?$circularBuffer@$09@TextProvider@touchgfx@@QAEXG@Z ; touchgfx::TextProvider::circularBuffer<10>::replaceAt0
	npad	1
$LN3@getNextLig:
; Line 42
	mov	ecx, DWORD PTR _this$[ebp]
	call	?getNextChar@TextProvider@touchgfx@@QAEGXZ ; touchgfx::TextProvider::getNextChar
; Line 43
	pop	edi
	pop	esi
	pop	ebx
	add	esp, 208				; 000000d0H
	cmp	ebp, esp
	call	__RTC_CheckEsp
	mov	esp, ebp
	pop	ebp
	ret	4
?getNextLigature@TextProvider@touchgfx@@QAEGE@Z ENDP	; touchgfx::TextProvider::getNextLigature
_TEXT	ENDS
; Function compile flags: /Odtp /RTCsu /ZI
;	COMDAT ?getStringWidth@Font@touchgfx@@UBAGEPBGZZ
_TEXT	SEGMENT
_width$ = -20						; size = 2
_pArg$ = -8						; size = 4
_this$ = 8						; size = 4
_textDirection$ = 12					; size = 1
_text$ = 16						; size = 4
?getStringWidth@Font@touchgfx@@UBAGEPBGZZ PROC		; touchgfx::Font::getStringWidth, COMDAT
; File C:\DT\Solutions\Una\una-watch\Apps\Utility2\GUI\Software\App\TouchGFX-GUI\generated\texts\src\Texts.cpp
; Line 23
	push	ebp
	mov	ebp, esp
	sub	esp, 228				; 000000e4H
	push	ebx
	push	esi
	push	edi
	lea	edi, DWORD PTR [ebp-36]
	mov	ecx, 9
	mov	eax, -858993460				; ccccccccH
	rep stosd
	mov	ecx, OFFSET __0E4D0C4D_Texts@cpp
	call	@__CheckForDebuggerJustMyCode@4
	npad	1
; Line 25
	lea	eax, DWORD PTR _text$[ebp+4]
	mov	DWORD PTR _pArg$[ebp], eax
; Line 26
	mov	eax, DWORD PTR _pArg$[ebp]
	push	eax
	mov	ecx, DWORD PTR _text$[ebp]
	push	ecx
	movzx	edx, BYTE PTR _textDirection$[ebp]
	push	edx
	mov	ecx, DWORD PTR _this$[ebp]
	call	?getStringWidthLTR@Font@touchgfx@@IBEGEPBGPAD@Z ; touchgfx::Font::getStringWidthLTR
	mov	WORD PTR _width$[ebp], ax
; Line 27
	mov	DWORD PTR _pArg$[ebp], 0
; Line 28
	movzx	eax, WORD PTR _width$[ebp]
; Line 29
	pop	edi
	pop	esi
	pop	ebx
	add	esp, 228				; 000000e4H
	cmp	ebp, esp
	call	__RTC_CheckEsp
	mov	esp, ebp
	pop	ebp
	ret	0
?getStringWidth@Font@touchgfx@@UBAGEPBGZZ ENDP		; touchgfx::Font::getStringWidth
_TEXT	ENDS
; Function compile flags: /Odtp /RTCsu /ZI
;	COMDAT ?getStringWidth@Font@touchgfx@@UBAGPBGZZ
_TEXT	SEGMENT
_width$ = -20						; size = 2
_pArg$ = -8						; size = 4
_this$ = 8						; size = 4
_text$ = 12						; size = 4
?getStringWidth@Font@touchgfx@@UBAGPBGZZ PROC		; touchgfx::Font::getStringWidth, COMDAT
; File C:\DT\Solutions\Una\una-watch\Apps\Utility2\GUI\Software\App\TouchGFX-GUI\generated\texts\src\Texts.cpp
; Line 14
	push	ebp
	mov	ebp, esp
	sub	esp, 228				; 000000e4H
	push	ebx
	push	esi
	push	edi
	lea	edi, DWORD PTR [ebp-36]
	mov	ecx, 9
	mov	eax, -858993460				; ccccccccH
	rep stosd
	mov	ecx, OFFSET __0E4D0C4D_Texts@cpp
	call	@__CheckForDebuggerJustMyCode@4
	npad	1
; Line 16
	lea	eax, DWORD PTR _text$[ebp+4]
	mov	DWORD PTR _pArg$[ebp], eax
; Line 17
	mov	eax, DWORD PTR _pArg$[ebp]
	push	eax
	mov	ecx, DWORD PTR _text$[ebp]
	push	ecx
	push	0
	mov	ecx, DWORD PTR _this$[ebp]
	call	?getStringWidthLTR@Font@touchgfx@@IBEGEPBGPAD@Z ; touchgfx::Font::getStringWidthLTR
	mov	WORD PTR _width$[ebp], ax
; Line 18
	mov	DWORD PTR _pArg$[ebp], 0
; Line 19
	movzx	eax, WORD PTR _width$[ebp]
; Line 20
	pop	edi
	pop	esi
	pop	ebx
	add	esp, 228				; 000000e4H
	cmp	ebp, esp
	call	__RTC_CheckEsp
	mov	esp, ebp
	pop	ebp
	ret	0
?getStringWidth@Font@touchgfx@@UBAGPBGZZ ENDP		; touchgfx::Font::getStringWidth
_TEXT	ENDS
END
