; Listing generated by Microsoft (R) Optimizing Compiler Version 19.42.34436.0 

	TITLE	C:\DT\Solutions\Una\una-watch\Apps\Utility2\GUI\Software\App\TouchGFX-GUI\build\Debug\obj\TypedTextDatabase.obj
	.686P
	.XMM
	include listing.inc
	.model	flat

INCLUDELIB MSVCRTD
INCLUDELIB OLDNAMES

PUBLIC	?typedText_database_DEFAULT@@3QBUTypedTextData@TypedText@touchgfx@@B ; typedText_database_DEFAULT
PUBLIC	?typedTextDatabaseArray@@3QBQBUTypedTextData@TypedText@touchgfx@@B ; typedTextDatabaseArray
msvcjmc	SEGMENT
__3A77C584_concurrencysal@h DB 01H
__7D61E6FE_sal@h DB 01H
__F85DFF2E_vadefs@h DB 01H
__E62C82FD_vcruntime@h DB 01H
__B48F2F87_stdarg@h DB 01H
__B193B045_corecrt@h DB 01H
__829D5E02_assert@h DB 01H
__80509148_stdint@h DB 01H
__CA6578A3_Config@hpp DB 01H
__26FA5A17_Types@hpp DB 01H
__614D25B1_Unicode@hpp DB 01H
__EEB25667_Font@hpp DB 01H
__F80C1609_Texts@hpp DB 01H
__F5EBA356_TypedText@hpp DB 01H
__EA2B9F45_ConstFont@hpp DB 01H
__58182536_GeneratedFont@hpp DB 01H
__EE07DCCC_TypedTextDatabase@hpp DB 01H
__3154E9B1_TypedTextDatabase@cpp DB 01H
msvcjmc	ENDS
CONST	SEGMENT
?typedText_database_DEFAULT@@3QBUTypedTextData@TypedText@touchgfx@@B DB 00H ; typedText_database_DEFAULT
	DB	01H
	DB	00H
	DB	00H
	DB	00H
	DB	02H
	DB	0bH
	DB	01H
	DB	0bH
	DB	00H
	DB	0bH
	DB	02H
	DB	0cH
	DB	01H
	DB	01H
	DB	01H
	DB	02H
	DB	01H
	DB	02H
	DB	00H
	DB	03H
	DB	01H
	DB	04H
	DB	01H
	DB	06H
	DB	01H
	DB	06H
	DB	00H
	DB	06H
	DB	02H
	DB	07H
	DB	01H
	DB	03H
	DB	01H
	DB	03H
	DB	00H
	DB	03H
	DB	02H
	DB	08H
	DB	01H
	DB	08H
	DB	00H
	DB	08H
	DB	02H
	DB	09H
	DB	01H
	DB	09H
	DB	02H
	DB	09H
	DB	00H
	DB	0aH
	DB	01H
	DB	0aH
	DB	02H
	DB	05H
	DB	01H
	DB	05H
	DB	00H
	DB	05H
	DB	02H
	DB	0eH
	DB	01H
	DB	0eH
	DB	00H
	DB	0eH
	DB	02H
	DB	00H
	DB	00H
	DB	00H
	DB	00H
	DB	00H
	DB	00H
	DB	00H
	DB	00H
	DB	00H
	DB	00H
	DB	00H
	DB	00H
	DB	00H
	DB	00H
	DB	00H
	DB	00H
	DB	00H
	DB	00H
	DB	00H
	DB	00H
	DB	00H
	DB	00H
	DB	00H
	DB	00H
	DB	00H
	DB	00H
	DB	00H
	DB	00H
	DB	00H
	DB	00H
	DB	00H
	DB	00H
	DB	00H
	DB	00H
	DB	00H
	DB	00H
	DB	00H
	DB	00H
	DB	00H
	DB	00H
	DB	00H
	DB	00H
	DB	00H
	DB	00H
	DB	00H
	DB	00H
	DB	00H
	DB	00H
	DB	00H
	DB	00H
	DB	03H
	DB	01H
	DB	03H
	DB	01H
?typedTextDatabaseArray@@3QBQBUTypedTextData@TypedText@touchgfx@@B DD FLAT:?typedText_database_DEFAULT@@3QBUTypedTextData@TypedText@touchgfx@@B ; typedTextDatabaseArray
CONST	ENDS
PUBLIC	?getInstance@TypedTextDatabase@@YAPBUTypedTextData@TypedText@touchgfx@@G@Z ; TypedTextDatabase::getInstance
PUBLIC	?getFonts@TypedTextDatabase@@YAPAPBVFont@touchgfx@@XZ ; TypedTextDatabase::getFonts
PUBLIC	?setFont@TypedTextDatabase@@YAPBVFont@touchgfx@@GPBV23@@Z ; TypedTextDatabase::setFont
PUBLIC	?resetFont@TypedTextDatabase@@YAXG@Z		; TypedTextDatabase::resetFont
PUBLIC	?getInstanceSize@TypedTextDatabase@@YAGXZ	; TypedTextDatabase::getInstanceSize
PUBLIC	__JustMyCode_Default
PUBLIC	?touchgfx_fonts@@3PAPBVFont@touchgfx@@A		; touchgfx_fonts
EXTRN	?getFont_Poppins_Regular_18_2bpp@@YAAAVGeneratedFont@touchgfx@@XZ:PROC ; getFont_Poppins_Regular_18_2bpp
EXTRN	?getFont_Poppins_Medium_10_2bpp@@YAAAVGeneratedFont@touchgfx@@XZ:PROC ; getFont_Poppins_Medium_10_2bpp
EXTRN	?getFont_Poppins_Medium_18_2bpp@@YAAAVGeneratedFont@touchgfx@@XZ:PROC ; getFont_Poppins_Medium_18_2bpp
EXTRN	?getFont_Poppins_SemiBold_25_2bpp@@YAAAVGeneratedFont@touchgfx@@XZ:PROC ; getFont_Poppins_SemiBold_25_2bpp
EXTRN	?getFont_Poppins_Medium_50_2bpp@@YAAAVGeneratedFont@touchgfx@@XZ:PROC ; getFont_Poppins_Medium_50_2bpp
EXTRN	?getFont_Poppins_SemiBold_60_2bpp@@YAAAVGeneratedFont@touchgfx@@XZ:PROC ; getFont_Poppins_SemiBold_60_2bpp
EXTRN	?getFont_Poppins_SemiBold_18_2bpp@@YAAAVGeneratedFont@touchgfx@@XZ:PROC ; getFont_Poppins_SemiBold_18_2bpp
EXTRN	?getFont_Poppins_SemiBold_20_2bpp@@YAAAVGeneratedFont@touchgfx@@XZ:PROC ; getFont_Poppins_SemiBold_20_2bpp
EXTRN	?getFont_Poppins_SemiBold_30_2bpp@@YAAAVGeneratedFont@touchgfx@@XZ:PROC ; getFont_Poppins_SemiBold_30_2bpp
EXTRN	?getFont_Poppins_SemiBold_35_2bpp@@YAAAVGeneratedFont@touchgfx@@XZ:PROC ; getFont_Poppins_SemiBold_35_2bpp
EXTRN	?getFont_Poppins_SemiBold_40_2bpp@@YAAAVGeneratedFont@touchgfx@@XZ:PROC ; getFont_Poppins_SemiBold_40_2bpp
EXTRN	?getFont_Poppins_Italic_18_2bpp@@YAAAVGeneratedFont@touchgfx@@XZ:PROC ; getFont_Poppins_Italic_18_2bpp
EXTRN	?getFont_Poppins_Italic_20_2bpp@@YAAAVGeneratedFont@touchgfx@@XZ:PROC ; getFont_Poppins_Italic_20_2bpp
EXTRN	?getFont_Poppins_LightItalic_18_2bpp@@YAAAVGeneratedFont@touchgfx@@XZ:PROC ; getFont_Poppins_LightItalic_18_2bpp
EXTRN	?getFont_Poppins_Light_60_2bpp@@YAAAVGeneratedFont@touchgfx@@XZ:PROC ; getFont_Poppins_Light_60_2bpp
EXTRN	@__CheckForDebuggerJustMyCode@4:PROC
EXTRN	__RTC_CheckEsp:PROC
EXTRN	__RTC_InitBase:PROC
EXTRN	__RTC_Shutdown:PROC
_BSS	SEGMENT
?touchgfx_fonts@@3PAPBVFont@touchgfx@@A DD 0fH DUP (?)	; touchgfx_fonts
_BSS	ENDS
CRT$XCU	SEGMENT
?touchgfx_fonts$initializer$@@3P6AXXZA DD FLAT:??__Etouchgfx_fonts@@YAXXZ ; touchgfx_fonts$initializer$
CRT$XCU	ENDS
;	COMDAT rtc$TMZ
rtc$TMZ	SEGMENT
__RTC_Shutdown.rtc$TMZ DD FLAT:__RTC_Shutdown
rtc$TMZ	ENDS
;	COMDAT rtc$IMZ
rtc$IMZ	SEGMENT
__RTC_InitBase.rtc$IMZ DD FLAT:__RTC_InitBase
rtc$IMZ	ENDS
; Function compile flags: /Odt
;	COMDAT __JustMyCode_Default
_TEXT	SEGMENT
__JustMyCode_Default PROC				; COMDAT
	push	ebp
	mov	ebp, esp
	pop	ebp
	ret	0
__JustMyCode_Default ENDP
_TEXT	ENDS
; Function compile flags: /Odtp /RTCsu /ZI
;	COMDAT ??__Etouchgfx_fonts@@YAXXZ
text$di	SEGMENT
??__Etouchgfx_fonts@@YAXXZ PROC				; `dynamic initializer for 'touchgfx_fonts'', COMDAT
; File C:\DT\Solutions\Una\una-watch\Apps\Utility2\GUI\Software\App\TouchGFX-GUI\generated\texts\src\TypedTextDatabase.cpp
; Line 40
	push	ebp
	mov	ebp, esp
	sub	esp, 192				; 000000c0H
	push	ebx
	push	esi
	push	edi
	mov	edi, ebp
	xor	ecx, ecx
	mov	eax, -858993460				; ccccccccH
	rep stosd
	mov	ecx, OFFSET __3154E9B1_TypedTextDatabase@cpp
	call	@__CheckForDebuggerJustMyCode@4
	npad	1
; Line 25
	call	?getFont_Poppins_Regular_18_2bpp@@YAAAVGeneratedFont@touchgfx@@XZ ; getFont_Poppins_Regular_18_2bpp
	mov	DWORD PTR ?touchgfx_fonts@@3PAPBVFont@touchgfx@@A, eax
; Line 26
	call	?getFont_Poppins_Medium_10_2bpp@@YAAAVGeneratedFont@touchgfx@@XZ ; getFont_Poppins_Medium_10_2bpp
	mov	DWORD PTR ?touchgfx_fonts@@3PAPBVFont@touchgfx@@A+4, eax
; Line 27
	call	?getFont_Poppins_Medium_18_2bpp@@YAAAVGeneratedFont@touchgfx@@XZ ; getFont_Poppins_Medium_18_2bpp
	mov	DWORD PTR ?touchgfx_fonts@@3PAPBVFont@touchgfx@@A+8, eax
; Line 28
	call	?getFont_Poppins_SemiBold_25_2bpp@@YAAAVGeneratedFont@touchgfx@@XZ ; getFont_Poppins_SemiBold_25_2bpp
	mov	DWORD PTR ?touchgfx_fonts@@3PAPBVFont@touchgfx@@A+12, eax
; Line 29
	call	?getFont_Poppins_Medium_50_2bpp@@YAAAVGeneratedFont@touchgfx@@XZ ; getFont_Poppins_Medium_50_2bpp
	mov	DWORD PTR ?touchgfx_fonts@@3PAPBVFont@touchgfx@@A+16, eax
; Line 30
	call	?getFont_Poppins_SemiBold_60_2bpp@@YAAAVGeneratedFont@touchgfx@@XZ ; getFont_Poppins_SemiBold_60_2bpp
	mov	DWORD PTR ?touchgfx_fonts@@3PAPBVFont@touchgfx@@A+20, eax
; Line 31
	call	?getFont_Poppins_SemiBold_18_2bpp@@YAAAVGeneratedFont@touchgfx@@XZ ; getFont_Poppins_SemiBold_18_2bpp
	mov	DWORD PTR ?touchgfx_fonts@@3PAPBVFont@touchgfx@@A+24, eax
; Line 32
	call	?getFont_Poppins_SemiBold_20_2bpp@@YAAAVGeneratedFont@touchgfx@@XZ ; getFont_Poppins_SemiBold_20_2bpp
	mov	DWORD PTR ?touchgfx_fonts@@3PAPBVFont@touchgfx@@A+28, eax
; Line 33
	call	?getFont_Poppins_SemiBold_30_2bpp@@YAAAVGeneratedFont@touchgfx@@XZ ; getFont_Poppins_SemiBold_30_2bpp
	mov	DWORD PTR ?touchgfx_fonts@@3PAPBVFont@touchgfx@@A+32, eax
; Line 34
	call	?getFont_Poppins_SemiBold_35_2bpp@@YAAAVGeneratedFont@touchgfx@@XZ ; getFont_Poppins_SemiBold_35_2bpp
	mov	DWORD PTR ?touchgfx_fonts@@3PAPBVFont@touchgfx@@A+36, eax
; Line 35
	call	?getFont_Poppins_SemiBold_40_2bpp@@YAAAVGeneratedFont@touchgfx@@XZ ; getFont_Poppins_SemiBold_40_2bpp
	mov	DWORD PTR ?touchgfx_fonts@@3PAPBVFont@touchgfx@@A+40, eax
; Line 36
	call	?getFont_Poppins_Italic_18_2bpp@@YAAAVGeneratedFont@touchgfx@@XZ ; getFont_Poppins_Italic_18_2bpp
	mov	DWORD PTR ?touchgfx_fonts@@3PAPBVFont@touchgfx@@A+44, eax
; Line 37
	call	?getFont_Poppins_Italic_20_2bpp@@YAAAVGeneratedFont@touchgfx@@XZ ; getFont_Poppins_Italic_20_2bpp
	mov	DWORD PTR ?touchgfx_fonts@@3PAPBVFont@touchgfx@@A+48, eax
; Line 38
	call	?getFont_Poppins_LightItalic_18_2bpp@@YAAAVGeneratedFont@touchgfx@@XZ ; getFont_Poppins_LightItalic_18_2bpp
	mov	DWORD PTR ?touchgfx_fonts@@3PAPBVFont@touchgfx@@A+52, eax
; Line 39
	call	?getFont_Poppins_Light_60_2bpp@@YAAAVGeneratedFont@touchgfx@@XZ ; getFont_Poppins_Light_60_2bpp
	mov	DWORD PTR ?touchgfx_fonts@@3PAPBVFont@touchgfx@@A+56, eax
	pop	edi
	pop	esi
	pop	ebx
	add	esp, 192				; 000000c0H
	cmp	ebp, esp
	call	__RTC_CheckEsp
	mov	esp, ebp
	pop	ebp
	ret	0
??__Etouchgfx_fonts@@YAXXZ ENDP				; `dynamic initializer for 'touchgfx_fonts''
text$di	ENDS
; Function compile flags: /Odtp /RTCsu /ZI
;	COMDAT ?getInstanceSize@TypedTextDatabase@@YAGXZ
_TEXT	SEGMENT
?getInstanceSize@TypedTextDatabase@@YAGXZ PROC		; TypedTextDatabase::getInstanceSize, COMDAT
; File C:\DT\Solutions\Una\una-watch\Apps\Utility2\GUI\Software\App\TouchGFX-GUI\generated\texts\src\TypedTextDatabase.cpp
; Line 122
	push	ebp
	mov	ebp, esp
	sub	esp, 192				; 000000c0H
	push	ebx
	push	esi
	push	edi
	mov	edi, ebp
	xor	ecx, ecx
	mov	eax, -858993460				; ccccccccH
	rep stosd
	mov	ecx, OFFSET __3154E9B1_TypedTextDatabase@cpp
	call	@__CheckForDebuggerJustMyCode@4
	npad	1
; Line 123
	mov	eax, 60					; 0000003cH
; Line 124
	pop	edi
	pop	esi
	pop	ebx
	add	esp, 192				; 000000c0H
	cmp	ebp, esp
	call	__RTC_CheckEsp
	mov	esp, ebp
	pop	ebp
	ret	0
?getInstanceSize@TypedTextDatabase@@YAGXZ ENDP		; TypedTextDatabase::getInstanceSize
_TEXT	ENDS
; Function compile flags: /Odtp /RTCsu /ZI
;	COMDAT ?resetFont@TypedTextDatabase@@YAXG@Z
_TEXT	SEGMENT
tv65 = -196						; size = 4
_fontId$ = 8						; size = 2
?resetFont@TypedTextDatabase@@YAXG@Z PROC		; TypedTextDatabase::resetFont, COMDAT
; File C:\DT\Solutions\Una\una-watch\Apps\Utility2\GUI\Software\App\TouchGFX-GUI\generated\texts\src\TypedTextDatabase.cpp
; Line 139
	push	ebp
	mov	ebp, esp
	sub	esp, 196				; 000000c4H
	push	ebx
	push	esi
	push	edi
	lea	edi, DWORD PTR [ebp-4]
	mov	ecx, 1
	mov	eax, -858993460				; ccccccccH
	rep stosd
	mov	ecx, OFFSET __3154E9B1_TypedTextDatabase@cpp
	call	@__CheckForDebuggerJustMyCode@4
	npad	1
; Line 140
	movzx	eax, WORD PTR _fontId$[ebp]
	mov	DWORD PTR tv65[ebp], eax
	cmp	DWORD PTR tv65[ebp], 14			; 0000000eH
	ja	$LN2@resetFont
	mov	ecx, DWORD PTR tv65[ebp]
	jmp	DWORD PTR $LN20@resetFont[ecx*4]
$LN4@resetFont:
; Line 143
	call	?getFont_Poppins_Regular_18_2bpp@@YAAAVGeneratedFont@touchgfx@@XZ ; getFont_Poppins_Regular_18_2bpp
	mov	ecx, 4
	imul	edx, ecx, 0
	mov	DWORD PTR ?touchgfx_fonts@@3PAPBVFont@touchgfx@@A[edx], eax
; Line 144
	jmp	$LN2@resetFont
$LN5@resetFont:
; Line 146
	call	?getFont_Poppins_Medium_10_2bpp@@YAAAVGeneratedFont@touchgfx@@XZ ; getFont_Poppins_Medium_10_2bpp
	mov	ecx, 4
	shl	ecx, 0
	mov	DWORD PTR ?touchgfx_fonts@@3PAPBVFont@touchgfx@@A[ecx], eax
; Line 147
	jmp	$LN2@resetFont
$LN6@resetFont:
; Line 149
	call	?getFont_Poppins_Medium_18_2bpp@@YAAAVGeneratedFont@touchgfx@@XZ ; getFont_Poppins_Medium_18_2bpp
	mov	ecx, 4
	shl	ecx, 1
	mov	DWORD PTR ?touchgfx_fonts@@3PAPBVFont@touchgfx@@A[ecx], eax
; Line 150
	jmp	$LN2@resetFont
$LN7@resetFont:
; Line 152
	call	?getFont_Poppins_SemiBold_25_2bpp@@YAAAVGeneratedFont@touchgfx@@XZ ; getFont_Poppins_SemiBold_25_2bpp
	mov	ecx, 4
	imul	edx, ecx, 3
	mov	DWORD PTR ?touchgfx_fonts@@3PAPBVFont@touchgfx@@A[edx], eax
; Line 153
	jmp	$LN2@resetFont
$LN8@resetFont:
; Line 155
	call	?getFont_Poppins_Medium_50_2bpp@@YAAAVGeneratedFont@touchgfx@@XZ ; getFont_Poppins_Medium_50_2bpp
	mov	ecx, 4
	shl	ecx, 2
	mov	DWORD PTR ?touchgfx_fonts@@3PAPBVFont@touchgfx@@A[ecx], eax
; Line 156
	jmp	$LN2@resetFont
$LN9@resetFont:
; Line 158
	call	?getFont_Poppins_SemiBold_60_2bpp@@YAAAVGeneratedFont@touchgfx@@XZ ; getFont_Poppins_SemiBold_60_2bpp
	mov	ecx, 4
	imul	edx, ecx, 5
	mov	DWORD PTR ?touchgfx_fonts@@3PAPBVFont@touchgfx@@A[edx], eax
; Line 159
	jmp	$LN2@resetFont
$LN10@resetFont:
; Line 161
	call	?getFont_Poppins_SemiBold_18_2bpp@@YAAAVGeneratedFont@touchgfx@@XZ ; getFont_Poppins_SemiBold_18_2bpp
	mov	ecx, 4
	imul	edx, ecx, 6
	mov	DWORD PTR ?touchgfx_fonts@@3PAPBVFont@touchgfx@@A[edx], eax
; Line 162
	jmp	$LN2@resetFont
$LN11@resetFont:
; Line 164
	call	?getFont_Poppins_SemiBold_20_2bpp@@YAAAVGeneratedFont@touchgfx@@XZ ; getFont_Poppins_SemiBold_20_2bpp
	mov	ecx, 4
	imul	edx, ecx, 7
	mov	DWORD PTR ?touchgfx_fonts@@3PAPBVFont@touchgfx@@A[edx], eax
; Line 165
	jmp	$LN2@resetFont
$LN12@resetFont:
; Line 167
	call	?getFont_Poppins_SemiBold_30_2bpp@@YAAAVGeneratedFont@touchgfx@@XZ ; getFont_Poppins_SemiBold_30_2bpp
	mov	ecx, 4
	shl	ecx, 3
	mov	DWORD PTR ?touchgfx_fonts@@3PAPBVFont@touchgfx@@A[ecx], eax
; Line 168
	jmp	SHORT $LN2@resetFont
$LN13@resetFont:
; Line 170
	call	?getFont_Poppins_SemiBold_35_2bpp@@YAAAVGeneratedFont@touchgfx@@XZ ; getFont_Poppins_SemiBold_35_2bpp
	mov	ecx, 4
	imul	edx, ecx, 9
	mov	DWORD PTR ?touchgfx_fonts@@3PAPBVFont@touchgfx@@A[edx], eax
; Line 171
	jmp	SHORT $LN2@resetFont
$LN14@resetFont:
; Line 173
	call	?getFont_Poppins_SemiBold_40_2bpp@@YAAAVGeneratedFont@touchgfx@@XZ ; getFont_Poppins_SemiBold_40_2bpp
	mov	ecx, 4
	imul	edx, ecx, 10
	mov	DWORD PTR ?touchgfx_fonts@@3PAPBVFont@touchgfx@@A[edx], eax
; Line 174
	jmp	SHORT $LN2@resetFont
$LN15@resetFont:
; Line 176
	call	?getFont_Poppins_Italic_18_2bpp@@YAAAVGeneratedFont@touchgfx@@XZ ; getFont_Poppins_Italic_18_2bpp
	mov	ecx, 4
	imul	edx, ecx, 11
	mov	DWORD PTR ?touchgfx_fonts@@3PAPBVFont@touchgfx@@A[edx], eax
; Line 177
	jmp	SHORT $LN2@resetFont
$LN16@resetFont:
; Line 179
	call	?getFont_Poppins_Italic_20_2bpp@@YAAAVGeneratedFont@touchgfx@@XZ ; getFont_Poppins_Italic_20_2bpp
	mov	ecx, 4
	imul	edx, ecx, 12
	mov	DWORD PTR ?touchgfx_fonts@@3PAPBVFont@touchgfx@@A[edx], eax
; Line 180
	jmp	SHORT $LN2@resetFont
$LN17@resetFont:
; Line 182
	call	?getFont_Poppins_LightItalic_18_2bpp@@YAAAVGeneratedFont@touchgfx@@XZ ; getFont_Poppins_LightItalic_18_2bpp
	mov	ecx, 4
	imul	edx, ecx, 13
	mov	DWORD PTR ?touchgfx_fonts@@3PAPBVFont@touchgfx@@A[edx], eax
; Line 183
	jmp	SHORT $LN2@resetFont
$LN18@resetFont:
; Line 185
	call	?getFont_Poppins_Light_60_2bpp@@YAAAVGeneratedFont@touchgfx@@XZ ; getFont_Poppins_Light_60_2bpp
	mov	ecx, 4
	imul	edx, ecx, 14
	mov	DWORD PTR ?touchgfx_fonts@@3PAPBVFont@touchgfx@@A[edx], eax
$LN2@resetFont:
; Line 188
	pop	edi
	pop	esi
	pop	ebx
	add	esp, 196				; 000000c4H
	cmp	ebp, esp
	call	__RTC_CheckEsp
	mov	esp, ebp
	pop	ebp
	ret	0
	npad	2
$LN20@resetFont:
	DD	$LN4@resetFont
	DD	$LN5@resetFont
	DD	$LN6@resetFont
	DD	$LN7@resetFont
	DD	$LN8@resetFont
	DD	$LN9@resetFont
	DD	$LN10@resetFont
	DD	$LN11@resetFont
	DD	$LN12@resetFont
	DD	$LN13@resetFont
	DD	$LN14@resetFont
	DD	$LN15@resetFont
	DD	$LN16@resetFont
	DD	$LN17@resetFont
	DD	$LN18@resetFont
?resetFont@TypedTextDatabase@@YAXG@Z ENDP		; TypedTextDatabase::resetFont
_TEXT	ENDS
; Function compile flags: /Odtp /RTCsu /ZI
;	COMDAT ?setFont@TypedTextDatabase@@YAPBVFont@touchgfx@@GPBV23@@Z
_TEXT	SEGMENT
_old$ = -8						; size = 4
_fontId$ = 8						; size = 2
_font$ = 12						; size = 4
?setFont@TypedTextDatabase@@YAPBVFont@touchgfx@@GPBV23@@Z PROC ; TypedTextDatabase::setFont, COMDAT
; File C:\DT\Solutions\Una\una-watch\Apps\Utility2\GUI\Software\App\TouchGFX-GUI\generated\texts\src\TypedTextDatabase.cpp
; Line 132
	push	ebp
	mov	ebp, esp
	sub	esp, 204				; 000000ccH
	push	ebx
	push	esi
	push	edi
	lea	edi, DWORD PTR [ebp-12]
	mov	ecx, 3
	mov	eax, -858993460				; ccccccccH
	rep stosd
	mov	ecx, OFFSET __3154E9B1_TypedTextDatabase@cpp
	call	@__CheckForDebuggerJustMyCode@4
	npad	1
; Line 133
	movzx	eax, WORD PTR _fontId$[ebp]
	mov	ecx, DWORD PTR ?touchgfx_fonts@@3PAPBVFont@touchgfx@@A[eax*4]
	mov	DWORD PTR _old$[ebp], ecx
; Line 134
	movzx	eax, WORD PTR _fontId$[ebp]
	mov	ecx, DWORD PTR _font$[ebp]
	mov	DWORD PTR ?touchgfx_fonts@@3PAPBVFont@touchgfx@@A[eax*4], ecx
; Line 135
	mov	eax, DWORD PTR _old$[ebp]
; Line 136
	pop	edi
	pop	esi
	pop	ebx
	add	esp, 204				; 000000ccH
	cmp	ebp, esp
	call	__RTC_CheckEsp
	mov	esp, ebp
	pop	ebp
	ret	0
?setFont@TypedTextDatabase@@YAPBVFont@touchgfx@@GPBV23@@Z ENDP ; TypedTextDatabase::setFont
_TEXT	ENDS
; Function compile flags: /Odtp /RTCsu /ZI
;	COMDAT ?getFonts@TypedTextDatabase@@YAPAPBVFont@touchgfx@@XZ
_TEXT	SEGMENT
?getFonts@TypedTextDatabase@@YAPAPBVFont@touchgfx@@XZ PROC ; TypedTextDatabase::getFonts, COMDAT
; File C:\DT\Solutions\Una\una-watch\Apps\Utility2\GUI\Software\App\TouchGFX-GUI\generated\texts\src\TypedTextDatabase.cpp
; Line 127
	push	ebp
	mov	ebp, esp
	sub	esp, 192				; 000000c0H
	push	ebx
	push	esi
	push	edi
	mov	edi, ebp
	xor	ecx, ecx
	mov	eax, -858993460				; ccccccccH
	rep stosd
	mov	ecx, OFFSET __3154E9B1_TypedTextDatabase@cpp
	call	@__CheckForDebuggerJustMyCode@4
	npad	1
; Line 128
	mov	eax, OFFSET ?touchgfx_fonts@@3PAPBVFont@touchgfx@@A ; touchgfx_fonts
; Line 129
	pop	edi
	pop	esi
	pop	ebx
	add	esp, 192				; 000000c0H
	cmp	ebp, esp
	call	__RTC_CheckEsp
	mov	esp, ebp
	pop	ebp
	ret	0
?getFonts@TypedTextDatabase@@YAPAPBVFont@touchgfx@@XZ ENDP ; TypedTextDatabase::getFonts
_TEXT	ENDS
; Function compile flags: /Odtp /RTCsu /ZI
;	COMDAT ?getInstance@TypedTextDatabase@@YAPBUTypedTextData@TypedText@touchgfx@@G@Z
_TEXT	SEGMENT
_id$ = 8						; size = 2
?getInstance@TypedTextDatabase@@YAPBUTypedTextData@TypedText@touchgfx@@G@Z PROC ; TypedTextDatabase::getInstance, COMDAT
; File C:\DT\Solutions\Una\una-watch\Apps\Utility2\GUI\Software\App\TouchGFX-GUI\generated\texts\src\TypedTextDatabase.cpp
; Line 117
	push	ebp
	mov	ebp, esp
	sub	esp, 192				; 000000c0H
	push	ebx
	push	esi
	push	edi
	mov	edi, ebp
	xor	ecx, ecx
	mov	eax, -858993460				; ccccccccH
	rep stosd
	mov	ecx, OFFSET __3154E9B1_TypedTextDatabase@cpp
	call	@__CheckForDebuggerJustMyCode@4
	npad	1
; Line 118
	movzx	eax, WORD PTR _id$[ebp]
	mov	eax, DWORD PTR ?typedTextDatabaseArray@@3QBQBUTypedTextData@TypedText@touchgfx@@B[eax*4]
; Line 119
	pop	edi
	pop	esi
	pop	ebx
	add	esp, 192				; 000000c0H
	cmp	ebp, esp
	call	__RTC_CheckEsp
	mov	esp, ebp
	pop	ebp
	ret	0
?getInstance@TypedTextDatabase@@YAPBUTypedTextData@TypedText@touchgfx@@G@Z ENDP ; TypedTextDatabase::getInstance
_TEXT	ENDS
END
