
Utility1GUI-CubeIDE.elf:     file format elf32-littlearm

Sections:
Idx Name          Size      VMA       LMA       File off  Algn
  0 .text         00000edc  20000000  20000000  00001000  2**3
                  CONTENTS, ALLOC, LOAD, RELOC, READONLY, CODE
  1 .preinit_array 00000000  20000edc  20000fac  00001fac  2**0
                  CONTENTS, ALLOC, LOAD, DATA
  2 .init_array   00000000  20000edc  20000fac  00001fac  2**0
                  CONTENTS, ALLOC, LOAD, DATA
  3 .fini_array   00000000  20000edc  20000fac  00001fac  2**0
                  CONTENTS, ALLOC, LOAD, DATA
  4 .plt          00000000  20000edc  20000fac  00001fac  2**0
                  CONTENTS, ALLOC, LOAD, CODE
  5 .data         0000009c  20000edc  20000edc  00001edc  2**2
                  CONTENTS, ALLOC, LOAD, RELOC, DATA
  6 .got          00000034  20000f78  20000f78  00001f78  2**2
                  CONTENTS, ALLOC, LOAD, DATA
  7 .bss          00000000  20000fac  20000fac  00000000  2**0
                  ALLOC
  8 .stack        00002800  20000fac  20000fac  00001fac  2**0
                  ALLOC
  9 .ARM.attributes 00000038  00000000  00000000  00001fac  2**0
                  CONTENTS, READONLY
 10 .debug_info   0000d559  00000000  00000000  00001fe4  2**0
                  CONTENTS, RELOC, READONLY, DEBUGGING, OCTETS
 11 .debug_abbrev 00001276  00000000  00000000  0000f53d  2**0
                  CONTENTS, READONLY, DEBUGGING, OCTETS
 12 .debug_aranges 00000358  00000000  00000000  000107b3  2**0
                  CONTENTS, RELOC, READONLY, DEBUGGING, OCTETS
 13 .debug_rnglists 0000027b  00000000  00000000  00010b0b  2**0
                  CONTENTS, RELOC, READONLY, DEBUGGING, OCTETS
 14 .debug_macro  00005333  00000000  00000000  00010d86  2**0
                  CONTENTS, RELOC, READONLY, DEBUGGING, OCTETS
 15 .debug_line   00003b57  00000000  00000000  000160b9  2**0
                  CONTENTS, RELOC, READONLY, DEBUGGING, OCTETS
 16 .debug_str    0001cc9a  00000000  00000000  00019c10  2**0
                  CONTENTS, READONLY, DEBUGGING, OCTETS
 17 .comment      00000043  00000000  00000000  000368aa  2**0
                  CONTENTS, READONLY
 18 .debug_frame  00000e70  00000000  00000000  000368f0  2**2
                  CONTENTS, RELOC, READONLY, DEBUGGING, OCTETS

Disassembly of section .text:

20000000 <AppStart>:
20000000:	4681      	mov	r9, r0
20000002:	4a09      	ldr	r2, [pc, #36]	@ (20000028 <LoopFillZerobss+0x1c>)
20000004:	e002      	b.n	2000000c <LoopFillZerobss>

20000006 <FillZerobss>:
20000006:	2300      	movs	r3, #0
20000008:	f842 3b04 	str.w	r3, [r2], #4

2000000c <LoopFillZerobss>:
2000000c:	4b07      	ldr	r3, [pc, #28]	@ (2000002c <LoopFillZerobss+0x20>)
2000000e:	429a      	cmp	r2, r3
20000010:	d3f9      	bcc.n	20000006 <FillZerobss>
20000012:	f000 fd5f 	bl	20000ad4 <__una_init_array>
20000016:	f000 fae7 	bl	200005e8 <main>
2000001a:	b401      	push	{r0}
2000001c:	f000 fd9e 	bl	20000b5c <__una_fini_array>
20000020:	bc01      	pop	{r0}
20000022:	f000 fe2f 	bl	20000c84 <exitA>
20000026:	4770      	bx	lr
20000028:	20000fac 	.word	0x20000fac
2000002c:	20000fac 	.word	0x20000fac

20000030 <_ZN9Interface8IUserApp8Callback8onCreateEv>:
    public:
        /**
         * @brief Called after the application confirms initialization via 'initialized()'.
         * @note  State: No ticks, no keys, no display.
         */
        virtual void onCreate() {};
20000030:	b480      	push	{r7}
20000032:	b083      	sub	sp, #12
20000034:	af00      	add	r7, sp, #0
20000036:	6078      	str	r0, [r7, #4]
20000038:	bf00      	nop
2000003a:	370c      	adds	r7, #12
2000003c:	46bd      	mov	sp, r7
2000003e:	f85d 7b04 	ldr.w	r7, [sp], #4
20000042:	4770      	bx	lr

20000044 <_ZN9Interface8IUserApp8Callback7onStartEv>:

        /**
         * @brief Called after 'onCreate()' or after 'onStop()' to restart the application.
         * @note  State: Ticks enabled, no keys, no display.
         */
        virtual void onStart() {};
20000044:	b480      	push	{r7}
20000046:	b083      	sub	sp, #12
20000048:	af00      	add	r7, sp, #0
2000004a:	6078      	str	r0, [r7, #4]
2000004c:	bf00      	nop
2000004e:	370c      	adds	r7, #12
20000050:	46bd      	mov	sp, r7
20000052:	f85d 7b04 	ldr.w	r7, [sp], #4
20000056:	4770      	bx	lr

20000058 <_ZN9Interface8IUserApp8Callback8onResumeEv>:
        /**
         * @brief Called when the kernel switches display focus to this application.
         * @note  Can be triggered after 'onStart()' or 'onPause()'.
         * @note  State: Ticks enabled, keys enabled, display active.
         */
        virtual void onResume() {};
20000058:	b480      	push	{r7}
2000005a:	b083      	sub	sp, #12
2000005c:	af00      	add	r7, sp, #0
2000005e:	6078      	str	r0, [r7, #4]
20000060:	bf00      	nop
20000062:	370c      	adds	r7, #12
20000064:	46bd      	mov	sp, r7
20000066:	f85d 7b04 	ldr.w	r7, [sp], #4
2000006a:	4770      	bx	lr

2000006c <_ZN9Interface8IUserApp8Callback7onFrameEv>:

        /**
         * @brief Called on every frame tick when the application is in the 'resume' state.
         */
        virtual void onFrame() {};
2000006c:	b480      	push	{r7}
2000006e:	b083      	sub	sp, #12
20000070:	af00      	add	r7, sp, #0
20000072:	6078      	str	r0, [r7, #4]
20000074:	bf00      	nop
20000076:	370c      	adds	r7, #12
20000078:	46bd      	mov	sp, r7
2000007a:	f85d 7b04 	ldr.w	r7, [sp], #4
2000007e:	4770      	bx	lr

20000080 <_ZN9Interface8IUserApp8Callback7onPauseEv>:
        /**
         * @brief Called when the kernel switches display focus to another task.
         * @note  Can be triggered after 'onResume()'.
         * @note  State: Ticks enabled, no keys, no display.
         */
        virtual void onPause() {};
20000080:	b480      	push	{r7}
20000082:	b083      	sub	sp, #12
20000084:	af00      	add	r7, sp, #0
20000086:	6078      	str	r0, [r7, #4]
20000088:	bf00      	nop
2000008a:	370c      	adds	r7, #12
2000008c:	46bd      	mov	sp, r7
2000008e:	f85d 7b04 	ldr.w	r7, [sp], #4
20000092:	4770      	bx	lr

20000094 <_ZN9Interface8IUserApp8Callback6onStopEv>:

        /**
         * @brief Called after 'onPause()' or 'onStart()' to terminate the application.
         * @note  State: No ticks, no keys, no display.
         */
        virtual void onStop() {};
20000094:	b480      	push	{r7}
20000096:	b083      	sub	sp, #12
20000098:	af00      	add	r7, sp, #0
2000009a:	6078      	str	r0, [r7, #4]
2000009c:	bf00      	nop
2000009e:	370c      	adds	r7, #12
200000a0:	46bd      	mov	sp, r7
200000a2:	f85d 7b04 	ldr.w	r7, [sp], #4
200000a6:	4770      	bx	lr

200000a8 <_ZN9Interface8IUserApp8Callback9onDestroyEv>:

        /**
         * @brief Called just before the application object is destroyed.
         */
        virtual void onDestroy() {};
200000a8:	b480      	push	{r7}
200000aa:	b083      	sub	sp, #12
200000ac:	af00      	add	r7, sp, #0
200000ae:	6078      	str	r0, [r7, #4]
200000b0:	bf00      	nop
200000b2:	370c      	adds	r7, #12
200000b4:	46bd      	mov	sp, r7
200000b6:	f85d 7b04 	ldr.w	r7, [sp], #4
200000ba:	4770      	bx	lr

200000bc <_ZNSt16_Sp_counted_baseILN9__gnu_cxx12_Lock_policyE0EE15_M_add_ref_copyEv>:
    }

  template<>
    inline void
    _Sp_counted_base<_S_single>::_M_add_ref_copy()
    { ++_M_use_count; }
200000bc:	b480      	push	{r7}
200000be:	b083      	sub	sp, #12
200000c0:	af00      	add	r7, sp, #0
200000c2:	6078      	str	r0, [r7, #4]
200000c4:	687b      	ldr	r3, [r7, #4]
200000c6:	685b      	ldr	r3, [r3, #4]
200000c8:	1c5a      	adds	r2, r3, #1
200000ca:	687b      	ldr	r3, [r7, #4]
200000cc:	605a      	str	r2, [r3, #4]
200000ce:	bf00      	nop
200000d0:	370c      	adds	r7, #12
200000d2:	46bd      	mov	sp, r7
200000d4:	f85d 7b04 	ldr.w	r7, [sp], #4
200000d8:	4770      	bx	lr

200000da <_ZNSt16_Sp_counted_baseILN9__gnu_cxx12_Lock_policyE0EE10_M_releaseEv>:

  template<>
    inline void
    _Sp_counted_base<_S_single>::_M_release() noexcept
    {
200000da:	b580      	push	{r7, lr}
200000dc:	b082      	sub	sp, #8
200000de:	af00      	add	r7, sp, #0
200000e0:	6078      	str	r0, [r7, #4]
      if (--_M_use_count == 0)
200000e2:	687b      	ldr	r3, [r7, #4]
200000e4:	685b      	ldr	r3, [r3, #4]
200000e6:	1e5a      	subs	r2, r3, #1
200000e8:	687b      	ldr	r3, [r7, #4]
200000ea:	605a      	str	r2, [r3, #4]
200000ec:	687b      	ldr	r3, [r7, #4]
200000ee:	685b      	ldr	r3, [r3, #4]
200000f0:	2b00      	cmp	r3, #0
200000f2:	bf0c      	ite	eq
200000f4:	2301      	moveq	r3, #1
200000f6:	2300      	movne	r3, #0
200000f8:	b2db      	uxtb	r3, r3
200000fa:	2b00      	cmp	r3, #0
200000fc:	d019      	beq.n	20000132 <_ZNSt16_Sp_counted_baseILN9__gnu_cxx12_Lock_policyE0EE10_M_releaseEv+0x58>
        {
          _M_dispose();
200000fe:	687b      	ldr	r3, [r7, #4]
20000100:	681b      	ldr	r3, [r3, #0]
20000102:	3308      	adds	r3, #8
20000104:	681b      	ldr	r3, [r3, #0]
20000106:	6878      	ldr	r0, [r7, #4]
20000108:	4798      	blx	r3
          if (--_M_weak_count == 0)
2000010a:	687b      	ldr	r3, [r7, #4]
2000010c:	689b      	ldr	r3, [r3, #8]
2000010e:	1e5a      	subs	r2, r3, #1
20000110:	687b      	ldr	r3, [r7, #4]
20000112:	609a      	str	r2, [r3, #8]
20000114:	687b      	ldr	r3, [r7, #4]
20000116:	689b      	ldr	r3, [r3, #8]
20000118:	2b00      	cmp	r3, #0
2000011a:	bf0c      	ite	eq
2000011c:	2301      	moveq	r3, #1
2000011e:	2300      	movne	r3, #0
20000120:	b2db      	uxtb	r3, r3
20000122:	2b00      	cmp	r3, #0
20000124:	d005      	beq.n	20000132 <_ZNSt16_Sp_counted_baseILN9__gnu_cxx12_Lock_policyE0EE10_M_releaseEv+0x58>
            _M_destroy();
20000126:	687b      	ldr	r3, [r7, #4]
20000128:	681b      	ldr	r3, [r3, #0]
2000012a:	330c      	adds	r3, #12
2000012c:	681b      	ldr	r3, [r3, #0]
2000012e:	6878      	ldr	r0, [r7, #4]
20000130:	4798      	blx	r3
        }
    }
20000132:	bf00      	nop
20000134:	3708      	adds	r7, #8
20000136:	46bd      	mov	sp, r7
20000138:	bd80      	pop	{r7, pc}

2000013a <_ZNSt12__shared_ptrIvLN9__gnu_cxx12_Lock_policyE0EED1Ev>:
	  __r._M_ptr = nullptr;
	}

      __shared_ptr(const __shared_ptr&) noexcept = default;
      __shared_ptr& operator=(const __shared_ptr&) noexcept = default;
      ~__shared_ptr() = default;
2000013a:	b580      	push	{r7, lr}
2000013c:	b082      	sub	sp, #8
2000013e:	af00      	add	r7, sp, #0
20000140:	6078      	str	r0, [r7, #4]
20000142:	687b      	ldr	r3, [r7, #4]
20000144:	3304      	adds	r3, #4
20000146:	4618      	mov	r0, r3
20000148:	f000 fa7a 	bl	20000640 <_ZNSt14__shared_countILN9__gnu_cxx12_Lock_policyE0EED1Ev>
2000014c:	687b      	ldr	r3, [r7, #4]
2000014e:	4618      	mov	r0, r3
20000150:	3708      	adds	r7, #8
20000152:	46bd      	mov	sp, r7
20000154:	bd80      	pop	{r7, pc}

20000156 <_ZNSt10shared_ptrIvED1Ev>:
   * the stored pointer returned by `get()`, not the owned pointer.
   * To test whether two `shared_ptr` objects share ownership of the same
   * pointer see `std::shared_ptr::owner_before` and `std::owner_less`.
  */
  template<typename _Tp>
    class shared_ptr : public __shared_ptr<_Tp>
20000156:	b580      	push	{r7, lr}
20000158:	b082      	sub	sp, #8
2000015a:	af00      	add	r7, sp, #0
2000015c:	6078      	str	r0, [r7, #4]
2000015e:	687b      	ldr	r3, [r7, #4]
20000160:	4618      	mov	r0, r3
20000162:	f7ff ffea 	bl	2000013a <_ZNSt12__shared_ptrIvLN9__gnu_cxx12_Lock_policyE0EED1Ev>
20000166:	687b      	ldr	r3, [r7, #4]
20000168:	4618      	mov	r0, r3
2000016a:	3708      	adds	r7, #8
2000016c:	46bd      	mov	sp, r7
2000016e:	bd80      	pop	{r7, pc}

20000170 <_ZN9IGUIModel13setGUIHandlerEPK7IKernelP16IGUIModelHandler>:
        , mGUIKernel(nullptr)
    {}

    virtual ~IGUIModel() = default;

    void setGUIHandler(const IKernel* kernel, IGUIModelHandler* handler)
20000170:	b480      	push	{r7}
20000172:	b085      	sub	sp, #20
20000174:	af00      	add	r7, sp, #0
20000176:	60f8      	str	r0, [r7, #12]
20000178:	60b9      	str	r1, [r7, #8]
2000017a:	607a      	str	r2, [r7, #4]
    {
        mGUIKernel  = kernel;
2000017c:	68fb      	ldr	r3, [r7, #12]
2000017e:	68ba      	ldr	r2, [r7, #8]
20000180:	609a      	str	r2, [r3, #8]
        mGUIHandler = handler;
20000182:	68fb      	ldr	r3, [r7, #12]
20000184:	687a      	ldr	r2, [r7, #4]
20000186:	605a      	str	r2, [r3, #4]
    }
20000188:	bf00      	nop
2000018a:	3714      	adds	r7, #20
2000018c:	46bd      	mov	sp, r7
2000018e:	f85d 7b04 	ldr.w	r7, [sp], #4
20000192:	4770      	bx	lr

20000194 <_ZNSt12__shared_ptrI9IGUIModelLN9__gnu_cxx12_Lock_policyE0EED1Ev>:
20000194:	b580      	push	{r7, lr}
20000196:	b082      	sub	sp, #8
20000198:	af00      	add	r7, sp, #0
2000019a:	6078      	str	r0, [r7, #4]
2000019c:	687b      	ldr	r3, [r7, #4]
2000019e:	3304      	adds	r3, #4
200001a0:	4618      	mov	r0, r3
200001a2:	f000 fa4d 	bl	20000640 <_ZNSt14__shared_countILN9__gnu_cxx12_Lock_policyE0EED1Ev>
200001a6:	687b      	ldr	r3, [r7, #4]
200001a8:	4618      	mov	r0, r3
200001aa:	3708      	adds	r7, #8
200001ac:	46bd      	mov	sp, r7
200001ae:	bd80      	pop	{r7, pc}

200001b0 <_ZNSt10shared_ptrI9IGUIModelED1Ev>:
200001b0:	b580      	push	{r7, lr}
200001b2:	b082      	sub	sp, #8
200001b4:	af00      	add	r7, sp, #0
200001b6:	6078      	str	r0, [r7, #4]
200001b8:	687b      	ldr	r3, [r7, #4]
200001ba:	4618      	mov	r0, r3
200001bc:	f7ff ffea 	bl	20000194 <_ZNSt12__shared_ptrI9IGUIModelLN9__gnu_cxx12_Lock_policyE0EED1Ev>
200001c0:	687b      	ldr	r3, [r7, #4]
200001c2:	4618      	mov	r0, r3
200001c4:	3708      	adds	r7, #8
200001c6:	46bd      	mov	sp, r7
200001c8:	bd80      	pop	{r7, pc}
	...

200001cc <_ZN16IGUIModelHandlerC1Ev>:
class IGUIModelHandler {
200001cc:	b480      	push	{r7}
200001ce:	b083      	sub	sp, #12
200001d0:	af00      	add	r7, sp, #0
200001d2:	6078      	str	r0, [r7, #4]
200001d4:	4a07      	ldr	r2, [pc, #28]	@ (200001f4 <_ZN16IGUIModelHandlerC1Ev+0x28>)
200001d6:	447a      	add	r2, pc
200001d8:	4b07      	ldr	r3, [pc, #28]	@ (200001f8 <_ZN16IGUIModelHandlerC1Ev+0x2c>)
200001da:	58d3      	ldr	r3, [r2, r3]
200001dc:	f103 0208 	add.w	r2, r3, #8
200001e0:	687b      	ldr	r3, [r7, #4]
200001e2:	601a      	str	r2, [r3, #0]
200001e4:	687b      	ldr	r3, [r7, #4]
200001e6:	4618      	mov	r0, r3
200001e8:	370c      	adds	r7, #12
200001ea:	46bd      	mov	sp, r7
200001ec:	f85d 7b04 	ldr.w	r7, [sp], #4
200001f0:	4770      	bx	lr
200001f2:	bf00      	nop
200001f4:	00000d9e 	.word	0x00000d9e
200001f8:	00000018 	.word	0x00000018

200001fc <_ZN16IGUIModelHandlerD1Ev>:
    virtual ~IGUIModelHandler() = default;
200001fc:	b480      	push	{r7}
200001fe:	b083      	sub	sp, #12
20000200:	af00      	add	r7, sp, #0
20000202:	6078      	str	r0, [r7, #4]
20000204:	4a07      	ldr	r2, [pc, #28]	@ (20000224 <_ZN16IGUIModelHandlerD1Ev+0x28>)
20000206:	447a      	add	r2, pc
20000208:	4b07      	ldr	r3, [pc, #28]	@ (20000228 <_ZN16IGUIModelHandlerD1Ev+0x2c>)
2000020a:	58d3      	ldr	r3, [r2, r3]
2000020c:	f103 0208 	add.w	r2, r3, #8
20000210:	687b      	ldr	r3, [r7, #4]
20000212:	601a      	str	r2, [r3, #0]
20000214:	687b      	ldr	r3, [r7, #4]
20000216:	4618      	mov	r0, r3
20000218:	370c      	adds	r7, #12
2000021a:	46bd      	mov	sp, r7
2000021c:	f85d 7b04 	ldr.w	r7, [sp], #4
20000220:	4770      	bx	lr
20000222:	bf00      	nop
20000224:	00000d6e 	.word	0x00000d6e
20000228:	00000018 	.word	0x00000018

2000022c <_ZN16IGUIModelHandlerD0Ev>:
2000022c:	b580      	push	{r7, lr}
2000022e:	b082      	sub	sp, #8
20000230:	af00      	add	r7, sp, #0
20000232:	6078      	str	r0, [r7, #4]
20000234:	6878      	ldr	r0, [r7, #4]
20000236:	f7ff ffe1 	bl	200001fc <_ZN16IGUIModelHandlerD1Ev>
2000023a:	2104      	movs	r1, #4
2000023c:	6878      	ldr	r0, [r7, #4]
2000023e:	f000 fd64 	bl	20000d0a <_ZdlPvj>
20000242:	687b      	ldr	r3, [r7, #4]
20000244:	4618      	mov	r0, r3
20000246:	3708      	adds	r7, #8
20000248:	46bd      	mov	sp, r7
2000024a:	bd80      	pop	{r7, pc}

2000024c <_ZN9Interface8IUserApp8CallbackC1Ev>:
    class Callback {
2000024c:	b480      	push	{r7}
2000024e:	b083      	sub	sp, #12
20000250:	af00      	add	r7, sp, #0
20000252:	6078      	str	r0, [r7, #4]
20000254:	4a07      	ldr	r2, [pc, #28]	@ (20000274 <_ZN9Interface8IUserApp8CallbackC1Ev+0x28>)
20000256:	447a      	add	r2, pc
20000258:	4b07      	ldr	r3, [pc, #28]	@ (20000278 <_ZN9Interface8IUserApp8CallbackC1Ev+0x2c>)
2000025a:	58d3      	ldr	r3, [r2, r3]
2000025c:	f103 0208 	add.w	r2, r3, #8
20000260:	687b      	ldr	r3, [r7, #4]
20000262:	601a      	str	r2, [r3, #0]
20000264:	687b      	ldr	r3, [r7, #4]
20000266:	4618      	mov	r0, r3
20000268:	370c      	adds	r7, #12
2000026a:	46bd      	mov	sp, r7
2000026c:	f85d 7b04 	ldr.w	r7, [sp], #4
20000270:	4770      	bx	lr
20000272:	bf00      	nop
20000274:	00000d1e 	.word	0x00000d1e
20000278:	00000000 	.word	0x00000000

2000027c <_ZN9Interface8IUserApp8CallbackD1Ev>:

    protected:
        /**
         * @brief Virtual destructor.
         */
        virtual ~Callback() = default;
2000027c:	b480      	push	{r7}
2000027e:	b083      	sub	sp, #12
20000280:	af00      	add	r7, sp, #0
20000282:	6078      	str	r0, [r7, #4]
20000284:	4a07      	ldr	r2, [pc, #28]	@ (200002a4 <_ZN9Interface8IUserApp8CallbackD1Ev+0x28>)
20000286:	447a      	add	r2, pc
20000288:	4b07      	ldr	r3, [pc, #28]	@ (200002a8 <_ZN9Interface8IUserApp8CallbackD1Ev+0x2c>)
2000028a:	58d3      	ldr	r3, [r2, r3]
2000028c:	f103 0208 	add.w	r2, r3, #8
20000290:	687b      	ldr	r3, [r7, #4]
20000292:	601a      	str	r2, [r3, #0]
20000294:	687b      	ldr	r3, [r7, #4]
20000296:	4618      	mov	r0, r3
20000298:	370c      	adds	r7, #12
2000029a:	46bd      	mov	sp, r7
2000029c:	f85d 7b04 	ldr.w	r7, [sp], #4
200002a0:	4770      	bx	lr
200002a2:	bf00      	nop
200002a4:	00000cee 	.word	0x00000cee
200002a8:	00000000 	.word	0x00000000

200002ac <_ZN9Interface8IUserApp8CallbackD0Ev>:
200002ac:	b580      	push	{r7, lr}
200002ae:	b082      	sub	sp, #8
200002b0:	af00      	add	r7, sp, #0
200002b2:	6078      	str	r0, [r7, #4]
200002b4:	6878      	ldr	r0, [r7, #4]
200002b6:	f7ff ffe1 	bl	2000027c <_ZN9Interface8IUserApp8CallbackD1Ev>
200002ba:	2104      	movs	r1, #4
200002bc:	6878      	ldr	r0, [r7, #4]
200002be:	f000 fd24 	bl	20000d0a <_ZdlPvj>
200002c2:	687b      	ldr	r3, [r7, #4]
200002c4:	4618      	mov	r0, r3
200002c6:	3708      	adds	r7, #8
200002c8:	46bd      	mov	sp, r7
200002ca:	bd80      	pop	{r7, pc}

200002cc <_ZN11ApplicationC1ERK7IKernel>:

class Application : public IGUIModelHandler,
                    public Interface::IUserApp::Callback
{
public:
    Application(const IKernel& kernel)
200002cc:	b590      	push	{r4, r7, lr}
200002ce:	b085      	sub	sp, #20
200002d0:	af00      	add	r7, sp, #0
200002d2:	6078      	str	r0, [r7, #4]
200002d4:	6039      	str	r1, [r7, #0]
200002d6:	4c2a      	ldr	r4, [pc, #168]	@ (20000380 <_ZN11ApplicationC1ERK7IKernel+0xb4>)
200002d8:	447c      	add	r4, pc
        : mModel(std::static_pointer_cast<IGUIModel>(kernel.gctrl.getContext()))
        , mTerminate(false)
200002da:	687b      	ldr	r3, [r7, #4]
200002dc:	4618      	mov	r0, r3
200002de:	f7ff ff75 	bl	200001cc <_ZN16IGUIModelHandlerC1Ev>
200002e2:	687b      	ldr	r3, [r7, #4]
200002e4:	3304      	adds	r3, #4
200002e6:	4618      	mov	r0, r3
200002e8:	f7ff ffb0 	bl	2000024c <_ZN9Interface8IUserApp8CallbackC1Ev>
200002ec:	4b25      	ldr	r3, [pc, #148]	@ (20000384 <_ZN11ApplicationC1ERK7IKernel+0xb8>)
200002ee:	58e3      	ldr	r3, [r4, r3]
200002f0:	f103 0208 	add.w	r2, r3, #8
200002f4:	687b      	ldr	r3, [r7, #4]
200002f6:	601a      	str	r2, [r3, #0]
200002f8:	4b22      	ldr	r3, [pc, #136]	@ (20000384 <_ZN11ApplicationC1ERK7IKernel+0xb8>)
200002fa:	58e3      	ldr	r3, [r4, r3]
200002fc:	f103 0230 	add.w	r2, r3, #48	@ 0x30
20000300:	687b      	ldr	r3, [r7, #4]
20000302:	605a      	str	r2, [r3, #4]
        : mModel(std::static_pointer_cast<IGUIModel>(kernel.gctrl.getContext()))
20000304:	683b      	ldr	r3, [r7, #0]
20000306:	6adb      	ldr	r3, [r3, #44]	@ 0x2c
20000308:	681b      	ldr	r3, [r3, #0]
2000030a:	3308      	adds	r3, #8
2000030c:	681b      	ldr	r3, [r3, #0]
2000030e:	683a      	ldr	r2, [r7, #0]
20000310:	6ad1      	ldr	r1, [r2, #44]	@ 0x2c
20000312:	f107 0208 	add.w	r2, r7, #8
20000316:	4610      	mov	r0, r2
20000318:	4798      	blx	r3
2000031a:	687b      	ldr	r3, [r7, #4]
2000031c:	3308      	adds	r3, #8
2000031e:	f107 0208 	add.w	r2, r7, #8
20000322:	4611      	mov	r1, r2
20000324:	4618      	mov	r0, r3
20000326:	f000 f99d 	bl	20000664 <_ZSt19static_pointer_castI9IGUIModelvESt10shared_ptrIT_ERKS1_IT0_E>
2000032a:	f107 0308 	add.w	r3, r7, #8
2000032e:	4618      	mov	r0, r3
20000330:	f7ff ff11 	bl	20000156 <_ZNSt10shared_ptrIvED1Ev>
        , mTerminate(false)
20000334:	687b      	ldr	r3, [r7, #4]
20000336:	2200      	movs	r2, #0
20000338:	741a      	strb	r2, [r3, #16]
    {
        kernel.app.registerApp(this);
2000033a:	683b      	ldr	r3, [r7, #0]
2000033c:	6a5b      	ldr	r3, [r3, #36]	@ 0x24
2000033e:	681b      	ldr	r3, [r3, #0]
20000340:	681b      	ldr	r3, [r3, #0]
20000342:	683a      	ldr	r2, [r7, #0]
20000344:	6a50      	ldr	r0, [r2, #36]	@ 0x24
20000346:	687a      	ldr	r2, [r7, #4]
20000348:	3204      	adds	r2, #4
2000034a:	4611      	mov	r1, r2
2000034c:	4798      	blx	r3
        mModel->setGUIHandler(&kernel, this);
2000034e:	687b      	ldr	r3, [r7, #4]
20000350:	3308      	adds	r3, #8
20000352:	4618      	mov	r0, r3
20000354:	f000 f999 	bl	2000068a <_ZNKSt19__shared_ptr_accessI9IGUIModelLN9__gnu_cxx12_Lock_policyE0ELb0ELb0EEptEv>
20000358:	687b      	ldr	r3, [r7, #4]
2000035a:	461a      	mov	r2, r3
2000035c:	6839      	ldr	r1, [r7, #0]
2000035e:	f7ff ff07 	bl	20000170 <_ZN9IGUIModel13setGUIHandlerEPK7IKernelP16IGUIModelHandler>
        kernel.app.initialized();
20000362:	683b      	ldr	r3, [r7, #0]
20000364:	6a5b      	ldr	r3, [r3, #36]	@ 0x24
20000366:	681b      	ldr	r3, [r3, #0]
20000368:	3304      	adds	r3, #4
2000036a:	681b      	ldr	r3, [r3, #0]
2000036c:	683a      	ldr	r2, [r7, #0]
2000036e:	6a52      	ldr	r2, [r2, #36]	@ 0x24
20000370:	4610      	mov	r0, r2
20000372:	4798      	blx	r3
    }
20000374:	687b      	ldr	r3, [r7, #4]
20000376:	4618      	mov	r0, r3
20000378:	3714      	adds	r7, #20
2000037a:	46bd      	mov	sp, r7
2000037c:	bd90      	pop	{r4, r7, pc}
2000037e:	bf00      	nop
20000380:	00000c9c 	.word	0x00000c9c
20000384:	0000001c 	.word	0x0000001c

20000388 <_ZN11ApplicationD1Ev>:

    virtual ~Application()
20000388:	b5b0      	push	{r4, r5, r7, lr}
2000038a:	b084      	sub	sp, #16
2000038c:	af00      	add	r7, sp, #0
2000038e:	6078      	str	r0, [r7, #4]
20000390:	4b20      	ldr	r3, [pc, #128]	@ (20000414 <_ZN11ApplicationD1Ev+0x8c>)
20000392:	447b      	add	r3, pc
    {
20000394:	4a20      	ldr	r2, [pc, #128]	@ (20000418 <_ZN11ApplicationD1Ev+0x90>)
20000396:	589a      	ldr	r2, [r3, r2]
20000398:	f102 0108 	add.w	r1, r2, #8
2000039c:	687a      	ldr	r2, [r7, #4]
2000039e:	6011      	str	r1, [r2, #0]
200003a0:	4a1d      	ldr	r2, [pc, #116]	@ (20000418 <_ZN11ApplicationD1Ev+0x90>)
200003a2:	589b      	ldr	r3, [r3, r2]
200003a4:	f103 0230 	add.w	r2, r3, #48	@ 0x30
200003a8:	687b      	ldr	r3, [r7, #4]
200003aa:	605a      	str	r2, [r3, #4]
        mModel->sendToService(G2SEvent::Stop {});
200003ac:	687b      	ldr	r3, [r7, #4]
200003ae:	3308      	adds	r3, #8
200003b0:	4618      	mov	r0, r3
200003b2:	f000 f96a 	bl	2000068a <_ZNKSt19__shared_ptr_accessI9IGUIModelLN9__gnu_cxx12_Lock_policyE0ELb0ELb0EEptEv>
200003b6:	4604      	mov	r4, r0
200003b8:	6823      	ldr	r3, [r4, #0]
200003ba:	330c      	adds	r3, #12
200003bc:	681d      	ldr	r5, [r3, #0]
200003be:	f107 020c 	add.w	r2, r7, #12
200003c2:	f107 0308 	add.w	r3, r7, #8
200003c6:	4611      	mov	r1, r2
200003c8:	4618      	mov	r0, r3
200003ca:	f000 f96a 	bl	200006a2 <_ZNSt7variantIJN8G2SEvent3RunENS0_4StopEEEC1IS2_vvS2_vEEOT_>
200003ce:	f107 0308 	add.w	r3, r7, #8
200003d2:	4619      	mov	r1, r3
200003d4:	4620      	mov	r0, r4
200003d6:	47a8      	blx	r5
        mModel->setGUIHandler(nullptr, nullptr);
200003d8:	687b      	ldr	r3, [r7, #4]
200003da:	3308      	adds	r3, #8
200003dc:	4618      	mov	r0, r3
200003de:	f000 f954 	bl	2000068a <_ZNKSt19__shared_ptr_accessI9IGUIModelLN9__gnu_cxx12_Lock_policyE0ELb0ELb0EEptEv>
200003e2:	4603      	mov	r3, r0
200003e4:	2200      	movs	r2, #0
200003e6:	2100      	movs	r1, #0
200003e8:	4618      	mov	r0, r3
200003ea:	f7ff fec1 	bl	20000170 <_ZN9IGUIModel13setGUIHandlerEPK7IKernelP16IGUIModelHandler>
    }
200003ee:	687b      	ldr	r3, [r7, #4]
200003f0:	3308      	adds	r3, #8
200003f2:	4618      	mov	r0, r3
200003f4:	f7ff fedc 	bl	200001b0 <_ZNSt10shared_ptrI9IGUIModelED1Ev>
200003f8:	687b      	ldr	r3, [r7, #4]
200003fa:	3304      	adds	r3, #4
200003fc:	4618      	mov	r0, r3
200003fe:	f7ff ff3d 	bl	2000027c <_ZN9Interface8IUserApp8CallbackD1Ev>
20000402:	687b      	ldr	r3, [r7, #4]
20000404:	4618      	mov	r0, r3
20000406:	f7ff fef9 	bl	200001fc <_ZN16IGUIModelHandlerD1Ev>
2000040a:	687b      	ldr	r3, [r7, #4]
2000040c:	4618      	mov	r0, r3
2000040e:	3710      	adds	r7, #16
20000410:	46bd      	mov	sp, r7
20000412:	bdb0      	pop	{r4, r5, r7, pc}
20000414:	00000be2 	.word	0x00000be2
20000418:	0000001c 	.word	0x0000001c

2000041c <_ZThn4_N11ApplicationD1Ev>:
    virtual ~Application()
2000041c:	f1a0 0004 	sub.w	r0, r0, #4
20000420:	e7b2      	b.n	20000388 <_ZN11ApplicationD1Ev>
20000422:	bf00      	nop

20000424 <_ZN11ApplicationD0Ev>:
20000424:	b580      	push	{r7, lr}
20000426:	b082      	sub	sp, #8
20000428:	af00      	add	r7, sp, #0
2000042a:	6078      	str	r0, [r7, #4]
    }
2000042c:	6878      	ldr	r0, [r7, #4]
2000042e:	f7ff ffab 	bl	20000388 <_ZN11ApplicationD1Ev>
20000432:	2114      	movs	r1, #20
20000434:	6878      	ldr	r0, [r7, #4]
20000436:	f000 fc68 	bl	20000d0a <_ZdlPvj>
2000043a:	687b      	ldr	r3, [r7, #4]
2000043c:	4618      	mov	r0, r3
2000043e:	3708      	adds	r7, #8
20000440:	46bd      	mov	sp, r7
20000442:	bd80      	pop	{r7, pc}

20000444 <_ZThn4_N11ApplicationD0Ev>:
    virtual ~Application()
20000444:	f1a0 0004 	sub.w	r0, r0, #4
20000448:	e7ec      	b.n	20000424 <_ZN11ApplicationD0Ev>

2000044a <_ZN11Application3runEv>:

    void run()
2000044a:	b5b0      	push	{r4, r5, r7, lr}
2000044c:	b084      	sub	sp, #16
2000044e:	af00      	add	r7, sp, #0
20000450:	6078      	str	r0, [r7, #4]
    {
        mModel->sendToService(G2SEvent::Run {});
20000452:	687b      	ldr	r3, [r7, #4]
20000454:	3308      	adds	r3, #8
20000456:	4618      	mov	r0, r3
20000458:	f000 f917 	bl	2000068a <_ZNKSt19__shared_ptr_accessI9IGUIModelLN9__gnu_cxx12_Lock_policyE0ELb0ELb0EEptEv>
2000045c:	4604      	mov	r4, r0
2000045e:	6823      	ldr	r3, [r4, #0]
20000460:	330c      	adds	r3, #12
20000462:	681d      	ldr	r5, [r3, #0]
20000464:	f107 020c 	add.w	r2, r7, #12
20000468:	f107 0308 	add.w	r3, r7, #8
2000046c:	4611      	mov	r1, r2
2000046e:	4618      	mov	r0, r3
20000470:	f000 f92a 	bl	200006c8 <_ZNSt7variantIJN8G2SEvent3RunENS0_4StopEEEC1IS1_vvS1_vEEOT_>
20000474:	f107 0308 	add.w	r3, r7, #8
20000478:	4619      	mov	r1, r3
2000047a:	4620      	mov	r0, r4
2000047c:	47a8      	blx	r5

        while (!mTerminate) {
2000047e:	e00a      	b.n	20000496 <_ZN11Application3runEv+0x4c>
            mModel->checkS2GEvents();
20000480:	687b      	ldr	r3, [r7, #4]
20000482:	3308      	adds	r3, #8
20000484:	4618      	mov	r0, r3
20000486:	f000 f900 	bl	2000068a <_ZNKSt19__shared_ptr_accessI9IGUIModelLN9__gnu_cxx12_Lock_policyE0ELb0ELb0EEptEv>
2000048a:	4603      	mov	r3, r0
2000048c:	681a      	ldr	r2, [r3, #0]
2000048e:	3208      	adds	r2, #8
20000490:	6812      	ldr	r2, [r2, #0]
20000492:	4618      	mov	r0, r3
20000494:	4790      	blx	r2
        while (!mTerminate) {
20000496:	687b      	ldr	r3, [r7, #4]
20000498:	7c1b      	ldrb	r3, [r3, #16]
2000049a:	b2db      	uxtb	r3, r3
2000049c:	f083 0301 	eor.w	r3, r3, #1
200004a0:	b2db      	uxtb	r3, r3
200004a2:	2b00      	cmp	r3, #0
200004a4:	d1ec      	bne.n	20000480 <_ZN11Application3runEv+0x36>
        }
    }
200004a6:	bf00      	nop
200004a8:	bf00      	nop
200004aa:	3710      	adds	r7, #16
200004ac:	46bd      	mov	sp, r7
200004ae:	bdb0      	pop	{r4, r5, r7, pc}

200004b0 <_ZN11Application11handleEventERKN8S2GEvent7CounterE>:

    void handleEvent(const S2GEvent::Counter& event) override
200004b0:	b580      	push	{r7, lr}
200004b2:	b082      	sub	sp, #8
200004b4:	af00      	add	r7, sp, #0
200004b6:	6078      	str	r0, [r7, #4]
200004b8:	6039      	str	r1, [r7, #0]
    {
        printf("%s::counter = %ld\n", mName, event.value);
200004ba:	4b07      	ldr	r3, [pc, #28]	@ (200004d8 <_ZN11Application11handleEventERKN8S2GEvent7CounterE+0x28>)
200004bc:	447b      	add	r3, pc
200004be:	6819      	ldr	r1, [r3, #0]
200004c0:	683b      	ldr	r3, [r7, #0]
200004c2:	681b      	ldr	r3, [r3, #0]
200004c4:	461a      	mov	r2, r3
200004c6:	4b05      	ldr	r3, [pc, #20]	@ (200004dc <_ZN11Application11handleEventERKN8S2GEvent7CounterE+0x2c>)
200004c8:	447b      	add	r3, pc
200004ca:	4618      	mov	r0, r3
200004cc:	f000 fc2c 	bl	20000d28 <__printf_veneer>
    }
200004d0:	bf00      	nop
200004d2:	3708      	adds	r7, #8
200004d4:	46bd      	mov	sp, r7
200004d6:	bd80      	pop	{r7, pc}
200004d8:	00000a20 	.word	0x00000a20
200004dc:	00000874 	.word	0x00000874

200004e0 <_ZN11Application8onCreateEv>:

private:
    void onCreate() override
200004e0:	b580      	push	{r7, lr}
200004e2:	b082      	sub	sp, #8
200004e4:	af00      	add	r7, sp, #0
200004e6:	6078      	str	r0, [r7, #4]
    {
        printf("%s::onCreate()\n", mName);
200004e8:	4b06      	ldr	r3, [pc, #24]	@ (20000504 <_ZN11Application8onCreateEv+0x24>)
200004ea:	447b      	add	r3, pc
200004ec:	681b      	ldr	r3, [r3, #0]
200004ee:	4619      	mov	r1, r3
200004f0:	4b05      	ldr	r3, [pc, #20]	@ (20000508 <_ZN11Application8onCreateEv+0x28>)
200004f2:	447b      	add	r3, pc
200004f4:	4618      	mov	r0, r3
200004f6:	f000 fc17 	bl	20000d28 <__printf_veneer>
    }
200004fa:	bf00      	nop
200004fc:	3708      	adds	r7, #8
200004fe:	46bd      	mov	sp, r7
20000500:	bd80      	pop	{r7, pc}
20000502:	bf00      	nop
20000504:	000009f2 	.word	0x000009f2
20000508:	0000085e 	.word	0x0000085e

2000050c <_ZThn4_N11Application8onCreateEv>:
    void onCreate() override
2000050c:	f1a0 0004 	sub.w	r0, r0, #4
20000510:	e7e6      	b.n	200004e0 <_ZN11Application8onCreateEv>
20000512:	bf00      	nop

20000514 <_ZN11Application7onStartEv>:

    void onStart() override
20000514:	b580      	push	{r7, lr}
20000516:	b082      	sub	sp, #8
20000518:	af00      	add	r7, sp, #0
2000051a:	6078      	str	r0, [r7, #4]
    {
        printf("%s::onStart()\n", mName);
2000051c:	4b06      	ldr	r3, [pc, #24]	@ (20000538 <_ZN11Application7onStartEv+0x24>)
2000051e:	447b      	add	r3, pc
20000520:	681b      	ldr	r3, [r3, #0]
20000522:	4619      	mov	r1, r3
20000524:	4b05      	ldr	r3, [pc, #20]	@ (2000053c <_ZN11Application7onStartEv+0x28>)
20000526:	447b      	add	r3, pc
20000528:	4618      	mov	r0, r3
2000052a:	f000 fbfd 	bl	20000d28 <__printf_veneer>
    }
2000052e:	bf00      	nop
20000530:	3708      	adds	r7, #8
20000532:	46bd      	mov	sp, r7
20000534:	bd80      	pop	{r7, pc}
20000536:	bf00      	nop
20000538:	000009be 	.word	0x000009be
2000053c:	0000083a 	.word	0x0000083a

20000540 <_ZThn4_N11Application7onStartEv>:
    void onStart() override
20000540:	f1a0 0004 	sub.w	r0, r0, #4
20000544:	e7e6      	b.n	20000514 <_ZN11Application7onStartEv>
20000546:	bf00      	nop

20000548 <_ZN11Application6onStopEv>:

    void onStop() override
20000548:	b580      	push	{r7, lr}
2000054a:	b082      	sub	sp, #8
2000054c:	af00      	add	r7, sp, #0
2000054e:	6078      	str	r0, [r7, #4]
    {
        printf("%s::onStop()\n", mName);
20000550:	4b06      	ldr	r3, [pc, #24]	@ (2000056c <_ZN11Application6onStopEv+0x24>)
20000552:	447b      	add	r3, pc
20000554:	681b      	ldr	r3, [r3, #0]
20000556:	4619      	mov	r1, r3
20000558:	4b05      	ldr	r3, [pc, #20]	@ (20000570 <_ZN11Application6onStopEv+0x28>)
2000055a:	447b      	add	r3, pc
2000055c:	4618      	mov	r0, r3
2000055e:	f000 fbe3 	bl	20000d28 <__printf_veneer>
    }
20000562:	bf00      	nop
20000564:	3708      	adds	r7, #8
20000566:	46bd      	mov	sp, r7
20000568:	bd80      	pop	{r7, pc}
2000056a:	bf00      	nop
2000056c:	0000098a 	.word	0x0000098a
20000570:	00000816 	.word	0x00000816

20000574 <_ZThn4_N11Application6onStopEv>:
    void onStop() override
20000574:	f1a0 0004 	sub.w	r0, r0, #4
20000578:	e7e6      	b.n	20000548 <_ZN11Application6onStopEv>
2000057a:	bf00      	nop

2000057c <_ZN11Application7onPauseEv>:

    void onPause() override
2000057c:	b580      	push	{r7, lr}
2000057e:	b082      	sub	sp, #8
20000580:	af00      	add	r7, sp, #0
20000582:	6078      	str	r0, [r7, #4]
    {
        printf("%s::onPause()\n", mName);
20000584:	4b06      	ldr	r3, [pc, #24]	@ (200005a0 <_ZN11Application7onPauseEv+0x24>)
20000586:	447b      	add	r3, pc
20000588:	681b      	ldr	r3, [r3, #0]
2000058a:	4619      	mov	r1, r3
2000058c:	4b05      	ldr	r3, [pc, #20]	@ (200005a4 <_ZN11Application7onPauseEv+0x28>)
2000058e:	447b      	add	r3, pc
20000590:	4618      	mov	r0, r3
20000592:	f000 fbc9 	bl	20000d28 <__printf_veneer>
    }
20000596:	bf00      	nop
20000598:	3708      	adds	r7, #8
2000059a:	46bd      	mov	sp, r7
2000059c:	bd80      	pop	{r7, pc}
2000059e:	bf00      	nop
200005a0:	00000956 	.word	0x00000956
200005a4:	000007f2 	.word	0x000007f2

200005a8 <_ZThn4_N11Application7onPauseEv>:
    void onPause() override
200005a8:	f1a0 0004 	sub.w	r0, r0, #4
200005ac:	e7e6      	b.n	2000057c <_ZN11Application7onPauseEv>
200005ae:	bf00      	nop

200005b0 <_ZN11Application9onDestroyEv>:

    void onDestroy() override
200005b0:	b580      	push	{r7, lr}
200005b2:	b082      	sub	sp, #8
200005b4:	af00      	add	r7, sp, #0
200005b6:	6078      	str	r0, [r7, #4]
    {
        printf("%s::onDestroy()\n", mName);
200005b8:	4b07      	ldr	r3, [pc, #28]	@ (200005d8 <_ZN11Application9onDestroyEv+0x28>)
200005ba:	447b      	add	r3, pc
200005bc:	681b      	ldr	r3, [r3, #0]
200005be:	4619      	mov	r1, r3
200005c0:	4b06      	ldr	r3, [pc, #24]	@ (200005dc <_ZN11Application9onDestroyEv+0x2c>)
200005c2:	447b      	add	r3, pc
200005c4:	4618      	mov	r0, r3
200005c6:	f000 fbaf 	bl	20000d28 <__printf_veneer>
        mTerminate = true;
200005ca:	687b      	ldr	r3, [r7, #4]
200005cc:	2201      	movs	r2, #1
200005ce:	741a      	strb	r2, [r3, #16]
    }
200005d0:	bf00      	nop
200005d2:	3708      	adds	r7, #8
200005d4:	46bd      	mov	sp, r7
200005d6:	bd80      	pop	{r7, pc}
200005d8:	00000922 	.word	0x00000922
200005dc:	000007ce 	.word	0x000007ce

200005e0 <_ZThn4_N11Application9onDestroyEv>:
    void onDestroy() override
200005e0:	f1a0 0004 	sub.w	r0, r0, #4
200005e4:	e7e4      	b.n	200005b0 <_ZN11Application9onDestroyEv>
200005e6:	bf00      	nop

200005e8 <main>:
/**
 * @brief   The application entry point.
 * @retval  int
 */
int main()
{
200005e8:	b590      	push	{r4, r7, lr}
200005ea:	b087      	sub	sp, #28
200005ec:	af00      	add	r7, sp, #0
200005ee:	4c10      	ldr	r4, [pc, #64]	@ (20000630 <main+0x48>)
200005f0:	447c      	add	r4, pc
    printf("%s is started\n", mName);
200005f2:	4b10      	ldr	r3, [pc, #64]	@ (20000634 <main+0x4c>)
200005f4:	447b      	add	r3, pc
200005f6:	681b      	ldr	r3, [r3, #0]
200005f8:	4619      	mov	r1, r3
200005fa:	4b0f      	ldr	r3, [pc, #60]	@ (20000638 <main+0x50>)
200005fc:	447b      	add	r3, pc
200005fe:	4618      	mov	r0, r3
20000600:	f000 fb92 	bl	20000d28 <__printf_veneer>

    Application app(*kernel);
20000604:	4b0d      	ldr	r3, [pc, #52]	@ (2000063c <main+0x54>)
20000606:	58e3      	ldr	r3, [r4, r3]
20000608:	681a      	ldr	r2, [r3, #0]
2000060a:	1d3b      	adds	r3, r7, #4
2000060c:	4611      	mov	r1, r2
2000060e:	4618      	mov	r0, r3
20000610:	f7ff fe5c 	bl	200002cc <_ZN11ApplicationC1ERK7IKernel>
    app.run();
20000614:	1d3b      	adds	r3, r7, #4
20000616:	4618      	mov	r0, r3
20000618:	f7ff ff17 	bl	2000044a <_ZN11Application3runEv>

    return 0;
2000061c:	2400      	movs	r4, #0
}
2000061e:	1d3b      	adds	r3, r7, #4
20000620:	4618      	mov	r0, r3
20000622:	f7ff feb1 	bl	20000388 <_ZN11ApplicationD1Ev>
20000626:	4623      	mov	r3, r4
20000628:	4618      	mov	r0, r3
2000062a:	371c      	adds	r7, #28
2000062c:	46bd      	mov	sp, r7
2000062e:	bd90      	pop	{r4, r7, pc}
20000630:	00000984 	.word	0x00000984
20000634:	000008e8 	.word	0x000008e8
20000638:	000007a8 	.word	0x000007a8
2000063c:	00000010 	.word	0x00000010

20000640 <_ZNSt14__shared_countILN9__gnu_cxx12_Lock_policyE0EED1Ev>:
      ~__shared_count() noexcept
20000640:	b580      	push	{r7, lr}
20000642:	b082      	sub	sp, #8
20000644:	af00      	add	r7, sp, #0
20000646:	6078      	str	r0, [r7, #4]
	if (_M_pi != nullptr)
20000648:	687b      	ldr	r3, [r7, #4]
2000064a:	681b      	ldr	r3, [r3, #0]
2000064c:	2b00      	cmp	r3, #0
2000064e:	d004      	beq.n	2000065a <_ZNSt14__shared_countILN9__gnu_cxx12_Lock_policyE0EED1Ev+0x1a>
	  _M_pi->_M_release();
20000650:	687b      	ldr	r3, [r7, #4]
20000652:	681b      	ldr	r3, [r3, #0]
20000654:	4618      	mov	r0, r3
20000656:	f7ff fd40 	bl	200000da <_ZNSt16_Sp_counted_baseILN9__gnu_cxx12_Lock_policyE0EE10_M_releaseEv>
      }
2000065a:	687b      	ldr	r3, [r7, #4]
2000065c:	4618      	mov	r0, r3
2000065e:	3708      	adds	r7, #8
20000660:	46bd      	mov	sp, r7
20000662:	bd80      	pop	{r7, pc}

20000664 <_ZSt19static_pointer_castI9IGUIModelvESt10shared_ptrIT_ERKS1_IT0_E>:
  // 20.7.2.2.9 shared_ptr casts.

  /// Convert type of `shared_ptr`, via `static_cast`
  template<typename _Tp, typename _Up>
    inline shared_ptr<_Tp>
    static_pointer_cast(const shared_ptr<_Up>& __r) noexcept
20000664:	b580      	push	{r7, lr}
20000666:	b082      	sub	sp, #8
20000668:	af00      	add	r7, sp, #0
2000066a:	6078      	str	r0, [r7, #4]
2000066c:	6039      	str	r1, [r7, #0]
    {
      using _Sp = shared_ptr<_Tp>;
      return _Sp(__r, static_cast<typename _Sp::element_type*>(__r.get()));
2000066e:	683b      	ldr	r3, [r7, #0]
20000670:	4618      	mov	r0, r3
20000672:	f000 f83c 	bl	200006ee <_ZNKSt12__shared_ptrIvLN9__gnu_cxx12_Lock_policyE0EE3getEv>
20000676:	4603      	mov	r3, r0
20000678:	461a      	mov	r2, r3
2000067a:	6839      	ldr	r1, [r7, #0]
2000067c:	6878      	ldr	r0, [r7, #4]
2000067e:	f000 f842 	bl	20000706 <_ZNSt10shared_ptrI9IGUIModelEC1IvEERKS_IT_EPS0_>
    }
20000682:	6878      	ldr	r0, [r7, #4]
20000684:	3708      	adds	r7, #8
20000686:	46bd      	mov	sp, r7
20000688:	bd80      	pop	{r7, pc}

2000068a <_ZNKSt19__shared_ptr_accessI9IGUIModelLN9__gnu_cxx12_Lock_policyE0ELb0ELb0EEptEv>:
      operator->() const noexcept
2000068a:	b580      	push	{r7, lr}
2000068c:	b082      	sub	sp, #8
2000068e:	af00      	add	r7, sp, #0
20000690:	6078      	str	r0, [r7, #4]
	return _M_get();
20000692:	6878      	ldr	r0, [r7, #4]
20000694:	f000 f848 	bl	20000728 <_ZNKSt19__shared_ptr_accessI9IGUIModelLN9__gnu_cxx12_Lock_policyE0ELb0ELb0EE6_M_getEv>
20000698:	4603      	mov	r3, r0
      }
2000069a:	4618      	mov	r0, r3
2000069c:	3708      	adds	r7, #8
2000069e:	46bd      	mov	sp, r7
200006a0:	bd80      	pop	{r7, pc}

200006a2 <_ZNSt7variantIJN8G2SEvent3RunENS0_4StopEEEC1IS2_vvS2_vEEOT_>:
	       typename = enable_if_t<__not_in_place_tag<_Tp>>,
	       typename _Tj = __accepted_type<_Tp&&>,
	       typename = enable_if_t<__exactly_once<_Tj>
				      && is_constructible_v<_Tj, _Tp>>>
	constexpr
	variant(_Tp&& __t)
200006a2:	b590      	push	{r4, r7, lr}
200006a4:	b083      	sub	sp, #12
200006a6:	af00      	add	r7, sp, #0
200006a8:	6078      	str	r0, [r7, #4]
200006aa:	6039      	str	r1, [r7, #0]
	noexcept(is_nothrow_constructible_v<_Tj, _Tp>)
	: variant(in_place_index<__accepted_index<_Tp>>,
		  std::forward<_Tp>(__t))
200006ac:	6838      	ldr	r0, [r7, #0]
200006ae:	f000 f847 	bl	20000740 <_ZSt7forwardIN8G2SEvent4StopEEOT_RNSt16remove_referenceIS2_E4typeE>
200006b2:	4603      	mov	r3, r0
200006b4:	461a      	mov	r2, r3
200006b6:	4621      	mov	r1, r4
200006b8:	6878      	ldr	r0, [r7, #4]
200006ba:	f000 f84c 	bl	20000756 <_ZNSt7variantIJN8G2SEvent3RunENS0_4StopEEEC1ILj1EJS2_ES2_vEESt16in_place_index_tIXT_EEDpOT0_>
	{ }
200006be:	687b      	ldr	r3, [r7, #4]
200006c0:	4618      	mov	r0, r3
200006c2:	370c      	adds	r7, #12
200006c4:	46bd      	mov	sp, r7
200006c6:	bd90      	pop	{r4, r7, pc}

200006c8 <_ZNSt7variantIJN8G2SEvent3RunENS0_4StopEEEC1IS1_vvS1_vEEOT_>:
	variant(_Tp&& __t)
200006c8:	b590      	push	{r4, r7, lr}
200006ca:	b083      	sub	sp, #12
200006cc:	af00      	add	r7, sp, #0
200006ce:	6078      	str	r0, [r7, #4]
200006d0:	6039      	str	r1, [r7, #0]
		  std::forward<_Tp>(__t))
200006d2:	6838      	ldr	r0, [r7, #0]
200006d4:	f000 f858 	bl	20000788 <_ZSt7forwardIN8G2SEvent3RunEEOT_RNSt16remove_referenceIS2_E4typeE>
200006d8:	4603      	mov	r3, r0
200006da:	461a      	mov	r2, r3
200006dc:	4621      	mov	r1, r4
200006de:	6878      	ldr	r0, [r7, #4]
200006e0:	f000 f85d 	bl	2000079e <_ZNSt7variantIJN8G2SEvent3RunENS0_4StopEEEC1ILj0EJS1_ES1_vEESt16in_place_index_tIXT_EEDpOT0_>
	{ }
200006e4:	687b      	ldr	r3, [r7, #4]
200006e6:	4618      	mov	r0, r3
200006e8:	370c      	adds	r7, #12
200006ea:	46bd      	mov	sp, r7
200006ec:	bd90      	pop	{r4, r7, pc}

200006ee <_ZNKSt12__shared_ptrIvLN9__gnu_cxx12_Lock_policyE0EE3getEv>:
	reset(_Yp* __p, _Deleter __d, _Alloc __a)
        { __shared_ptr(__p, std::move(__d), std::move(__a)).swap(*this); }

      /// Return the stored pointer.
      element_type*
      get() const noexcept
200006ee:	b480      	push	{r7}
200006f0:	b083      	sub	sp, #12
200006f2:	af00      	add	r7, sp, #0
200006f4:	6078      	str	r0, [r7, #4]
      { return _M_ptr; }
200006f6:	687b      	ldr	r3, [r7, #4]
200006f8:	681b      	ldr	r3, [r3, #0]
200006fa:	4618      	mov	r0, r3
200006fc:	370c      	adds	r7, #12
200006fe:	46bd      	mov	sp, r7
20000700:	f85d 7b04 	ldr.w	r7, [sp], #4
20000704:	4770      	bx	lr

20000706 <_ZNSt10shared_ptrI9IGUIModelEC1IvEERKS_IT_EPS0_>:
	shared_ptr(const shared_ptr<_Yp>& __r, element_type* __p) noexcept
20000706:	b580      	push	{r7, lr}
20000708:	b084      	sub	sp, #16
2000070a:	af00      	add	r7, sp, #0
2000070c:	60f8      	str	r0, [r7, #12]
2000070e:	60b9      	str	r1, [r7, #8]
20000710:	607a      	str	r2, [r7, #4]
	: __shared_ptr<_Tp>(__r, __p) { }
20000712:	68fb      	ldr	r3, [r7, #12]
20000714:	68b9      	ldr	r1, [r7, #8]
20000716:	687a      	ldr	r2, [r7, #4]
20000718:	4618      	mov	r0, r3
2000071a:	f000 f859 	bl	200007d0 <_ZNSt12__shared_ptrI9IGUIModelLN9__gnu_cxx12_Lock_policyE0EEC1IvEERKS_IT_LS2_0EEPS0_>
2000071e:	68fb      	ldr	r3, [r7, #12]
20000720:	4618      	mov	r0, r3
20000722:	3710      	adds	r7, #16
20000724:	46bd      	mov	sp, r7
20000726:	bd80      	pop	{r7, pc}

20000728 <_ZNKSt19__shared_ptr_accessI9IGUIModelLN9__gnu_cxx12_Lock_policyE0ELb0ELb0EE6_M_getEv>:
      _M_get() const noexcept
20000728:	b580      	push	{r7, lr}
2000072a:	b082      	sub	sp, #8
2000072c:	af00      	add	r7, sp, #0
2000072e:	6078      	str	r0, [r7, #4]
      { return static_cast<const __shared_ptr<_Tp, _Lp>*>(this)->get(); }
20000730:	6878      	ldr	r0, [r7, #4]
20000732:	f000 f863 	bl	200007fc <_ZNKSt12__shared_ptrI9IGUIModelLN9__gnu_cxx12_Lock_policyE0EE3getEv>
20000736:	4603      	mov	r3, r0
20000738:	4618      	mov	r0, r3
2000073a:	3708      	adds	r7, #8
2000073c:	46bd      	mov	sp, r7
2000073e:	bd80      	pop	{r7, pc}

20000740 <_ZSt7forwardIN8G2SEvent4StopEEOT_RNSt16remove_referenceIS2_E4typeE>:
   *  This function is used to implement "perfect forwarding".
   */
  template<typename _Tp>
    _GLIBCXX_NODISCARD
    constexpr _Tp&&
    forward(typename std::remove_reference<_Tp>::type& __t) noexcept
20000740:	b480      	push	{r7}
20000742:	b083      	sub	sp, #12
20000744:	af00      	add	r7, sp, #0
20000746:	6078      	str	r0, [r7, #4]
    { return static_cast<_Tp&&>(__t); }
20000748:	687b      	ldr	r3, [r7, #4]
2000074a:	4618      	mov	r0, r3
2000074c:	370c      	adds	r7, #12
2000074e:	46bd      	mov	sp, r7
20000750:	f85d 7b04 	ldr.w	r7, [sp], #4
20000754:	4770      	bx	lr

20000756 <_ZNSt7variantIJN8G2SEvent3RunENS0_4StopEEEC1ILj1EJS2_ES2_vEESt16in_place_index_tIXT_EEDpOT0_>:

      template<size_t _Np, typename... _Args,
	       typename _Tp = __to_type<_Np>,
	       typename = enable_if_t<is_constructible_v<_Tp, _Args...>>>
	constexpr explicit
	variant(in_place_index_t<_Np>, _Args&&... __args)
20000756:	b5f0      	push	{r4, r5, r6, r7, lr}
20000758:	b085      	sub	sp, #20
2000075a:	af00      	add	r7, sp, #0
2000075c:	60f8      	str	r0, [r7, #12]
2000075e:	7239      	strb	r1, [r7, #8]
20000760:	607a      	str	r2, [r7, #4]
	: _Base(in_place_index<_Np>, std::forward<_Args>(__args)...),
	_Default_ctor_enabler(_Enable_default_constructor_tag{})
20000762:	68fc      	ldr	r4, [r7, #12]
20000764:	6878      	ldr	r0, [r7, #4]
20000766:	f7ff ffeb 	bl	20000740 <_ZSt7forwardIN8G2SEvent4StopEEOT_RNSt16remove_referenceIS2_E4typeE>
2000076a:	4603      	mov	r3, r0
2000076c:	461a      	mov	r2, r3
2000076e:	4631      	mov	r1, r6
20000770:	4620      	mov	r0, r4
20000772:	f000 f893 	bl	2000089c <_ZNSt8__detail9__variant13_Variant_baseIJN8G2SEvent3RunENS2_4StopEEEC1ILj1EJS4_EEESt16in_place_index_tIXT_EEDpOT0_>
20000776:	4629      	mov	r1, r5
20000778:	68f8      	ldr	r0, [r7, #12]
2000077a:	f000 f8a4 	bl	200008c6 <_ZNSt27_Enable_default_constructorILb1ESt7variantIJN8G2SEvent3RunENS1_4StopEEEEC1ESt31_Enable_default_constructor_tag>
	{ }
2000077e:	68fb      	ldr	r3, [r7, #12]
20000780:	4618      	mov	r0, r3
20000782:	3714      	adds	r7, #20
20000784:	46bd      	mov	sp, r7
20000786:	bdf0      	pop	{r4, r5, r6, r7, pc}

20000788 <_ZSt7forwardIN8G2SEvent3RunEEOT_RNSt16remove_referenceIS2_E4typeE>:
    forward(typename std::remove_reference<_Tp>::type& __t) noexcept
20000788:	b480      	push	{r7}
2000078a:	b083      	sub	sp, #12
2000078c:	af00      	add	r7, sp, #0
2000078e:	6078      	str	r0, [r7, #4]
    { return static_cast<_Tp&&>(__t); }
20000790:	687b      	ldr	r3, [r7, #4]
20000792:	4618      	mov	r0, r3
20000794:	370c      	adds	r7, #12
20000796:	46bd      	mov	sp, r7
20000798:	f85d 7b04 	ldr.w	r7, [sp], #4
2000079c:	4770      	bx	lr

2000079e <_ZNSt7variantIJN8G2SEvent3RunENS0_4StopEEEC1ILj0EJS1_ES1_vEESt16in_place_index_tIXT_EEDpOT0_>:
	variant(in_place_index_t<_Np>, _Args&&... __args)
2000079e:	b5f0      	push	{r4, r5, r6, r7, lr}
200007a0:	b085      	sub	sp, #20
200007a2:	af00      	add	r7, sp, #0
200007a4:	60f8      	str	r0, [r7, #12]
200007a6:	7239      	strb	r1, [r7, #8]
200007a8:	607a      	str	r2, [r7, #4]
	_Default_ctor_enabler(_Enable_default_constructor_tag{})
200007aa:	68fc      	ldr	r4, [r7, #12]
200007ac:	6878      	ldr	r0, [r7, #4]
200007ae:	f7ff ffeb 	bl	20000788 <_ZSt7forwardIN8G2SEvent3RunEEOT_RNSt16remove_referenceIS2_E4typeE>
200007b2:	4603      	mov	r3, r0
200007b4:	461a      	mov	r2, r3
200007b6:	4631      	mov	r1, r6
200007b8:	4620      	mov	r0, r4
200007ba:	f000 f8d4 	bl	20000966 <_ZNSt8__detail9__variant13_Variant_baseIJN8G2SEvent3RunENS2_4StopEEEC1ILj0EJS3_EEESt16in_place_index_tIXT_EEDpOT0_>
200007be:	4629      	mov	r1, r5
200007c0:	68f8      	ldr	r0, [r7, #12]
200007c2:	f000 f880 	bl	200008c6 <_ZNSt27_Enable_default_constructorILb1ESt7variantIJN8G2SEvent3RunENS1_4StopEEEEC1ESt31_Enable_default_constructor_tag>
	{ }
200007c6:	68fb      	ldr	r3, [r7, #12]
200007c8:	4618      	mov	r0, r3
200007ca:	3714      	adds	r7, #20
200007cc:	46bd      	mov	sp, r7
200007ce:	bdf0      	pop	{r4, r5, r6, r7, pc}

200007d0 <_ZNSt12__shared_ptrI9IGUIModelLN9__gnu_cxx12_Lock_policyE0EEC1IvEERKS_IT_LS2_0EEPS0_>:
	__shared_ptr(const __shared_ptr<_Yp, _Lp>& __r,
200007d0:	b580      	push	{r7, lr}
200007d2:	b084      	sub	sp, #16
200007d4:	af00      	add	r7, sp, #0
200007d6:	60f8      	str	r0, [r7, #12]
200007d8:	60b9      	str	r1, [r7, #8]
200007da:	607a      	str	r2, [r7, #4]
	: _M_ptr(__p), _M_refcount(__r._M_refcount) // never throws
200007dc:	68fb      	ldr	r3, [r7, #12]
200007de:	687a      	ldr	r2, [r7, #4]
200007e0:	601a      	str	r2, [r3, #0]
200007e2:	68fb      	ldr	r3, [r7, #12]
200007e4:	1d1a      	adds	r2, r3, #4
200007e6:	68bb      	ldr	r3, [r7, #8]
200007e8:	3304      	adds	r3, #4
200007ea:	4619      	mov	r1, r3
200007ec:	4610      	mov	r0, r2
200007ee:	f000 f8cf 	bl	20000990 <_ZNSt14__shared_countILN9__gnu_cxx12_Lock_policyE0EEC1ERKS2_>
	{ }
200007f2:	68fb      	ldr	r3, [r7, #12]
200007f4:	4618      	mov	r0, r3
200007f6:	3710      	adds	r7, #16
200007f8:	46bd      	mov	sp, r7
200007fa:	bd80      	pop	{r7, pc}

200007fc <_ZNKSt12__shared_ptrI9IGUIModelLN9__gnu_cxx12_Lock_policyE0EE3getEv>:
      get() const noexcept
200007fc:	b480      	push	{r7}
200007fe:	b083      	sub	sp, #12
20000800:	af00      	add	r7, sp, #0
20000802:	6078      	str	r0, [r7, #4]
      { return _M_ptr; }
20000804:	687b      	ldr	r3, [r7, #4]
20000806:	681b      	ldr	r3, [r3, #0]
20000808:	4618      	mov	r0, r3
2000080a:	370c      	adds	r7, #12
2000080c:	46bd      	mov	sp, r7
2000080e:	f85d 7b04 	ldr.w	r7, [sp], #4
20000812:	4770      	bx	lr

20000814 <_ZNSt8__detail9__variant15_Copy_ctor_baseILb1EJN8G2SEvent3RunENS2_4StopEEECI1NS0_16_Variant_storageILb1EJS3_S4_EEEILj1EJS4_EEESt16in_place_index_tIXT_EEDpOT0_>:
      using _Base::_Base;
20000814:	b590      	push	{r4, r7, lr}
20000816:	b085      	sub	sp, #20
20000818:	af00      	add	r7, sp, #0
2000081a:	60f8      	str	r0, [r7, #12]
2000081c:	7239      	strb	r1, [r7, #8]
2000081e:	607a      	str	r2, [r7, #4]
20000820:	68fb      	ldr	r3, [r7, #12]
20000822:	687a      	ldr	r2, [r7, #4]
20000824:	4621      	mov	r1, r4
20000826:	4618      	mov	r0, r3
20000828:	f000 f8c9 	bl	200009be <_ZNSt8__detail9__variant16_Variant_storageILb1EJN8G2SEvent3RunENS2_4StopEEEC1ILj1EJS4_EEESt16in_place_index_tIXT_EEDpOT0_>
2000082c:	68fb      	ldr	r3, [r7, #12]
2000082e:	4618      	mov	r0, r3
20000830:	3714      	adds	r7, #20
20000832:	46bd      	mov	sp, r7
20000834:	bd90      	pop	{r4, r7, pc}

20000836 <_ZNSt8__detail9__variant15_Move_ctor_baseILb1EJN8G2SEvent3RunENS2_4StopEEECI1NS0_16_Variant_storageILb1EJS3_S4_EEEILj1EJS4_EEESt16in_place_index_tIXT_EEDpOT0_>:
      using _Base::_Base;
20000836:	b590      	push	{r4, r7, lr}
20000838:	b085      	sub	sp, #20
2000083a:	af00      	add	r7, sp, #0
2000083c:	60f8      	str	r0, [r7, #12]
2000083e:	7239      	strb	r1, [r7, #8]
20000840:	607a      	str	r2, [r7, #4]
20000842:	68fb      	ldr	r3, [r7, #12]
20000844:	687a      	ldr	r2, [r7, #4]
20000846:	4621      	mov	r1, r4
20000848:	4618      	mov	r0, r3
2000084a:	f7ff ffe3 	bl	20000814 <_ZNSt8__detail9__variant15_Copy_ctor_baseILb1EJN8G2SEvent3RunENS2_4StopEEECI1NS0_16_Variant_storageILb1EJS3_S4_EEEILj1EJS4_EEESt16in_place_index_tIXT_EEDpOT0_>
2000084e:	68fb      	ldr	r3, [r7, #12]
20000850:	4618      	mov	r0, r3
20000852:	3714      	adds	r7, #20
20000854:	46bd      	mov	sp, r7
20000856:	bd90      	pop	{r4, r7, pc}

20000858 <_ZNSt8__detail9__variant17_Copy_assign_baseILb1EJN8G2SEvent3RunENS2_4StopEEECI1NS0_16_Variant_storageILb1EJS3_S4_EEEILj1EJS4_EEESt16in_place_index_tIXT_EEDpOT0_>:
      using _Base::_Base;
20000858:	b590      	push	{r4, r7, lr}
2000085a:	b085      	sub	sp, #20
2000085c:	af00      	add	r7, sp, #0
2000085e:	60f8      	str	r0, [r7, #12]
20000860:	7239      	strb	r1, [r7, #8]
20000862:	607a      	str	r2, [r7, #4]
20000864:	68fb      	ldr	r3, [r7, #12]
20000866:	687a      	ldr	r2, [r7, #4]
20000868:	4621      	mov	r1, r4
2000086a:	4618      	mov	r0, r3
2000086c:	f7ff ffe3 	bl	20000836 <_ZNSt8__detail9__variant15_Move_ctor_baseILb1EJN8G2SEvent3RunENS2_4StopEEECI1NS0_16_Variant_storageILb1EJS3_S4_EEEILj1EJS4_EEESt16in_place_index_tIXT_EEDpOT0_>
20000870:	68fb      	ldr	r3, [r7, #12]
20000872:	4618      	mov	r0, r3
20000874:	3714      	adds	r7, #20
20000876:	46bd      	mov	sp, r7
20000878:	bd90      	pop	{r4, r7, pc}

2000087a <_ZNSt8__detail9__variant17_Move_assign_baseILb1EJN8G2SEvent3RunENS2_4StopEEECI1NS0_16_Variant_storageILb1EJS3_S4_EEEILj1EJS4_EEESt16in_place_index_tIXT_EEDpOT0_>:
      using _Base::_Base;
2000087a:	b590      	push	{r4, r7, lr}
2000087c:	b085      	sub	sp, #20
2000087e:	af00      	add	r7, sp, #0
20000880:	60f8      	str	r0, [r7, #12]
20000882:	7239      	strb	r1, [r7, #8]
20000884:	607a      	str	r2, [r7, #4]
20000886:	68fb      	ldr	r3, [r7, #12]
20000888:	687a      	ldr	r2, [r7, #4]
2000088a:	4621      	mov	r1, r4
2000088c:	4618      	mov	r0, r3
2000088e:	f7ff ffe3 	bl	20000858 <_ZNSt8__detail9__variant17_Copy_assign_baseILb1EJN8G2SEvent3RunENS2_4StopEEECI1NS0_16_Variant_storageILb1EJS3_S4_EEEILj1EJS4_EEESt16in_place_index_tIXT_EEDpOT0_>
20000892:	68fb      	ldr	r3, [r7, #12]
20000894:	4618      	mov	r0, r3
20000896:	3714      	adds	r7, #20
20000898:	46bd      	mov	sp, r7
2000089a:	bd90      	pop	{r4, r7, pc}

2000089c <_ZNSt8__detail9__variant13_Variant_baseIJN8G2SEvent3RunENS2_4StopEEEC1ILj1EJS4_EEESt16in_place_index_tIXT_EEDpOT0_>:
	_Variant_base(in_place_index_t<_Np> __i, _Args&&... __args)
2000089c:	b5b0      	push	{r4, r5, r7, lr}
2000089e:	b084      	sub	sp, #16
200008a0:	af00      	add	r7, sp, #0
200008a2:	60f8      	str	r0, [r7, #12]
200008a4:	7239      	strb	r1, [r7, #8]
200008a6:	607a      	str	r2, [r7, #4]
	: _Base(__i, std::forward<_Args>(__args)...)
200008a8:	68fc      	ldr	r4, [r7, #12]
200008aa:	6878      	ldr	r0, [r7, #4]
200008ac:	f7ff ff48 	bl	20000740 <_ZSt7forwardIN8G2SEvent4StopEEOT_RNSt16remove_referenceIS2_E4typeE>
200008b0:	4603      	mov	r3, r0
200008b2:	461a      	mov	r2, r3
200008b4:	4629      	mov	r1, r5
200008b6:	4620      	mov	r0, r4
200008b8:	f7ff ffdf 	bl	2000087a <_ZNSt8__detail9__variant17_Move_assign_baseILb1EJN8G2SEvent3RunENS2_4StopEEECI1NS0_16_Variant_storageILb1EJS3_S4_EEEILj1EJS4_EEESt16in_place_index_tIXT_EEDpOT0_>
	{ }
200008bc:	68fb      	ldr	r3, [r7, #12]
200008be:	4618      	mov	r0, r3
200008c0:	3710      	adds	r7, #16
200008c2:	46bd      	mov	sp, r7
200008c4:	bdb0      	pop	{r4, r5, r7, pc}

200008c6 <_ZNSt27_Enable_default_constructorILb1ESt7variantIJN8G2SEvent3RunENS1_4StopEEEEC1ESt31_Enable_default_constructor_tag>:
    _Enable_default_constructor&
    operator=(_Enable_default_constructor&&) noexcept = default;

    // Can be used in other ctors.
    constexpr explicit
    _Enable_default_constructor(_Enable_default_constructor_tag) { }
200008c6:	b480      	push	{r7}
200008c8:	b083      	sub	sp, #12
200008ca:	af00      	add	r7, sp, #0
200008cc:	6078      	str	r0, [r7, #4]
200008ce:	7039      	strb	r1, [r7, #0]
200008d0:	687b      	ldr	r3, [r7, #4]
200008d2:	4618      	mov	r0, r3
200008d4:	370c      	adds	r7, #12
200008d6:	46bd      	mov	sp, r7
200008d8:	f85d 7b04 	ldr.w	r7, [sp], #4
200008dc:	4770      	bx	lr

200008de <_ZNSt8__detail9__variant15_Copy_ctor_baseILb1EJN8G2SEvent3RunENS2_4StopEEECI1NS0_16_Variant_storageILb1EJS3_S4_EEEILj0EJS3_EEESt16in_place_index_tIXT_EEDpOT0_>:
      using _Base::_Base;
200008de:	b590      	push	{r4, r7, lr}
200008e0:	b085      	sub	sp, #20
200008e2:	af00      	add	r7, sp, #0
200008e4:	60f8      	str	r0, [r7, #12]
200008e6:	7239      	strb	r1, [r7, #8]
200008e8:	607a      	str	r2, [r7, #4]
200008ea:	68fb      	ldr	r3, [r7, #12]
200008ec:	687a      	ldr	r2, [r7, #4]
200008ee:	4621      	mov	r1, r4
200008f0:	4618      	mov	r0, r3
200008f2:	f000 f87c 	bl	200009ee <_ZNSt8__detail9__variant16_Variant_storageILb1EJN8G2SEvent3RunENS2_4StopEEEC1ILj0EJS3_EEESt16in_place_index_tIXT_EEDpOT0_>
200008f6:	68fb      	ldr	r3, [r7, #12]
200008f8:	4618      	mov	r0, r3
200008fa:	3714      	adds	r7, #20
200008fc:	46bd      	mov	sp, r7
200008fe:	bd90      	pop	{r4, r7, pc}

20000900 <_ZNSt8__detail9__variant15_Move_ctor_baseILb1EJN8G2SEvent3RunENS2_4StopEEECI1NS0_16_Variant_storageILb1EJS3_S4_EEEILj0EJS3_EEESt16in_place_index_tIXT_EEDpOT0_>:
      using _Base::_Base;
20000900:	b590      	push	{r4, r7, lr}
20000902:	b085      	sub	sp, #20
20000904:	af00      	add	r7, sp, #0
20000906:	60f8      	str	r0, [r7, #12]
20000908:	7239      	strb	r1, [r7, #8]
2000090a:	607a      	str	r2, [r7, #4]
2000090c:	68fb      	ldr	r3, [r7, #12]
2000090e:	687a      	ldr	r2, [r7, #4]
20000910:	4621      	mov	r1, r4
20000912:	4618      	mov	r0, r3
20000914:	f7ff ffe3 	bl	200008de <_ZNSt8__detail9__variant15_Copy_ctor_baseILb1EJN8G2SEvent3RunENS2_4StopEEECI1NS0_16_Variant_storageILb1EJS3_S4_EEEILj0EJS3_EEESt16in_place_index_tIXT_EEDpOT0_>
20000918:	68fb      	ldr	r3, [r7, #12]
2000091a:	4618      	mov	r0, r3
2000091c:	3714      	adds	r7, #20
2000091e:	46bd      	mov	sp, r7
20000920:	bd90      	pop	{r4, r7, pc}

20000922 <_ZNSt8__detail9__variant17_Copy_assign_baseILb1EJN8G2SEvent3RunENS2_4StopEEECI1NS0_16_Variant_storageILb1EJS3_S4_EEEILj0EJS3_EEESt16in_place_index_tIXT_EEDpOT0_>:
      using _Base::_Base;
20000922:	b590      	push	{r4, r7, lr}
20000924:	b085      	sub	sp, #20
20000926:	af00      	add	r7, sp, #0
20000928:	60f8      	str	r0, [r7, #12]
2000092a:	7239      	strb	r1, [r7, #8]
2000092c:	607a      	str	r2, [r7, #4]
2000092e:	68fb      	ldr	r3, [r7, #12]
20000930:	687a      	ldr	r2, [r7, #4]
20000932:	4621      	mov	r1, r4
20000934:	4618      	mov	r0, r3
20000936:	f7ff ffe3 	bl	20000900 <_ZNSt8__detail9__variant15_Move_ctor_baseILb1EJN8G2SEvent3RunENS2_4StopEEECI1NS0_16_Variant_storageILb1EJS3_S4_EEEILj0EJS3_EEESt16in_place_index_tIXT_EEDpOT0_>
2000093a:	68fb      	ldr	r3, [r7, #12]
2000093c:	4618      	mov	r0, r3
2000093e:	3714      	adds	r7, #20
20000940:	46bd      	mov	sp, r7
20000942:	bd90      	pop	{r4, r7, pc}

20000944 <_ZNSt8__detail9__variant17_Move_assign_baseILb1EJN8G2SEvent3RunENS2_4StopEEECI1NS0_16_Variant_storageILb1EJS3_S4_EEEILj0EJS3_EEESt16in_place_index_tIXT_EEDpOT0_>:
      using _Base::_Base;
20000944:	b590      	push	{r4, r7, lr}
20000946:	b085      	sub	sp, #20
20000948:	af00      	add	r7, sp, #0
2000094a:	60f8      	str	r0, [r7, #12]
2000094c:	7239      	strb	r1, [r7, #8]
2000094e:	607a      	str	r2, [r7, #4]
20000950:	68fb      	ldr	r3, [r7, #12]
20000952:	687a      	ldr	r2, [r7, #4]
20000954:	4621      	mov	r1, r4
20000956:	4618      	mov	r0, r3
20000958:	f7ff ffe3 	bl	20000922 <_ZNSt8__detail9__variant17_Copy_assign_baseILb1EJN8G2SEvent3RunENS2_4StopEEECI1NS0_16_Variant_storageILb1EJS3_S4_EEEILj0EJS3_EEESt16in_place_index_tIXT_EEDpOT0_>
2000095c:	68fb      	ldr	r3, [r7, #12]
2000095e:	4618      	mov	r0, r3
20000960:	3714      	adds	r7, #20
20000962:	46bd      	mov	sp, r7
20000964:	bd90      	pop	{r4, r7, pc}

20000966 <_ZNSt8__detail9__variant13_Variant_baseIJN8G2SEvent3RunENS2_4StopEEEC1ILj0EJS3_EEESt16in_place_index_tIXT_EEDpOT0_>:
	_Variant_base(in_place_index_t<_Np> __i, _Args&&... __args)
20000966:	b5b0      	push	{r4, r5, r7, lr}
20000968:	b084      	sub	sp, #16
2000096a:	af00      	add	r7, sp, #0
2000096c:	60f8      	str	r0, [r7, #12]
2000096e:	7239      	strb	r1, [r7, #8]
20000970:	607a      	str	r2, [r7, #4]
	: _Base(__i, std::forward<_Args>(__args)...)
20000972:	68fc      	ldr	r4, [r7, #12]
20000974:	6878      	ldr	r0, [r7, #4]
20000976:	f7ff ff07 	bl	20000788 <_ZSt7forwardIN8G2SEvent3RunEEOT_RNSt16remove_referenceIS2_E4typeE>
2000097a:	4603      	mov	r3, r0
2000097c:	461a      	mov	r2, r3
2000097e:	4629      	mov	r1, r5
20000980:	4620      	mov	r0, r4
20000982:	f7ff ffdf 	bl	20000944 <_ZNSt8__detail9__variant17_Move_assign_baseILb1EJN8G2SEvent3RunENS2_4StopEEECI1NS0_16_Variant_storageILb1EJS3_S4_EEEILj0EJS3_EEESt16in_place_index_tIXT_EEDpOT0_>
	{ }
20000986:	68fb      	ldr	r3, [r7, #12]
20000988:	4618      	mov	r0, r3
2000098a:	3710      	adds	r7, #16
2000098c:	46bd      	mov	sp, r7
2000098e:	bdb0      	pop	{r4, r5, r7, pc}

20000990 <_ZNSt14__shared_countILN9__gnu_cxx12_Lock_policyE0EEC1ERKS2_>:
      __shared_count(const __shared_count& __r) noexcept
20000990:	b580      	push	{r7, lr}
20000992:	b082      	sub	sp, #8
20000994:	af00      	add	r7, sp, #0
20000996:	6078      	str	r0, [r7, #4]
20000998:	6039      	str	r1, [r7, #0]
      : _M_pi(__r._M_pi)
2000099a:	683b      	ldr	r3, [r7, #0]
2000099c:	681a      	ldr	r2, [r3, #0]
2000099e:	687b      	ldr	r3, [r7, #4]
200009a0:	601a      	str	r2, [r3, #0]
	if (_M_pi != nullptr)
200009a2:	687b      	ldr	r3, [r7, #4]
200009a4:	681b      	ldr	r3, [r3, #0]
200009a6:	2b00      	cmp	r3, #0
200009a8:	d004      	beq.n	200009b4 <_ZNSt14__shared_countILN9__gnu_cxx12_Lock_policyE0EEC1ERKS2_+0x24>
	  _M_pi->_M_add_ref_copy();
200009aa:	687b      	ldr	r3, [r7, #4]
200009ac:	681b      	ldr	r3, [r3, #0]
200009ae:	4618      	mov	r0, r3
200009b0:	f7ff fb84 	bl	200000bc <_ZNSt16_Sp_counted_baseILN9__gnu_cxx12_Lock_policyE0EE15_M_add_ref_copyEv>
      }
200009b4:	687b      	ldr	r3, [r7, #4]
200009b6:	4618      	mov	r0, r3
200009b8:	3708      	adds	r7, #8
200009ba:	46bd      	mov	sp, r7
200009bc:	bd80      	pop	{r7, pc}

200009be <_ZNSt8__detail9__variant16_Variant_storageILb1EJN8G2SEvent3RunENS2_4StopEEEC1ILj1EJS4_EEESt16in_place_index_tIXT_EEDpOT0_>:
	_Variant_storage(in_place_index_t<_Np>, _Args&&... __args)
200009be:	b5b0      	push	{r4, r5, r7, lr}
200009c0:	b084      	sub	sp, #16
200009c2:	af00      	add	r7, sp, #0
200009c4:	60f8      	str	r0, [r7, #12]
200009c6:	7239      	strb	r1, [r7, #8]
200009c8:	607a      	str	r2, [r7, #4]
	: _M_u(in_place_index<_Np>, std::forward<_Args>(__args)...),
200009ca:	68fc      	ldr	r4, [r7, #12]
200009cc:	6878      	ldr	r0, [r7, #4]
200009ce:	f7ff feb7 	bl	20000740 <_ZSt7forwardIN8G2SEvent4StopEEOT_RNSt16remove_referenceIS2_E4typeE>
200009d2:	4603      	mov	r3, r0
200009d4:	461a      	mov	r2, r3
200009d6:	4629      	mov	r1, r5
200009d8:	4620      	mov	r0, r4
200009da:	f000 f820 	bl	20000a1e <_ZNSt8__detail9__variant15_Variadic_unionIJN8G2SEvent3RunENS2_4StopEEEC1ILj1EJS4_EEESt16in_place_index_tIXT_EEDpOT0_>
	_M_index{_Np}
200009de:	68fb      	ldr	r3, [r7, #12]
200009e0:	2201      	movs	r2, #1
200009e2:	705a      	strb	r2, [r3, #1]
	{ }
200009e4:	68fb      	ldr	r3, [r7, #12]
200009e6:	4618      	mov	r0, r3
200009e8:	3710      	adds	r7, #16
200009ea:	46bd      	mov	sp, r7
200009ec:	bdb0      	pop	{r4, r5, r7, pc}

200009ee <_ZNSt8__detail9__variant16_Variant_storageILb1EJN8G2SEvent3RunENS2_4StopEEEC1ILj0EJS3_EEESt16in_place_index_tIXT_EEDpOT0_>:
	_Variant_storage(in_place_index_t<_Np>, _Args&&... __args)
200009ee:	b5b0      	push	{r4, r5, r7, lr}
200009f0:	b084      	sub	sp, #16
200009f2:	af00      	add	r7, sp, #0
200009f4:	60f8      	str	r0, [r7, #12]
200009f6:	7239      	strb	r1, [r7, #8]
200009f8:	607a      	str	r2, [r7, #4]
	: _M_u(in_place_index<_Np>, std::forward<_Args>(__args)...),
200009fa:	68fc      	ldr	r4, [r7, #12]
200009fc:	6878      	ldr	r0, [r7, #4]
200009fe:	f7ff fec3 	bl	20000788 <_ZSt7forwardIN8G2SEvent3RunEEOT_RNSt16remove_referenceIS2_E4typeE>
20000a02:	4603      	mov	r3, r0
20000a04:	461a      	mov	r2, r3
20000a06:	4629      	mov	r1, r5
20000a08:	4620      	mov	r0, r4
20000a0a:	f000 f81d 	bl	20000a48 <_ZNSt8__detail9__variant15_Variadic_unionIJN8G2SEvent3RunENS2_4StopEEEC1IJS3_EEESt16in_place_index_tILj0EEDpOT_>
	_M_index{_Np}
20000a0e:	68fb      	ldr	r3, [r7, #12]
20000a10:	2200      	movs	r2, #0
20000a12:	705a      	strb	r2, [r3, #1]
	{ }
20000a14:	68fb      	ldr	r3, [r7, #12]
20000a16:	4618      	mov	r0, r3
20000a18:	3710      	adds	r7, #16
20000a1a:	46bd      	mov	sp, r7
20000a1c:	bdb0      	pop	{r4, r5, r7, pc}

20000a1e <_ZNSt8__detail9__variant15_Variadic_unionIJN8G2SEvent3RunENS2_4StopEEEC1ILj1EJS4_EEESt16in_place_index_tIXT_EEDpOT0_>:
	_Variadic_union(in_place_index_t<_Np>, _Args&&... __args)
20000a1e:	b5b0      	push	{r4, r5, r7, lr}
20000a20:	b084      	sub	sp, #16
20000a22:	af00      	add	r7, sp, #0
20000a24:	60f8      	str	r0, [r7, #12]
20000a26:	7239      	strb	r1, [r7, #8]
20000a28:	607a      	str	r2, [r7, #4]
	: _M_rest(in_place_index<_Np-1>, std::forward<_Args>(__args)...)
20000a2a:	68fc      	ldr	r4, [r7, #12]
20000a2c:	6878      	ldr	r0, [r7, #4]
20000a2e:	f7ff fe87 	bl	20000740 <_ZSt7forwardIN8G2SEvent4StopEEOT_RNSt16remove_referenceIS2_E4typeE>
20000a32:	4603      	mov	r3, r0
20000a34:	461a      	mov	r2, r3
20000a36:	4629      	mov	r1, r5
20000a38:	4620      	mov	r0, r4
20000a3a:	f000 f81a 	bl	20000a72 <_ZNSt8__detail9__variant15_Variadic_unionIJN8G2SEvent4StopEEEC1IJS3_EEESt16in_place_index_tILj0EEDpOT_>
	{ }
20000a3e:	68fb      	ldr	r3, [r7, #12]
20000a40:	4618      	mov	r0, r3
20000a42:	3710      	adds	r7, #16
20000a44:	46bd      	mov	sp, r7
20000a46:	bdb0      	pop	{r4, r5, r7, pc}

20000a48 <_ZNSt8__detail9__variant15_Variadic_unionIJN8G2SEvent3RunENS2_4StopEEEC1IJS3_EEESt16in_place_index_tILj0EEDpOT_>:
	_Variadic_union(in_place_index_t<0>, _Args&&... __args)
20000a48:	b5b0      	push	{r4, r5, r7, lr}
20000a4a:	b084      	sub	sp, #16
20000a4c:	af00      	add	r7, sp, #0
20000a4e:	60f8      	str	r0, [r7, #12]
20000a50:	7239      	strb	r1, [r7, #8]
20000a52:	607a      	str	r2, [r7, #4]
	: _M_first(in_place_index<0>, std::forward<_Args>(__args)...)
20000a54:	68fc      	ldr	r4, [r7, #12]
20000a56:	6878      	ldr	r0, [r7, #4]
20000a58:	f7ff fe96 	bl	20000788 <_ZSt7forwardIN8G2SEvent3RunEEOT_RNSt16remove_referenceIS2_E4typeE>
20000a5c:	4603      	mov	r3, r0
20000a5e:	461a      	mov	r2, r3
20000a60:	4629      	mov	r1, r5
20000a62:	4620      	mov	r0, r4
20000a64:	f000 f81a 	bl	20000a9c <_ZNSt8__detail9__variant14_UninitializedIN8G2SEvent3RunELb1EEC1IJS3_EEESt16in_place_index_tILj0EEDpOT_>
	{ }
20000a68:	68fb      	ldr	r3, [r7, #12]
20000a6a:	4618      	mov	r0, r3
20000a6c:	3710      	adds	r7, #16
20000a6e:	46bd      	mov	sp, r7
20000a70:	bdb0      	pop	{r4, r5, r7, pc}

20000a72 <_ZNSt8__detail9__variant15_Variadic_unionIJN8G2SEvent4StopEEEC1IJS3_EEESt16in_place_index_tILj0EEDpOT_>:
	_Variadic_union(in_place_index_t<0>, _Args&&... __args)
20000a72:	b5b0      	push	{r4, r5, r7, lr}
20000a74:	b084      	sub	sp, #16
20000a76:	af00      	add	r7, sp, #0
20000a78:	60f8      	str	r0, [r7, #12]
20000a7a:	7239      	strb	r1, [r7, #8]
20000a7c:	607a      	str	r2, [r7, #4]
	: _M_first(in_place_index<0>, std::forward<_Args>(__args)...)
20000a7e:	68fc      	ldr	r4, [r7, #12]
20000a80:	6878      	ldr	r0, [r7, #4]
20000a82:	f7ff fe5d 	bl	20000740 <_ZSt7forwardIN8G2SEvent4StopEEOT_RNSt16remove_referenceIS2_E4typeE>
20000a86:	4603      	mov	r3, r0
20000a88:	461a      	mov	r2, r3
20000a8a:	4629      	mov	r1, r5
20000a8c:	4620      	mov	r0, r4
20000a8e:	f000 f813 	bl	20000ab8 <_ZNSt8__detail9__variant14_UninitializedIN8G2SEvent4StopELb1EEC1IJS3_EEESt16in_place_index_tILj0EEDpOT_>
	{ }
20000a92:	68fb      	ldr	r3, [r7, #12]
20000a94:	4618      	mov	r0, r3
20000a96:	3710      	adds	r7, #16
20000a98:	46bd      	mov	sp, r7
20000a9a:	bdb0      	pop	{r4, r5, r7, pc}

20000a9c <_ZNSt8__detail9__variant14_UninitializedIN8G2SEvent3RunELb1EEC1IJS3_EEESt16in_place_index_tILj0EEDpOT_>:
	_Uninitialized(in_place_index_t<0>, _Args&&... __args)
20000a9c:	b580      	push	{r7, lr}
20000a9e:	b084      	sub	sp, #16
20000aa0:	af00      	add	r7, sp, #0
20000aa2:	60f8      	str	r0, [r7, #12]
20000aa4:	7239      	strb	r1, [r7, #8]
20000aa6:	607a      	str	r2, [r7, #4]
	: _M_storage(std::forward<_Args>(__args)...)
20000aa8:	6878      	ldr	r0, [r7, #4]
20000aaa:	f7ff fe6d 	bl	20000788 <_ZSt7forwardIN8G2SEvent3RunEEOT_RNSt16remove_referenceIS2_E4typeE>
	{ }
20000aae:	68fb      	ldr	r3, [r7, #12]
20000ab0:	4618      	mov	r0, r3
20000ab2:	3710      	adds	r7, #16
20000ab4:	46bd      	mov	sp, r7
20000ab6:	bd80      	pop	{r7, pc}

20000ab8 <_ZNSt8__detail9__variant14_UninitializedIN8G2SEvent4StopELb1EEC1IJS3_EEESt16in_place_index_tILj0EEDpOT_>:
	_Uninitialized(in_place_index_t<0>, _Args&&... __args)
20000ab8:	b580      	push	{r7, lr}
20000aba:	b084      	sub	sp, #16
20000abc:	af00      	add	r7, sp, #0
20000abe:	60f8      	str	r0, [r7, #12]
20000ac0:	7239      	strb	r1, [r7, #8]
20000ac2:	607a      	str	r2, [r7, #4]
	: _M_storage(std::forward<_Args>(__args)...)
20000ac4:	6878      	ldr	r0, [r7, #4]
20000ac6:	f7ff fe3b 	bl	20000740 <_ZSt7forwardIN8G2SEvent4StopEEOT_RNSt16remove_referenceIS2_E4typeE>
	{ }
20000aca:	68fb      	ldr	r3, [r7, #12]
20000acc:	4618      	mov	r0, r3
20000ace:	3710      	adds	r7, #16
20000ad0:	46bd      	mov	sp, r7
20000ad2:	bd80      	pop	{r7, pc}

20000ad4 <__una_init_array>:
extern void (*__fini_array_end[])       (void) __attribute__((weak));

extern "C" {
    /* Iterate over all the init routines.  */
    void __una_init_array (void)
    {
20000ad4:	b590      	push	{r4, r7, lr}
20000ad6:	b083      	sub	sp, #12
20000ad8:	af00      	add	r7, sp, #0
20000ada:	4c1b      	ldr	r4, [pc, #108]	@ (20000b48 <__una_init_array+0x74>)
20000adc:	447c      	add	r4, pc
        size_t count;
        size_t i;

        count = __preinit_array_end - __preinit_array_start;
20000ade:	4b1b      	ldr	r3, [pc, #108]	@ (20000b4c <__una_init_array+0x78>)
20000ae0:	58e3      	ldr	r3, [r4, r3]
20000ae2:	461a      	mov	r2, r3
20000ae4:	4b1a      	ldr	r3, [pc, #104]	@ (20000b50 <__una_init_array+0x7c>)
20000ae6:	58e3      	ldr	r3, [r4, r3]
20000ae8:	1ad3      	subs	r3, r2, r3
20000aea:	109b      	asrs	r3, r3, #2
20000aec:	603b      	str	r3, [r7, #0]
        for (i = 0; i < count; ++i) {
20000aee:	2300      	movs	r3, #0
20000af0:	607b      	str	r3, [r7, #4]
20000af2:	e008      	b.n	20000b06 <__una_init_array+0x32>
            __preinit_array_start[i] ();
20000af4:	4b16      	ldr	r3, [pc, #88]	@ (20000b50 <__una_init_array+0x7c>)
20000af6:	58e3      	ldr	r3, [r4, r3]
20000af8:	687a      	ldr	r2, [r7, #4]
20000afa:	f853 3022 	ldr.w	r3, [r3, r2, lsl #2]
20000afe:	4798      	blx	r3
        for (i = 0; i < count; ++i) {
20000b00:	687b      	ldr	r3, [r7, #4]
20000b02:	3301      	adds	r3, #1
20000b04:	607b      	str	r3, [r7, #4]
20000b06:	687a      	ldr	r2, [r7, #4]
20000b08:	683b      	ldr	r3, [r7, #0]
20000b0a:	429a      	cmp	r2, r3
20000b0c:	d3f2      	bcc.n	20000af4 <__una_init_array+0x20>

        #ifdef _HAVE_INIT_FINI
          _init ();
        #endif

        count = __init_array_end - __init_array_start;
20000b0e:	4b11      	ldr	r3, [pc, #68]	@ (20000b54 <__una_init_array+0x80>)
20000b10:	58e3      	ldr	r3, [r4, r3]
20000b12:	461a      	mov	r2, r3
20000b14:	4b10      	ldr	r3, [pc, #64]	@ (20000b58 <__una_init_array+0x84>)
20000b16:	58e3      	ldr	r3, [r4, r3]
20000b18:	1ad3      	subs	r3, r2, r3
20000b1a:	109b      	asrs	r3, r3, #2
20000b1c:	603b      	str	r3, [r7, #0]
        for (i = 0; i < count; ++i) {
20000b1e:	2300      	movs	r3, #0
20000b20:	607b      	str	r3, [r7, #4]
20000b22:	e008      	b.n	20000b36 <__una_init_array+0x62>
           __init_array_start[i] ();
20000b24:	4b0c      	ldr	r3, [pc, #48]	@ (20000b58 <__una_init_array+0x84>)
20000b26:	58e3      	ldr	r3, [r4, r3]
20000b28:	687a      	ldr	r2, [r7, #4]
20000b2a:	f853 3022 	ldr.w	r3, [r3, r2, lsl #2]
20000b2e:	4798      	blx	r3
        for (i = 0; i < count; ++i) {
20000b30:	687b      	ldr	r3, [r7, #4]
20000b32:	3301      	adds	r3, #1
20000b34:	607b      	str	r3, [r7, #4]
20000b36:	687a      	ldr	r2, [r7, #4]
20000b38:	683b      	ldr	r3, [r7, #0]
20000b3a:	429a      	cmp	r2, r3
20000b3c:	d3f2      	bcc.n	20000b24 <__una_init_array+0x50>
        }
   }
20000b3e:	bf00      	nop
20000b40:	bf00      	nop
20000b42:	370c      	adds	r7, #12
20000b44:	46bd      	mov	sp, r7
20000b46:	bd90      	pop	{r4, r7, pc}
20000b48:	00000498 	.word	0x00000498
20000b4c:	00000014 	.word	0x00000014
20000b50:	00000024 	.word	0x00000024
20000b54:	0000000c 	.word	0x0000000c
20000b58:	00000020 	.word	0x00000020

20000b5c <__una_fini_array>:

    void __una_fini_array(void)
    {
20000b5c:	b590      	push	{r4, r7, lr}
20000b5e:	b083      	sub	sp, #12
20000b60:	af00      	add	r7, sp, #0
20000b62:	4c0f      	ldr	r4, [pc, #60]	@ (20000ba0 <__una_fini_array+0x44>)
20000b64:	447c      	add	r4, pc
        int count = __fini_array_end - __fini_array_start;
20000b66:	4b0f      	ldr	r3, [pc, #60]	@ (20000ba4 <__una_fini_array+0x48>)
20000b68:	58e3      	ldr	r3, [r4, r3]
20000b6a:	461a      	mov	r2, r3
20000b6c:	4b0e      	ldr	r3, [pc, #56]	@ (20000ba8 <__una_fini_array+0x4c>)
20000b6e:	58e3      	ldr	r3, [r4, r3]
20000b70:	1ad3      	subs	r3, r2, r3
20000b72:	109b      	asrs	r3, r3, #2
20000b74:	603b      	str	r3, [r7, #0]
        for (int i = 0; i < count; ++i) {
20000b76:	2300      	movs	r3, #0
20000b78:	607b      	str	r3, [r7, #4]
20000b7a:	e008      	b.n	20000b8e <__una_fini_array+0x32>
            __fini_array_start[i] ();
20000b7c:	4b0a      	ldr	r3, [pc, #40]	@ (20000ba8 <__una_fini_array+0x4c>)
20000b7e:	58e3      	ldr	r3, [r4, r3]
20000b80:	687a      	ldr	r2, [r7, #4]
20000b82:	f853 3022 	ldr.w	r3, [r3, r2, lsl #2]
20000b86:	4798      	blx	r3
        for (int i = 0; i < count; ++i) {
20000b88:	687b      	ldr	r3, [r7, #4]
20000b8a:	3301      	adds	r3, #1
20000b8c:	607b      	str	r3, [r7, #4]
20000b8e:	687a      	ldr	r2, [r7, #4]
20000b90:	683b      	ldr	r3, [r7, #0]
20000b92:	429a      	cmp	r2, r3
20000b94:	dbf2      	blt.n	20000b7c <__una_fini_array+0x20>
        }
    }
20000b96:	bf00      	nop
20000b98:	bf00      	nop
20000b9a:	370c      	adds	r7, #12
20000b9c:	46bd      	mov	sp, r7
20000b9e:	bd90      	pop	{r4, r7, pc}
20000ba0:	00000410 	.word	0x00000410
20000ba4:	00000004 	.word	0x00000004
20000ba8:	00000008 	.word	0x00000008

20000bac <_free_r>:
        kernel->app.log("malloc 0x%08X %u b\n", ptr, size);
        return ptr;
    }

    void _free_r(struct _reent *r, void *ptr)
    {
20000bac:	b590      	push	{r4, r7, lr}
20000bae:	b083      	sub	sp, #12
20000bb0:	af00      	add	r7, sp, #0
20000bb2:	6078      	str	r0, [r7, #4]
20000bb4:	6039      	str	r1, [r7, #0]
20000bb6:	4c13      	ldr	r4, [pc, #76]	@ (20000c04 <_free_r+0x58>)
20000bb8:	447c      	add	r4, pc
        (void) r;
        if (ptr) {
20000bba:	683b      	ldr	r3, [r7, #0]
20000bbc:	2b00      	cmp	r3, #0
20000bbe:	d01c      	beq.n	20000bfa <_free_r+0x4e>
            kernel->app.log("free   0x%08X\n", ptr);
20000bc0:	4b11      	ldr	r3, [pc, #68]	@ (20000c08 <_free_r+0x5c>)
20000bc2:	58e3      	ldr	r3, [r4, r3]
20000bc4:	681b      	ldr	r3, [r3, #0]
20000bc6:	6a5b      	ldr	r3, [r3, #36]	@ 0x24
20000bc8:	681b      	ldr	r3, [r3, #0]
20000bca:	332c      	adds	r3, #44	@ 0x2c
20000bcc:	681b      	ldr	r3, [r3, #0]
20000bce:	4a0e      	ldr	r2, [pc, #56]	@ (20000c08 <_free_r+0x5c>)
20000bd0:	58a2      	ldr	r2, [r4, r2]
20000bd2:	6812      	ldr	r2, [r2, #0]
20000bd4:	6a50      	ldr	r0, [r2, #36]	@ 0x24
20000bd6:	683a      	ldr	r2, [r7, #0]
20000bd8:	490c      	ldr	r1, [pc, #48]	@ (20000c0c <_free_r+0x60>)
20000bda:	4479      	add	r1, pc
20000bdc:	4798      	blx	r3
            kernel->mem.free(ptr);
20000bde:	4b0a      	ldr	r3, [pc, #40]	@ (20000c08 <_free_r+0x5c>)
20000be0:	58e3      	ldr	r3, [r4, r3]
20000be2:	681b      	ldr	r3, [r3, #0]
20000be4:	699b      	ldr	r3, [r3, #24]
20000be6:	681b      	ldr	r3, [r3, #0]
20000be8:	3304      	adds	r3, #4
20000bea:	681b      	ldr	r3, [r3, #0]
20000bec:	4a06      	ldr	r2, [pc, #24]	@ (20000c08 <_free_r+0x5c>)
20000bee:	58a2      	ldr	r2, [r4, r2]
20000bf0:	6812      	ldr	r2, [r2, #0]
20000bf2:	6992      	ldr	r2, [r2, #24]
20000bf4:	6839      	ldr	r1, [r7, #0]
20000bf6:	4610      	mov	r0, r2
20000bf8:	4798      	blx	r3
        }
    }
20000bfa:	bf00      	nop
20000bfc:	370c      	adds	r7, #12
20000bfe:	46bd      	mov	sp, r7
20000c00:	bd90      	pop	{r4, r7, pc}
20000c02:	bf00      	nop
20000c04:	000003bc 	.word	0x000003bc
20000c08:	00000010 	.word	0x00000010
20000c0c:	0000022e 	.word	0x0000022e

20000c10 <__cxa_pure_virtual>:

        return new_ptr;
    }

    void __cxa_pure_virtual()
    {
20000c10:	b580      	push	{r7, lr}
20000c12:	af00      	add	r7, sp, #0
        assert(false);
20000c14:	4b04      	ldr	r3, [pc, #16]	@ (20000c28 <__cxa_pure_virtual+0x18>)
20000c16:	447b      	add	r3, pc
20000c18:	4a04      	ldr	r2, [pc, #16]	@ (20000c2c <__cxa_pure_virtual+0x1c>)
20000c1a:	447a      	add	r2, pc
20000c1c:	21b5      	movs	r1, #181	@ 0xb5
20000c1e:	4804      	ldr	r0, [pc, #16]	@ (20000c30 <__cxa_pure_virtual+0x20>)
20000c20:	4478      	add	r0, pc
20000c22:	f000 f807 	bl	20000c34 <__assert_func>
20000c26:	bf00      	nop
20000c28:	00000202 	.word	0x00000202
20000c2c:	00000206 	.word	0x00000206
20000c30:	000001bc 	.word	0x000001bc

20000c34 <__assert_func>:

    void __assert_func(const char *file,
                                  int         line,
                                  const char *func,
                                  const char *failedexpr)
    {
20000c34:	b590      	push	{r4, r7, lr}
20000c36:	b087      	sub	sp, #28
20000c38:	af02      	add	r7, sp, #8
20000c3a:	60f8      	str	r0, [r7, #12]
20000c3c:	60b9      	str	r1, [r7, #8]
20000c3e:	607a      	str	r2, [r7, #4]
20000c40:	603b      	str	r3, [r7, #0]
20000c42:	4b0d      	ldr	r3, [pc, #52]	@ (20000c78 <__assert_func+0x44>)
20000c44:	447b      	add	r3, pc
        kernel->app.log("assert: %s %d %s %s\n", file, line, func, failedexpr);
20000c46:	4a0d      	ldr	r2, [pc, #52]	@ (20000c7c <__assert_func+0x48>)
20000c48:	589a      	ldr	r2, [r3, r2]
20000c4a:	6812      	ldr	r2, [r2, #0]
20000c4c:	6a52      	ldr	r2, [r2, #36]	@ 0x24
20000c4e:	6812      	ldr	r2, [r2, #0]
20000c50:	322c      	adds	r2, #44	@ 0x2c
20000c52:	6814      	ldr	r4, [r2, #0]
20000c54:	4a09      	ldr	r2, [pc, #36]	@ (20000c7c <__assert_func+0x48>)
20000c56:	589b      	ldr	r3, [r3, r2]
20000c58:	681b      	ldr	r3, [r3, #0]
20000c5a:	6a58      	ldr	r0, [r3, #36]	@ 0x24
20000c5c:	683b      	ldr	r3, [r7, #0]
20000c5e:	9301      	str	r3, [sp, #4]
20000c60:	687b      	ldr	r3, [r7, #4]
20000c62:	9300      	str	r3, [sp, #0]
20000c64:	68bb      	ldr	r3, [r7, #8]
20000c66:	68fa      	ldr	r2, [r7, #12]
20000c68:	4905      	ldr	r1, [pc, #20]	@ (20000c80 <__assert_func+0x4c>)
20000c6a:	4479      	add	r1, pc
20000c6c:	47a0      	blx	r4
        exit(-1);
20000c6e:	f04f 30ff 	mov.w	r0, #4294967295
20000c72:	f000 f833 	bl	20000cdc <exit>
20000c76:	bf00      	nop
20000c78:	00000330 	.word	0x00000330
20000c7c:	00000010 	.word	0x00000010
20000c80:	000001d2 	.word	0x000001d2

20000c84 <exitA>:
    }

    void exitA(int status)
    {
20000c84:	b590      	push	{r4, r7, lr}
20000c86:	b083      	sub	sp, #12
20000c88:	af00      	add	r7, sp, #0
20000c8a:	6078      	str	r0, [r7, #4]
20000c8c:	4c10      	ldr	r4, [pc, #64]	@ (20000cd0 <exitA+0x4c>)
20000c8e:	447c      	add	r4, pc
        kernel->app.log("exit %d\n", status);
20000c90:	4b10      	ldr	r3, [pc, #64]	@ (20000cd4 <exitA+0x50>)
20000c92:	58e3      	ldr	r3, [r4, r3]
20000c94:	681b      	ldr	r3, [r3, #0]
20000c96:	6a5b      	ldr	r3, [r3, #36]	@ 0x24
20000c98:	681b      	ldr	r3, [r3, #0]
20000c9a:	332c      	adds	r3, #44	@ 0x2c
20000c9c:	681b      	ldr	r3, [r3, #0]
20000c9e:	4a0d      	ldr	r2, [pc, #52]	@ (20000cd4 <exitA+0x50>)
20000ca0:	58a2      	ldr	r2, [r4, r2]
20000ca2:	6812      	ldr	r2, [r2, #0]
20000ca4:	6a50      	ldr	r0, [r2, #36]	@ 0x24
20000ca6:	687a      	ldr	r2, [r7, #4]
20000ca8:	490b      	ldr	r1, [pc, #44]	@ (20000cd8 <exitA+0x54>)
20000caa:	4479      	add	r1, pc
20000cac:	4798      	blx	r3
        kernel->app.exit(status);
20000cae:	4b09      	ldr	r3, [pc, #36]	@ (20000cd4 <exitA+0x50>)
20000cb0:	58e3      	ldr	r3, [r4, r3]
20000cb2:	681b      	ldr	r3, [r3, #0]
20000cb4:	6a5b      	ldr	r3, [r3, #36]	@ 0x24
20000cb6:	681b      	ldr	r3, [r3, #0]
20000cb8:	3318      	adds	r3, #24
20000cba:	681b      	ldr	r3, [r3, #0]
20000cbc:	4a05      	ldr	r2, [pc, #20]	@ (20000cd4 <exitA+0x50>)
20000cbe:	58a2      	ldr	r2, [r4, r2]
20000cc0:	6812      	ldr	r2, [r2, #0]
20000cc2:	6a52      	ldr	r2, [r2, #36]	@ 0x24
20000cc4:	6879      	ldr	r1, [r7, #4]
20000cc6:	4610      	mov	r0, r2
20000cc8:	4798      	blx	r3

        while (1) {}    /* Make sure we hang here */
20000cca:	bf00      	nop
20000ccc:	e7fd      	b.n	20000cca <exitA+0x46>
20000cce:	bf00      	nop
20000cd0:	000002e6 	.word	0x000002e6
20000cd4:	00000010 	.word	0x00000010
20000cd8:	000001aa 	.word	0x000001aa

20000cdc <exit>:
    }

    void exit(int status)
    {
20000cdc:	b580      	push	{r7, lr}
20000cde:	b082      	sub	sp, #8
20000ce0:	af00      	add	r7, sp, #0
20000ce2:	6078      	str	r0, [r7, #4]
        __una_fini_array();
20000ce4:	f7ff ff3a 	bl	20000b5c <__una_fini_array>

        exitA(status);
20000ce8:	6878      	ldr	r0, [r7, #4]
20000cea:	f7ff ffcb 	bl	20000c84 <exitA>

        while (1) {}    /* Make sure we hang here */
20000cee:	bf00      	nop
20000cf0:	e7fd      	b.n	20000cee <exit+0x12>

20000cf2 <_ZdlPv>:
{
    return _malloc_r(nullptr, size);
}

void operator delete(void* ptr) noexcept
{
20000cf2:	b580      	push	{r7, lr}
20000cf4:	b082      	sub	sp, #8
20000cf6:	af00      	add	r7, sp, #0
20000cf8:	6078      	str	r0, [r7, #4]
    _free_r(nullptr, ptr);
20000cfa:	6879      	ldr	r1, [r7, #4]
20000cfc:	2000      	movs	r0, #0
20000cfe:	f7ff ff55 	bl	20000bac <_free_r>
}
20000d02:	bf00      	nop
20000d04:	3708      	adds	r7, #8
20000d06:	46bd      	mov	sp, r7
20000d08:	bd80      	pop	{r7, pc}

20000d0a <_ZdlPvj>:
{
    operator delete(ptr);
}

void operator delete(void* ptr, std::size_t) noexcept
{
20000d0a:	b580      	push	{r7, lr}
20000d0c:	b082      	sub	sp, #8
20000d0e:	af00      	add	r7, sp, #0
20000d10:	6078      	str	r0, [r7, #4]
20000d12:	6039      	str	r1, [r7, #0]
    operator delete(ptr);
20000d14:	6878      	ldr	r0, [r7, #4]
20000d16:	f7ff ffec 	bl	20000cf2 <_ZdlPv>
}
20000d1a:	bf00      	nop
20000d1c:	3708      	adds	r7, #8
20000d1e:	46bd      	mov	sp, r7
20000d20:	bd80      	pop	{r7, pc}
20000d22:	0000      	movs	r0, r0
20000d24:	0000      	movs	r0, r0
	...

20000d28 <__printf_veneer>:
20000d28:	f85f f000 	ldr.w	pc, [pc]	@ 20000d2c <__printf_veneer+0x4>
20000d2c:	081b2371 	.word	0x081b2371

20000d30 <__exidx_end>:
20000d30:	3a495547 	.word	0x3a495547
20000d34:	6974553a 	.word	0x6974553a
20000d38:	7974696c 	.word	0x7974696c
20000d3c:	00003123 	.word	0x00003123
20000d40:	3a3a7325 	.word	0x3a3a7325
20000d44:	6e756f63 	.word	0x6e756f63
20000d48:	20726574 	.word	0x20726574
20000d4c:	6c25203d 	.word	0x6c25203d
20000d50:	00000a64 	.word	0x00000a64
20000d54:	3a3a7325 	.word	0x3a3a7325
20000d58:	72436e6f 	.word	0x72436e6f
20000d5c:	65746165 	.word	0x65746165
20000d60:	000a2928 	.word	0x000a2928
20000d64:	3a3a7325 	.word	0x3a3a7325
20000d68:	74536e6f 	.word	0x74536e6f
20000d6c:	28747261 	.word	0x28747261
20000d70:	00000a29 	.word	0x00000a29
20000d74:	3a3a7325 	.word	0x3a3a7325
20000d78:	74536e6f 	.word	0x74536e6f
20000d7c:	2928706f 	.word	0x2928706f
20000d80:	0000000a 	.word	0x0000000a
20000d84:	3a3a7325 	.word	0x3a3a7325
20000d88:	61506e6f 	.word	0x61506e6f
20000d8c:	28657375 	.word	0x28657375
20000d90:	00000a29 	.word	0x00000a29
20000d94:	3a3a7325 	.word	0x3a3a7325
20000d98:	65446e6f 	.word	0x65446e6f
20000d9c:	6f727473 	.word	0x6f727473
20000da0:	0a292879 	.word	0x0a292879
20000da4:	00000000 	.word	0x00000000
20000da8:	69207325 	.word	0x69207325
20000dac:	74732073 	.word	0x74732073
20000db0:	65747261 	.word	0x65747261
20000db4:	00000a64 	.word	0x00000a64
20000db8:	7262735f 	.word	0x7262735f
20000dbc:	6425206b 	.word	0x6425206b
20000dc0:	0000000a 	.word	0x0000000a
20000dc4:	00000030 	.word	0x00000030
20000dc8:	64696f76 	.word	0x64696f76
20000dcc:	735f202a 	.word	0x735f202a
20000dd0:	286b7262 	.word	0x286b7262
20000dd4:	64727470 	.word	0x64727470
20000dd8:	5f666669 	.word	0x5f666669
20000ddc:	00002974 	.word	0x00002974
20000de0:	432f2e2e 	.word	0x432f2e2e
20000de4:	2f65726f 	.word	0x2f65726f
20000de8:	2f637253 	.word	0x2f637253
20000dec:	6d737973 	.word	0x6d737973
20000df0:	632e6d65 	.word	0x632e6d65
20000df4:	00007070 	.word	0x00007070
20000df8:	6c6c616d 	.word	0x6c6c616d
20000dfc:	3020636f 	.word	0x3020636f
20000e00:	38302578 	.word	0x38302578
20000e04:	75252058 	.word	0x75252058
20000e08:	000a6220 	.word	0x000a6220
20000e0c:	65657266 	.word	0x65657266
20000e10:	30202020 	.word	0x30202020
20000e14:	38302578 	.word	0x38302578
20000e18:	00000a58 	.word	0x00000a58
20000e1c:	736c6166 	.word	0x736c6166
20000e20:	00000065 	.word	0x00000065
20000e24:	64696f76 	.word	0x64696f76
20000e28:	635f5f20 	.word	0x635f5f20
20000e2c:	705f6178 	.word	0x705f6178
20000e30:	5f657275 	.word	0x5f657275
20000e34:	74726976 	.word	0x74726976
20000e38:	286c6175 	.word	0x286c6175
20000e3c:	00000029 	.word	0x00000029
20000e40:	65737361 	.word	0x65737361
20000e44:	203a7472 	.word	0x203a7472
20000e48:	25207325 	.word	0x25207325
20000e4c:	73252064 	.word	0x73252064
20000e50:	0a732520 	.word	0x0a732520
20000e54:	00000000 	.word	0x00000000
20000e58:	74697865 	.word	0x74697865
20000e5c:	0a642520 	.word	0x0a642520
20000e60:	00000000 	.word	0x00000000
20000e64:	64696f76 	.word	0x64696f76
20000e68:	64747320 	.word	0x64747320
20000e6c:	5f5f3a3a 	.word	0x5f5f3a3a
20000e70:	6f726874 	.word	0x6f726874
20000e74:	61625f77 	.word	0x61625f77
20000e78:	6c615f64 	.word	0x6c615f64
20000e7c:	28636f6c 	.word	0x28636f6c
20000e80:	00000029 	.word	0x00000029
20000e84:	64696f76 	.word	0x64696f76
20000e88:	64747320 	.word	0x64747320
20000e8c:	5f5f3a3a 	.word	0x5f5f3a3a
20000e90:	6f726874 	.word	0x6f726874
20000e94:	61625f77 	.word	0x61625f77
20000e98:	72615f64 	.word	0x72615f64
20000e9c:	5f796172 	.word	0x5f796172
20000ea0:	5f77656e 	.word	0x5f77656e
20000ea4:	676e656c 	.word	0x676e656c
20000ea8:	29286874 	.word	0x29286874
20000eac:	00000000 	.word	0x00000000
20000eb0:	64696f76 	.word	0x64696f76
20000eb4:	64747320 	.word	0x64747320
20000eb8:	5f5f3a3a 	.word	0x5f5f3a3a
20000ebc:	6f726874 	.word	0x6f726874
20000ec0:	656c5f77 	.word	0x656c5f77
20000ec4:	6874676e 	.word	0x6874676e
20000ec8:	7272655f 	.word	0x7272655f
20000ecc:	6328726f 	.word	0x6328726f
20000ed0:	74736e6f 	.word	0x74736e6f
20000ed4:	61686320 	.word	0x61686320
20000ed8:	00292a72 	.word	0x00292a72
